ncpamixer:BUILD_DATE
ncpamixer:BUILD_TYPE
ncpamixer:GIT_VERSION
ncpamixer:_IO_stdin_used
ncpamixer:_Z4helpv
ncpamixer:_Z7versionv
ncpamixer:_ZN13ConfigurationC1Ev
ncpamixer:_ZN13ConfigurationC2Ev
ncpamixer:_ZN14PaSourceOutputC1Ev
ncpamixer:_ZN14PaSourceOutputC2Ev
ncpamixer:_ZN2Pa10pa_connectEv
ncpamixer:_ZN2Pa11update_cardEPK12pa_card_info
ncpamixer:_ZN2Pa11update_sinkEPK12pa_sink_info
ncpamixer:_ZN2Pa12ctx_state_cbEP10pa_contextPv
ncpamixer:_ZN2Pa12do_reconnectEPS_
ncpamixer:_ZN2Pa12set_defaultsEPK14pa_server_info
ncpamixer:_ZN2Pa12subscribe_cbEP10pa_context26pa_subscription_event_typejPv
ncpamixer:_ZN2Pa12update_inputEPK18pa_sink_input_info
ncpamixer:_ZN2Pa13notify_updateEv
ncpamixer:_ZN2Pa13read_callbackEP9pa_streammPv
ncpamixer:_ZN2Pa13update_sourceEPK14pa_source_info
ncpamixer:_ZN2Pa14ctx_success_cbEP10pa_contextiPv
ncpamixer:_ZN2Pa14fetchPaobjectsEv
ncpamixer:_ZN2Pa15ctx_cardlist_cbEP10pa_contextPK12pa_card_infoiPv
ncpamixer:_ZN2Pa15ctx_sinklist_cbEP10pa_contextPK12pa_sink_infoiPv
ncpamixer:_ZN2Pa15deletePaobjectsEPSt3mapIjP8PaObjectSt4lessIjESaISt4pairIKjS2_EEE
ncpamixer:_ZN2Pa15remove_paobjectEPSt3mapIjP8PaObjectSt4lessIjESaISt4pairIKjS2_EEEj
ncpamixer:_ZN2Pa16ctx_inputlist_cbEP10pa_contextPK18pa_sink_input_infoiPv
ncpamixer:_ZN2Pa17clearAllPaObjectsEv
ncpamixer:_ZN2Pa17ctx_serverinfo_cbEP10pa_contextPK14pa_server_infoPv
ncpamixer:_ZN2Pa17ctx_sourcelist_cbEP10pa_contextPK14pa_source_infoiPv
ncpamixer:_ZN2Pa20set_notify_update_cbERKPFvvE
ncpamixer:_ZN2Pa20updatePeakByDeviceIdEjf
ncpamixer:_ZN2Pa20update_source_outputEPK21pa_source_output_info
ncpamixer:_ZN2Pa20wait_on_pa_operationEP12pa_operation
ncpamixer:_ZN2Pa23ctx_sourceoutputlist_cbEP10pa_contextPK21pa_source_output_infoiPv
ncpamixer:_ZN2Pa32create_monitor_stream_for_sourceEjj
ncpamixer:_ZN2Pa34create_monitor_stream_for_paobjectEP8PaObject
ncpamixer:_ZN2Pa4initEv
ncpamixer:_ZN2Pa6existsESt3mapIjP8PaObjectSt4lessIjESaISt4pairIKjS2_EEEj
ncpamixer:_ZN2Pa6exitPaEv
ncpamixer:_ZN2Pa9reconnectEv
ncpamixer:_ZN2PaC1Ev
ncpamixer:_ZN2PaC2Ev
ncpamixer:_ZN2PaD1Ev
ncpamixer:_ZN2PaD2Ev
ncpamixer:_ZN2Ui11handleInputEv
ncpamixer:_ZN2Ui15checkPulseAudioEv
ncpamixer:_ZN2Ui3runEv
ncpamixer:_ZN2Ui4drawEv
ncpamixer:_ZN2Ui4initEi
ncpamixer:_ZN2Ui4killEv
ncpamixer:_ZN2Ui9statusBarEv
ncpamixer:_ZN2Ui9switchTabEi
ncpamixer:_ZN2UiC1Ev
ncpamixer:_ZN2UiC2Ev
ncpamixer:_ZN2UiD0Ev
ncpamixer:_ZN2UiD1Ev
ncpamixer:_ZN2UiD2Ev
ncpamixer:_ZN3Tab11getBarColorEi
ncpamixer:_ZN3Tab11handleMouseEiii
ncpamixer:_ZN3Tab12getBlockSizeEv
ncpamixer:_ZN3Tab12handleEventsERKPKc
ncpamixer:_ZN3Tab14getVolumeColorEi
ncpamixer:_ZN3Tab14handleDropDownEP8PaObject
ncpamixer:_ZN3Tab17handleMouseMoreUpEiiiiii
ncpamixer:_ZN3Tab19handleMouseDropDownEP8PaObjectiiiiii
ncpamixer:_ZN3Tab19handleMouseMoreDownEiiiiii
ncpamixer:_ZN3Tab20handleMouseVolumeBarEP8PaObjectiiiiii
ncpamixer:_ZN3Tab4drawEv
ncpamixer:_ZN3Tab5fillWEiiiiPKc
ncpamixer:_ZN3Tab8dropDownEiiSt3mapIjNSt7__cxx1112basic_stringIcSt11char_traitsIcESaIcEEESt4lessIjESaISt4pairIKjS6_EEEjjj
ncpamixer:_ZN3Tab8dropDownEiiSt3mapIjP8PaObjectSt4lessIjESaISt4pairIKjS2_EEEjjj
ncpamixer:_ZN3Tab8dropDownEiiSt6vectorIP17PaObjectAttributeSaIS2_EEjjj
ncpamixer:_ZN3Tab9borderBoxEiiii
ncpamixer:_ZN3Tab9selectBoxEiiib
ncpamixer:_ZN3Tab9volumeBarEiiiiff
ncpamixer:_ZN5InputC1Ev
ncpamixer:_ZN5InputC2Ev
ncpamixer:_ZN6Config10fileExistsEPKc
ncpamixer:_ZN6Config10getHomeDirEv
ncpamixer:_ZN6Config10readConfigEv
ncpamixer:_ZN6Config13createDefaultEv
ncpamixer:_ZN6Config4initEPKc
ncpamixer:_ZN6Config6getIntEPKci
ncpamixer:_ZN6Config7getBoolEPKcb
ncpamixer:_ZN6Config8keyEmptyEPKc
ncpamixer:_ZN6Config9getStringEPKcRKNSt7__cxx1112basic_stringIcSt11char_traitsIcESaIcEEE
ncpamixer:_ZN6Config9keyExistsEPKc
ncpamixer:_ZN6ConfigC1Ev
ncpamixer:_ZN6ConfigC2Ev
ncpamixer:_ZN6OutputC1Ev
ncpamixer:_ZN6OutputC2Ev
ncpamixer:_ZN6PaCard14updateProfilesEP20pa_card_profile_infoj
ncpamixer:_ZN6PaCardC1Ev
ncpamixer:_ZN6PaCardC2Ev
ncpamixer:_ZN6PaSink11updatePortsEPP17pa_sink_port_infoj
ncpamixer:_ZN6PaSinkC1Ev
ncpamixer:_ZN6PaSinkC2Ev
ncpamixer:_ZN7PaInputC1Ev
ncpamixer:_ZN7PaInputC2Ev
ncpamixer:_ZN8Fallback4drawEv
ncpamixer:_ZN8PaObject10set_volumeEf
ncpamixer:_ZN8PaObject11getRelationEv
ncpamixer:_ZN8PaObject11set_defaultEPKc
ncpamixer:_ZN8PaObject11step_volumeEi
ncpamixer:_ZN8PaObject11toggle_muteEv
ncpamixer:_ZN8PaObject15clearAttributesEv
ncpamixer:_ZN8PaObject20set_active_attributeEPKc
ncpamixer:_ZN8PaObject4moveEj
ncpamixer:_ZN8PaObjectC1Ev
ncpamixer:_ZN8PaObjectC2Ev
ncpamixer:_ZN8PaObjectD0Ev
ncpamixer:_ZN8PaObjectD1Ev
ncpamixer:_ZN8PaObjectD2Ev
ncpamixer:_ZN8PaSource11updatePortsEPP19pa_source_port_infoj
ncpamixer:_ZN8PaSourceC1Ev
ncpamixer:_ZN8PaSourceC2Ev
ncpamixer:_ZN8PlaybackC1Ev
ncpamixer:_ZN8PlaybackC2Ev
ncpamixer:_ZN9RecordingC1Ev
ncpamixer:_ZN9RecordingC2Ev
ncpamixer:__bss_start
ncpamixer:__data_start
ncpamixer:_edata
ncpamixer:_end
ncpamixer:_start
ncpamixer:config
ncpamixer:main
ncpamixer:pulse
ncpamixer:ui
