UNKNOWN:_ZN6libime6DATrieIiE3setEPKcmi
UNKNOWN:_ZN6libime6DATrieIiE7isValidEi
UNKNOWN:_ZN6libime6DATrieIiE8isNoPathEi
UNKNOWN:_ZN6libime6DATrieIiEC1Ev
UNKNOWN:_ZN6libime6DATrieIiED1Ev
UNKNOWN:_ZNK6libime6DATrieIiE6suffixERNSt7__cxx1112basic_stringIcSt11char_traitsIcESaIcEEEmm
UNKNOWN:_ZNK6libime6DATrieIiE7foreachEPKcmSt8functionIFbimmEEm
UNKNOWN:_ZNK6libime6DATrieIiE8traverseEPKcmRm
UNKNOWN:_ZTIN5fcitx10OptionBaseE
UNKNOWN:_ZTIN5fcitx12AddonFactoryE
UNKNOWN:_ZTIN5fcitx13AddonInstanceE
UNKNOWN:_ZTIN5fcitx13CandidateListE
UNKNOWN:_ZTIN5fcitx13CandidateWordE
UNKNOWN:_ZTIN5fcitx13ConfigurationE
UNKNOWN:_ZTIN5fcitx15SubConfigOptionE
UNKNOWN:_ZTIN5fcitx19CommonCandidateListE
UNKNOWN:_ZTIN5fcitx19InputMethodEngineV3E
UNKNOWN:_ZTIN5fcitx21FcitxQtConfigUIPluginE
UNKNOWN:_ZTIN5fcitx21FcitxQtConfigUIWidgetE
UNKNOWN:_ZTIN5fcitx27InputContextPropertyFactoryE
UNKNOWN:_ZTIN5fcitx6ActionE
UNKNOWN:_ZTIN6libime12TableContextE
UNKNOWN:_ZTVN5fcitx14ExternalOptionE
UNKNOWN:_ZTVN5fcitx15SubConfigOptionE
UNKNOWN:_ZTVN5fcitx21FcitxQtConfigUIWidgetE
libFcitx5Config.so.6:_ZN5fcitx10OptionBaseC2EPNS_13ConfigurationENSt7__cxx1112basic_stringIcSt11char_traitsIcESaIcEEES8_
libFcitx5Config.so.6:_ZN5fcitx10OptionBaseD2Ev
libFcitx5Config.so.6:_ZN5fcitx11readFromIniERNS_9RawConfigEi
libFcitx5Config.so.6:_ZN5fcitx13Configuration10copyHelperERKS0_
libFcitx5Config.so.6:_ZN5fcitx13Configuration25syncDefaultValueToCurrentEv
libFcitx5Config.so.6:_ZN5fcitx13Configuration4loadERKNS_9RawConfigEb
libFcitx5Config.so.6:_ZN5fcitx13ConfigurationC2Ev
libFcitx5Config.so.6:_ZN5fcitx13ConfigurationD2Ev
libFcitx5Config.so.6:_ZN5fcitx13safeSaveAsIniERKNS_13ConfigurationENS_12StandardPath4TypeERKNSt7__cxx1112basic_stringIcSt11char_traitsIcESaIcEEE
libFcitx5Config.so.6:_ZN5fcitx13safeSaveAsIniERKNS_13ConfigurationERKNSt7__cxx1112basic_stringIcSt11char_traitsIcESaIcEEE
libFcitx5Config.so.6:_ZN5fcitx14ExternalOption10unmarshallERKNS_9RawConfigEb
libFcitx5Config.so.6:_ZN5fcitx14ExternalOption5resetEv
libFcitx5Config.so.6:_ZN5fcitx14ExternalOption8copyFromERKNS_10OptionBaseE
libFcitx5Config.so.6:_ZN5fcitx14ExternalOptionC1EPNS_13ConfigurationENSt7__cxx1112basic_stringIcSt11char_traitsIcESaIcEEES8_S8_
libFcitx5Config.so.6:_ZN5fcitx14ExternalOptionC2EPNS_13ConfigurationENSt7__cxx1112basic_stringIcSt11char_traitsIcESaIcEEES8_S8_
libFcitx5Config.so.6:_ZN5fcitx14marshallOptionERNS_9RawConfigERKNS_13ConfigurationE
libFcitx5Config.so.6:_ZN5fcitx14marshallOptionERNS_9RawConfigERKNS_3KeyE
libFcitx5Config.so.6:_ZN5fcitx14marshallOptionERNS_9RawConfigERKNSt7__cxx1112basic_stringIcSt11char_traitsIcESaIcEEE
libFcitx5Config.so.6:_ZN5fcitx14marshallOptionERNS_9RawConfigEb
libFcitx5Config.so.6:_ZN5fcitx14marshallOptionERNS_9RawConfigEi
libFcitx5Config.so.6:_ZN5fcitx16unmarshallOptionERNS_13ConfigurationERKNS_9RawConfigEb
libFcitx5Config.so.6:_ZN5fcitx16unmarshallOptionERNS_3KeyERKNS_9RawConfigEb
libFcitx5Config.so.6:_ZN5fcitx16unmarshallOptionERNSt7__cxx1112basic_stringIcSt11char_traitsIcESaIcEEERKNS_9RawConfigEb
libFcitx5Config.so.6:_ZN5fcitx16unmarshallOptionERbRKNS_9RawConfigEb
libFcitx5Config.so.6:_ZN5fcitx16unmarshallOptionERiRKNS_9RawConfigEb
libFcitx5Config.so.6:_ZN5fcitx9RawConfig3getERKNSt7__cxx1112basic_stringIcSt11char_traitsIcESaIcEEEb
libFcitx5Config.so.6:_ZN5fcitx9RawConfig8setValueENSt7__cxx1112basic_stringIcSt11char_traitsIcESaIcEEE
libFcitx5Config.so.6:_ZN5fcitx9RawConfig9removeAllEv
libFcitx5Config.so.6:_ZN5fcitx9RawConfigC1Ev
libFcitx5Config.so.6:_ZN5fcitx9RawConfigD1Ev
libFcitx5Config.so.6:_ZN5fcitx9readAsIniERNS_13ConfigurationERKNSt7__cxx1112basic_stringIcSt11char_traitsIcESaIcEEE
libFcitx5Config.so.6:_ZNK5fcitx10OptionBase15dumpDescriptionERNS_9RawConfigE
libFcitx5Config.so.6:_ZNK5fcitx13Configuration13compareHelperERKS0_
libFcitx5Config.so.6:_ZNK5fcitx14ExternalOption10typeStringB5cxx11Ev
libFcitx5Config.so.6:_ZNK5fcitx14ExternalOption17subConfigSkeletonEv
libFcitx5Config.so.6:_ZNK5fcitx14ExternalOption7equalToERKNS_10OptionBaseE
libFcitx5Config.so.6:_ZNK5fcitx14ExternalOption8marshallERNS_9RawConfigE
libFcitx5Config.so.6:_ZNK5fcitx14ExternalOption8skipSaveEv
libFcitx5Config.so.6:_ZNK5fcitx14ExternalOption9isDefaultEv
libFcitx5Config.so.6:_ZNK5fcitx15SubConfigOption15dumpDescriptionERNS_9RawConfigE
libFcitx5Config.so.6:_ZNK5fcitx9RawConfig3getERKNSt7__cxx1112basic_stringIcSt11char_traitsIcESaIcEEE
libFcitx5Config.so.6:_ZNK5fcitx9RawConfig5valueB5cxx11Ev
libFcitx5Core.so.7:_ZN5fcitx10InputPanel10setAuxDownERKNS_4TextE
libFcitx5Core.so.7:_ZN5fcitx10InputPanel10setPreeditERKNS_4TextE
libFcitx5Core.so.7:_ZN5fcitx10InputPanel16setCandidateListESt10unique_ptrINS_13CandidateListESt14default_deleteIS2_EE
libFcitx5Core.so.7:_ZN5fcitx10InputPanel16setClientPreeditERKNS_4TextE
libFcitx5Core.so.7:_ZN5fcitx10InputPanel5resetEv
libFcitx5Core.so.7:_ZN5fcitx10InputPanel8setAuxUpERKNS_4TextE
libFcitx5Core.so.7:_ZN5fcitx10StatusArea9addActionENS_11StatusGroupEPNS_6ActionE
libFcitx5Core.so.7:_ZN5fcitx12AddonFactoryD2Ev
libFcitx5Core.so.7:_ZN5fcitx12AddonManager5addonERKNSt7__cxx1112basic_stringIcSt11char_traitsIcESaIcEEEb
libFcitx5Core.so.7:_ZN5fcitx12AddonManager8instanceEv
libFcitx5Core.so.7:_ZN5fcitx12AddonManager9eventLoopEv
libFcitx5Core.so.7:_ZN5fcitx12InputContext10forwardKeyERKNS_3KeyEbi
libFcitx5Core.so.7:_ZN5fcitx12InputContext10inputPanelEv
libFcitx5Core.so.7:_ZN5fcitx12InputContext10statusAreaEv
libFcitx5Core.so.7:_ZN5fcitx12InputContext12commitStringERKNSt7__cxx1112basic_stringIcSt11char_traitsIcESaIcEEE
libFcitx5Core.so.7:_ZN5fcitx12InputContext13updatePreeditEv
libFcitx5Core.so.7:_ZN5fcitx12InputContext15surroundingTextEv
libFcitx5Core.so.7:_ZN5fcitx12InputContext19updateUserInterfaceENS_22UserInterfaceComponentEb
libFcitx5Core.so.7:_ZN5fcitx12InputContext8propertyEPKNS_27InputContextPropertyFactoryE
libFcitx5Core.so.7:_ZN5fcitx12SimpleAction11setLongTextERKNSt7__cxx1112basic_stringIcSt11char_traitsIcESaIcEEE
libFcitx5Core.so.7:_ZN5fcitx12SimpleAction12setShortTextERKNSt7__cxx1112basic_stringIcSt11char_traitsIcESaIcEEE
libFcitx5Core.so.7:_ZN5fcitx12SimpleAction7setIconERKNSt7__cxx1112basic_stringIcSt11char_traitsIcESaIcEEE
libFcitx5Core.so.7:_ZN5fcitx12SimpleActionC1Ev
libFcitx5Core.so.7:_ZN5fcitx12SimpleActionD1Ev
libFcitx5Core.so.7:_ZN5fcitx13AddonInstance16registerCallbackERKNSt7__cxx1112basic_stringIcSt11char_traitsIcESaIcEEEPNS_24AddonFunctionAdaptorBaseE
libFcitx5Core.so.7:_ZN5fcitx13AddonInstance8findCallERKNSt7__cxx1112basic_stringIcSt11char_traitsIcESaIcEEE
libFcitx5Core.so.7:_ZN5fcitx13AddonInstanceC2Ev
libFcitx5Core.so.7:_ZN5fcitx13AddonInstanceD2Ev
libFcitx5Core.so.7:_ZN5fcitx13CandidateWord7setTextENS_4TextE
libFcitx5Core.so.7:_ZN5fcitx13CandidateWordC2ENS_4TextE
libFcitx5Core.so.7:_ZN5fcitx13CandidateWordD2Ev
libFcitx5Core.so.7:_ZN5fcitx19CommonCandidateList11setPageSizeEi
libFcitx5Core.so.7:_ZN5fcitx19CommonCandidateList13setLayoutHintENS_19CandidateLayoutHintE
libFcitx5Core.so.7:_ZN5fcitx19CommonCandidateList15setSelectionKeyERKSt6vectorINS_3KeyESaIS2_EE
libFcitx5Core.so.7:_ZN5fcitx19CommonCandidateList20setGlobalCursorIndexEi
libFcitx5Core.so.7:_ZN5fcitx19CommonCandidateList28setCursorPositionAfterPagingENS_25CursorPositionAfterPagingE
libFcitx5Core.so.7:_ZN5fcitx19CommonCandidateListC1Ev
libFcitx5Core.so.7:_ZN5fcitx19InputContextManager16registerPropertyERKNSt7__cxx1112basic_stringIcSt11char_traitsIcESaIcEEEPNS_27InputContextPropertyFactoryE
libFcitx5Core.so.7:_ZN5fcitx19InputContextManager7foreachERKSt8functionIFbPNS_12InputContextEEE
libFcitx5Core.so.7:_ZN5fcitx19InputMethodEngineV316invokeActionImplERKNS_16InputMethodEntryERNS_17InvokeActionEventE
libFcitx5Core.so.7:_ZN5fcitx20UserInterfaceManager14registerActionERKNSt7__cxx1112basic_stringIcSt11char_traitsIcESaIcEEEPNS_6ActionE
libFcitx5Core.so.7:_ZN5fcitx27InputContextPropertyFactoryC2Ev
libFcitx5Core.so.7:_ZN5fcitx27InputContextPropertyFactoryD2Ev
libFcitx5Core.so.7:_ZN5fcitx4Text6appendENSt7__cxx1112basic_stringIcSt11char_traitsIcESaIcEEENS_5FlagsINS_14TextFormatFlagEEE
libFcitx5Core.so.7:_ZN5fcitx4Text9setCursorEi
libFcitx5Core.so.7:_ZN5fcitx4TextC1ENSt7__cxx1112basic_stringIcSt11char_traitsIcESaIcEEENS_5FlagsINS_14TextFormatFlagEEE
libFcitx5Core.so.7:_ZN5fcitx4TextC1EOS0_
libFcitx5Core.so.7:_ZN5fcitx4TextC1ERKS0_
libFcitx5Core.so.7:_ZN5fcitx4TextC1Ev
libFcitx5Core.so.7:_ZN5fcitx4TextD1Ev
libFcitx5Core.so.7:_ZN5fcitx4TextaSEOS0_
libFcitx5Core.so.7:_ZN5fcitx6Action6updateEPNS_12InputContextE
libFcitx5Core.so.7:_ZN5fcitx6ActionC2Ev
libFcitx5Core.so.7:_ZN5fcitx6ActionD2Ev
libFcitx5Core.so.7:_ZN5fcitx8Instance10watchEventENS_9EventTypeENS_17EventWatcherPhaseESt8functionIFvRNS_5EventEEE
libFcitx5Core.so.7:_ZN5fcitx8Instance12addonManagerEv
libFcitx5Core.so.7:_ZN5fcitx8Instance16inputMethodEntryEPNS_12InputContextE
libFcitx5Core.so.7:_ZN5fcitx8Instance17inputMethodEngineEPNS_12InputContextE
libFcitx5Core.so.7:_ZN5fcitx8Instance18inputMethodManagerEv
libFcitx5Core.so.7:_ZN5fcitx8Instance19inputContextManagerEv
libFcitx5Core.so.7:_ZN5fcitx8Instance20userInterfaceManagerEv
libFcitx5Core.so.7:_ZN5fcitx8Instance9eventLoopEv
libFcitx5Core.so.7:_ZNK5fcitx10InputPanel13candidateListEv
libFcitx5Core.so.7:_ZNK5fcitx10InputPanel13clientPreeditEv
libFcitx5Core.so.7:_ZNK5fcitx12InputContext15capabilityFlagsEv
libFcitx5Core.so.7:_ZNK5fcitx13CandidateList10toPageableEv
libFcitx5Core.so.7:_ZNK5fcitx13CandidateList12toModifiableEv
libFcitx5Core.so.7:_ZNK5fcitx13CandidateList15toCursorMovableEv
libFcitx5Core.so.7:_ZNK5fcitx13CandidateList6toBulkEv
libFcitx5Core.so.7:_ZNK5fcitx13CandidateWord4textEv
libFcitx5Core.so.7:_ZNK5fcitx15SurroundingText12selectedTextB5cxx11Ev
libFcitx5Core.so.7:_ZNK5fcitx15SurroundingText4textB5cxx11Ev
libFcitx5Core.so.7:_ZNK5fcitx15SurroundingText6cursorEv
libFcitx5Core.so.7:_ZNK5fcitx15SurroundingText7isValidEv
libFcitx5Core.so.7:_ZNK5fcitx16InputMethodEntry10uniqueNameB5cxx11Ev
libFcitx5Core.so.7:_ZNK5fcitx16InputMethodEntry12languageCodeB5cxx11Ev
libFcitx5Core.so.7:_ZNK5fcitx16InputMethodEntry5addonB5cxx11Ev
libFcitx5Core.so.7:_ZNK5fcitx16InputMethodGroup15inputMethodListEv
libFcitx5Core.so.7:_ZNK5fcitx18InputMethodManager12currentGroupEv
libFcitx5Core.so.7:_ZNK5fcitx19CommonCandidateList17globalCursorIndexEv
libFcitx5Core.so.7:_ZNK5fcitx20InputMethodGroupItem4nameB5cxx11Ev
libFcitx5Core.so.7:_ZNK5fcitx20UserInterfaceManager12lookupActionERKNSt7__cxx1112basic_stringIcSt11char_traitsIcESaIcEEE
libFcitx5Core.so.7:_ZNK5fcitx4Text10textLengthEv
libFcitx5Core.so.7:_ZNK5fcitx4Text17toStringForCommitB5cxx11Ev
libFcitx5Core.so.7:_ZNK5fcitx4Text4sizeEv
libFcitx5Core.so.7:_ZNK5fcitx4Text6cursorEv
libFcitx5Core.so.7:_ZNK5fcitx4Text8formatAtEi
libFcitx5Core.so.7:_ZNK5fcitx4Text8stringAtB5cxx11Ei
libFcitx5Core.so.7:_ZNK5fcitx4Text8toStringB5cxx11Ev
libFcitx5Qt5WidgetsAddons.so.2:_ZN5fcitx21FcitxQtConfigUIPlugin11qt_metacallEN11QMetaObject4CallEiPPv
libFcitx5Qt5WidgetsAddons.so.2:_ZN5fcitx21FcitxQtConfigUIPlugin11qt_metacastEPKc
libFcitx5Qt5WidgetsAddons.so.2:_ZN5fcitx21FcitxQtConfigUIPlugin16staticMetaObjectE
libFcitx5Qt5WidgetsAddons.so.2:_ZN5fcitx21FcitxQtConfigUIPluginC2EP7QObject
libFcitx5Qt5WidgetsAddons.so.2:_ZN5fcitx21FcitxQtConfigUIPluginD2Ev
libFcitx5Qt5WidgetsAddons.so.2:_ZN5fcitx21FcitxQtConfigUIWidget11qt_metacallEN11QMetaObject4CallEiPPv
libFcitx5Qt5WidgetsAddons.so.2:_ZN5fcitx21FcitxQtConfigUIWidget11qt_metacastEPKc
libFcitx5Qt5WidgetsAddons.so.2:_ZN5fcitx21FcitxQtConfigUIWidget12saveFinishedEv
libFcitx5Qt5WidgetsAddons.so.2:_ZN5fcitx21FcitxQtConfigUIWidget13saveSubConfigERK7QString
libFcitx5Qt5WidgetsAddons.so.2:_ZN5fcitx21FcitxQtConfigUIWidget16staticMetaObjectE
libFcitx5Qt5WidgetsAddons.so.2:_ZN5fcitx21FcitxQtConfigUIWidget7changedEb
libFcitx5Qt5WidgetsAddons.so.2:_ZN5fcitx21FcitxQtConfigUIWidgetC2EP7QWidget
libFcitx5Utils.so.2:_Z18fcitx_utf8_strnlenPKcm
libFcitx5Utils.so.2:_Z19fcitx_utf8_get_charPKcPj
libFcitx5Utils.so.2:_Z23fcitx_utf8_get_nth_charPKcj
libFcitx5Utils.so.2:_Z28fcitx_utf8_strnlen_validatedPKcm
libFcitx5Utils.so.2:_Z29fcitx_utf8_get_char_validatedPKciPi
libFcitx5Utils.so.2:_ZN5fcitx11InputBuffer4typeEj
libFcitx5Utils.so.2:_ZN5fcitx11InputBuffer5eraseEmm
libFcitx5Utils.so.2:_ZN5fcitx11InputBuffer8typeImplEPKcm
libFcitx5Utils.so.2:_ZN5fcitx11InputBuffer9setCursorEm
libFcitx5Utils.so.2:_ZN5fcitx11InputBufferC1ENS_5FlagsINS_17InputBufferOptionEEE
libFcitx5Utils.so.2:_ZN5fcitx11InputBufferD1Ev
libFcitx5Utils.so.2:_ZN5fcitx11LogCategory13fatalWrapper2ENS_8LogLevelE
libFcitx5Utils.so.2:_ZN5fcitx11LogCategoryC1EPKcNS_8LogLevelE
libFcitx5Utils.so.2:_ZN5fcitx11LogCategoryD1Ev
libFcitx5Utils.so.2:_ZN5fcitx11stringutils10startsWithESt17basic_string_viewIcSt11char_traitsIcEES4_
libFcitx5Utils.so.2:_ZN5fcitx11stringutils11trimInplaceESt17basic_string_viewIcSt11char_traitsIcEE
libFcitx5Utils.so.2:_ZN5fcitx11stringutils5splitB5cxx11ESt17basic_string_viewIcSt11char_traitsIcEES4_
libFcitx5Utils.so.2:_ZN5fcitx11stringutils7details12concatPiecesB5cxx11ESt16initializer_listISt4pairIPKcmEE
libFcitx5Utils.so.2:_ZN5fcitx11stringutils7details16concatPathPiecesB5cxx11ESt16initializer_listISt4pairIPKcmEE
libFcitx5Utils.so.2:_ZN5fcitx11stringutils8endsWithESt17basic_string_viewIcSt11char_traitsIcEES4_
libFcitx5Utils.so.2:_ZN5fcitx12StandardPath6globalEv
libFcitx5Utils.so.2:_ZN5fcitx14registerDomainEPKcS1_
libFcitx5Utils.so.2:_ZN5fcitx15EventDispatcher6attachEPNS_9EventLoopE
libFcitx5Utils.so.2:_ZN5fcitx15EventDispatcher6detachEv
libFcitx5Utils.so.2:_ZN5fcitx15EventDispatcher8scheduleESt8functionIFvvEE
libFcitx5Utils.so.2:_ZN5fcitx15EventDispatcherC1Ev
libFcitx5Utils.so.2:_ZN5fcitx15EventDispatcherD1Ev
libFcitx5Utils.so.2:_ZN5fcitx15translateDomainEPKcS1_
libFcitx5Utils.so.2:_ZN5fcitx16StandardPathFileD1Ev
libFcitx5Utils.so.2:_ZN5fcitx17ConnectableObject10findSignalERKNSt7__cxx1112basic_stringIcSt11char_traitsIcESaIcEEE
libFcitx5Utils.so.2:_ZN5fcitx17LogMessageBuilderC1ERSoNS_8LogLevelEPKci
libFcitx5Utils.so.2:_ZN5fcitx17LogMessageBuilderD1Ev
libFcitx5Utils.so.2:_ZN5fcitx18translateDomainCtxEPKcS1_S1_
libFcitx5Utils.so.2:_ZN5fcitx2fs8makePathERKNSt7__cxx1112basic_stringIcSt11char_traitsIcESaIcEEE
libFcitx5Utils.so.2:_ZN5fcitx2fs8safeReadEiPvm
libFcitx5Utils.so.2:_ZN5fcitx2fs9safeWriteEiPKvm
libFcitx5Utils.so.2:_ZN5fcitx3Key12keySymToUTF8B5cxx11E12_FcitxKeySym
libFcitx5Utils.so.2:_ZN5fcitx3Key15keySymToUnicodeE12_FcitxKeySym
libFcitx5Utils.so.2:_ZN5fcitx3KeyC1EPKc
libFcitx5Utils.so.2:_ZN5fcitx3Log15defaultCategoryEv
libFcitx5Utils.so.2:_ZN5fcitx3Log9logStreamEv
libFcitx5Utils.so.2:_ZN5fcitx3nowEi
libFcitx5Utils.so.2:_ZN5fcitx4utf810UCS4ToUTF8B5cxx11Ej
libFcitx5Utils.so.2:_ZN5fcitx6UnixFD4giveEi
libFcitx5Utils.so.2:_ZN5fcitx6UnixFDC1Ev
libFcitx5Utils.so.2:_ZN5fcitx6UnixFDD1Ev
libFcitx5Utils.so.2:_ZN5fcitx6UnixFDaSEOS0_
libFcitx5Utils.so.2:_ZN5fcitx9EventLoop10addIOEventEiNS_5FlagsINS_11IOEventFlagEEESt8functionIFbPNS_13EventSourceIOEiS3_EE
libFcitx5Utils.so.2:_ZN5fcitx9EventLoop12addTimeEventEimmSt8functionIFbPNS_15EventSourceTimeEmEE
libFcitx5Utils.so.2:_ZN5fcitx9EventLoop13addDeferEventESt8functionIFbPNS_11EventSourceEEE
libFcitx5Utils.so.2:_ZN5fcitx9EventLoop4execEv
libFcitx5Utils.so.2:_ZN5fcitx9EventLoop4exitEv
libFcitx5Utils.so.2:_ZN5fcitx9EventLoopC1Ev
libFcitx5Utils.so.2:_ZNK5fcitx11InputBuffer4sizeEv
libFcitx5Utils.so.2:_ZNK5fcitx11InputBuffer6cursorEv
libFcitx5Utils.so.2:_ZNK5fcitx11InputBuffer9userInputB5cxx11Ev
libFcitx5Utils.so.2:_ZNK5fcitx11LogCategory12fatalWrapperENS_8LogLevelE
libFcitx5Utils.so.2:_ZNK5fcitx12StandardPath13userDirectoryB5cxx11ENS0_4TypeE
libFcitx5Utils.so.2:_ZNK5fcitx12StandardPath15multiOpenFilterENS0_4TypeERKNSt7__cxx1112basic_stringIcSt11char_traitsIcESaIcEEEiSt8functionIFbS9_S9_bEE
libFcitx5Utils.so.2:_ZNK5fcitx12StandardPath4openENS0_4TypeERKNSt7__cxx1112basic_stringIcSt11char_traitsIcESaIcEEEi
libFcitx5Utils.so.2:_ZNK5fcitx12StandardPath6locateENS0_4TypeERKNSt7__cxx1112basic_stringIcSt11char_traitsIcESaIcEEE
libFcitx5Utils.so.2:_ZNK5fcitx12StandardPath7openAllENS0_4TypeERKNSt7__cxx1112basic_stringIcSt11char_traitsIcESaIcEEEi
libFcitx5Utils.so.2:_ZNK5fcitx12StandardPath8openUserENS0_4TypeERKNSt7__cxx1112basic_stringIcSt11char_traitsIcESaIcEEEi
libFcitx5Utils.so.2:_ZNK5fcitx12StandardPath8safeSaveENS0_4TypeERKNSt7__cxx1112basic_stringIcSt11char_traitsIcESaIcEEERKSt8functionIFbiEE
libFcitx5Utils.so.2:_ZNK5fcitx3Key10isModifierEv
libFcitx5Utils.so.2:_ZNK5fcitx3Key11hasModifierEv
libFcitx5Utils.so.2:_ZNK5fcitx3Key12isCursorMoveEv
libFcitx5Utils.so.2:_ZNK5fcitx3Key5checkERKS0_
libFcitx5Utils.so.2:_ZNK5fcitx3Key5isLAZEv
libFcitx5Utils.so.2:_ZNK5fcitx3Key5isUAZEv
libFcitx5Utils.so.2:_ZNK5fcitx3Key7isDigitEv
libFcitx5Utils.so.2:_ZNK5fcitx3Key8isKeyPadEv
libFcitx5Utils.so.2:_ZNK5fcitx3Key8isSimpleEv
libFcitx5Utils.so.2:_ZNK5fcitx3Key8toStringB5cxx11ENS_15KeyStringFormatE
libFcitx5Utils.so.2:_ZNK5fcitx6UnixFD2fdEv
libFcitx5Utils.so.2:_ZNK5fcitx6UnixFD7isValidEv
libFcitx5Utils.so.2:_ZNK5fcitx7Element8isParentEPKS0_
libIMECore.so.0:_ZN6libime10Prediction16setHistoryBigramEPKNS_13HistoryBigramE
libIMECore.so.0:_ZN6libime10Prediction16setLanguageModelEPKNS_13LanguageModelE
libIMECore.so.0:_ZN6libime10Prediction7predictERKSt5arrayIcLm28EERKSt6vectorINSt7__cxx1112basic_stringIcSt11char_traitsIcESaIcEEESaISB_EEm
libIMECore.so.0:_ZN6libime10Prediction7predictERKSt6vectorINSt7__cxx1112basic_stringIcSt11char_traitsIcESaIcEEESaIS7_EEm
libIMECore.so.0:_ZN6libime10PredictionC1Ev
libIMECore.so.0:_ZN6libime10PredictionD1Ev
libIMECore.so.0:_ZN6libime13HistoryBigram3addERKSt6vectorINSt7__cxx1112basic_stringIcSt11char_traitsIcESaIcEEESaIS7_EE
libIMECore.so.0:_ZN6libime13HistoryBigram5clearEv
libIMECore.so.0:_ZN6libime13HistoryBigram6forgetESt17basic_string_viewIcSt11char_traitsIcEE
libIMECore.so.0:_ZN6libime13LanguageModelC1ESt10shared_ptrIKNS_23StaticLanguageModelFileEE
libIMECore.so.0:_ZN6libime14TrieDictionary10removeFromEm
libIMECore.so.0:_ZN6libime14TrieDictionary12addEmptyDictEv
libIMECore.so.0:_ZN6libime14TrieDictionary5clearEm
libIMECore.so.0:_ZN6libime17UserLanguageModel17setUseOnlyUnigramEb
libIMECore.so.0:_ZN6libime17UserLanguageModel4loadERSi
libIMECore.so.0:_ZN6libime17UserLanguageModel4saveERSo
libIMECore.so.0:_ZN6libime17UserLanguageModel7historyEv
libIMECore.so.0:_ZN6libime17UserLanguageModelC1ESt10shared_ptrIKNS_23StaticLanguageModelFileEE
libIMECore.so.0:_ZN6libime21LanguageModelResolver28languageModelFileForLanguageERKNSt7__cxx1112basic_stringIcSt11char_traitsIcESaIcEEE
libIMECore.so.0:_ZN6libime28DefaultLanguageModelResolver8instanceEv
libIMECore.so.0:_ZNK6libime13LanguageModel17languageModelFileEv
libIMECore.so.0:_ZNK6libime14TrieDictionary8dictSizeEv
libIMECore.so.0:_ZNK6libime17LanguageModelBase15singleWordScoreESt17basic_string_viewIcSt11char_traitsIcEE
libIMECore.so.0:_ZNK6libime17UserLanguageModel7historyEv
libIMEPinyin.so.0:_ZN6libime13PinyinContext15setUseShuangpinEb
libIMEPinyin.so.0:_ZN6libime13PinyinContext20setMaxSentenceLengthEi
libIMEPinyin.so.0:_ZN6libime13PinyinContext24selectCandidatesToCursorEm
libIMEPinyin.so.0:_ZN6libime13PinyinContext5eraseEmm
libIMEPinyin.so.0:_ZN6libime13PinyinContext5learnEv
libIMEPinyin.so.0:_ZN6libime13PinyinContext6cancelEv
libIMEPinyin.so.0:_ZN6libime13PinyinContext9setCursorEm
libIMEPinyin.so.0:_ZN6libime13PinyinContextC1EPNS_9PinyinIMEE
libIMEPinyin.so.0:_ZN6libime13PinyinContextD1Ev
libIMEPinyin.so.0:_ZN6libime13PinyinEncoder17shuangpinToPinyinB5cxx11ESt17basic_string_viewIcSt11char_traitsIcEERKNS_16ShuangpinProfileE
libIMEPinyin.so.0:_ZN6libime13PinyinEncoder19encodeOneUserPinyinENSt7__cxx1112basic_stringIcSt11char_traitsIcESaIcEEE
libIMEPinyin.so.0:_ZN6libime16PinyinDictionary10removeWordEmSt17basic_string_viewIcSt11char_traitsIcEES4_
libIMEPinyin.so.0:_ZN6libime16PinyinDictionary4loadEmPKcNS_16PinyinDictFormatE
libIMEPinyin.so.0:_ZN6libime16PinyinDictionary4loadEmRSiNS_16PinyinDictFormatE
libIMEPinyin.so.0:_ZN6libime16PinyinDictionary4saveEmRSoNS_16PinyinDictFormatE
libIMEPinyin.so.0:_ZN6libime16PinyinDictionary7addWordEmSt17basic_string_viewIcSt11char_traitsIcEES4_f
libIMEPinyin.so.0:_ZN6libime16PinyinDictionary8setFlagsEmN5fcitx5FlagsINS_14PinyinDictFlagEEE
libIMEPinyin.so.0:_ZN6libime16PinyinDictionaryC1Ev
libIMEPinyin.so.0:_ZN6libime16PinyinDictionaryD1Ev
libIMEPinyin.so.0:_ZN6libime16ShuangpinProfileC1ENS_23ShuangpinBuiltinProfileE
libIMEPinyin.so.0:_ZN6libime16ShuangpinProfileC1ERSi
libIMEPinyin.so.0:_ZN6libime9PinyinIME13setFuzzyFlagsEN5fcitx5FlagsINS_15PinyinFuzzyFlagEEE
libIMEPinyin.so.0:_ZN6libime9PinyinIME14setPreeditModeENS_17PinyinPreeditModeE
libIMEPinyin.so.0:_ZN6libime9PinyinIME14setScoreFilterEff
libIMEPinyin.so.0:_ZN6libime9PinyinIME19setShuangpinProfileESt10shared_ptrIKNS_16ShuangpinProfileEE
libIMEPinyin.so.0:_ZN6libime9PinyinIME23setPartialLongWordLimitEm
libIMEPinyin.so.0:_ZN6libime9PinyinIME4dictEv
libIMEPinyin.so.0:_ZN6libime9PinyinIME5modelEv
libIMEPinyin.so.0:_ZN6libime9PinyinIME8setNBestEm
libIMEPinyin.so.0:_ZN6libime9PinyinIMEC1ESt10unique_ptrINS_16PinyinDictionaryESt14default_deleteIS2_EES1_INS_17UserLanguageModelES3_IS6_EE
libIMEPinyin.so.0:_ZNK6libime13PinyinContext10candidatesEv
libIMEPinyin.so.0:_ZNK6libime13PinyinContext12useShuangpinEv
libIMEPinyin.so.0:_ZNK6libime13PinyinContext13selectedWordsB5cxx11Ev
libIMEPinyin.so.0:_ZNK6libime13PinyinContext14selectedLengthEv
libIMEPinyin.so.0:_ZNK6libime13PinyinContext16selectedSentenceB5cxx11Ev
libIMEPinyin.so.0:_ZNK6libime13PinyinContext17pinyinAfterCursorEv
libIMEPinyin.so.0:_ZNK6libime13PinyinContext17preeditWithCursorB5cxx11Ev
libIMEPinyin.so.0:_ZNK6libime13PinyinContext18candidatesToCursorEv
libIMEPinyin.so.0:_ZNK6libime13PinyinContext18pinyinBeforeCursorEv
libIMEPinyin.so.0:_ZNK6libime13PinyinContext19candidateFullPinyinB5cxx11ERKNS_14SentenceResultE
libIMEPinyin.so.0:_ZNK6libime13PinyinContext19candidateFullPinyinB5cxx11Em
libIMEPinyin.so.0:_ZNK6libime13PinyinContext3imeEv
libIMEPinyin.so.0:_ZNK6libime13PinyinContext5stateEv
libIMEPinyin.so.0:_ZNK6libime13PinyinContext7preeditB5cxx11ENS_17PinyinPreeditModeE
libIMEPinyin.so.0:_ZNK6libime13PinyinContext8selectedEv
libIMEPinyin.so.0:_ZNK6libime16PinyinDictionary10matchWordsEPKcmSt8functionIFbSt17basic_string_viewIcSt11char_traitsIcEES7_fEE
libIMEPinyin.so.0:_ZNK6libime16ShuangpinProfile10validInputEv
libIMEPinyin.so.0:_ZNK6libime16ShuangpinProfile12validInitialEv
libIMEPinyin.so.0:_ZNK6libime17PinyinLatticeNode13encodedPinyinB5cxx11Ev
libIMEPinyin.so.0:_ZNK6libime9PinyinIME16shuangpinProfileEv
libIMETable.so.0:_ZN6libime12TableContext11mutableDictEv
libIMETable.so.0:_ZN6libime12TableContext12mutableModelEv
libIMETable.so.0:_ZN6libime12TableContext15learnAutoPhraseESt17basic_string_viewIcSt11char_traitsIcEERKSt6vectorINSt7__cxx1112basic_stringIcS3_SaIcEEESaIS9_EE
libIMETable.so.0:_ZN6libime12TableContext18setAutoSelectIndexEm
libIMETable.so.0:_ZN6libime12TableContext4codeB5cxx11ERKNS_14SentenceResultE
libIMETable.so.0:_ZN6libime12TableContext5eraseEmm
libIMETable.so.0:_ZN6libime12TableContext5learnEv
libIMETable.so.0:_ZN6libime12TableContext6isAutoERKNS_14SentenceResultE
libIMETable.so.0:_ZN6libime12TableContext6selectEm
libIMETable.so.0:_ZN6libime12TableContext8typeImplEPKcm
libIMETable.so.0:_ZN6libime12TableContext9learnLastEv
libIMETable.so.0:_ZN6libime12TableContextC2ERNS_20TableBasedDictionaryERNS_17UserLanguageModelE
libIMETable.so.0:_ZN6libime12TableContextD2Ev
libIMETable.so.0:_ZN6libime12TableOptions11setLearningEb
libIMETable.so.0:_ZN6libime12TableOptions13setAutoSelectEb
libIMETable.so.0:_ZN6libime12TableOptions13setExactMatchEb
libIMETable.so.0:_ZN6libime12TableOptions14setAutoRuleSetESt13unordered_setINSt7__cxx1112basic_stringIcSt11char_traitsIcESaIcEEESt4hashIS7_ESt8equal_toIS7_ESaIS7_EE
libIMETable.so.0:_ZN6libime12TableOptions14setMatchingKeyEj
libIMETable.so.0:_ZN6libime12TableOptions14setOrderPolicyENS_11OrderPolicyE
libIMETable.so.0:_ZN6libime12TableOptions15setLanguageCodeENSt7__cxx1112basic_stringIcSt11char_traitsIcESaIcEEE
libIMETable.so.0:_ZN6libime12TableOptions18setAutoSelectRegexENSt7__cxx1112basic_stringIcSt11char_traitsIcESaIcEEE
libIMETable.so.0:_ZN6libime12TableOptions19setAutoPhraseLengthEi
libIMETable.so.0:_ZN6libime12TableOptions19setAutoSelectLengthEi
libIMETable.so.0:_ZN6libime12TableOptions20setNoSortInputLengthEj
libIMETable.so.0:_ZN6libime12TableOptions22setSaveAutoPhraseAfterEi
libIMETable.so.0:_ZN6libime12TableOptions25setNoMatchAutoSelectRegexENSt7__cxx1112basic_stringIcSt11char_traitsIcESaIcEEE
libIMETable.so.0:_ZN6libime12TableOptions26setNoMatchAutoSelectLengthEi
libIMETable.so.0:_ZN6libime12TableOptions9setEndKeyESt3setIjSt4lessIjESaIjEE
libIMETable.so.0:_ZN6libime12TableOptionsC1ERKS0_
libIMETable.so.0:_ZN6libime12TableOptionsC1Ev
libIMETable.so.0:_ZN6libime12TableOptionsD1Ev
libIMETable.so.0:_ZN6libime20TableBasedDictionary10removeWordESt17basic_string_viewIcSt11char_traitsIcEES4_
libIMETable.so.0:_ZN6libime20TableBasedDictionary15setTableOptionsENS_12TableOptionsE
libIMETable.so.0:_ZN6libime20TableBasedDictionary4loadERSiNS_11TableFormatE
libIMETable.so.0:_ZN6libime20TableBasedDictionary6insertESt17basic_string_viewIcSt11char_traitsIcEES4_NS_10PhraseFlagEb
libIMETable.so.0:_ZN6libime20TableBasedDictionary8loadUserERSiNS_11TableFormatE
libIMETable.so.0:_ZN6libime20TableBasedDictionary8saveUserERSoNS_11TableFormatE
libIMETable.so.0:_ZN6libime20TableBasedDictionaryC1Ev
libIMETable.so.0:_ZNK6libime12TableContext10candidatesEv
libIMETable.so.0:_ZNK6libime12TableContext11currentCodeB5cxx11Ev
libIMETable.so.0:_ZNK6libime12TableContext12isValidInputEj
libIMETable.so.0:_ZNK6libime12TableContext12selectedCodeB5cxx11Em
libIMETable.so.0:_ZNK6libime12TableContext12selectedSizeEv
libIMETable.so.0:_ZNK6libime12TableContext13candidateHintB5cxx11Emb
libIMETable.so.0:_ZNK6libime12TableContext15selectedSegmentB5cxx11Em
libIMETable.so.0:_ZNK6libime12TableContext21selectedSegmentLengthEm
libIMETable.so.0:_ZNK6libime12TableContext4dictEv
libIMETable.so.0:_ZNK6libime12TableContext5modelEv
libIMETable.so.0:_ZNK6libime12TableContext8selectedEv
libIMETable.so.0:_ZNK6libime12TableOptions12languageCodeB5cxx11Ev
libIMETable.so.0:_ZNK6libime20TableBasedDictionary10wordExistsESt17basic_string_viewIcSt11char_traitsIcEES4_
libIMETable.so.0:_ZNK6libime20TableBasedDictionary12tableOptionsEv
libIMETable.so.0:_ZNK6libime20TableBasedDictionary13reverseLookupB5cxx11ESt17basic_string_viewIcSt11char_traitsIcEENS_10PhraseFlagE
libIMETable.so.0:_ZNK6libime20TableBasedDictionary15hasCustomPromptEv
libIMETable.so.0:_ZNK6libime20TableBasedDictionary16generateWithHintESt17basic_string_viewIcSt11char_traitsIcEERKSt6vectorINSt7__cxx1112basic_stringIcS3_SaIcEEESaIS9_EERS9_
libIMETable.so.0:_ZNK6libime20TableBasedDictionary4hintB5cxx11ESt17basic_string_viewIcSt11char_traitsIcEE
libQt5Core.so.5:_Z9qBadAllocv
libQt5Core.so.5:_ZN10QArrayData10deallocateEPS_mm
libQt5Core.so.5:_ZN10QArrayData11shared_nullE
libQt5Core.so.5:_ZN10QArrayData8allocateEmmm6QFlagsINS_16AllocationOptionEE
libQt5Core.so.5:_ZN10QByteArray19fromPercentEncodingERKS_c
libQt5Core.so.5:_ZN10QByteArrayC1EPKci
libQt5Core.so.5:_ZN10QTextCodec12codecForNameERK10QByteArray
libQt5Core.so.5:_ZN11QFileDevice5closeEv
libQt5Core.so.5:_ZN11QMetaObject10ConnectionD1Ev
libQt5Core.so.5:_ZN11QMetaObject12invokeMethodEP7QObjectPKcN2Qt14ConnectionTypeE22QGenericReturnArgument16QGenericArgumentS7_S7_S7_S7_S7_S7_S7_S7_S7_
libQt5Core.so.5:_ZN11QMetaObject16invokeMethodImplEP7QObjectPN9QtPrivate15QSlotObjectBaseEN2Qt14ConnectionTypeEPv
libQt5Core.so.5:_ZN11QMetaObject18connectSlotsByNameEP7QObject
libQt5Core.so.5:_ZN11QMetaObject8activateEP7QObjectPKS_iPPv
libQt5Core.so.5:_ZN11QTextStreamlsERK7QString
libQt5Core.so.5:_ZN11QTextStreamlsEc
libQt5Core.so.5:_ZN14QTemporaryFile13setAutoRemoveEb
libQt5Core.so.5:_ZN14QTemporaryFile4openE6QFlagsIN9QIODevice12OpenModeFlagEE
libQt5Core.so.5:_ZN14QTemporaryFileC1ERK7QString
libQt5Core.so.5:_ZN14QTemporaryFileD1Ev
libQt5Core.so.5:_ZN15QtSharedPointer20ExternalRefCountData9getAndRefEPK7QObject
libQt5Core.so.5:_ZN16QLoggingCategoryC1EPKc
libQt5Core.so.5:_ZN16QLoggingCategoryD1Ev
libQt5Core.so.5:_ZN18QAbstractItemModel10insertRowsEiiRK11QModelIndex
libQt5Core.so.5:_ZN18QAbstractItemModel10removeRowsEiiRK11QModelIndex
libQt5Core.so.5:_ZN18QAbstractItemModel11moveColumnsERK11QModelIndexiiS2_i
libQt5Core.so.5:_ZN18QAbstractItemModel11setItemDataERK11QModelIndexRK4QMapIi8QVariantE
libQt5Core.so.5:_ZN18QAbstractItemModel13endResetModelEv
libQt5Core.so.5:_ZN18QAbstractItemModel13insertColumnsEiiRK11QModelIndex
libQt5Core.so.5:_ZN18QAbstractItemModel13removeColumnsEiiRK11QModelIndex
libQt5Core.so.5:_ZN18QAbstractItemModel13setHeaderDataEiN2Qt11OrientationERK8QVarianti
libQt5Core.so.5:_ZN18QAbstractItemModel15beginResetModelEv
libQt5Core.so.5:_ZN18QAbstractItemModel4sortEiN2Qt9SortOrderE
libQt5Core.so.5:_ZN18QAbstractItemModel6revertEv
libQt5Core.so.5:_ZN18QAbstractItemModel6submitEv
libQt5Core.so.5:_ZN18QAbstractItemModel8moveRowsERK11QModelIndexiiS2_i
libQt5Core.so.5:_ZN18QAbstractItemModel9fetchMoreERK11QModelIndex
libQt5Core.so.5:_ZN18QAbstractListModel11qt_metacallEN11QMetaObject4CallEiPPv
libQt5Core.so.5:_ZN18QAbstractListModel11qt_metacastEPKc
libQt5Core.so.5:_ZN18QAbstractListModel12dropMimeDataEPK9QMimeDataN2Qt10DropActionEiiRK11QModelIndex
libQt5Core.so.5:_ZN18QAbstractListModel16staticMetaObjectE
libQt5Core.so.5:_ZN18QAbstractListModelC2EP7QObject
libQt5Core.so.5:_ZN18QAbstractListModelD2Ev
libQt5Core.so.5:_ZN4QDirC1ERK7QString
libQt5Core.so.5:_ZN4QDirD1Ev
libQt5Core.so.5:_ZN4QUrlC1ERK7QStringNS_11ParsingModeE
libQt5Core.so.5:_ZN4QUrlC1ERKS_
libQt5Core.so.5:_ZN4QUrlC1Ev
libQt5Core.so.5:_ZN4QUrlD1Ev
libQt5Core.so.5:_ZN4QUrlaSERKS_
libQt5Core.so.5:_ZN5QFile4openE6QFlagsIN9QIODevice12OpenModeFlagEE
libQt5Core.so.5:_ZN5QFile6existsERK7QString
libQt5Core.so.5:_ZN5QFile6removeERK7QString
libQt5Core.so.5:_ZN5QFile6removeEv
libQt5Core.so.5:_ZN5QFileC1ERK7QString
libQt5Core.so.5:_ZN5QFileD1Ev
libQt5Core.so.5:_ZN6QDebug9putStringEPK5QCharm
libQt5Core.so.5:_ZN6QDebugD1Ev
libQt5Core.so.5:_ZN7QObject10childEventEP11QChildEvent
libQt5Core.so.5:_ZN7QObject10timerEventEP11QTimerEvent
libQt5Core.so.5:_ZN7QObject11connectImplEPKS_PPvS1_S3_PN9QtPrivate15QSlotObjectBaseEN2Qt14ConnectionTypeEPKiPK11QMetaObject
libQt5Core.so.5:_ZN7QObject11customEventEP6QEvent
libQt5Core.so.5:_ZN7QObject11eventFilterEPS_P6QEvent
libQt5Core.so.5:_ZN7QObject11qt_metacallEN11QMetaObject4CallEiPPv
libQt5Core.so.5:_ZN7QObject11qt_metacastEPKc
libQt5Core.so.5:_ZN7QObject13connectNotifyERK11QMetaMethod
libQt5Core.so.5:_ZN7QObject13setObjectNameERK7QString
libQt5Core.so.5:_ZN7QObject16disconnectNotifyERK11QMetaMethod
libQt5Core.so.5:_ZN7QObject16staticMetaObjectE
libQt5Core.so.5:_ZN7QObject5eventEP6QEvent
libQt5Core.so.5:_ZN7QObject9setParentEPS_
libQt5Core.so.5:_ZN7QObjectC2EPS_
libQt5Core.so.5:_ZN7QObjectD2Ev
libQt5Core.so.5:_ZN7QString13toUtf8_helperERKS_
libQt5Core.so.5:_ZN7QString14compare_helperEPK5QChariPKciN2Qt15CaseSensitivityE
libQt5Core.so.5:_ZN7QString15fromUtf8_helperEPKci
libQt5Core.so.5:_ZN7QString16fromAscii_helperEPKci
libQt5Core.so.5:_ZN7QString18toLocal8Bit_helperEPK5QChari
libQt5Core.so.5:_ZN7QString20fromLocal8Bit_helperEPKci
libQt5Core.so.5:_ZN7QString23toLatin1_helper_inplaceERS_
libQt5Core.so.5:_ZN7QString6appendERKS_
libQt5Core.so.5:_ZN7QStringaSERKS_
libQt5Core.so.5:_ZN8QProcess16closeReadChannelENS_14ProcessChannelE
libQt5Core.so.5:_ZN8QProcess16staticMetaObjectE
libQt5Core.so.5:_ZN8QProcess4killEv
libQt5Core.so.5:_ZN8QProcess5startERK7QStringRK11QStringList6QFlagsIN9QIODevice12OpenModeFlagEE
libQt5Core.so.5:_ZN8QProcess8finishedEiNS_10ExitStatusE
libQt5Core.so.5:_ZN8QProcessC1EP7QObject
libQt5Core.so.5:_ZN8QProcessD1Ev
libQt5Core.so.5:_ZN8QVariantC1ERK7QString
libQt5Core.so.5:_ZN8QVariantC1Ei
libQt5Core.so.5:_ZN8QVariantD1Ev
libQt5Core.so.5:_ZN9QFileInfoC1ERK7QString
libQt5Core.so.5:_ZN9QFileInfoD1Ev
libQt5Core.so.5:_ZN9QIODevice16staticMetaObjectE
libQt5Core.so.5:_ZN9QIODevice5writeEPKcx
libQt5Core.so.5:_ZN9QIODevice7readAllEv
libQt5Core.so.5:_ZN9QIODevice9readyReadEv
libQt5Core.so.5:_ZN9QListData11detach_growEPii
libQt5Core.so.5:_ZN9QListData11shared_nullE
libQt5Core.so.5:_ZN9QListData6appendEv
libQt5Core.so.5:_ZN9QListData6detachEi
libQt5Core.so.5:_ZN9QListData7disposeEPNS_4DataE
libQt5Core.so.5:_ZN9QUrlQueryC1ERK4QUrl
libQt5Core.so.5:_ZN9QUrlQueryD1Ev
libQt5Core.so.5:_ZNK10QTextCodec9toUnicodeERK10QByteArray
libQt5Core.so.5:_ZNK11QObjectData17dynamicMetaObjectEv
libQt5Core.so.5:_ZNK14QMessageLogger5debugEv
libQt5Core.so.5:_ZNK14QTemporaryFile8fileNameEv
libQt5Core.so.5:_ZNK18QAbstractItemModel10headerDataEiN2Qt11OrientationEi
libQt5Core.so.5:_ZNK18QAbstractItemModel12canFetchMoreERK11QModelIndex
libQt5Core.so.5:_ZNK18QAbstractItemModel15canDropMimeDataEPK9QMimeDataN2Qt10DropActionEiiRK11QModelIndex
libQt5Core.so.5:_ZNK18QAbstractItemModel20supportedDragActionsEv
libQt5Core.so.5:_ZNK18QAbstractItemModel20supportedDropActionsEv
libQt5Core.so.5:_ZNK18QAbstractItemModel4spanERK11QModelIndex
libQt5Core.so.5:_ZNK18QAbstractItemModel5buddyERK11QModelIndex
libQt5Core.so.5:_ZNK18QAbstractItemModel5matchERK11QModelIndexiRK8QVarianti6QFlagsIN2Qt9MatchFlagEE
libQt5Core.so.5:_ZNK18QAbstractItemModel8itemDataERK11QModelIndex
libQt5Core.so.5:_ZNK18QAbstractItemModel8mimeDataERK5QListI11QModelIndexE
libQt5Core.so.5:_ZNK18QAbstractItemModel9mimeTypesEv
libQt5Core.so.5:_ZNK18QAbstractItemModel9roleNamesEv
libQt5Core.so.5:_ZNK18QAbstractListModel11columnCountERK11QModelIndex
libQt5Core.so.5:_ZNK18QAbstractListModel11hasChildrenERK11QModelIndex
libQt5Core.so.5:_ZNK18QAbstractListModel5flagsERK11QModelIndex
libQt5Core.so.5:_ZNK18QAbstractListModel5indexEiiRK11QModelIndex
libQt5Core.so.5:_ZNK18QAbstractListModel6parentERK11QModelIndex
libQt5Core.so.5:_ZNK18QAbstractListModel7siblingEiiRK11QModelIndex
libQt5Core.so.5:_ZNK4QDir8filePathERK7QString
libQt5Core.so.5:_ZNK4QUrl4hostE6QFlagsINS_25ComponentFormattingOptionEE
libQt5Core.so.5:_ZNK4QUrl4pathE6QFlagsINS_25ComponentFormattingOptionEE
libQt5Core.so.5:_ZNK4QUrl6schemeEv
libQt5Core.so.5:_ZNK7QObject10objectNameEv
libQt5Core.so.5:_ZNK7QString3argERKS_i5QChar
libQt5Core.so.5:_ZNK7QString3argExii5QChar
libQt5Core.so.5:_ZNK7QString4leftEi
libQt5Core.so.5:_ZNK7QString8endsWithERKS_N2Qt15CaseSensitivityE
libQt5Core.so.5:_ZNK8QProcess5stateEv
libQt5Core.so.5:_ZNK8QVariant6toBoolEv
libQt5Core.so.5:_ZNK8QVariant8toStringEv
libQt5Core.so.5:_ZNK9QFileInfo16absoluteFilePathEv
libQt5Core.so.5:_ZNK9QFileInfo8fileNameEv
libQt5Core.so.5:_ZNK9QFileInfo8filePathEv
libQt5Core.so.5:_ZNK9QUrlQuery14queryItemValueERK7QString6QFlagsIN4QUrl25ComponentFormattingOptionEE
libQt5Core.so.5:_ZTI18QAbstractListModel
libQt5Core.so.5:_ZTI7QObject
libQt5Core.so.5:_ZeqRK7QStringS1_
libQt5Core.so.5:qt_version_tag
libQt5Gui.so.5:_ZN5QIcon12hasThemeIconERK7QString
libQt5Gui.so.5:_ZN5QIcon7addFileERK7QStringRK5QSizeNS_4ModeENS_5StateE
libQt5Gui.so.5:_ZN5QIcon9fromThemeERK7QString
libQt5Gui.so.5:_ZN5QIconC1Ev
libQt5Gui.so.5:_ZN5QIconD1Ev
libQt5Network.so.5:_ZN13QNetworkReply16downloadProgressExx
libQt5Network.so.5:_ZN13QNetworkReply16staticMetaObjectE
libQt5Network.so.5:_ZN13QNetworkReply8finishedEv
libQt5Network.so.5:_ZN15QNetworkRequest12setRawHeaderERK10QByteArrayS2_
libQt5Network.so.5:_ZN15QNetworkRequestC1ERK4QUrl
libQt5Network.so.5:_ZN15QNetworkRequestD1Ev
libQt5Network.so.5:_ZN21QNetworkAccessManager3getERK15QNetworkRequest
libQt5Network.so.5:_ZN21QNetworkAccessManagerC1EP7QObject
libQt5Network.so.5:_ZN21QNetworkAccessManagerD1Ev
libQt5Network.so.5:_ZNK15QNetworkRequest3urlEv
libQt5WebKitWidgets.so.5:_ZN8QWebPage10chooseFileEP9QWebFrameRK7QString
libQt5WebKitWidgets.so.5:_ZN8QWebPage11qt_metacallEN11QMetaObject4CallEiPPv
libQt5WebKitWidgets.so.5:_ZN8QWebPage11qt_metacastEPKc
libQt5WebKitWidgets.so.5:_ZN8QWebPage12createPluginERK7QStringRK4QUrlRK11QStringListS8_
libQt5WebKitWidgets.so.5:_ZN8QWebPage13triggerActionENS_9WebActionEb
libQt5WebKitWidgets.so.5:_ZN8QWebPage15javaScriptAlertEP9QWebFrameRK7QString
libQt5WebKitWidgets.so.5:_ZN8QWebPage16javaScriptPromptEP9QWebFrameRK7QStringS4_PS2_
libQt5WebKitWidgets.so.5:_ZN8QWebPage17javaScriptConfirmEP9QWebFrameRK7QString
libQt5WebKitWidgets.so.5:_ZN8QWebPage24javaScriptConsoleMessageERK7QStringiS2_
libQt5WebKitWidgets.so.5:_ZN8QWebPage25shouldInterruptJavaScriptEv
libQt5WebKitWidgets.so.5:_ZN8QWebPage5eventEP6QEvent
libQt5WebKitWidgets.so.5:_ZN8QWebPage9extensionENS_9ExtensionEPKNS_15ExtensionOptionEPNS_15ExtensionReturnE
libQt5WebKitWidgets.so.5:_ZN8QWebPageC2EP7QObject
libQt5WebKitWidgets.so.5:_ZN8QWebPageD2Ev
libQt5WebKitWidgets.so.5:_ZN8QWebView11loadStartedEv
libQt5WebKitWidgets.so.5:_ZN8QWebView12loadFinishedEb
libQt5WebKitWidgets.so.5:_ZN8QWebView12loadProgressEi
libQt5WebKitWidgets.so.5:_ZN8QWebView16staticMetaObjectE
libQt5WebKitWidgets.so.5:_ZN8QWebView4loadERK4QUrl
libQt5WebKitWidgets.so.5:_ZN8QWebView6setUrlERK4QUrl
libQt5WebKitWidgets.so.5:_ZN8QWebView7setPageEP8QWebPage
libQt5WebKitWidgets.so.5:_ZN8QWebViewC1EP7QWidget
libQt5WebKitWidgets.so.5:_ZNK8QWebPage10metaObjectEv
libQt5WebKitWidgets.so.5:_ZNK8QWebPage15userAgentForUrlERK4QUrl
libQt5WebKitWidgets.so.5:_ZNK8QWebPage17supportsExtensionENS_9ExtensionE
libQt5WebKitWidgets.so.5:_ZTI8QWebPage
libQt5Widgets.so.5:_ZN10QBoxLayout9addLayoutEP7QLayouti
libQt5Widgets.so.5:_ZN10QBoxLayout9addWidgetEP7QWidgeti6QFlagsIN2Qt13AlignmentFlagEE
libQt5Widgets.so.5:_ZN11QFileDialog15getOpenFileNameEP7QWidgetRK7QStringS4_S4_PS2_6QFlagsINS_6OptionEE
libQt5Widgets.so.5:_ZN11QHBoxLayoutC1EP7QWidget
libQt5Widgets.so.5:_ZN11QMessageBox11informationEP7QWidgetRK7QStringS4_6QFlagsINS_14StandardButtonEES6_
libQt5Widgets.so.5:_ZN11QMessageBox7warningEP7QWidgetRK7QStringS4_6QFlagsINS_14StandardButtonEES6_
libQt5Widgets.so.5:_ZN11QMessageBox8questionEP7QWidgetRK7QStringS4_6QFlagsINS_14StandardButtonEES6_
libQt5Widgets.so.5:_ZN11QPushButton7setMenuEP5QMenu
libQt5Widgets.so.5:_ZN11QPushButtonC1EP7QWidget
libQt5Widgets.so.5:_ZN11QVBoxLayoutC1EP7QWidget
libQt5Widgets.so.5:_ZN11QVBoxLayoutC1Ev
libQt5Widgets.so.5:_ZN12QInputDialog7getTextEP7QWidgetRK7QStringS4_N9QLineEdit8EchoModeES4_Pb6QFlagsIN2Qt10WindowTypeEES8_INS9_15InputMethodHintEE
libQt5Widgets.so.5:_ZN12QProgressBar8setValueEi
libQt5Widgets.so.5:_ZN12QProgressBarC1EP7QWidget
libQt5Widgets.so.5:_ZN15QAbstractButton16staticMetaObjectE
libQt5Widgets.so.5:_ZN15QAbstractButton7clickedEb
libQt5Widgets.so.5:_ZN15QAbstractButton7setIconERK5QIcon
libQt5Widgets.so.5:_ZN15QAbstractButton7setTextERK7QString
libQt5Widgets.so.5:_ZN5QMenuC1EP7QWidget
libQt5Widgets.so.5:_ZN7QAction16staticMetaObjectE
libQt5Widgets.so.5:_ZN7QAction9triggeredEb
libQt5Widgets.so.5:_ZN7QActionC1ERK7QStringP7QObject
libQt5Widgets.so.5:_ZN7QDialog10closeEventEP11QCloseEvent
libQt5Widgets.so.5:_ZN7QDialog10setVisibleEb
libQt5Widgets.so.5:_ZN7QDialog11eventFilterEP7QObjectP6QEvent
libQt5Widgets.so.5:_ZN7QDialog11qt_metacallEN11QMetaObject4CallEiPPv
libQt5Widgets.so.5:_ZN7QDialog11qt_metacastEPKc
libQt5Widgets.so.5:_ZN7QDialog11resizeEventEP12QResizeEvent
libQt5Widgets.so.5:_ZN7QDialog13keyPressEventEP9QKeyEvent
libQt5Widgets.so.5:_ZN7QDialog16contextMenuEventEP17QContextMenuEvent
libQt5Widgets.so.5:_ZN7QDialog16staticMetaObjectE
libQt5Widgets.so.5:_ZN7QDialog4doneEi
libQt5Widgets.so.5:_ZN7QDialog4execEv
libQt5Widgets.so.5:_ZN7QDialog4openEv
libQt5Widgets.so.5:_ZN7QDialog6acceptEv
libQt5Widgets.so.5:_ZN7QDialog6rejectEv
libQt5Widgets.so.5:_ZN7QDialog9showEventEP10QShowEvent
libQt5Widgets.so.5:_ZN7QDialogC2EP7QWidget6QFlagsIN2Qt10WindowTypeEE
libQt5Widgets.so.5:_ZN7QDialogD2Ev
libQt5Widgets.so.5:_ZN7QWidget10closeEventEP11QCloseEvent
libQt5Widgets.so.5:_ZN7QWidget10enterEventEP6QEvent
libQt5Widgets.so.5:_ZN7QWidget10leaveEventEP6QEvent
libQt5Widgets.so.5:_ZN7QWidget10paintEventEP11QPaintEvent
libQt5Widgets.so.5:_ZN7QWidget10setEnabledEb
libQt5Widgets.so.5:_ZN7QWidget10setVisibleEb
libQt5Widgets.so.5:_ZN7QWidget10wheelEventEP11QWheelEvent
libQt5Widgets.so.5:_ZN7QWidget11actionEventEP12QActionEvent
libQt5Widgets.so.5:_ZN7QWidget11changeEventEP6QEvent
libQt5Widgets.so.5:_ZN7QWidget11nativeEventERK10QByteArrayPvPl
libQt5Widgets.so.5:_ZN7QWidget11resizeEventEP12QResizeEvent
libQt5Widgets.so.5:_ZN7QWidget11tabletEventEP12QTabletEvent
libQt5Widgets.so.5:_ZN7QWidget12focusInEventEP11QFocusEvent
libQt5Widgets.so.5:_ZN7QWidget13dragMoveEventEP14QDragMoveEvent
libQt5Widgets.so.5:_ZN7QWidget13focusOutEventEP11QFocusEvent
libQt5Widgets.so.5:_ZN7QWidget13keyPressEventEP9QKeyEvent
libQt5Widgets.so.5:_ZN7QWidget13setWindowIconERK5QIcon
libQt5Widgets.so.5:_ZN7QWidget14dragEnterEventEP15QDragEnterEvent
libQt5Widgets.so.5:_ZN7QWidget14dragLeaveEventEP15QDragLeaveEvent
libQt5Widgets.so.5:_ZN7QWidget14mouseMoveEventEP11QMouseEvent
libQt5Widgets.so.5:_ZN7QWidget14setWindowTitleERK7QString
libQt5Widgets.so.5:_ZN7QWidget15keyReleaseEventEP9QKeyEvent
libQt5Widgets.so.5:_ZN7QWidget15mousePressEventEP11QMouseEvent
libQt5Widgets.so.5:_ZN7QWidget16contextMenuEventEP17QContextMenuEvent
libQt5Widgets.so.5:_ZN7QWidget16inputMethodEventEP17QInputMethodEvent
libQt5Widgets.so.5:_ZN7QWidget17mouseReleaseEventEP11QMouseEvent
libQt5Widgets.so.5:_ZN7QWidget18focusNextPrevChildEb
libQt5Widgets.so.5:_ZN7QWidget21mouseDoubleClickEventEP11QMouseEvent
libQt5Widgets.so.5:_ZN7QWidget4hideEv
libQt5Widgets.so.5:_ZN7QWidget4showEv
libQt5Widgets.so.5:_ZN7QWidget5eventEP6QEvent
libQt5Widgets.so.5:_ZN7QWidget6resizeERK5QSize
libQt5Widgets.so.5:_ZN7QWidget9addActionEP7QAction
libQt5Widgets.so.5:_ZN7QWidget9dropEventEP10QDropEvent
libQt5Widgets.so.5:_ZN7QWidget9hideEventEP10QHideEvent
libQt5Widgets.so.5:_ZN7QWidget9moveEventEP10QMoveEvent
libQt5Widgets.so.5:_ZN7QWidget9showEventEP10QShowEvent
libQt5Widgets.so.5:_ZN7QWidgetD2Ev
libQt5Widgets.so.5:_ZN9QListViewC1EP7QWidget
libQt5Widgets.so.5:_ZNK17QAbstractItemView12currentIndexEv
libQt5Widgets.so.5:_ZNK7QDialog15minimumSizeHintEv
libQt5Widgets.so.5:_ZNK7QDialog8sizeHintEv
libQt5Widgets.so.5:_ZNK7QWidget10redirectedEP6QPoint
libQt5Widgets.so.5:_ZNK7QWidget11initPainterEP8QPainter
libQt5Widgets.so.5:_ZNK7QWidget11paintEngineEv
libQt5Widgets.so.5:_ZNK7QWidget13sharedPainterEv
libQt5Widgets.so.5:_ZNK7QWidget14heightForWidthEi
libQt5Widgets.so.5:_ZNK7QWidget15minimumSizeHintEv
libQt5Widgets.so.5:_ZNK7QWidget16inputMethodQueryEN2Qt16InputMethodQueryE
libQt5Widgets.so.5:_ZNK7QWidget17hasHeightForWidthEv
libQt5Widgets.so.5:_ZNK7QWidget6metricEN12QPaintDevice17PaintDeviceMetricE
libQt5Widgets.so.5:_ZNK7QWidget7devTypeEv
libQt5Widgets.so.5:_ZNK7QWidget8sizeHintEv
libQt5Widgets.so.5:_ZTI7QDialog
libQt5Widgets.so.5:_ZTV11QSpacerItem
libQt5Widgets.so.5:_ZThn16_NK7QWidget10redirectedEP6QPoint
libQt5Widgets.so.5:_ZThn16_NK7QWidget11initPainterEP8QPainter
libQt5Widgets.so.5:_ZThn16_NK7QWidget11paintEngineEv
libQt5Widgets.so.5:_ZThn16_NK7QWidget13sharedPainterEv
libQt5Widgets.so.5:_ZThn16_NK7QWidget6metricEN12QPaintDevice17PaintDeviceMetricE
libQt5Widgets.so.5:_ZThn16_NK7QWidget7devTypeEv
libboost_iostreams.so.1.79.0:_ZN5boost9iostreams15file_descriptor4readEPcl
libboost_iostreams.so.1.79.0:_ZN5boost9iostreams15file_descriptor4seekElSt12_Ios_Seekdir
libboost_iostreams.so.1.79.0:_ZN5boost9iostreams15file_descriptor5closeEv
libboost_iostreams.so.1.79.0:_ZN5boost9iostreams15file_descriptor5writeEPKcl
libboost_iostreams.so.1.79.0:_ZN5boost9iostreams20file_descriptor_sinkC1ERKS1_
libboost_iostreams.so.1.79.0:_ZN5boost9iostreams20file_descriptor_sinkC1EiNS0_21file_descriptor_flagsE
libboost_iostreams.so.1.79.0:_ZN5boost9iostreams22file_descriptor_sourceC1ERKS1_
libboost_iostreams.so.1.79.0:_ZN5boost9iostreams22file_descriptor_sourceC1EiNS0_21file_descriptor_flagsE
libc.so.6:__cxa_atexit
libc.so.6:__libc_single_threaded
libc.so.6:__libc_start_main
libc.so.6:__memcpy_chk
libc.so.6:__snprintf_chk
libc.so.6:__stack_chk_fail
libc.so.6:exit
libc.so.6:getopt
libc.so.6:lseek
libc.so.6:memchr
libc.so.6:memcmp
libc.so.6:memcpy
libc.so.6:memmove
libc.so.6:memset
libc.so.6:open
libc.so.6:optarg
libc.so.6:optind
libc.so.6:pthread_mutex_lock
libc.so.6:pthread_mutex_unlock
libc.so.6:puts
libc.so.6:read
libc.so.6:rename
libc.so.6:strcmp
libc.so.6:strlen
libcurl.so.4:curl_easy_cleanup
libcurl.so.4:curl_easy_getinfo
libcurl.so.4:curl_easy_init
libcurl.so.4:curl_easy_setopt
libcurl.so.4:curl_escape
libcurl.so.4:curl_free
libcurl.so.4:curl_global_init
libcurl.so.4:curl_multi_add_handle
libcurl.so.4:curl_multi_cleanup
libcurl.so.4:curl_multi_info_read
libcurl.so.4:curl_multi_init
libcurl.so.4:curl_multi_remove_handle
libcurl.so.4:curl_multi_setopt
libcurl.so.4:curl_multi_socket_action
libgcc_s.so.1:_Unwind_Resume
libgcc_s.so.1:__udivti3
libopencc.so.1.1:_ZN6opencc15SimpleConverterC1ERKNSt7__cxx1112basic_stringIcSt11char_traitsIcESaIcEEE
libopencc.so.1.1:_ZN6opencc15SimpleConverterD1Ev
libopencc.so.1.1:_ZNK6opencc15SimpleConverter7ConvertERKNSt7__cxx1112basic_stringIcSt11char_traitsIcESaIcEEE
libstdc++.so.6:_ZNKSt13runtime_error4whatEv
libstdc++.so.6:_ZNKSt25__codecvt_utf8_utf16_baseIDsE10do_unshiftER11__mbstate_tPcS3_RS3_
libstdc++.so.6:_ZNKSt25__codecvt_utf8_utf16_baseIDsE11do_encodingEv
libstdc++.so.6:_ZNKSt25__codecvt_utf8_utf16_baseIDsE13do_max_lengthEv
libstdc++.so.6:_ZNKSt25__codecvt_utf8_utf16_baseIDsE16do_always_noconvEv
libstdc++.so.6:_ZNKSt25__codecvt_utf8_utf16_baseIDsE5do_inER11__mbstate_tPKcS4_RS4_PDsS6_RS6_
libstdc++.so.6:_ZNKSt25__codecvt_utf8_utf16_baseIDsE6do_outER11__mbstate_tPKDsS4_RS4_PcS6_RS6_
libstdc++.so.6:_ZNKSt25__codecvt_utf8_utf16_baseIDsE9do_lengthER11__mbstate_tPKcS4_m
libstdc++.so.6:_ZNKSt5ctypeIcE13_M_widen_initEv
libstdc++.so.6:_ZNKSt7__cxx1112basic_stringIcSt11char_traitsIcESaIcEE13find_first_ofEPKcmm
libstdc++.so.6:_ZNKSt7__cxx1112basic_stringIcSt11char_traitsIcESaIcEE17find_first_not_ofEPKcmm
libstdc++.so.6:_ZNKSt7__cxx1112basic_stringIcSt11char_traitsIcESaIcEE4findEPKcmm
libstdc++.so.6:_ZNKSt7__cxx1112basic_stringIcSt11char_traitsIcESaIcEE4findEcm
libstdc++.so.6:_ZNKSt7__cxx1112basic_stringIcSt11char_traitsIcESaIcEE5rfindEcm
libstdc++.so.6:_ZNKSt7__cxx1112basic_stringIcSt11char_traitsIcESaIcEE6substrEmm
libstdc++.so.6:_ZNKSt7__cxx1112basic_stringIcSt11char_traitsIcESaIcEE7compareEPKc
libstdc++.so.6:_ZNKSt8__detail20_Prime_rehash_policy11_M_next_bktEm
libstdc++.so.6:_ZNKSt8__detail20_Prime_rehash_policy14_M_need_rehashEmmm
libstdc++.so.6:_ZNKSt8ios_base7failureB5cxx114whatEv
libstdc++.so.6:_ZNSo3putEc
libstdc++.so.6:_ZNSo5flushEv
libstdc++.so.6:_ZNSo9_M_insertIbEERSoT_
libstdc++.so.6:_ZNSo9_M_insertIlEERSoT_
libstdc++.so.6:_ZNSo9_M_insertImEERSoT_
libstdc++.so.6:_ZNSt13runtime_errorC1EPKc
libstdc++.so.6:_ZNSt13runtime_errorC2EPKc
libstdc++.so.6:_ZNSt13runtime_errorC2ERKS_
libstdc++.so.6:_ZNSt13runtime_errorD1Ev
libstdc++.so.6:_ZNSt13runtime_errorD2Ev
libstdc++.so.6:_ZNSt14basic_ofstreamIcSt11char_traitsIcEE4openEPKcSt13_Ios_Openmode
libstdc++.so.6:_ZNSt14basic_ofstreamIcSt11char_traitsIcEEC1Ev
libstdc++.so.6:_ZNSt14basic_ofstreamIcSt11char_traitsIcEED1Ev
libstdc++.so.6:_ZNSt15basic_streambufIcSt11char_traitsIcEE5uflowEv
libstdc++.so.6:_ZNSt15basic_streambufIcSt11char_traitsIcEE6setbufEPcl
libstdc++.so.6:_ZNSt15basic_streambufIcSt11char_traitsIcEE6xsgetnEPcl
libstdc++.so.6:_ZNSt15basic_streambufIcSt11char_traitsIcEE6xsputnEPKcl
libstdc++.so.6:_ZNSt15basic_streambufIcSt11char_traitsIcEE9showmanycEv
libstdc++.so.6:_ZNSt16invalid_argumentC1EPKc
libstdc++.so.6:_ZNSt16invalid_argumentD1Ev
libstdc++.so.6:_ZNSt25__codecvt_utf8_utf16_baseIDsED2Ev
libstdc++.so.6:_ZNSt6chrono3_V212system_clock3nowEv
libstdc++.so.6:_ZNSt6localeC1ERKS_
libstdc++.so.6:_ZNSt6localeC1Ev
libstdc++.so.6:_ZNSt6localeD1Ev
libstdc++.so.6:_ZNSt6localeaSERKS_
libstdc++.so.6:_ZNSt6thread15_M_start_threadESt10unique_ptrINS_6_StateESt14default_deleteIS1_EEPFvvE
libstdc++.so.6:_ZNSt6thread4joinEv
libstdc++.so.6:_ZNSt6thread6_StateD2Ev
libstdc++.so.6:_ZNSt7__cxx1112basic_stringIcSt11char_traitsIcESaIcEE10_M_disposeEv
libstdc++.so.6:_ZNSt7__cxx1112basic_stringIcSt11char_traitsIcESaIcEE10_M_replaceEmmPKcm
libstdc++.so.6:_ZNSt7__cxx1112basic_stringIcSt11char_traitsIcESaIcEE12_M_constructEmc
libstdc++.so.6:_ZNSt7__cxx1112basic_stringIcSt11char_traitsIcESaIcEE14_M_replace_auxEmmmc
libstdc++.so.6:_ZNSt7__cxx1112basic_stringIcSt11char_traitsIcESaIcEE4swapERS4_
libstdc++.so.6:_ZNSt7__cxx1112basic_stringIcSt11char_traitsIcESaIcEE6appendEPKcm
libstdc++.so.6:_ZNSt7__cxx1112basic_stringIcSt11char_traitsIcESaIcEE6resizeEmc
libstdc++.so.6:_ZNSt7__cxx1112basic_stringIcSt11char_traitsIcESaIcEE7reserveEm
libstdc++.so.6:_ZNSt7__cxx1112basic_stringIcSt11char_traitsIcESaIcEE8_M_eraseEmm
libstdc++.so.6:_ZNSt7__cxx1112basic_stringIcSt11char_traitsIcESaIcEE9_M_appendEPKcm
libstdc++.so.6:_ZNSt7__cxx1112basic_stringIcSt11char_traitsIcESaIcEE9_M_assignERKS4_
libstdc++.so.6:_ZNSt7__cxx1112basic_stringIcSt11char_traitsIcESaIcEE9_M_createERmm
libstdc++.so.6:_ZNSt7__cxx1112basic_stringIcSt11char_traitsIcESaIcEE9_M_mutateEmmPKcm
libstdc++.so.6:_ZNSt7__cxx1112basic_stringIcSt11char_traitsIcESaIcEEC1EOS4_
libstdc++.so.6:_ZNSt7__cxx1112basic_stringIcSt11char_traitsIcESaIcEEC1ERKS4_
libstdc++.so.6:_ZNSt7__cxx1112basic_stringIcSt11char_traitsIcESaIcEED1Ev
libstdc++.so.6:_ZNSt8__detail15_List_node_base11_M_transferEPS0_S1_
libstdc++.so.6:_ZNSt8__detail15_List_node_base7_M_hookEPS0_
libstdc++.so.6:_ZNSt8__detail15_List_node_base9_M_unhookEv
libstdc++.so.6:_ZNSt8ios_base4InitC1Ev
libstdc++.so.6:_ZNSt8ios_base4InitD1Ev
libstdc++.so.6:_ZNSt8ios_base7failureB5cxx11C1EPKcRKSt10error_code
libstdc++.so.6:_ZNSt8ios_base7failureB5cxx11D1Ev
libstdc++.so.6:_ZNSt8ios_base7failureB5cxx11D2Ev
libstdc++.so.6:_ZNSt8ios_baseC2Ev
libstdc++.so.6:_ZNSt8ios_baseD2Ev
libstdc++.so.6:_ZNSt9basic_iosIcSt11char_traitsIcEE4initEPSt15basic_streambufIcS1_E
libstdc++.so.6:_ZNSt9basic_iosIcSt11char_traitsIcEE5clearESt12_Ios_Iostate
libstdc++.so.6:_ZSt11_Hash_bytesPKvmm
libstdc++.so.6:_ZSt16__ostream_insertIcSt11char_traitsIcEERSt13basic_ostreamIT_T0_ES6_PKS3_l
libstdc++.so.6:_ZSt16__throw_bad_castv
libstdc++.so.6:_ZSt17__throw_bad_allocv
libstdc++.so.6:_ZSt17iostream_categoryv
libstdc++.so.6:_ZSt18_Rb_tree_decrementPSt18_Rb_tree_node_base
libstdc++.so.6:_ZSt18_Rb_tree_incrementPSt18_Rb_tree_node_base
libstdc++.so.6:_ZSt19__throw_logic_errorPKc
libstdc++.so.6:_ZSt19__throw_range_errorPKc
libstdc++.so.6:_ZSt20__throw_length_errorPKc
libstdc++.so.6:_ZSt20__throw_system_errori
libstdc++.so.6:_ZSt24__throw_out_of_range_fmtPKcz
libstdc++.so.6:_ZSt25__throw_bad_function_callv
libstdc++.so.6:_ZSt28__throw_bad_array_new_lengthv
libstdc++.so.6:_ZSt29_Rb_tree_insert_and_rebalancebPSt18_Rb_tree_node_baseS0_RS_
libstdc++.so.6:_ZSt4cerr
libstdc++.so.6:_ZSt4cout
libstdc++.so.6:_ZSt7getlineIcSt11char_traitsIcESaIcEERSt13basic_istreamIT_T0_ES7_RNSt7__cxx1112basic_stringIS4_S5_T1_EES4_
libstdc++.so.6:_ZSt9terminatev
libstdc++.so.6:_ZSt9use_facetINSt7__cxx118numpunctIcEEERKT_RKSt6locale
libstdc++.so.6:_ZStlsISt11char_traitsIcEERSt13basic_ostreamIcT_ES5_PKc
libstdc++.so.6:_ZTINSt6thread6_StateE
libstdc++.so.6:_ZTINSt8ios_base7failureB5cxx11E
libstdc++.so.6:_ZTISt13runtime_error
libstdc++.so.6:_ZTISt15basic_streambufIcSt11char_traitsIcEE
libstdc++.so.6:_ZTISt16invalid_argument
libstdc++.so.6:_ZTISt25__codecvt_utf8_utf16_baseIDsE
libstdc++.so.6:_ZTISt9exception
libstdc++.so.6:_ZTVN10__cxxabiv117__class_type_infoE
libstdc++.so.6:_ZTVN10__cxxabiv120__si_class_type_infoE
libstdc++.so.6:_ZTVN10__cxxabiv121__vmi_class_type_infoE
libstdc++.so.6:_ZTVNSt8ios_base7failureB5cxx11E
libstdc++.so.6:_ZTVSi
libstdc++.so.6:_ZTVSo
libstdc++.so.6:_ZTVSt15basic_streambufIcSt11char_traitsIcEE
libstdc++.so.6:_ZTVSt9basic_iosIcSt11char_traitsIcEE
libstdc++.so.6:_ZdaPv
libstdc++.so.6:_ZdlPv
libstdc++.so.6:_ZdlPvm
libstdc++.so.6:_Znam
libstdc++.so.6:_Znwm
libstdc++.so.6:__cxa_allocate_exception
libstdc++.so.6:__cxa_begin_catch
libstdc++.so.6:__cxa_end_catch
libstdc++.so.6:__cxa_free_exception
libstdc++.so.6:__cxa_guard_abort
libstdc++.so.6:__cxa_guard_acquire
libstdc++.so.6:__cxa_guard_release
libstdc++.so.6:__cxa_rethrow
libstdc++.so.6:__cxa_throw
libstdc++.so.6:__dynamic_cast
libstdc++.so.6:__gxx_personality_v0
