libcudnn.so.8:cudnnActivationBackward
libcudnn.so.8:cudnnActivationForward
libcudnn.so.8:cudnnAddTensor
libcudnn.so.8:cudnnAdvInferVersionCheck
libcudnn.so.8:cudnnAdvTrainVersionCheck
libcudnn.so.8:cudnnBackendCreateDescriptor
libcudnn.so.8:cudnnBackendDestroyDescriptor
libcudnn.so.8:cudnnBackendExecute
libcudnn.so.8:cudnnBackendFinalize
libcudnn.so.8:cudnnBackendGetAttribute
libcudnn.so.8:cudnnBackendInitialize
libcudnn.so.8:cudnnBackendSetAttribute
libcudnn.so.8:cudnnBatchNormalizationBackward
libcudnn.so.8:cudnnBatchNormalizationBackwardEx
libcudnn.so.8:cudnnBatchNormalizationForwardInference
libcudnn.so.8:cudnnBatchNormalizationForwardTraining
libcudnn.so.8:cudnnBatchNormalizationForwardTrainingEx
libcudnn.so.8:cudnnBuildRNNDynamic
libcudnn.so.8:cudnnCTCLoss
libcudnn.so.8:cudnnCTCLoss_v8
libcudnn.so.8:cudnnCnnInferVersionCheck
libcudnn.so.8:cudnnCnnTrainVersionCheck
libcudnn.so.8:cudnnConvolutionBackwardBias
libcudnn.so.8:cudnnConvolutionBackwardData
libcudnn.so.8:cudnnConvolutionBackwardFilter
libcudnn.so.8:cudnnConvolutionBiasActivationForward
libcudnn.so.8:cudnnConvolutionForward
libcudnn.so.8:cudnnCopyAlgorithmDescriptor
libcudnn.so.8:cudnnCreate
libcudnn.so.8:cudnnCreateActivationDescriptor
libcudnn.so.8:cudnnCreateAlgorithmDescriptor
libcudnn.so.8:cudnnCreateAlgorithmPerformance
libcudnn.so.8:cudnnCreateAttnDescriptor
libcudnn.so.8:cudnnCreateCTCLossDescriptor
libcudnn.so.8:cudnnCreateConvolutionDescriptor
libcudnn.so.8:cudnnCreateDropoutDescriptor
libcudnn.so.8:cudnnCreateFilterDescriptor
libcudnn.so.8:cudnnCreateFusedOpsConstParamPack
libcudnn.so.8:cudnnCreateFusedOpsPlan
libcudnn.so.8:cudnnCreateFusedOpsVariantParamPack
libcudnn.so.8:cudnnCreateLRNDescriptor
libcudnn.so.8:cudnnCreateOpTensorDescriptor
libcudnn.so.8:cudnnCreatePersistentRNNPlan
libcudnn.so.8:cudnnCreatePoolingDescriptor
libcudnn.so.8:cudnnCreateRNNDataDescriptor
libcudnn.so.8:cudnnCreateRNNDescriptor
libcudnn.so.8:cudnnCreateReduceTensorDescriptor
libcudnn.so.8:cudnnCreateSeqDataDescriptor
libcudnn.so.8:cudnnCreateSpatialTransformerDescriptor
libcudnn.so.8:cudnnCreateTensorDescriptor
libcudnn.so.8:cudnnCreateTensorTransformDescriptor
libcudnn.so.8:cudnnDeriveBNTensorDescriptor
libcudnn.so.8:cudnnDeriveNormTensorDescriptor
libcudnn.so.8:cudnnDestroy
libcudnn.so.8:cudnnDestroyActivationDescriptor
libcudnn.so.8:cudnnDestroyAlgorithmDescriptor
libcudnn.so.8:cudnnDestroyAlgorithmPerformance
libcudnn.so.8:cudnnDestroyAttnDescriptor
libcudnn.so.8:cudnnDestroyCTCLossDescriptor
libcudnn.so.8:cudnnDestroyConvolutionDescriptor
libcudnn.so.8:cudnnDestroyDropoutDescriptor
libcudnn.so.8:cudnnDestroyFilterDescriptor
libcudnn.so.8:cudnnDestroyFusedOpsConstParamPack
libcudnn.so.8:cudnnDestroyFusedOpsPlan
libcudnn.so.8:cudnnDestroyFusedOpsVariantParamPack
libcudnn.so.8:cudnnDestroyLRNDescriptor
libcudnn.so.8:cudnnDestroyOpTensorDescriptor
libcudnn.so.8:cudnnDestroyPersistentRNNPlan
libcudnn.so.8:cudnnDestroyPoolingDescriptor
libcudnn.so.8:cudnnDestroyRNNDataDescriptor
libcudnn.so.8:cudnnDestroyRNNDescriptor
libcudnn.so.8:cudnnDestroyReduceTensorDescriptor
libcudnn.so.8:cudnnDestroySeqDataDescriptor
libcudnn.so.8:cudnnDestroySpatialTransformerDescriptor
libcudnn.so.8:cudnnDestroyTensorDescriptor
libcudnn.so.8:cudnnDestroyTensorTransformDescriptor
libcudnn.so.8:cudnnDivisiveNormalizationBackward
libcudnn.so.8:cudnnDivisiveNormalizationForward
libcudnn.so.8:cudnnDropoutBackward
libcudnn.so.8:cudnnDropoutForward
libcudnn.so.8:cudnnDropoutGetReserveSpaceSize
libcudnn.so.8:cudnnDropoutGetStatesSize
libcudnn.so.8:cudnnFindConvolutionBackwardDataAlgorithm
libcudnn.so.8:cudnnFindConvolutionBackwardDataAlgorithmEx
libcudnn.so.8:cudnnFindConvolutionBackwardFilterAlgorithm
libcudnn.so.8:cudnnFindConvolutionBackwardFilterAlgorithmEx
libcudnn.so.8:cudnnFindConvolutionForwardAlgorithm
libcudnn.so.8:cudnnFindConvolutionForwardAlgorithmEx
libcudnn.so.8:cudnnFindRNNBackwardDataAlgorithmEx
libcudnn.so.8:cudnnFindRNNBackwardWeightsAlgorithmEx
libcudnn.so.8:cudnnFindRNNForwardInferenceAlgorithmEx
libcudnn.so.8:cudnnFindRNNForwardTrainingAlgorithmEx
libcudnn.so.8:cudnnFusedOpsExecute
libcudnn.so.8:cudnnGetActivationDescriptor
libcudnn.so.8:cudnnGetActivationDescriptorSwishBeta
libcudnn.so.8:cudnnGetAlgorithmDescriptor
libcudnn.so.8:cudnnGetAlgorithmPerformance
libcudnn.so.8:cudnnGetAlgorithmSpaceSize
libcudnn.so.8:cudnnGetAttnDescriptor
libcudnn.so.8:cudnnGetBackdoor
libcudnn.so.8:cudnnGetBatchNormalizationBackwardExWorkspaceSize
libcudnn.so.8:cudnnGetBatchNormalizationForwardTrainingExWorkspaceSize
libcudnn.so.8:cudnnGetBatchNormalizationTrainingExReserveSpaceSize
libcudnn.so.8:cudnnGetCTCLossDescriptor
libcudnn.so.8:cudnnGetCTCLossDescriptorEx
libcudnn.so.8:cudnnGetCTCLossDescriptor_v8
libcudnn.so.8:cudnnGetCTCLossWorkspaceSize
libcudnn.so.8:cudnnGetCTCLossWorkspaceSize_v8
libcudnn.so.8:cudnnGetCallback
libcudnn.so.8:cudnnGetConvolution2dDescriptor
libcudnn.so.8:cudnnGetConvolution2dForwardOutputDim
libcudnn.so.8:cudnnGetConvolutionBackwardDataAlgorithmMaxCount
libcudnn.so.8:cudnnGetConvolutionBackwardDataAlgorithm_v7
libcudnn.so.8:cudnnGetConvolutionBackwardDataWorkspaceSize
libcudnn.so.8:cudnnGetConvolutionBackwardFilterAlgorithmMaxCount
libcudnn.so.8:cudnnGetConvolutionBackwardFilterAlgorithm_v7
libcudnn.so.8:cudnnGetConvolutionBackwardFilterWorkspaceSize
libcudnn.so.8:cudnnGetConvolutionForwardAlgorithmMaxCount
libcudnn.so.8:cudnnGetConvolutionForwardAlgorithm_v7
libcudnn.so.8:cudnnGetConvolutionForwardWorkspaceSize
libcudnn.so.8:cudnnGetConvolutionGroupCount
libcudnn.so.8:cudnnGetConvolutionMathType
libcudnn.so.8:cudnnGetConvolutionNdDescriptor
libcudnn.so.8:cudnnGetConvolutionNdForwardOutputDim
libcudnn.so.8:cudnnGetConvolutionReorderType
libcudnn.so.8:cudnnGetCudartVersion
libcudnn.so.8:cudnnGetDropoutDescriptor
libcudnn.so.8:cudnnGetErrorString
libcudnn.so.8:cudnnGetFilter4dDescriptor
libcudnn.so.8:cudnnGetFilterNdDescriptor
libcudnn.so.8:cudnnGetFilterSizeInBytes
libcudnn.so.8:cudnnGetFoldedConvBackwardDataDescriptors
libcudnn.so.8:cudnnGetFusedOpsConstParamPackAttribute
libcudnn.so.8:cudnnGetFusedOpsVariantParamPackAttribute
libcudnn.so.8:cudnnGetLRNDescriptor
libcudnn.so.8:cudnnGetMultiHeadAttnBuffers
libcudnn.so.8:cudnnGetMultiHeadAttnWeights
libcudnn.so.8:cudnnGetNormalizationBackwardWorkspaceSize
libcudnn.so.8:cudnnGetNormalizationForwardTrainingWorkspaceSize
libcudnn.so.8:cudnnGetNormalizationTrainingReserveSpaceSize
libcudnn.so.8:cudnnGetOpTensorDescriptor
libcudnn.so.8:cudnnGetPooling2dDescriptor
libcudnn.so.8:cudnnGetPooling2dForwardOutputDim
libcudnn.so.8:cudnnGetPoolingNdDescriptor
libcudnn.so.8:cudnnGetPoolingNdForwardOutputDim
libcudnn.so.8:cudnnGetProperty
libcudnn.so.8:cudnnGetRNNBackwardDataAlgorithmMaxCount
libcudnn.so.8:cudnnGetRNNBackwardWeightsAlgorithmMaxCount
libcudnn.so.8:cudnnGetRNNBiasMode
libcudnn.so.8:cudnnGetRNNDataDescriptor
libcudnn.so.8:cudnnGetRNNDescriptor_v6
libcudnn.so.8:cudnnGetRNNDescriptor_v8
libcudnn.so.8:cudnnGetRNNDropoutLocationsInternal
libcudnn.so.8:cudnnGetRNNForwardInferenceAlgorithmMaxCount
libcudnn.so.8:cudnnGetRNNForwardTrainingAlgorithmMaxCount
libcudnn.so.8:cudnnGetRNNLinLayerBiasParams
libcudnn.so.8:cudnnGetRNNLinLayerMatrixParams
libcudnn.so.8:cudnnGetRNNMatrixMathType
libcudnn.so.8:cudnnGetRNNPaddingMode
libcudnn.so.8:cudnnGetRNNParamsSize
libcudnn.so.8:cudnnGetRNNProjectionLayers
libcudnn.so.8:cudnnGetRNNTempSpaceSizes
libcudnn.so.8:cudnnGetRNNTrainingReserveSize
libcudnn.so.8:cudnnGetRNNWeightParams
libcudnn.so.8:cudnnGetRNNWeightSpaceSize
libcudnn.so.8:cudnnGetRNNWorkspaceSize
libcudnn.so.8:cudnnGetReduceTensorDescriptor
libcudnn.so.8:cudnnGetReductionIndicesSize
libcudnn.so.8:cudnnGetReductionWorkspaceSize
libcudnn.so.8:cudnnGetSeqDataDescriptor
libcudnn.so.8:cudnnGetStream
libcudnn.so.8:cudnnGetTensor4dDescriptor
libcudnn.so.8:cudnnGetTensorNdDescriptor
libcudnn.so.8:cudnnGetTensorSizeInBytes
libcudnn.so.8:cudnnGetTensorTransformDescriptor
libcudnn.so.8:cudnnGetVersion
libcudnn.so.8:cudnnIm2Col
libcudnn.so.8:cudnnInitTransformDest
libcudnn.so.8:cudnnLRNCrossChannelBackward
libcudnn.so.8:cudnnLRNCrossChannelForward
libcudnn.so.8:cudnnMakeFusedOpsPlan
libcudnn.so.8:cudnnMultiHeadAttnBackwardData
libcudnn.so.8:cudnnMultiHeadAttnBackwardWeights
libcudnn.so.8:cudnnMultiHeadAttnForward
libcudnn.so.8:cudnnNormalizationBackward
libcudnn.so.8:cudnnNormalizationForwardInference
libcudnn.so.8:cudnnNormalizationForwardTraining
libcudnn.so.8:cudnnOpTensor
libcudnn.so.8:cudnnOpsInferVersionCheck
libcudnn.so.8:cudnnOpsTrainVersionCheck
libcudnn.so.8:cudnnPoolingBackward
libcudnn.so.8:cudnnPoolingForward
libcudnn.so.8:cudnnQueryRuntimeError
libcudnn.so.8:cudnnRNNBackwardData
libcudnn.so.8:cudnnRNNBackwardDataEx
libcudnn.so.8:cudnnRNNBackwardData_v8
libcudnn.so.8:cudnnRNNBackwardWeights
libcudnn.so.8:cudnnRNNBackwardWeightsEx
libcudnn.so.8:cudnnRNNBackwardWeights_v8
libcudnn.so.8:cudnnRNNForward
libcudnn.so.8:cudnnRNNForwardInference
libcudnn.so.8:cudnnRNNForwardInferenceEx
libcudnn.so.8:cudnnRNNForwardTraining
libcudnn.so.8:cudnnRNNForwardTrainingEx
libcudnn.so.8:cudnnRNNGetClip
libcudnn.so.8:cudnnRNNGetClip_v8
libcudnn.so.8:cudnnRNNSetClip
libcudnn.so.8:cudnnRNNSetClip_v8
libcudnn.so.8:cudnnReduceTensor
libcudnn.so.8:cudnnReorderFilterAndBias
libcudnn.so.8:cudnnRestoreAlgorithm
libcudnn.so.8:cudnnRestoreDropoutDescriptor
libcudnn.so.8:cudnnSaveAlgorithm
libcudnn.so.8:cudnnScaleTensor
libcudnn.so.8:cudnnSetActivationDescriptor
libcudnn.so.8:cudnnSetActivationDescriptorSwishBeta
libcudnn.so.8:cudnnSetAlgorithmDescriptor
libcudnn.so.8:cudnnSetAlgorithmPerformance
libcudnn.so.8:cudnnSetAttnDescriptor
libcudnn.so.8:cudnnSetBackdoor
libcudnn.so.8:cudnnSetBackdoorEx
libcudnn.so.8:cudnnSetCTCLossDescriptor
libcudnn.so.8:cudnnSetCTCLossDescriptorEx
libcudnn.so.8:cudnnSetCTCLossDescriptor_v8
libcudnn.so.8:cudnnSetCallback
libcudnn.so.8:cudnnSetConvolution2dDescriptor
libcudnn.so.8:cudnnSetConvolutionGroupCount
libcudnn.so.8:cudnnSetConvolutionMathType
libcudnn.so.8:cudnnSetConvolutionNdDescriptor
libcudnn.so.8:cudnnSetConvolutionReorderType
libcudnn.so.8:cudnnSetDropoutDescriptor
libcudnn.so.8:cudnnSetFilter4dDescriptor
libcudnn.so.8:cudnnSetFilterNdDescriptor
libcudnn.so.8:cudnnSetFusedOpsConstParamPackAttribute
libcudnn.so.8:cudnnSetFusedOpsVariantParamPackAttribute
libcudnn.so.8:cudnnSetLRNDescriptor
libcudnn.so.8:cudnnSetOpTensorDescriptor
libcudnn.so.8:cudnnSetPersistentRNNPlan
libcudnn.so.8:cudnnSetPooling2dDescriptor
libcudnn.so.8:cudnnSetPoolingNdDescriptor
libcudnn.so.8:cudnnSetRNNAlgorithmDescriptor
libcudnn.so.8:cudnnSetRNNBiasMode
libcudnn.so.8:cudnnSetRNNDataDescriptor
libcudnn.so.8:cudnnSetRNNDescriptor_v6
libcudnn.so.8:cudnnSetRNNDescriptor_v8
libcudnn.so.8:cudnnSetRNNMatrixMathType
libcudnn.so.8:cudnnSetRNNPaddingMode
libcudnn.so.8:cudnnSetRNNProjectionLayers
libcudnn.so.8:cudnnSetReduceTensorDescriptor
libcudnn.so.8:cudnnSetSeqDataDescriptor
libcudnn.so.8:cudnnSetSpatialTransformerNdDescriptor
libcudnn.so.8:cudnnSetStream
libcudnn.so.8:cudnnSetTensor
libcudnn.so.8:cudnnSetTensor4dDescriptor
libcudnn.so.8:cudnnSetTensor4dDescriptorEx
libcudnn.so.8:cudnnSetTensorNdDescriptor
libcudnn.so.8:cudnnSetTensorNdDescriptorEx
libcudnn.so.8:cudnnSetTensorTransformDescriptor
libcudnn.so.8:cudnnSoftmaxBackward
libcudnn.so.8:cudnnSoftmaxForward
libcudnn.so.8:cudnnSpatialTfGridGeneratorBackward
libcudnn.so.8:cudnnSpatialTfGridGeneratorForward
libcudnn.so.8:cudnnSpatialTfSamplerBackward
libcudnn.so.8:cudnnSpatialTfSamplerForward
libcudnn.so.8:cudnnTransformFilter
libcudnn.so.8:cudnnTransformTensor
libcudnn.so.8:cudnnTransformTensorEx
libcudnn.so.8:libcudnn.so.8
libcudnn_adv_infer.so.8:_Z11logArgArrayPKcPK18cudnnSeqDataAxis_tiPcPii
libcudnn_adv_infer.so.8:_Z16getActiveStreamsP14cudnnRNNStructi11PerfOptionsiii
libcudnn_adv_infer.so.8:_Z18RNN_forwardGenericP12cudnnContextP14cudnnRNNStructiPKP17cudnnTensorStructPKvS4_S8_S4_S8_P17cudnnFilterStructS8_S6_PvS4_SB_S4_SB_SB_mSB_m18cudnnForwardMode_t
libcudnn_adv_infer.so.8:_Z19getPerfViaHeuristicP12cudnnContextP14cudnnRNNStructP18cudnnRNNDataStructiPKP17cudnnTensorStruct18cudnnForwardMode_tP11PerfOptions
libcudnn_adv_infer.so.8:_Z20RNN_forwardGenericExP12cudnnContextP14cudnnRNNStructP18cudnnRNNDataStructPKvP17cudnnTensorStructS6_S8_S6_mS6_S4_PvS8_S9_S8_S9_mS9_mS9_18cudnnForwardMode_tPKi
libcudnn_adv_infer.so.8:_Z20volta_s884_heuristiciiifii
libcudnn_adv_infer.so.8:_Z22getRNNWorkSizeInternalP12cudnnContextP14cudnnRNNStruct18cudnnForwardMode_tP18cudnnRNNDataStructiPKP17cudnnTensorStructPm
libcudnn_adv_infer.so.8:_Z23getRNNParamSizeInternalP12cudnnContextP14cudnnRNNStructi15cudnnDataType_tPm
libcudnn_adv_infer.so.8:_Z24validateRNNInputInternalP12cudnnContextP14cudnnRNNStructiPKP17cudnnTensorStruct
libcudnn_adv_infer.so.8:_Z25getRNNReserveSizeInternalP12cudnnContextP14cudnnRNNStructP18cudnnRNNDataStructiPKP17cudnnTensorStructPm
libcudnn_adv_infer.so.8:_Z27RNN_getPaddingSortWorkspaceP12cudnnContextP14cudnnRNNStructP18cudnnRNNDataStructiPKP17cudnnTensorStruct11PerfOptionsbPvPSA_SB_SB_SB_SB_SB_SB_SB_SB_SB_SB_SB_PPiSD_SD_
libcudnn_adv_infer.so.8:_Z29RNNInputRearrangementLauncherP12cudnnContextPv15cudnnDataType_tbPKvS2_iiiPKiPiS7_16RNNReshapeMode_tbP11CUstream_st
libcudnn_adv_infer.so.8:_Z30RNNInputRearrangement2LauncherP12cudnnContextPv15cudnnDataType_tPKvS2_iiiiPiP11CUstream_st
libcudnn_adv_infer.so.8:_Z30RNNOutputRearrangementLauncherP12cudnnContextPv15cudnnDataType_tbS1_S2_diiiPKiPi16RNNReshapeMode_tP11CUstream_st
libcudnn_adv_infer.so.8:_Z31RNNOutputRearrangement2LauncherP12cudnnContextPv15cudnnDataType_tPKvS2_iiiiPiP11CUstream_st
libcudnn_adv_infer.so.8:_Z32checkRNNAlgorithmDeviceSupportedP12cudnnContextP14cudnnRNNStruct
libcudnn_adv_infer.so.8:_Z6logArgPKc14cudnnRNNAlgo_tPcPii
libcudnn_adv_infer.so.8:_Z6logArgPKc14cudnnRNNMode_tPcPii
libcudnn_adv_infer.so.8:_Z6logArgPKc15cudnnAttnMode_tPcPii
libcudnn_adv_infer.so.8:_Z6logArgPKc18cudnnRNNAuxFlags_tPcPii
libcudnn_adv_infer.so.8:_Z6logArgPKc18cudnnRNNBiasMode_tPcPii
libcudnn_adv_infer.so.8:_Z6logArgPKc19cudnnRNNInputMode_tPcPii
libcudnn_adv_infer.so.8:_Z6logArgPKc20cudnnDirectionMode_tPcPii
libcudnn_adv_infer.so.8:_Z6logArgPKc20cudnnRNNDataLayout_tPcPii
libcudnn_adv_infer.so.8:_Z6logArgPKc30cudnnMultiHeadAttnWeightKind_tPcPii
libcudnn_adv_infer.so.8:_Z6logArgPKcP14cudnnRNNStructPcPii
libcudnn_adv_infer.so.8:_Z6logArgPKcP15cudnnAttnStructPcPii
libcudnn_adv_infer.so.8:_Z6logArgPKcP18cudnnRNNDataStructPcPii
libcudnn_adv_infer.so.8:_Z6logArgPKcP18cudnnSeqDataStructPcPii
libcudnn_adv_infer.so.8:_Z6logArgPKcP22cudnnPersistentRNNPlanPcPii
libcudnn_adv_infer.so.8:_Z6logArgPKcPK14cudnnRNNAlgo_tPcPii
libcudnn_adv_infer.so.8:_Z6logArgPKcPK19cudnnRNNInputMode_tPcPii
libcudnn_adv_infer.so.8:_Z6logArgPKcPK20cudnnDirectionMode_tPcPii
libcudnn_adv_infer.so.8:_Z6logArgPKcPKP14cudnnRNNStructPcPii
libcudnn_adv_infer.so.8:cudnnAdvInferVersionCheck
libcudnn_adv_infer.so.8:cudnnBuildRNNDynamic
libcudnn_adv_infer.so.8:cudnnCreateAttnDescriptor
libcudnn_adv_infer.so.8:cudnnCreatePersistentRNNPlan
libcudnn_adv_infer.so.8:cudnnCreateRNNDataDescriptor
libcudnn_adv_infer.so.8:cudnnCreateRNNDescriptor
libcudnn_adv_infer.so.8:cudnnCreateSeqDataDescriptor
libcudnn_adv_infer.so.8:cudnnDestroyAttnDescriptor
libcudnn_adv_infer.so.8:cudnnDestroyPersistentRNNPlan
libcudnn_adv_infer.so.8:cudnnDestroyRNNDataDescriptor
libcudnn_adv_infer.so.8:cudnnDestroyRNNDescriptor
libcudnn_adv_infer.so.8:cudnnDestroySeqDataDescriptor
libcudnn_adv_infer.so.8:cudnnFindRNNForwardInferenceAlgorithmEx
libcudnn_adv_infer.so.8:cudnnGetAttnDescriptor
libcudnn_adv_infer.so.8:cudnnGetMultiHeadAttnBuffers
libcudnn_adv_infer.so.8:cudnnGetMultiHeadAttnWeights
libcudnn_adv_infer.so.8:cudnnGetRNNBiasMode
libcudnn_adv_infer.so.8:cudnnGetRNNDataDescriptor
libcudnn_adv_infer.so.8:cudnnGetRNNDescriptor_v6
libcudnn_adv_infer.so.8:cudnnGetRNNDescriptor_v8
libcudnn_adv_infer.so.8:cudnnGetRNNDropoutLocationsInternal
libcudnn_adv_infer.so.8:cudnnGetRNNForwardInferenceAlgorithmMaxCount
libcudnn_adv_infer.so.8:cudnnGetRNNLinLayerBiasParams
libcudnn_adv_infer.so.8:cudnnGetRNNLinLayerMatrixParams
libcudnn_adv_infer.so.8:cudnnGetRNNMatrixMathType
libcudnn_adv_infer.so.8:cudnnGetRNNPaddingMode
libcudnn_adv_infer.so.8:cudnnGetRNNParamsSize
libcudnn_adv_infer.so.8:cudnnGetRNNProjectionLayers
libcudnn_adv_infer.so.8:cudnnGetRNNTempSpaceSizes
libcudnn_adv_infer.so.8:cudnnGetRNNTrainingReserveSize
libcudnn_adv_infer.so.8:cudnnGetRNNWeightParams
libcudnn_adv_infer.so.8:cudnnGetRNNWeightSpaceSize
libcudnn_adv_infer.so.8:cudnnGetRNNWorkspaceSize
libcudnn_adv_infer.so.8:cudnnGetSeqDataDescriptor
libcudnn_adv_infer.so.8:cudnnMultiHeadAttnForward
libcudnn_adv_infer.so.8:cudnnRNNForward
libcudnn_adv_infer.so.8:cudnnRNNForwardInference
libcudnn_adv_infer.so.8:cudnnRNNForwardInferenceEx
libcudnn_adv_infer.so.8:cudnnRNNGetClip
libcudnn_adv_infer.so.8:cudnnRNNGetClip_v8
libcudnn_adv_infer.so.8:cudnnRNNSetClip
libcudnn_adv_infer.so.8:cudnnRNNSetClip_v8
libcudnn_adv_infer.so.8:cudnnSetAttnDescriptor
libcudnn_adv_infer.so.8:cudnnSetPersistentRNNPlan
libcudnn_adv_infer.so.8:cudnnSetRNNAlgorithmDescriptor
libcudnn_adv_infer.so.8:cudnnSetRNNBiasMode
libcudnn_adv_infer.so.8:cudnnSetRNNDataDescriptor
libcudnn_adv_infer.so.8:cudnnSetRNNDescriptor_v6
libcudnn_adv_infer.so.8:cudnnSetRNNDescriptor_v8
libcudnn_adv_infer.so.8:cudnnSetRNNMatrixMathType
libcudnn_adv_infer.so.8:cudnnSetRNNPaddingMode
libcudnn_adv_infer.so.8:cudnnSetRNNProjectionLayers
libcudnn_adv_infer.so.8:cudnnSetSeqDataDescriptor
libcudnn_adv_infer.so.8:cudnn_adv_infer_version
libcudnn_adv_infer.so.8:libcudnn_adv_infer.so.8
libcudnn_adv_train.so.8:cudnnAdvTrainVersionCheck
libcudnn_adv_train.so.8:cudnnCTCLoss
libcudnn_adv_train.so.8:cudnnCTCLoss_v8
libcudnn_adv_train.so.8:cudnnCreateCTCLossDescriptor
libcudnn_adv_train.so.8:cudnnDestroyCTCLossDescriptor
libcudnn_adv_train.so.8:cudnnFindRNNBackwardDataAlgorithmEx
libcudnn_adv_train.so.8:cudnnFindRNNBackwardWeightsAlgorithmEx
libcudnn_adv_train.so.8:cudnnFindRNNForwardTrainingAlgorithmEx
libcudnn_adv_train.so.8:cudnnGetCTCLossDescriptor
libcudnn_adv_train.so.8:cudnnGetCTCLossDescriptorEx
libcudnn_adv_train.so.8:cudnnGetCTCLossDescriptor_v8
libcudnn_adv_train.so.8:cudnnGetCTCLossWorkspaceSize
libcudnn_adv_train.so.8:cudnnGetCTCLossWorkspaceSize_v8
libcudnn_adv_train.so.8:cudnnGetRNNBackwardDataAlgorithmMaxCount
libcudnn_adv_train.so.8:cudnnGetRNNBackwardWeightsAlgorithmMaxCount
libcudnn_adv_train.so.8:cudnnGetRNNForwardTrainingAlgorithmMaxCount
libcudnn_adv_train.so.8:cudnnMultiHeadAttnBackwardData
libcudnn_adv_train.so.8:cudnnMultiHeadAttnBackwardWeights
libcudnn_adv_train.so.8:cudnnRNNBackwardData
libcudnn_adv_train.so.8:cudnnRNNBackwardDataEx
libcudnn_adv_train.so.8:cudnnRNNBackwardData_v8
libcudnn_adv_train.so.8:cudnnRNNBackwardWeights
libcudnn_adv_train.so.8:cudnnRNNBackwardWeightsEx
libcudnn_adv_train.so.8:cudnnRNNBackwardWeights_v8
libcudnn_adv_train.so.8:cudnnRNNForwardTraining
libcudnn_adv_train.so.8:cudnnRNNForwardTrainingEx
libcudnn_adv_train.so.8:cudnnSetCTCLossDescriptor
libcudnn_adv_train.so.8:cudnnSetCTCLossDescriptorEx
libcudnn_adv_train.so.8:cudnnSetCTCLossDescriptor_v8
libcudnn_adv_train.so.8:libcudnn_adv_train.so.8
libcudnn_cnn_infer.so.8:_Z104__device_stub__Z46cudnn_convolve_hgemm_sm35_ldg_nn_32x16x64x8x16iiiPviS_iS_18kernel_conv_paramsiiffiS_S_iiiPviS_iS_R18kernel_conv_paramsiiffiS_S_
libcudnn_cnn_infer.so.8:_Z104__device_stub__Z46cudnn_convolve_hgemm_sm35_ldg_nn_64x8x256x8x32iiiPviS_iS_18kernel_conv_paramsiiffiS_S_iiiPviS_iS_R18kernel_conv_paramsiiffiS_S_
libcudnn_cnn_infer.so.8:_Z104__device_stub__Z46cudnn_convolve_sgemm_sm35_ldg_nn_32x16x64x8x16iiiPviS_iS_18kernel_conv_paramsiiffiS_S_iiiPviS_iS_R18kernel_conv_paramsiiffiS_S_
libcudnn_cnn_infer.so.8:_Z104__device_stub__Z46cudnn_convolve_sgemm_sm35_ldg_nn_64x8x256x8x32iiiPviS_iS_18kernel_conv_paramsiiffiS_S_iiiPviS_iS_R18kernel_conv_paramsiiffiS_S_
libcudnn_cnn_infer.so.8:_Z105__device_stub__Z47cudnn_convolve_hgemm_sm35_ldg_nn_64x16x128x8x32iiiPviS_iS_18kernel_conv_paramsiiffiS_S_iiiPviS_iS_R18kernel_conv_paramsiiffiS_S_
libcudnn_cnn_infer.so.8:_Z105__device_stub__Z47cudnn_convolve_hgemm_sm35_ldg_nn_64x16x64x16x16iiiPviS_iS_18kernel_conv_paramsiiffiS_S_iiiPviS_iS_R18kernel_conv_paramsiiffiS_S_
libcudnn_cnn_infer.so.8:_Z105__device_stub__Z47cudnn_convolve_sgemm_sm35_ldg_nn_64x16x128x8x32iiiPviS_iS_18kernel_conv_paramsiiffiS_S_iiiPviS_iS_R18kernel_conv_paramsiiffiS_S_
libcudnn_cnn_infer.so.8:_Z105__device_stub__Z47cudnn_convolve_sgemm_sm35_ldg_nn_64x16x64x16x16iiiPviS_iS_18kernel_conv_paramsiiffiS_S_iiiPviS_iS_R18kernel_conv_paramsiiffiS_S_
libcudnn_cnn_infer.so.8:_Z106__device_stub__Z48cudnn_convolve_hgemm_sm35_ldg_nn_128x8x128x16x16iiiPviS_iS_18kernel_conv_paramsiiffiS_S_iiiPviS_iS_R18kernel_conv_paramsiiffiS_S_
libcudnn_cnn_infer.so.8:_Z106__device_stub__Z48cudnn_convolve_sgemm_sm35_ldg_nn_128x8x128x16x16iiiPviS_iS_18kernel_conv_paramsiiffiS_S_iiiPviS_iS_R18kernel_conv_paramsiiffiS_S_
libcudnn_cnn_infer.so.8:_Z108__device_stub__Z44volta_scudnn_128x32_3dconv_dgrad_small_nn_v1N10cask_cudnn18ImplicitGemmParamsILi8ELi128EEERN10cask_cudnn18ImplicitGemmParamsILi8ELi128EEE
libcudnn_cnn_infer.so.8:_Z108__device_stub__Z44volta_scudnn_128x32_3dconv_fprop_small_nn_v1N10cask_cudnn18ImplicitGemmParamsILi8ELi128EEERN10cask_cudnn18ImplicitGemmParamsILi8ELi128EEE
libcudnn_cnn_infer.so.8:_Z108__device_stub__Z44volta_scudnn_128x64_3dconv_dgrad_small_nn_v1N10cask_cudnn18ImplicitGemmParamsILi8ELi128EEERN10cask_cudnn18ImplicitGemmParamsILi8ELi128EEE
libcudnn_cnn_infer.so.8:_Z108__device_stub__Z44volta_scudnn_128x64_3dconv_fprop_small_nn_v1N10cask_cudnn18ImplicitGemmParamsILi8ELi128EEERN10cask_cudnn18ImplicitGemmParamsILi8ELi128EEE
libcudnn_cnn_infer.so.8:_Z109__device_stub__Z45volta_hcudnn_128x128_3dconv_dgrad_small_nn_v1N10cask_cudnn18ImplicitGemmParamsILi8ELi128EEERN10cask_cudnn18ImplicitGemmParamsILi8ELi128EEE
libcudnn_cnn_infer.so.8:_Z109__device_stub__Z45volta_hcudnn_128x128_3dconv_fprop_small_nn_v1N10cask_cudnn18ImplicitGemmParamsILi8ELi128EEERN10cask_cudnn18ImplicitGemmParamsILi8ELi128EEE
libcudnn_cnn_infer.so.8:_Z109__device_stub__Z45volta_scudnn_128x128_3dconv_dgrad_small_nn_v1N10cask_cudnn18ImplicitGemmParamsILi8ELi128EEERN10cask_cudnn18ImplicitGemmParamsILi8ELi128EEE
libcudnn_cnn_infer.so.8:_Z109__device_stub__Z45volta_scudnn_128x128_3dconv_fprop_small_nn_v1N10cask_cudnn18ImplicitGemmParamsILi8ELi128EEERN10cask_cudnn18ImplicitGemmParamsILi8ELi128EEE
libcudnn_cnn_infer.so.8:_Z109__device_stub__Z45volta_scudnn_128x64_3dconv_dgrad_medium_nn_v1N10cask_cudnn18ImplicitGemmParamsILi8ELi256EEERN10cask_cudnn18ImplicitGemmParamsILi8ELi256EEE
libcudnn_cnn_infer.so.8:_Z109__device_stub__Z45volta_scudnn_128x64_3dconv_fprop_medium_nn_v1N10cask_cudnn18ImplicitGemmParamsILi8ELi256EEERN10cask_cudnn18ImplicitGemmParamsILi8ELi256EEE
libcudnn_cnn_infer.so.8:_Z10isImma8816PN10cask_cudnn6ShaderE
libcudnn_cnn_infer.so.8:_Z110__device_stub__Z46maxwell_hcudnn_256x64_3dconv_dgrad_large_nn_v0N10cask_cudnn18ImplicitGemmParamsILi4ELi768EEERN10cask_cudnn18ImplicitGemmParamsILi4ELi768EEE
libcudnn_cnn_infer.so.8:_Z110__device_stub__Z46maxwell_hcudnn_256x64_3dconv_dgrad_small_nn_v0N10cask_cudnn18ImplicitGemmParamsILi8ELi128EEERN10cask_cudnn18ImplicitGemmParamsILi8ELi128EEE
libcudnn_cnn_infer.so.8:_Z110__device_stub__Z46maxwell_hcudnn_256x64_3dconv_fprop_large_nn_v0N10cask_cudnn18ImplicitGemmParamsILi4ELi768EEERN10cask_cudnn18ImplicitGemmParamsILi4ELi768EEE
libcudnn_cnn_infer.so.8:_Z110__device_stub__Z46maxwell_hcudnn_256x64_3dconv_fprop_small_nn_v0N10cask_cudnn18ImplicitGemmParamsILi8ELi128EEERN10cask_cudnn18ImplicitGemmParamsILi8ELi128EEE
libcudnn_cnn_infer.so.8:_Z110__device_stub__Z46maxwell_scudnn_128x32_3dconv_dgrad_large_nn_v0N10cask_cudnn18ImplicitGemmParamsILi4ELi768EEERN10cask_cudnn18ImplicitGemmParamsILi4ELi768EEE
libcudnn_cnn_infer.so.8:_Z110__device_stub__Z46maxwell_scudnn_128x32_3dconv_dgrad_small_nn_v0N10cask_cudnn18ImplicitGemmParamsILi8ELi128EEERN10cask_cudnn18ImplicitGemmParamsILi8ELi128EEE
libcudnn_cnn_infer.so.8:_Z110__device_stub__Z46maxwell_scudnn_128x32_3dconv_fprop_large_nn_v0N10cask_cudnn18ImplicitGemmParamsILi4ELi768EEERN10cask_cudnn18ImplicitGemmParamsILi4ELi768EEE
libcudnn_cnn_infer.so.8:_Z110__device_stub__Z46maxwell_scudnn_128x32_3dconv_fprop_small_nn_v0N10cask_cudnn18ImplicitGemmParamsILi8ELi128EEERN10cask_cudnn18ImplicitGemmParamsILi8ELi128EEE
libcudnn_cnn_infer.so.8:_Z110__device_stub__Z46maxwell_scudnn_128x64_3dconv_dgrad_large_nn_v0N10cask_cudnn18ImplicitGemmParamsILi4ELi768EEERN10cask_cudnn18ImplicitGemmParamsILi4ELi768EEE
libcudnn_cnn_infer.so.8:_Z110__device_stub__Z46maxwell_scudnn_128x64_3dconv_dgrad_small_nn_v0N10cask_cudnn18ImplicitGemmParamsILi8ELi128EEERN10cask_cudnn18ImplicitGemmParamsILi8ELi128EEE
libcudnn_cnn_infer.so.8:_Z110__device_stub__Z46maxwell_scudnn_128x64_3dconv_fprop_large_nn_v0N10cask_cudnn18ImplicitGemmParamsILi4ELi768EEERN10cask_cudnn18ImplicitGemmParamsILi4ELi768EEE
libcudnn_cnn_infer.so.8:_Z110__device_stub__Z46maxwell_scudnn_128x64_3dconv_fprop_small_nn_v0N10cask_cudnn18ImplicitGemmParamsILi8ELi128EEERN10cask_cudnn18ImplicitGemmParamsILi8ELi128EEE
libcudnn_cnn_infer.so.8:_Z110__device_stub__Z46volta_hcudnn_128x128_3dconv_dgrad_medium_nn_v1N10cask_cudnn18ImplicitGemmParamsILi8ELi256EEERN10cask_cudnn18ImplicitGemmParamsILi8ELi256EEE
libcudnn_cnn_infer.so.8:_Z110__device_stub__Z46volta_hcudnn_128x128_3dconv_fprop_medium_nn_v1N10cask_cudnn18ImplicitGemmParamsILi8ELi256EEERN10cask_cudnn18ImplicitGemmParamsILi8ELi256EEE
libcudnn_cnn_infer.so.8:_Z110__device_stub__Z46volta_scudnn_128x128_3dconv_dgrad_medium_nn_v1N10cask_cudnn18ImplicitGemmParamsILi8ELi256EEERN10cask_cudnn18ImplicitGemmParamsILi8ELi256EEE
libcudnn_cnn_infer.so.8:_Z110__device_stub__Z46volta_scudnn_128x128_3dconv_fprop_medium_nn_v1N10cask_cudnn18ImplicitGemmParamsILi8ELi256EEERN10cask_cudnn18ImplicitGemmParamsILi8ELi256EEE
libcudnn_cnn_infer.so.8:_Z111__device_stub__Z47maxwell_hcudnn_128x128_3dconv_dgrad_large_nn_v0N10cask_cudnn18ImplicitGemmParamsILi4ELi768EEERN10cask_cudnn18ImplicitGemmParamsILi4ELi768EEE
libcudnn_cnn_infer.so.8:_Z111__device_stub__Z47maxwell_hcudnn_128x128_3dconv_dgrad_small_nn_v0N10cask_cudnn18ImplicitGemmParamsILi8ELi128EEERN10cask_cudnn18ImplicitGemmParamsILi8ELi128EEE
libcudnn_cnn_infer.so.8:_Z111__device_stub__Z47maxwell_hcudnn_128x128_3dconv_fprop_large_nn_v0N10cask_cudnn18ImplicitGemmParamsILi4ELi768EEERN10cask_cudnn18ImplicitGemmParamsILi4ELi768EEE
libcudnn_cnn_infer.so.8:_Z111__device_stub__Z47maxwell_hcudnn_128x128_3dconv_fprop_small_nn_v0N10cask_cudnn18ImplicitGemmParamsILi8ELi128EEERN10cask_cudnn18ImplicitGemmParamsILi8ELi128EEE
libcudnn_cnn_infer.so.8:_Z111__device_stub__Z47maxwell_hcudnn_256x128_3dconv_dgrad_large_nn_v0N10cask_cudnn18ImplicitGemmParamsILi4ELi768EEERN10cask_cudnn18ImplicitGemmParamsILi4ELi768EEE
libcudnn_cnn_infer.so.8:_Z111__device_stub__Z47maxwell_hcudnn_256x128_3dconv_dgrad_small_nn_v0N10cask_cudnn18ImplicitGemmParamsILi8ELi128EEERN10cask_cudnn18ImplicitGemmParamsILi8ELi128EEE
libcudnn_cnn_infer.so.8:_Z111__device_stub__Z47maxwell_hcudnn_256x128_3dconv_fprop_large_nn_v0N10cask_cudnn18ImplicitGemmParamsILi4ELi768EEERN10cask_cudnn18ImplicitGemmParamsILi4ELi768EEE
libcudnn_cnn_infer.so.8:_Z111__device_stub__Z47maxwell_hcudnn_256x128_3dconv_fprop_small_nn_v0N10cask_cudnn18ImplicitGemmParamsILi8ELi128EEERN10cask_cudnn18ImplicitGemmParamsILi8ELi128EEE
libcudnn_cnn_infer.so.8:_Z111__device_stub__Z47maxwell_hcudnn_256x64_3dconv_dgrad_medium_nn_v0N10cask_cudnn18ImplicitGemmParamsILi8ELi256EEERN10cask_cudnn18ImplicitGemmParamsILi8ELi256EEE
libcudnn_cnn_infer.so.8:_Z111__device_stub__Z47maxwell_hcudnn_256x64_3dconv_fprop_medium_nn_v0N10cask_cudnn18ImplicitGemmParamsILi8ELi256EEERN10cask_cudnn18ImplicitGemmParamsILi8ELi256EEE
libcudnn_cnn_infer.so.8:_Z111__device_stub__Z47maxwell_scudnn_128x128_3dconv_dgrad_large_nn_v0N10cask_cudnn18ImplicitGemmParamsILi4ELi768EEERN10cask_cudnn18ImplicitGemmParamsILi4ELi768EEE
libcudnn_cnn_infer.so.8:_Z111__device_stub__Z47maxwell_scudnn_128x128_3dconv_dgrad_small_nn_v0N10cask_cudnn18ImplicitGemmParamsILi8ELi128EEERN10cask_cudnn18ImplicitGemmParamsILi8ELi128EEE
libcudnn_cnn_infer.so.8:_Z111__device_stub__Z47maxwell_scudnn_128x128_3dconv_fprop_large_nn_v0N10cask_cudnn18ImplicitGemmParamsILi4ELi768EEERN10cask_cudnn18ImplicitGemmParamsILi4ELi768EEE
libcudnn_cnn_infer.so.8:_Z111__device_stub__Z47maxwell_scudnn_128x128_3dconv_fprop_small_nn_v0N10cask_cudnn18ImplicitGemmParamsILi8ELi128EEERN10cask_cudnn18ImplicitGemmParamsILi8ELi128EEE
libcudnn_cnn_infer.so.8:_Z111__device_stub__Z47maxwell_scudnn_128x32_3dconv_dgrad_medium_nn_v0N10cask_cudnn18ImplicitGemmParamsILi8ELi256EEERN10cask_cudnn18ImplicitGemmParamsILi8ELi256EEE
libcudnn_cnn_infer.so.8:_Z111__device_stub__Z47maxwell_scudnn_128x32_3dconv_fprop_medium_nn_v0N10cask_cudnn18ImplicitGemmParamsILi8ELi256EEERN10cask_cudnn18ImplicitGemmParamsILi8ELi256EEE
libcudnn_cnn_infer.so.8:_Z111__device_stub__Z47maxwell_scudnn_128x64_3dconv_dgrad_medium_nn_v0N10cask_cudnn18ImplicitGemmParamsILi8ELi256EEERN10cask_cudnn18ImplicitGemmParamsILi8ELi256EEE
libcudnn_cnn_infer.so.8:_Z111__device_stub__Z47maxwell_scudnn_128x64_3dconv_fprop_medium_nn_v0N10cask_cudnn18ImplicitGemmParamsILi8ELi256EEERN10cask_cudnn18ImplicitGemmParamsILi8ELi256EEE
libcudnn_cnn_infer.so.8:_Z111__device_stub__Z47volta_scudnn_128x64_3dconv_dgrad_interior_nn_v1N10cask_cudnn18ImplicitGemmParamsILi4ELi512EEERN10cask_cudnn18ImplicitGemmParamsILi4ELi512EEE
libcudnn_cnn_infer.so.8:_Z111__device_stub__Z47volta_scudnn_128x64_3dconv_fprop_interior_nn_v1N10cask_cudnn18ImplicitGemmParamsILi4ELi512EEERN10cask_cudnn18ImplicitGemmParamsILi4ELi512EEE
libcudnn_cnn_infer.so.8:_Z112__device_stub__Z48maxwell_hcudnn_128x128_3dconv_dgrad_medium_nn_v0N10cask_cudnn18ImplicitGemmParamsILi8ELi256EEERN10cask_cudnn18ImplicitGemmParamsILi8ELi256EEE
libcudnn_cnn_infer.so.8:_Z112__device_stub__Z48maxwell_hcudnn_128x128_3dconv_fprop_medium_nn_v0N10cask_cudnn18ImplicitGemmParamsILi8ELi256EEERN10cask_cudnn18ImplicitGemmParamsILi8ELi256EEE
libcudnn_cnn_infer.so.8:_Z112__device_stub__Z48maxwell_hcudnn_256x128_3dconv_dgrad_medium_nn_v0N10cask_cudnn18ImplicitGemmParamsILi8ELi256EEERN10cask_cudnn18ImplicitGemmParamsILi8ELi256EEE
libcudnn_cnn_infer.so.8:_Z112__device_stub__Z48maxwell_hcudnn_256x128_3dconv_fprop_medium_nn_v0N10cask_cudnn18ImplicitGemmParamsILi8ELi256EEERN10cask_cudnn18ImplicitGemmParamsILi8ELi256EEE
libcudnn_cnn_infer.so.8:_Z112__device_stub__Z48maxwell_scudnn_128x128_3dconv_dgrad_medium_nn_v0N10cask_cudnn18ImplicitGemmParamsILi8ELi256EEERN10cask_cudnn18ImplicitGemmParamsILi8ELi256EEE
libcudnn_cnn_infer.so.8:_Z112__device_stub__Z48maxwell_scudnn_128x128_3dconv_fprop_medium_nn_v0N10cask_cudnn18ImplicitGemmParamsILi8ELi256EEERN10cask_cudnn18ImplicitGemmParamsILi8ELi256EEE
libcudnn_cnn_infer.so.8:_Z112__device_stub__Z48volta_hcudnn_128x128_3dconv_dgrad_interior_nn_v1N10cask_cudnn18ImplicitGemmParamsILi4ELi512EEERN10cask_cudnn18ImplicitGemmParamsILi4ELi512EEE
libcudnn_cnn_infer.so.8:_Z112__device_stub__Z48volta_hcudnn_128x128_3dconv_fprop_interior_nn_v1N10cask_cudnn18ImplicitGemmParamsILi4ELi512EEERN10cask_cudnn18ImplicitGemmParamsILi4ELi512EEE
libcudnn_cnn_infer.so.8:_Z112__device_stub__Z48volta_scudnn_128x128_3dconv_dgrad_interior_nn_v1N10cask_cudnn18ImplicitGemmParamsILi4ELi512EEERN10cask_cudnn18ImplicitGemmParamsILi4ELi512EEE
libcudnn_cnn_infer.so.8:_Z112__device_stub__Z48volta_scudnn_128x128_3dconv_fprop_interior_nn_v1N10cask_cudnn18ImplicitGemmParamsILi4ELi512EEERN10cask_cudnn18ImplicitGemmParamsILi4ELi512EEE
libcudnn_cnn_infer.so.8:_Z113__device_stub__Z49maxwell_hcudnn_256x64_3dconv_dgrad_interior_nn_v0N10cask_cudnn18ImplicitGemmParamsILi4ELi512EEERN10cask_cudnn18ImplicitGemmParamsILi4ELi512EEE
libcudnn_cnn_infer.so.8:_Z113__device_stub__Z49maxwell_hcudnn_256x64_3dconv_fprop_interior_nn_v0N10cask_cudnn18ImplicitGemmParamsILi4ELi512EEERN10cask_cudnn18ImplicitGemmParamsILi4ELi512EEE
libcudnn_cnn_infer.so.8:_Z113__device_stub__Z49maxwell_scudnn_128x32_3dconv_dgrad_interior_nn_v0N10cask_cudnn18ImplicitGemmParamsILi4ELi512EEERN10cask_cudnn18ImplicitGemmParamsILi4ELi512EEE
libcudnn_cnn_infer.so.8:_Z113__device_stub__Z49maxwell_scudnn_128x32_3dconv_fprop_interior_nn_v0N10cask_cudnn18ImplicitGemmParamsILi4ELi512EEERN10cask_cudnn18ImplicitGemmParamsILi4ELi512EEE
libcudnn_cnn_infer.so.8:_Z113__device_stub__Z49maxwell_scudnn_128x64_3dconv_dgrad_interior_nn_v0N10cask_cudnn18ImplicitGemmParamsILi4ELi512EEERN10cask_cudnn18ImplicitGemmParamsILi4ELi512EEE
libcudnn_cnn_infer.so.8:_Z113__device_stub__Z49maxwell_scudnn_128x64_3dconv_fprop_interior_nn_v0N10cask_cudnn18ImplicitGemmParamsILi4ELi512EEERN10cask_cudnn18ImplicitGemmParamsILi4ELi512EEE
libcudnn_cnn_infer.so.8:_Z114__device_stub__Z50maxwell_hcudnn_128x128_3dconv_dgrad_interior_nn_v0N10cask_cudnn18ImplicitGemmParamsILi4ELi512EEERN10cask_cudnn18ImplicitGemmParamsILi4ELi512EEE
libcudnn_cnn_infer.so.8:_Z114__device_stub__Z50maxwell_hcudnn_128x128_3dconv_fprop_interior_nn_v0N10cask_cudnn18ImplicitGemmParamsILi4ELi512EEERN10cask_cudnn18ImplicitGemmParamsILi4ELi512EEE
libcudnn_cnn_infer.so.8:_Z114__device_stub__Z50maxwell_hcudnn_256x128_3dconv_dgrad_interior_nn_v0N10cask_cudnn18ImplicitGemmParamsILi4ELi512EEERN10cask_cudnn18ImplicitGemmParamsILi4ELi512EEE
libcudnn_cnn_infer.so.8:_Z114__device_stub__Z50maxwell_hcudnn_256x128_3dconv_fprop_interior_nn_v0N10cask_cudnn18ImplicitGemmParamsILi4ELi512EEERN10cask_cudnn18ImplicitGemmParamsILi4ELi512EEE
libcudnn_cnn_infer.so.8:_Z114__device_stub__Z50maxwell_scudnn_128x128_3dconv_dgrad_interior_nn_v0N10cask_cudnn18ImplicitGemmParamsILi4ELi512EEERN10cask_cudnn18ImplicitGemmParamsILi4ELi512EEE
libcudnn_cnn_infer.so.8:_Z114__device_stub__Z50maxwell_scudnn_128x128_3dconv_fprop_interior_nn_v0N10cask_cudnn18ImplicitGemmParamsILi4ELi512EEERN10cask_cudnn18ImplicitGemmParamsILi4ELi512EEE
libcudnn_cnn_infer.so.8:_Z114__device_stub__Z50volta_scudnn_128x32_3dconv_dgrad_xregs_large_nn_v1N10cask_cudnn18ImplicitGemmParamsILi4ELi768EEERN10cask_cudnn18ImplicitGemmParamsILi4ELi768EEE
libcudnn_cnn_infer.so.8:_Z114__device_stub__Z50volta_scudnn_128x32_3dconv_fprop_xregs_large_nn_v1N10cask_cudnn18ImplicitGemmParamsILi4ELi768EEERN10cask_cudnn18ImplicitGemmParamsILi4ELi768EEE
libcudnn_cnn_infer.so.8:_Z114__device_stub__Z50volta_scudnn_128x64_3dconv_dgrad_xregs_large_nn_v1N10cask_cudnn18ImplicitGemmParamsILi4ELi768EEERN10cask_cudnn18ImplicitGemmParamsILi4ELi768EEE
libcudnn_cnn_infer.so.8:_Z114__device_stub__Z50volta_scudnn_128x64_3dconv_fprop_xregs_large_nn_v1N10cask_cudnn18ImplicitGemmParamsILi4ELi768EEERN10cask_cudnn18ImplicitGemmParamsILi4ELi768EEE
libcudnn_cnn_infer.so.8:_Z115__device_stub__Z51volta_scudnn_128x128_3dconv_dgrad_xregs_large_nn_v1N10cask_cudnn18ImplicitGemmParamsILi4ELi768EEERN10cask_cudnn18ImplicitGemmParamsILi4ELi768EEE
libcudnn_cnn_infer.so.8:_Z115__device_stub__Z51volta_scudnn_128x128_3dconv_fprop_xregs_large_nn_v1N10cask_cudnn18ImplicitGemmParamsILi4ELi768EEERN10cask_cudnn18ImplicitGemmParamsILi4ELi768EEE
libcudnn_cnn_infer.so.8:_Z115__device_stub__Z57cudnn_convolve_precomputed_hgemm_sm35_ldg_nn_32x16x32x8x8iiiPviS_S_18kernel_conv_paramsiffiS_S_S_iiiPviS_S_R18kernel_conv_paramsiffiS_S_S_
libcudnn_cnn_infer.so.8:_Z115__device_stub__Z57cudnn_convolve_precomputed_sgemm_sm35_ldg_nn_32x16x32x8x8iiiPviS_S_18kernel_conv_paramsiffiS_S_S_iiiPviS_S_R18kernel_conv_paramsiffiS_S_S_
libcudnn_cnn_infer.so.8:_Z116__device_stub__Z58cudnn_convolve_precomputed_hgemm_sm35_ldg_nn_64x8x256x8x32iiiPviS_S_18kernel_conv_paramsiffiS_S_S_iiiPviS_S_R18kernel_conv_paramsiffiS_S_S_
libcudnn_cnn_infer.so.8:_Z116__device_stub__Z58cudnn_convolve_precomputed_sgemm_sm35_ldg_nn_64x8x256x8x32iiiPviS_S_18kernel_conv_paramsiffiS_S_S_iiiPviS_S_R18kernel_conv_paramsiffiS_S_S_
libcudnn_cnn_infer.so.8:_Z117__device_stub__Z59cudnn_convolve_precomputed_hgemm_sm35_ldg_nn_64x16x128x8x32iiiPviS_S_18kernel_conv_paramsiffiS_S_S_iiiPviS_S_R18kernel_conv_paramsiffiS_S_S_
libcudnn_cnn_infer.so.8:_Z117__device_stub__Z59cudnn_convolve_precomputed_sgemm_sm35_ldg_nn_64x16x128x8x32iiiPviS_S_18kernel_conv_paramsiffiS_S_S_iiiPviS_S_R18kernel_conv_paramsiffiS_S_S_
libcudnn_cnn_infer.so.8:_Z119__device_stub__Z55volta_fp16_scudnn_fp16_128x128_3dconv_dgrad_small_nn_v1N10cask_cudnn18ImplicitGemmParamsILi8ELi128EEERN10cask_cudnn18ImplicitGemmParamsILi8ELi128EEE
libcudnn_cnn_infer.so.8:_Z119__device_stub__Z55volta_fp16_scudnn_fp16_128x128_3dconv_fprop_small_nn_v1N10cask_cudnn18ImplicitGemmParamsILi8ELi128EEERN10cask_cudnn18ImplicitGemmParamsILi8ELi128EEE
libcudnn_cnn_infer.so.8:_Z11getEnumName22cudnnBackendKnobType_t
libcudnn_cnn_infer.so.8:_Z11getEnumName22cudnnConvolutionMode_t
libcudnn_cnn_infer.so.8:_Z11getEnumName25cudnnConvolutionFwdAlgo_t
libcudnn_cnn_infer.so.8:_Z11getEnumName26cudnnBackendBehaviorNote_t
libcudnn_cnn_infer.so.8:_Z11getEnumName27cudnnBackendAttributeName_t
libcudnn_cnn_infer.so.8:_Z11getEnumName27cudnnBackendAttributeType_t
libcudnn_cnn_infer.so.8:_Z11getEnumName27cudnnBackendNumericalNote_t
libcudnn_cnn_infer.so.8:_Z11getEnumName28cudnnBackendDescriptorType_t
libcudnn_cnn_infer.so.8:_Z11getEnumName29cudnnConvolutionBwdDataAlgo_t
libcudnn_cnn_infer.so.8:_Z120__device_stub__Z56maxwell_fp16_scudnn_fp16_128x32_3dconv_dgrad_large_nn_v0N10cask_cudnn18ImplicitGemmParamsILi4ELi768EEERN10cask_cudnn18ImplicitGemmParamsILi4ELi768EEE
libcudnn_cnn_infer.so.8:_Z120__device_stub__Z56maxwell_fp16_scudnn_fp16_128x32_3dconv_dgrad_small_nn_v0N10cask_cudnn18ImplicitGemmParamsILi8ELi128EEERN10cask_cudnn18ImplicitGemmParamsILi8ELi128EEE
libcudnn_cnn_infer.so.8:_Z120__device_stub__Z56maxwell_fp16_scudnn_fp16_128x32_3dconv_fprop_large_nn_v0N10cask_cudnn18ImplicitGemmParamsILi4ELi768EEERN10cask_cudnn18ImplicitGemmParamsILi4ELi768EEE
libcudnn_cnn_infer.so.8:_Z120__device_stub__Z56maxwell_fp16_scudnn_fp16_128x32_3dconv_fprop_small_nn_v0N10cask_cudnn18ImplicitGemmParamsILi8ELi128EEERN10cask_cudnn18ImplicitGemmParamsILi8ELi128EEE
libcudnn_cnn_infer.so.8:_Z120__device_stub__Z56maxwell_fp16_scudnn_fp16_128x64_3dconv_dgrad_large_nn_v0N10cask_cudnn18ImplicitGemmParamsILi4ELi768EEERN10cask_cudnn18ImplicitGemmParamsILi4ELi768EEE
libcudnn_cnn_infer.so.8:_Z120__device_stub__Z56maxwell_fp16_scudnn_fp16_128x64_3dconv_dgrad_small_nn_v0N10cask_cudnn18ImplicitGemmParamsILi8ELi128EEERN10cask_cudnn18ImplicitGemmParamsILi8ELi128EEE
libcudnn_cnn_infer.so.8:_Z120__device_stub__Z56maxwell_fp16_scudnn_fp16_128x64_3dconv_fprop_large_nn_v0N10cask_cudnn18ImplicitGemmParamsILi4ELi768EEERN10cask_cudnn18ImplicitGemmParamsILi4ELi768EEE
libcudnn_cnn_infer.so.8:_Z120__device_stub__Z56maxwell_fp16_scudnn_fp16_128x64_3dconv_fprop_small_nn_v0N10cask_cudnn18ImplicitGemmParamsILi8ELi128EEERN10cask_cudnn18ImplicitGemmParamsILi8ELi128EEE
libcudnn_cnn_infer.so.8:_Z120__device_stub__Z56volta_fp16_scudnn_fp16_128x128_3dconv_dgrad_medium_nn_v1N10cask_cudnn18ImplicitGemmParamsILi8ELi256EEERN10cask_cudnn18ImplicitGemmParamsILi8ELi256EEE
libcudnn_cnn_infer.so.8:_Z120__device_stub__Z56volta_fp16_scudnn_fp16_128x128_3dconv_fprop_medium_nn_v1N10cask_cudnn18ImplicitGemmParamsILi8ELi256EEERN10cask_cudnn18ImplicitGemmParamsILi8ELi256EEE
libcudnn_cnn_infer.so.8:_Z121__device_stub__Z57maxwell_fp16_scudnn_fp16_128x128_3dconv_dgrad_large_nn_v0N10cask_cudnn18ImplicitGemmParamsILi4ELi768EEERN10cask_cudnn18ImplicitGemmParamsILi4ELi768EEE
libcudnn_cnn_infer.so.8:_Z121__device_stub__Z57maxwell_fp16_scudnn_fp16_128x128_3dconv_dgrad_small_nn_v0N10cask_cudnn18ImplicitGemmParamsILi8ELi128EEERN10cask_cudnn18ImplicitGemmParamsILi8ELi128EEE
libcudnn_cnn_infer.so.8:_Z121__device_stub__Z57maxwell_fp16_scudnn_fp16_128x128_3dconv_fprop_large_nn_v0N10cask_cudnn18ImplicitGemmParamsILi4ELi768EEERN10cask_cudnn18ImplicitGemmParamsILi4ELi768EEE
libcudnn_cnn_infer.so.8:_Z121__device_stub__Z57maxwell_fp16_scudnn_fp16_128x128_3dconv_fprop_small_nn_v0N10cask_cudnn18ImplicitGemmParamsILi8ELi128EEERN10cask_cudnn18ImplicitGemmParamsILi8ELi128EEE
libcudnn_cnn_infer.so.8:_Z121__device_stub__Z57maxwell_fp16_scudnn_fp16_128x32_3dconv_dgrad_medium_nn_v0N10cask_cudnn18ImplicitGemmParamsILi8ELi256EEERN10cask_cudnn18ImplicitGemmParamsILi8ELi256EEE
libcudnn_cnn_infer.so.8:_Z121__device_stub__Z57maxwell_fp16_scudnn_fp16_128x32_3dconv_fprop_medium_nn_v0N10cask_cudnn18ImplicitGemmParamsILi8ELi256EEERN10cask_cudnn18ImplicitGemmParamsILi8ELi256EEE
libcudnn_cnn_infer.so.8:_Z121__device_stub__Z57maxwell_fp16_scudnn_fp16_128x64_3dconv_dgrad_medium_nn_v0N10cask_cudnn18ImplicitGemmParamsILi8ELi256EEERN10cask_cudnn18ImplicitGemmParamsILi8ELi256EEE
libcudnn_cnn_infer.so.8:_Z121__device_stub__Z57maxwell_fp16_scudnn_fp16_128x64_3dconv_fprop_medium_nn_v0N10cask_cudnn18ImplicitGemmParamsILi8ELi256EEERN10cask_cudnn18ImplicitGemmParamsILi8ELi256EEE
libcudnn_cnn_infer.so.8:_Z122__device_stub__Z58maxwell_fp16_scudnn_fp16_128x128_3dconv_dgrad_medium_nn_v0N10cask_cudnn18ImplicitGemmParamsILi8ELi256EEERN10cask_cudnn18ImplicitGemmParamsILi8ELi256EEE
libcudnn_cnn_infer.so.8:_Z122__device_stub__Z58maxwell_fp16_scudnn_fp16_128x128_3dconv_fprop_medium_nn_v0N10cask_cudnn18ImplicitGemmParamsILi8ELi256EEERN10cask_cudnn18ImplicitGemmParamsILi8ELi256EEE
libcudnn_cnn_infer.so.8:_Z122__device_stub__Z58volta_fp16_scudnn_fp16_128x128_3dconv_dgrad_interior_nn_v1N10cask_cudnn18ImplicitGemmParamsILi4ELi512EEERN10cask_cudnn18ImplicitGemmParamsILi4ELi512EEE
libcudnn_cnn_infer.so.8:_Z122__device_stub__Z58volta_fp16_scudnn_fp16_128x128_3dconv_fprop_interior_nn_v1N10cask_cudnn18ImplicitGemmParamsILi4ELi512EEERN10cask_cudnn18ImplicitGemmParamsILi4ELi512EEE
libcudnn_cnn_infer.so.8:_Z122__device_stub__ZN5cudnn3cnn20dgrad_1x1_stride_2x2ENS0_40Dgrad2d_First_Layer_884_NHWC_Engine_Impl23Dgrad1x1Stride2x2ParamsERN5cudnn3cnn40Dgrad2d_First_Layer_884_NHWC_Engine_Impl23Dgrad1x1Stride2x2ParamsE
libcudnn_cnn_infer.so.8:_Z123__device_stub__Z59maxwell_fp16_scudnn_fp16_128x32_3dconv_dgrad_interior_nn_v0N10cask_cudnn18ImplicitGemmParamsILi4ELi512EEERN10cask_cudnn18ImplicitGemmParamsILi4ELi512EEE
libcudnn_cnn_infer.so.8:_Z123__device_stub__Z59maxwell_fp16_scudnn_fp16_128x32_3dconv_fprop_interior_nn_v0N10cask_cudnn18ImplicitGemmParamsILi4ELi512EEERN10cask_cudnn18ImplicitGemmParamsILi4ELi512EEE
libcudnn_cnn_infer.so.8:_Z123__device_stub__Z59maxwell_fp16_scudnn_fp16_128x64_3dconv_dgrad_interior_nn_v0N10cask_cudnn18ImplicitGemmParamsILi4ELi512EEERN10cask_cudnn18ImplicitGemmParamsILi4ELi512EEE
libcudnn_cnn_infer.so.8:_Z123__device_stub__Z59maxwell_fp16_scudnn_fp16_128x64_3dconv_fprop_interior_nn_v0N10cask_cudnn18ImplicitGemmParamsILi4ELi512EEERN10cask_cudnn18ImplicitGemmParamsILi4ELi512EEE
libcudnn_cnn_infer.so.8:_Z124__device_stub__Z60maxwell_fp16_scudnn_fp16_128x128_3dconv_fprop_interior_nn_v0N10cask_cudnn18ImplicitGemmParamsILi4ELi512EEERN10cask_cudnn18ImplicitGemmParamsILi4ELi512EEE
libcudnn_cnn_infer.so.8:_Z125__device_stub__Z61volta_fp16_scudnn_fp16_128x128_3dconv_dgrad_xregs_large_nn_v1N10cask_cudnn18ImplicitGemmParamsILi4ELi768EEERN10cask_cudnn18ImplicitGemmParamsILi4ELi768EEE
libcudnn_cnn_infer.so.8:_Z125__device_stub__Z61volta_fp16_scudnn_fp16_128x128_3dconv_fprop_xregs_large_nn_v1N10cask_cudnn18ImplicitGemmParamsILi4ELi768EEERN10cask_cudnn18ImplicitGemmParamsILi4ELi768EEE
libcudnn_cnn_infer.so.8:_Z13isCaskEnabledP22cudnnConvolutionStructRKN5cudnn4gemm12Conv2dConfigE
libcudnn_cnn_infer.so.8:_Z13logArgBackendPKcPKvPcPii
libcudnn_cnn_infer.so.8:_Z13setCaskFilterRN10cask_cudnn10TensorDescE15cudnnDataType_t19cudnnTensorFormat_tiN5cudnn4gemm12Conv2dType_tERKNS5_12Conv2dConfigE
libcudnn_cnn_infer.so.8:_Z13setCaskTensorRN10cask_cudnn10TensorDescE15cudnnDataType_tmmmmibb
libcudnn_cnn_infer.so.8:_Z14heurGP100Algo4iiii
libcudnn_cnn_infer.so.8:_Z14heurVoltaAlgo4iiii
libcudnn_cnn_infer.so.8:_Z15get_data_config15cudnnDataType_tS_S_S_
libcudnn_cnn_infer.so.8:_Z15heurKeplerAlgo4iiii
libcudnn_cnn_infer.so.8:_Z15heurPascalAlgo4iiii
libcudnn_cnn_infer.so.8:_Z16heurMaxwellAlgo4iiii
libcudnn_cnn_infer.so.8:_Z17conv2d_c1_k1_nhwcP12cudnnContextPKvP17cudnnTensorStructS2_P17cudnnFilterStructS2_P22cudnnConvolutionStructS2_S4_PvbS2_S2_P21cudnnActivationStruct
libcudnn_cnn_infer.so.8:_Z18heurVoltaAlgo4_subRA4_i
libcudnn_cnn_infer.so.8:_Z19conv2d_cask_wrapperP12cudnnContextPKvP19cudnnTensor4dStructS2_P19cudnnFilter4dStructS2_P22cudnnConvolutionStructPvmS2_S4_S9_N5cudnn4gemm12Conv2dType_tERKNSB_12Conv2dConfigEbS2_P21cudnnActivationStructS9_
libcudnn_cnn_infer.so.8:_Z20cask_get_shader_nameRKN5cudnn4gemm12Conv2dConfigE
libcudnn_cnn_infer.so.8:_Z20setupDgradKernelArgsPK19cudnnFilter4dStructPKvPK19cudnnTensor4dStructS3_S6_PK22cudnnConvWorkingStructbPPvPmSB_SC_PiSD_SD_SD_SD_SC_
libcudnn_cnn_infer.so.8:_Z21bn_apply_list_kernelsPiP11Kernel_descPK23Convolution_traits_desc
libcudnn_cnn_infer.so.8:_Z21heurTuringHighSMAlgo4iiii
libcudnn_cnn_infer.so.8:_Z21isCaskDilationEnabledP22cudnnConvolutionStruct
libcudnn_cnn_infer.so.8:_Z22fusion_type0b_xmma_runP12cudnnContextP19fusedOps_type0_planP25fusedOps_type0_vars_cache
libcudnn_cnn_infer.so.8:_Z23isBackwardDataSupportedP12cudnnContextPK17cudnnTensorStructPK17cudnnFilterStructPK22cudnnConvolutionStructS3_29cudnnConvolutionBwdDataAlgo_t
libcudnn_cnn_infer.so.8:_Z24cudnnReorderImma8816BiasP12cudnnContextiPKvPvPS3_m
libcudnn_cnn_infer.so.8:_Z24fusion_type0b_heuristicsP12cudnnContextP27fusedOps_type0_params_cacheP19fusedOps_type0_planRi
libcudnn_cnn_infer.so.8:_Z24setup_kernel_grad_paramsPK19cudnnFilter4dStructPK19cudnnTensor4dStructPK22cudnnConvolutionStructPK22cudnnConvWorkingStructS4_R18kernel_grad_params
libcudnn_cnn_infer.so.8:_Z25conv2d_cask_implementableP19cudnnTensor4dStructP19cudnnFilter4dStructP22cudnnConvolutionStructS0_N5cudnn4gemm12Conv2dType_tERKNS6_12Conv2dConfigE
libcudnn_cnn_infer.so.8:_Z25conv2d_cask_shader_selectRN10cask_cudnn11ConvolutionEPPNS_10ConvShaderEPKc
libcudnn_cnn_infer.so.8:_Z25conv2d_cask_wgrad_wrapperP12cudnnContextPKvP19cudnnTensor4dStructS2_P19cudnnFilter4dStructS2_P22cudnnConvolutionStructPvmS2_S4_S9_N5cudnn4gemm12Conv2dType_tERKNSB_12Conv2dConfigEbS2_P21cudnnActivationStruct
libcudnn_cnn_infer.so.8:_Z25cudnnConvolution3dForwardP12cudnnContextPKvP17cudnnTensorStructS2_P17cudnnFilterStructS2_P22cudnnConvolutionStruct25cudnnConvolutionFwdAlgo_tPvmbS2_SA_S2_S4_SA_
libcudnn_cnn_infer.so.8:_Z26conv2d_cask_workspace_sizeRN10cask_cudnn11ConvolutionEPNS_10ConvShaderEPm
libcudnn_cnn_infer.so.8:_Z26cudnnReorderImma8816FilterP12cudnnContextPKiPKvPvPS5_m
libcudnn_cnn_infer.so.8:_Z26dual_bn_apply_list_kernelsPiP11Kernel_descPK23Convolution_traits_desc
libcudnn_cnn_infer.so.8:_Z26fprop_bn_stat_list_kernelsPiP11Kernel_descPK23Convolution_traits_desc
libcudnn_cnn_infer.so.8:_Z26fusion_type0b_can_run_xmmaP12cudnnContextP27fusedOps_type0_params_cacheP19fusedOps_type0_plani
libcudnn_cnn_infer.so.8:_Z26setup_find_get_conv_paramsP12cudnnContextP17cudnnTensorStructPKvP17cudnnFilterStructS4_P22cudnnConvolutionStructS2_S4_PvmS9_m
libcudnn_cnn_infer.so.8:_Z27conv2d_cask_maxwell_wrapperP12cudnnContextPKvP19cudnnTensor4dStructS2_P19cudnnFilter4dStructS2_P22cudnnConvolutionStructPvmS2_S4_S9_N5cudnn7maxwell4gemm12Conv2dType_tEPKcbS2_P21cudnnActivationStructS9_
libcudnn_cnn_infer.so.8:_Z28cudnnConvolution3d_FFT_TiledP12cudnnContextPKvP17cudnnTensorStructS2_P17cudnnFilterStructiiS2_P22cudnnConvolutionStructPvmbS2_S9_S2_S4_S9_bi
libcudnn_cnn_infer.so.8:_Z28cudnnReorderImma8816Filter3DP12cudnnContextPKiPKvPvPS5_m
libcudnn_cnn_infer.so.8:_Z28fusion_type0b_xmma_make_planP12cudnnContextP19fusedOps_type0_planP27fusedOps_type0_params_cachei
libcudnn_cnn_infer.so.8:_Z29cask_set_dgrad_filter_stridesRN10cask_cudnn10TensorDescE19cudnnTensorFormat_t
libcudnn_cnn_infer.so.8:_Z29setup_kernel_conv_grad_paramsPK19cudnnFilter4dStructPK19cudnnTensor4dStructPK22cudnnConvolutionStructPK22cudnnConvWorkingStructS4_R18kernel_grad_params
libcudnn_cnn_infer.so.8:_Z29setup_kernel_conv_grad_paramsPK19cudnnFilter4dStructPK19cudnnTensor4dStructPK22cudnnConvolutionStructS4_R18kernel_conv_params
libcudnn_cnn_infer.so.8:_Z30conv2d_get_cask_workspace_sizeP19cudnnTensor4dStructP19cudnnFilter4dStructP22cudnnConvolutionStructS0_N5cudnn4gemm12Conv2dType_tERKNS6_12Conv2dConfigEPm
libcudnn_cnn_infer.so.8:_Z30cudnnConvolution3dBackwardDataP12cudnnContextPKvP17cudnnFilterStructS2_P17cudnnTensorStructS2_P22cudnnConvolutionStruct29cudnnConvolutionBwdDataAlgo_tPvmS2_S6_SA_
libcudnn_cnn_infer.so.8:_Z30fusion_volta_type0b_heuristicsP12cudnnContextP27fusedOps_type0_params_cacheP19fusedOps_type0_planRi
libcudnn_cnn_infer.so.8:_Z30getWorkSpaceSizeAlgoFFT1_TiledP17cudnnTensorStructP17cudnnFilterStructP22cudnnConvolutionStructRm
libcudnn_cnn_infer.so.8:_Z30getWorkSpaceSizeAlgoFFT3_TiledP17cudnnTensorStructP17cudnnFilterStructP22cudnnConvolutionStructRm
libcudnn_cnn_infer.so.8:_Z31isBackwardDataHardwareSupportedP12cudnnContextPK17cudnnTensorStructPK17cudnnFilterStructPK22cudnnConvolutionStructS3_
libcudnn_cnn_infer.so.8:_Z32conv2d_cask_wgrad_workspace_sizeRN10cask_cudnn16ConvolutionWgradEPNS_15ConvWgradShaderEPm
libcudnn_cnn_infer.so.8:_Z32cudnnConvolution3dBackwardFilterP12cudnnContextPKvP17cudnnTensorStructS2_S4_S2_P22cudnnConvolutionStruct31cudnnConvolutionBwdFilterAlgo_tPvmS2_P17cudnnFilterStructS8_
libcudnn_cnn_infer.so.8:_Z32dgrad_bn_stat__ReLu_list_kernelsPiP11Kernel_descPK23Convolution_traits_desc
libcudnn_cnn_infer.so.8:_Z32fprop_bn_stat_1x3x3_list_kernelsPiP11Kernel_descPK23Convolution_traits_desc
libcudnn_cnn_infer.so.8:_Z32fusion_volta_type0b_can_run_xmmaP12cudnnContextP27fusedOps_type0_params_cacheP19fusedOps_type0_plani
libcudnn_cnn_infer.so.8:_Z33conv2d_cask_maxwell_wgrad_wrapperP12cudnnContextPKvP19cudnnTensor4dStructS2_P19cudnnFilter4dStructS2_P22cudnnConvolutionStructPvmS2_S4_S9_N5cudnn7maxwell4gemm12Conv2dType_tERKNSC_12Conv2dConfigEPKcbS2_P21cudnnActivationStruct
libcudnn_cnn_infer.so.8:_Z33conv2d_cask_runtime_implementablePKvP19cudnnTensor4dStructP19cudnnFilter4dStructP22cudnnConvolutionStructS0_P21cudnnActivationStructS2_N5cudnn4gemm12Conv2dType_tERKNSA_12Conv2dConfigEb
libcudnn_cnn_infer.so.8:_Z33cudnn_datatype_to_cask_scalartype15cudnnDataType_tPN10cask_cudnn8SafeEnumINS0_33ScalarType_ENUMCLASS_SCOPEWRAPPEREEE
libcudnn_cnn_infer.so.8:_Z34fusion_volta_type0b_xmma_make_planP12cudnnContextP19fusedOps_type0_planP27fusedOps_type0_params_cachei
libcudnn_cnn_infer.so.8:_Z35bn_apply_fprop_bn_stat_list_kernelsPiP11Kernel_descPK23Convolution_traits_desc
libcudnn_cnn_infer.so.8:_Z35bn_apply_fprop_bn_stat_list_kernelsPiP11Kernel_descPK23Convolution_traits_descjjjj
libcudnn_cnn_infer.so.8:_Z36checkConvolutionParametersFFT1_TiledP17cudnnTensorStructP17cudnnFilterStructP22cudnnConvolutionStructS0_i
libcudnn_cnn_infer.so.8:_Z36checkConvolutionParametersFFT2_TiledP19cudnnTensor4dStructP19cudnnFilter4dStructP22cudnnConvolutionStructS0_i
libcudnn_cnn_infer.so.8:_Z36checkConvolutionParametersFFT3_TiledP17cudnnTensorStructP17cudnnFilterStructP22cudnnConvolutionStructS0_
libcudnn_cnn_infer.so.8:_Z36setup_kernel_conv_grad_common_paramsPK19cudnnFilter4dStructPK19cudnnTensor4dStructPK22cudnnConvolutionStructPK22cudnnConvWorkingStructS4_R25conv_kernel_common_params
libcudnn_cnn_infer.so.8:_Z37dgrad_bn_stat_1x3x3_ReLu_list_kernelsPiP11Kernel_descPK23Convolution_traits_desc
libcudnn_cnn_infer.so.8:_Z37dgrad_bn_stat__ReLu_FULL_list_kernelsPiP11Kernel_descPK23Convolution_traits_desc
libcudnn_cnn_infer.so.8:_Z38conv2d_cask_get_filter_and_bias_offsetRKPvRKN5cudnn4gemm12Conv2dConfigEPmS7_
libcudnn_cnn_infer.so.8:_Z38conv2d_maxwell_get_cask_workspace_sizeP19cudnnTensor4dStructP19cudnnFilter4dStructP22cudnnConvolutionStructS0_N5cudnn7maxwell4gemm12Conv2dType_tERKNS7_12Conv2dConfigEPKcPm
libcudnn_cnn_infer.so.8:_Z39checkConvolutionParametersFFT2_NonTiledP19cudnnTensor4dStructP19cudnnFilter4dStructP22cudnnConvolutionStructS0_i
libcudnn_cnn_infer.so.8:_Z39fprop_bn_stat_simple_1x1x1_list_kernelsPiP11Kernel_descPK23Convolution_traits_desc
libcudnn_cnn_infer.so.8:_Z40bn_apply_relu_fprop_bn_stat_list_kernelsPiP11Kernel_descPK23Convolution_traits_desc
libcudnn_cnn_infer.so.8:_Z40bn_apply_relu_fprop_bn_stat_list_kernelsPiP11Kernel_descPK23Convolution_traits_descjjjj
libcudnn_cnn_infer.so.8:_Z41bn_apply_1x3x3_fprop_bn_stat_list_kernelsPiP11Kernel_descPK23Convolution_traits_desc
libcudnn_cnn_infer.so.8:_Z41bn_apply_1x3x3_fprop_bn_stat_list_kernelsPiP11Kernel_descPK23Convolution_traits_descjjjj
libcudnn_cnn_infer.so.8:_Z41conv2d_cask_maxwell_runtime_implementablePKvP19cudnnTensor4dStructP19cudnnFilter4dStructP22cudnnConvolutionStructS0_P21cudnnActivationStructS2_N5cudnn7maxwell4gemm12Conv2dType_tERKNSB_12Conv2dConfigEPKcb
libcudnn_cnn_infer.so.8:_Z41cudnnGetConvolution3dForwardWorkspaceSizeP17cudnnTensorStructP17cudnnFilterStructP22cudnnConvolutionStructS0_25cudnnConvolutionFwdAlgo_tPm
libcudnn_cnn_infer.so.8:_Z42dgrad_bn_stat_1x3x3_ReLu_FULL_list_kernelsPiP11Kernel_descPK23Convolution_traits_desc
libcudnn_cnn_infer.so.8:_Z42dgrad_bn_stat__ReLu_dual_dbns_list_kernelsPiP11Kernel_descPK23Convolution_traits_desc
libcudnn_cnn_infer.so.8:_Z44dgrad_bn_stat_simple_1x1x1_ReLu_list_kernelsPiP11Kernel_descPK23Convolution_traits_desc
libcudnn_cnn_infer.so.8:_Z46bn_apply_relu_1x3x3_fprop_bn_stat_list_kernelsPiP11Kernel_descPK23Convolution_traits_desc
libcudnn_cnn_infer.so.8:_Z46bn_apply_relu_1x3x3_fprop_bn_stat_list_kernelsPiP11Kernel_descPK23Convolution_traits_descjjjj
libcudnn_cnn_infer.so.8:_Z46cudnnGetConvolution3dBackwardDataWorkspaceSizeP17cudnnFilterStructP17cudnnTensorStructP22cudnnConvolutionStructS2_29cudnnConvolutionBwdDataAlgo_tPm
libcudnn_cnn_infer.so.8:_Z47dgrad_bn_stat_1x3x3_ReLu_dual_dbns_list_kernelsPiP11Kernel_descPK23Convolution_traits_desc
libcudnn_cnn_infer.so.8:_Z47dgrad_bn_stat__ReLu_FULL_dual_dbns_list_kernelsPiP11Kernel_descPK23Convolution_traits_desc
libcudnn_cnn_infer.so.8:_Z48bn_apply_simple_1x1x1_fprop_bn_stat_list_kernelsPiP11Kernel_descPK23Convolution_traits_desc
libcudnn_cnn_infer.so.8:_Z48bn_apply_simple_1x1x1_fprop_bn_stat_list_kernelsPiP11Kernel_descPK23Convolution_traits_descjjjj
libcudnn_cnn_infer.so.8:_Z48cudnnGetConvolution3dBackwardFilterWorkspaceSizeP17cudnnTensorStructS0_P22cudnnConvolutionStructP17cudnnFilterStruct31cudnnConvolutionBwdFilterAlgo_tPm
libcudnn_cnn_infer.so.8:_Z49dgrad_bn_stat_simple_1x1x1_ReLu_FULL_list_kernelsPiP11Kernel_descPK23Convolution_traits_desc
libcudnn_cnn_infer.so.8:_Z52dgrad_bn_stat_1x3x3_ReLu_FULL_dual_dbns_list_kernelsPiP11Kernel_descPK23Convolution_traits_desc
libcudnn_cnn_infer.so.8:_Z53bn_apply_relu_simple_1x1x1_fprop_bn_stat_list_kernelsPiP11Kernel_descPK23Convolution_traits_desc
libcudnn_cnn_infer.so.8:_Z53bn_apply_relu_simple_1x1x1_fprop_bn_stat_list_kernelsPiP11Kernel_descPK23Convolution_traits_descjjjj
libcudnn_cnn_infer.so.8:_Z54dgrad_bn_stat_simple_1x1x1_ReLu_dual_dbns_list_kernelsPiP11Kernel_descPK23Convolution_traits_desc
libcudnn_cnn_infer.so.8:_Z58bn_apply_simple_1x1x1_fast_path_fprop_bn_stat_list_kernelsPiP11Kernel_descPK23Convolution_traits_desc
libcudnn_cnn_infer.so.8:_Z58bn_apply_simple_1x1x1_fast_path_fprop_bn_stat_list_kernelsPiP11Kernel_descPK23Convolution_traits_descjjjj
libcudnn_cnn_infer.so.8:_Z59dgrad_bn_stat_simple_1x1x1_ReLu_FULL_dual_dbns_list_kernelsPiP11Kernel_descPK23Convolution_traits_desc
libcudnn_cnn_infer.so.8:_Z63bn_apply_relu_simple_1x1x1_fast_path_fprop_bn_stat_list_kernelsPiP11Kernel_descPK23Convolution_traits_desc
libcudnn_cnn_infer.so.8:_Z63bn_apply_relu_simple_1x1x1_fast_path_fprop_bn_stat_list_kernelsPiP11Kernel_descPK23Convolution_traits_descjjjj
libcudnn_cnn_infer.so.8:_Z6logArgPKc22cudnnConvolutionMode_tPcPii
libcudnn_cnn_infer.so.8:_Z6logArgPKc25cudnnConvolutionFwdAlgo_tPcPii
libcudnn_cnn_infer.so.8:_Z6logArgPKc27cudnnBackendAttributeName_tPcPii
libcudnn_cnn_infer.so.8:_Z6logArgPKc27cudnnBackendAttributeType_tPcPii
libcudnn_cnn_infer.so.8:_Z6logArgPKc27cudnnBackendAttributeType_tllPKvPcPii
libcudnn_cnn_infer.so.8:_Z6logArgPKc28cudnnBackendDescriptorType_tPcPii
libcudnn_cnn_infer.so.8:_Z6logArgPKc29cudnnConvolutionBwdDataAlgo_tPcPii
libcudnn_cnn_infer.so.8:_Z6logArgPKcPK22cudnnConvolutionMode_tPcPii
libcudnn_cnn_infer.so.8:_Z6logArgPKcPK22cudnnConvolutionStructPcPii
libcudnn_cnn_infer.so.8:_Z6logArgPKcPK25cudnnConvolutionFwdAlgo_tPcPii
libcudnn_cnn_infer.so.8:_Z6logArgPKcPK27cudnnBackendAttributeName_tPcPii
libcudnn_cnn_infer.so.8:_Z6logArgPKcPK27cudnnBackendAttributeType_tPcPii
libcudnn_cnn_infer.so.8:_Z6logArgPKcPK28cudnnBackendDescriptorType_tPcPii
libcudnn_cnn_infer.so.8:_Z6logArgPKcPK29cudnnConvolutionBwdDataAlgo_tPcPii
libcudnn_cnn_infer.so.8:_Z6logArgPKcPK33cudnnConvolutionFwdAlgoPerfStructPcPii
libcudnn_cnn_infer.so.8:_Z6logArgPKcPK37cudnnConvolutionBwdDataAlgoPerfStructPcPii
libcudnn_cnn_infer.so.8:_Z6logArgPKcPKP22cudnnConvolutionStructPcPii
libcudnn_cnn_infer.so.8:_Z80__device_stub__ZN10cask_cudnn21computeBOffsetsKernelENS_21ComputeBOffsetsParamsERN10cask_cudnn21ComputeBOffsetsParamsE
libcudnn_cnn_infer.so.8:_Z8autoHeurIL12GPUHeurGroup2ELN5cudnn7backend27OperationSetFinalizedMode_tE0EEK6leaf_tPiib
libcudnn_cnn_infer.so.8:_Z8autoHeurIL12GPUHeurGroup2ELN5cudnn7backend27OperationSetFinalizedMode_tE1EEK6leaf_tPiib
libcudnn_cnn_infer.so.8:_Z8autoHeurIL12GPUHeurGroup2ELN5cudnn7backend27OperationSetFinalizedMode_tE2EEK6leaf_tPiib
libcudnn_cnn_infer.so.8:_Z8autoHeurIL12GPUHeurGroup3ELN5cudnn7backend27OperationSetFinalizedMode_tE0EEK6leaf_tPiib
libcudnn_cnn_infer.so.8:_Z8autoHeurIL12GPUHeurGroup3ELN5cudnn7backend27OperationSetFinalizedMode_tE1EEK6leaf_tPiib
libcudnn_cnn_infer.so.8:_Z8autoHeurIL12GPUHeurGroup3ELN5cudnn7backend27OperationSetFinalizedMode_tE2EEK6leaf_tPiib
libcudnn_cnn_infer.so.8:_Z8autoHeurIL12GPUHeurGroup5ELN5cudnn7backend27OperationSetFinalizedMode_tE0EEK6leaf_tPiib
libcudnn_cnn_infer.so.8:_Z8autoHeurIL12GPUHeurGroup5ELN5cudnn7backend27OperationSetFinalizedMode_tE1EEK6leaf_tPiib
libcudnn_cnn_infer.so.8:_Z8autoHeurIL12GPUHeurGroup5ELN5cudnn7backend27OperationSetFinalizedMode_tE2EEK6leaf_tPiib
libcudnn_cnn_infer.so.8:_Z8autoHeurIL12GPUHeurGroup6ELN5cudnn7backend27OperationSetFinalizedMode_tE0EEK6leaf_tPiib
libcudnn_cnn_infer.so.8:_Z8autoHeurIL12GPUHeurGroup6ELN5cudnn7backend27OperationSetFinalizedMode_tE1EEK6leaf_tPiib
libcudnn_cnn_infer.so.8:_Z8autoHeurIL12GPUHeurGroup6ELN5cudnn7backend27OperationSetFinalizedMode_tE2EEK6leaf_tPiib
libcudnn_cnn_infer.so.8:_Z8autoHeurIL12GPUHeurGroup7ELN5cudnn7backend27OperationSetFinalizedMode_tE0EEK6leaf_tPiib
libcudnn_cnn_infer.so.8:_Z8autoHeurIL12GPUHeurGroup7ELN5cudnn7backend27OperationSetFinalizedMode_tE1EEK6leaf_tPiib
libcudnn_cnn_infer.so.8:_Z8autoHeurIL12GPUHeurGroup8ELN5cudnn7backend27OperationSetFinalizedMode_tE0EEK6leaf_tPiib
libcudnn_cnn_infer.so.8:_Z8autoHeurIL12GPUHeurGroup8ELN5cudnn7backend27OperationSetFinalizedMode_tE1EEK6leaf_tPiib
libcudnn_cnn_infer.so.8:_Z8autoHeurIL12GPUHeurGroup8ELN5cudnn7backend27OperationSetFinalizedMode_tE2EEK6leaf_tPiib
libcudnn_cnn_infer.so.8:_ZN10cask_cudnn10ConvShader15setRuntimeParamERNS_7RunInfoEPKvj
libcudnn_cnn_infer.so.8:_ZN10cask_cudnn10ConvShader17deployRuntimeInfoEPKcS2_
libcudnn_cnn_infer.so.8:_ZN10cask_cudnn10ConvShader23updateRuntimeParametersERNS_7RunInfoEP11CUstream_st
libcudnn_cnn_infer.so.8:_ZN10cask_cudnn10ConvShader7destroyEv
libcudnn_cnn_infer.so.8:_ZN10cask_cudnn10ConvShader9getTraitsESs
libcudnn_cnn_infer.so.8:_ZN10cask_cudnn10ConvShaderC1EPKNS_10KernelInfoE
libcudnn_cnn_infer.so.8:_ZN10cask_cudnn10ConvShaderC2EPKNS_10KernelInfoE
libcudnn_cnn_infer.so.8:_ZN10cask_cudnn10GemmShader15setRuntimeParamERNS_7RunInfoEPKvj
libcudnn_cnn_infer.so.8:_ZN10cask_cudnn10GemmShader17deployRuntimeInfoEPKcS2_
libcudnn_cnn_infer.so.8:_ZN10cask_cudnn10GemmShader23updateRuntimeParametersERNS_7RunInfoEP11CUstream_st
libcudnn_cnn_infer.so.8:_ZN10cask_cudnn10GemmShader7destroyEv
libcudnn_cnn_infer.so.8:_ZN10cask_cudnn10GemmShaderC1EPKNS_10KernelInfoE
libcudnn_cnn_infer.so.8:_ZN10cask_cudnn10GemmShaderC2EPKNS_10KernelInfoE
libcudnn_cnn_infer.so.8:_ZN10cask_cudnn10TensorDesc11makePacked5Eiiiii
libcudnn_cnn_infer.so.8:_ZN10cask_cudnn10TensorDesc11make_MatrixENS_8SafeEnumINS_33ScalarType_ENUMCLASS_SCOPEWRAPPEREEElllliil
libcudnn_cnn_infer.so.8:_ZN10cask_cudnn10TensorDesc13make_Tensor4DEllllNS_8SafeEnumINS_33ScalarType_ENUMCLASS_SCOPEWRAPPEREEEiil
libcudnn_cnn_infer.so.8:_ZN10cask_cudnn10TensorDesc13make_Tensor5DElllllNS_8SafeEnumINS_33ScalarType_ENUMCLASS_SCOPEWRAPPEREEEiil
libcudnn_cnn_infer.so.8:_ZN10cask_cudnn10TensorDesc17initSparsityRatioEPKv
libcudnn_cnn_infer.so.8:_ZN10cask_cudnn10TensorDesc4packENS_8SafeEnumINS_2md39WeightLayoutType_ENUMCLASS_SCOPEWRAPPEREEE
libcudnn_cnn_infer.so.8:_ZN10cask_cudnn10TensorDesc4packENS_8SafeEnumINS_2md43ActivationLayoutType_ENUMCLASS_SCOPEWRAPPEREEE
libcudnn_cnn_infer.so.8:_ZN10cask_cudnn10TensorDesc7simdizeEii
libcudnn_cnn_infer.so.8:_ZN10cask_cudnn10TensorDescC1ENS_8SafeEnumINS_33ScalarType_ENUMCLASS_SCOPEWRAPPEREEElllliil
libcudnn_cnn_infer.so.8:_ZN10cask_cudnn10TensorDescC1EllllNS_8SafeEnumINS_33ScalarType_ENUMCLASS_SCOPEWRAPPEREEEiil
libcudnn_cnn_infer.so.8:_ZN10cask_cudnn10TensorDescC1ElllllNS_8SafeEnumINS_33ScalarType_ENUMCLASS_SCOPEWRAPPEREEEiil
libcudnn_cnn_infer.so.8:_ZN10cask_cudnn10TensorDescC1Ev
libcudnn_cnn_infer.so.8:_ZN10cask_cudnn10TensorDescC2ENS_8SafeEnumINS_33ScalarType_ENUMCLASS_SCOPEWRAPPEREEElllliil
libcudnn_cnn_infer.so.8:_ZN10cask_cudnn10TensorDescC2EllllNS_8SafeEnumINS_33ScalarType_ENUMCLASS_SCOPEWRAPPEREEEiil
libcudnn_cnn_infer.so.8:_ZN10cask_cudnn10TensorDescC2ElllllNS_8SafeEnumINS_33ScalarType_ENUMCLASS_SCOPEWRAPPEREEEiil
libcudnn_cnn_infer.so.8:_ZN10cask_cudnn10TensorDescC2Ev
libcudnn_cnn_infer.so.8:_ZN10cask_cudnn11ConvolutionC1Ev
libcudnn_cnn_infer.so.8:_ZN10cask_cudnn11ConvolutionC2Ev
libcudnn_cnn_infer.so.8:_ZN10cask_cudnn11GraphShader11deserializeEPKvl
libcudnn_cnn_infer.so.8:_ZN10cask_cudnn11GraphShaderC1EPKNS_14BaseKernelInfoEPNS_2ir13StructureTypeE
libcudnn_cnn_infer.so.8:_ZN10cask_cudnn11GraphShaderC2EPKNS_14BaseKernelInfoEPNS_2ir13StructureTypeE
libcudnn_cnn_infer.so.8:_ZN10cask_cudnn11ProblemDesc18ProblemDescDetails3setEPKcRKNS_10TensorDescE
libcudnn_cnn_infer.so.8:_ZN10cask_cudnn11ProblemDesc3setEPKcRKNS_10TensorDescE
libcudnn_cnn_infer.so.8:_ZN10cask_cudnn11ProblemDesc3setEPKcRKNS_11ScalarValueE
libcudnn_cnn_infer.so.8:_ZN10cask_cudnn11ProblemDescC1EOS0_
libcudnn_cnn_infer.so.8:_ZN10cask_cudnn11ProblemDescC1EPNS_2ir13StructureTypeEPv
libcudnn_cnn_infer.so.8:_ZN10cask_cudnn11ProblemDescC2EOS0_
libcudnn_cnn_infer.so.8:_ZN10cask_cudnn11ProblemDescC2EPNS_2ir13StructureTypeEPv
libcudnn_cnn_infer.so.8:_ZN10cask_cudnn11ProblemDescD1Ev
libcudnn_cnn_infer.so.8:_ZN10cask_cudnn11ProblemDescD2Ev
libcudnn_cnn_infer.so.8:_ZN10cask_cudnn11ProblemDescaSEOS0_
libcudnn_cnn_infer.so.8:_ZN10cask_cudnn11getGemmChipEm
libcudnn_cnn_infer.so.8:_ZN10cask_cudnn11getPlatformEv
libcudnn_cnn_infer.so.8:_ZN10cask_cudnn11sizeInBytesENS_8SafeEnumINS_33ScalarType_ENUMCLASS_SCOPEWRAPPEREEE
libcudnn_cnn_infer.so.8:_ZN10cask_cudnn12CudaPlatform13kernelLibInitEPvPPPNS_6ShaderEPj
libcudnn_cnn_infer.so.8:_ZN10cask_cudnn12DeconvShaderC1EPKNS_10KernelInfoE
libcudnn_cnn_infer.so.8:_ZN10cask_cudnn12DeconvShaderC2EPKNS_10KernelInfoE
libcudnn_cnn_infer.so.8:_ZN10cask_cudnn12DeconvShaderD0Ev
libcudnn_cnn_infer.so.8:_ZN10cask_cudnn12DeconvShaderD1Ev
libcudnn_cnn_infer.so.8:_ZN10cask_cudnn12DeconvShaderD2Ev
libcudnn_cnn_infer.so.8:_ZN10cask_cudnn12getShmemSizeENS_8SafeEnumINS_47ComputeCapabilityVersion_ENUMCLASS_SCOPEWRAPPEREEE
libcudnn_cnn_infer.so.8:_ZN10cask_cudnn12sass_gemm_kr12convertShapeERKNS_12sass_private12shapeTypeC_tEPNS0_7shape_tE
libcudnn_cnn_infer.so.8:_ZN10cask_cudnn12sass_gemm_kr12convertSliceEPKNS_12sass_private12ShaderParamsEPNS0_7slice_tE
libcudnn_cnn_infer.so.8:_ZN10cask_cudnn12sass_gemm_kr12convertStageEPKNS_12sass_private12ShaderParamsEPNS0_7stage_tE
libcudnn_cnn_infer.so.8:_ZN10cask_cudnn12sass_gemm_kr13convertLayoutERKNS_12sass_private12layoutType_tEPNS0_8layout_tE
libcudnn_cnn_infer.so.8:_ZN10cask_cudnn12sass_gemm_kr13convertLayoutERKNS_8SafeEnumINS_33GemmLayout_ENUMCLASS_SCOPEWRAPPEREEEPNS0_8layout_tE
libcudnn_cnn_infer.so.8:_ZN10cask_cudnn12sass_private19allInferSassShadersE
libcudnn_cnn_infer.so.8:_ZN10cask_cudnn12sass_private24allInferSassShaderParamsE
libcudnn_cnn_infer.so.8:_ZN10cask_cudnn12sass_private51volta_scudnn_128x32_3dconv_dgrad_small_nn_v1_paramsE
libcudnn_cnn_infer.so.8:_ZN10cask_cudnn12sass_private51volta_scudnn_128x32_3dconv_dgrad_small_nn_v1_shaderE
libcudnn_cnn_infer.so.8:_ZN10cask_cudnn12sass_private51volta_scudnn_128x32_3dconv_fprop_small_nn_v1_paramsE
libcudnn_cnn_infer.so.8:_ZN10cask_cudnn12sass_private51volta_scudnn_128x32_3dconv_fprop_small_nn_v1_shaderE
libcudnn_cnn_infer.so.8:_ZN10cask_cudnn12sass_private51volta_scudnn_128x64_3dconv_dgrad_small_nn_v1_paramsE
libcudnn_cnn_infer.so.8:_ZN10cask_cudnn12sass_private51volta_scudnn_128x64_3dconv_dgrad_small_nn_v1_shaderE
libcudnn_cnn_infer.so.8:_ZN10cask_cudnn12sass_private51volta_scudnn_128x64_3dconv_fprop_small_nn_v1_paramsE
libcudnn_cnn_infer.so.8:_ZN10cask_cudnn12sass_private51volta_scudnn_128x64_3dconv_fprop_small_nn_v1_shaderE
libcudnn_cnn_infer.so.8:_ZN10cask_cudnn12sass_private52volta_hcudnn_128x128_3dconv_dgrad_small_nn_v1_paramsE
libcudnn_cnn_infer.so.8:_ZN10cask_cudnn12sass_private52volta_hcudnn_128x128_3dconv_dgrad_small_nn_v1_shaderE
libcudnn_cnn_infer.so.8:_ZN10cask_cudnn12sass_private52volta_hcudnn_128x128_3dconv_fprop_small_nn_v1_paramsE
libcudnn_cnn_infer.so.8:_ZN10cask_cudnn12sass_private52volta_hcudnn_128x128_3dconv_fprop_small_nn_v1_shaderE
libcudnn_cnn_infer.so.8:_ZN10cask_cudnn12sass_private52volta_scudnn_128x128_3dconv_dgrad_small_nn_v1_paramsE
libcudnn_cnn_infer.so.8:_ZN10cask_cudnn12sass_private52volta_scudnn_128x128_3dconv_dgrad_small_nn_v1_shaderE
libcudnn_cnn_infer.so.8:_ZN10cask_cudnn12sass_private52volta_scudnn_128x128_3dconv_fprop_small_nn_v1_paramsE
libcudnn_cnn_infer.so.8:_ZN10cask_cudnn12sass_private52volta_scudnn_128x128_3dconv_fprop_small_nn_v1_shaderE
libcudnn_cnn_infer.so.8:_ZN10cask_cudnn12sass_private52volta_scudnn_128x64_3dconv_dgrad_medium_nn_v1_paramsE
libcudnn_cnn_infer.so.8:_ZN10cask_cudnn12sass_private52volta_scudnn_128x64_3dconv_dgrad_medium_nn_v1_shaderE
libcudnn_cnn_infer.so.8:_ZN10cask_cudnn12sass_private52volta_scudnn_128x64_3dconv_fprop_medium_nn_v1_paramsE
libcudnn_cnn_infer.so.8:_ZN10cask_cudnn12sass_private52volta_scudnn_128x64_3dconv_fprop_medium_nn_v1_shaderE
libcudnn_cnn_infer.so.8:_ZN10cask_cudnn12sass_private53maxwell_hcudnn_256x64_3dconv_dgrad_large_nn_v0_paramsE
libcudnn_cnn_infer.so.8:_ZN10cask_cudnn12sass_private53maxwell_hcudnn_256x64_3dconv_dgrad_large_nn_v0_shaderE
libcudnn_cnn_infer.so.8:_ZN10cask_cudnn12sass_private53maxwell_hcudnn_256x64_3dconv_dgrad_small_nn_v0_paramsE
libcudnn_cnn_infer.so.8:_ZN10cask_cudnn12sass_private53maxwell_hcudnn_256x64_3dconv_dgrad_small_nn_v0_shaderE
libcudnn_cnn_infer.so.8:_ZN10cask_cudnn12sass_private53maxwell_hcudnn_256x64_3dconv_fprop_large_nn_v0_paramsE
libcudnn_cnn_infer.so.8:_ZN10cask_cudnn12sass_private53maxwell_hcudnn_256x64_3dconv_fprop_large_nn_v0_shaderE
libcudnn_cnn_infer.so.8:_ZN10cask_cudnn12sass_private53maxwell_hcudnn_256x64_3dconv_fprop_small_nn_v0_paramsE
libcudnn_cnn_infer.so.8:_ZN10cask_cudnn12sass_private53maxwell_hcudnn_256x64_3dconv_fprop_small_nn_v0_shaderE
libcudnn_cnn_infer.so.8:_ZN10cask_cudnn12sass_private53maxwell_scudnn_128x32_3dconv_dgrad_large_nn_v0_paramsE
libcudnn_cnn_infer.so.8:_ZN10cask_cudnn12sass_private53maxwell_scudnn_128x32_3dconv_dgrad_large_nn_v0_shaderE
libcudnn_cnn_infer.so.8:_ZN10cask_cudnn12sass_private53maxwell_scudnn_128x32_3dconv_dgrad_small_nn_v0_paramsE
libcudnn_cnn_infer.so.8:_ZN10cask_cudnn12sass_private53maxwell_scudnn_128x32_3dconv_dgrad_small_nn_v0_shaderE
libcudnn_cnn_infer.so.8:_ZN10cask_cudnn12sass_private53maxwell_scudnn_128x32_3dconv_fprop_large_nn_v0_paramsE
libcudnn_cnn_infer.so.8:_ZN10cask_cudnn12sass_private53maxwell_scudnn_128x32_3dconv_fprop_large_nn_v0_shaderE
libcudnn_cnn_infer.so.8:_ZN10cask_cudnn12sass_private53maxwell_scudnn_128x32_3dconv_fprop_small_nn_v0_paramsE
libcudnn_cnn_infer.so.8:_ZN10cask_cudnn12sass_private53maxwell_scudnn_128x32_3dconv_fprop_small_nn_v0_shaderE
libcudnn_cnn_infer.so.8:_ZN10cask_cudnn12sass_private53maxwell_scudnn_128x64_3dconv_dgrad_large_nn_v0_paramsE
libcudnn_cnn_infer.so.8:_ZN10cask_cudnn12sass_private53maxwell_scudnn_128x64_3dconv_dgrad_large_nn_v0_shaderE
libcudnn_cnn_infer.so.8:_ZN10cask_cudnn12sass_private53maxwell_scudnn_128x64_3dconv_dgrad_small_nn_v0_paramsE
libcudnn_cnn_infer.so.8:_ZN10cask_cudnn12sass_private53maxwell_scudnn_128x64_3dconv_dgrad_small_nn_v0_shaderE
libcudnn_cnn_infer.so.8:_ZN10cask_cudnn12sass_private53maxwell_scudnn_128x64_3dconv_fprop_large_nn_v0_paramsE
libcudnn_cnn_infer.so.8:_ZN10cask_cudnn12sass_private53maxwell_scudnn_128x64_3dconv_fprop_large_nn_v0_shaderE
libcudnn_cnn_infer.so.8:_ZN10cask_cudnn12sass_private53maxwell_scudnn_128x64_3dconv_fprop_small_nn_v0_paramsE
libcudnn_cnn_infer.so.8:_ZN10cask_cudnn12sass_private53maxwell_scudnn_128x64_3dconv_fprop_small_nn_v0_shaderE
libcudnn_cnn_infer.so.8:_ZN10cask_cudnn12sass_private53volta_hcudnn_128x128_3dconv_dgrad_medium_nn_v1_paramsE
libcudnn_cnn_infer.so.8:_ZN10cask_cudnn12sass_private53volta_hcudnn_128x128_3dconv_dgrad_medium_nn_v1_shaderE
libcudnn_cnn_infer.so.8:_ZN10cask_cudnn12sass_private53volta_hcudnn_128x128_3dconv_fprop_medium_nn_v1_paramsE
libcudnn_cnn_infer.so.8:_ZN10cask_cudnn12sass_private53volta_hcudnn_128x128_3dconv_fprop_medium_nn_v1_shaderE
libcudnn_cnn_infer.so.8:_ZN10cask_cudnn12sass_private53volta_scudnn_128x128_3dconv_dgrad_medium_nn_v1_paramsE
libcudnn_cnn_infer.so.8:_ZN10cask_cudnn12sass_private53volta_scudnn_128x128_3dconv_dgrad_medium_nn_v1_shaderE
libcudnn_cnn_infer.so.8:_ZN10cask_cudnn12sass_private53volta_scudnn_128x128_3dconv_fprop_medium_nn_v1_paramsE
libcudnn_cnn_infer.so.8:_ZN10cask_cudnn12sass_private53volta_scudnn_128x128_3dconv_fprop_medium_nn_v1_shaderE
libcudnn_cnn_infer.so.8:_ZN10cask_cudnn12sass_private53volta_scudnn_128x32_3dconv_dgrad_small_nn_v1_metadataEv
libcudnn_cnn_infer.so.8:_ZN10cask_cudnn12sass_private53volta_scudnn_128x32_3dconv_fprop_small_nn_v1_metadataEv
libcudnn_cnn_infer.so.8:_ZN10cask_cudnn12sass_private53volta_scudnn_128x64_3dconv_dgrad_small_nn_v1_metadataEv
libcudnn_cnn_infer.so.8:_ZN10cask_cudnn12sass_private53volta_scudnn_128x64_3dconv_fprop_small_nn_v1_metadataEv
libcudnn_cnn_infer.so.8:_ZN10cask_cudnn12sass_private54maxwell_hcudnn_128x128_3dconv_dgrad_large_nn_v0_paramsE
libcudnn_cnn_infer.so.8:_ZN10cask_cudnn12sass_private54maxwell_hcudnn_128x128_3dconv_dgrad_large_nn_v0_shaderE
libcudnn_cnn_infer.so.8:_ZN10cask_cudnn12sass_private54maxwell_hcudnn_128x128_3dconv_dgrad_small_nn_v0_paramsE
libcudnn_cnn_infer.so.8:_ZN10cask_cudnn12sass_private54maxwell_hcudnn_128x128_3dconv_dgrad_small_nn_v0_shaderE
libcudnn_cnn_infer.so.8:_ZN10cask_cudnn12sass_private54maxwell_hcudnn_128x128_3dconv_fprop_large_nn_v0_paramsE
libcudnn_cnn_infer.so.8:_ZN10cask_cudnn12sass_private54maxwell_hcudnn_128x128_3dconv_fprop_large_nn_v0_shaderE
libcudnn_cnn_infer.so.8:_ZN10cask_cudnn12sass_private54maxwell_hcudnn_128x128_3dconv_fprop_small_nn_v0_paramsE
libcudnn_cnn_infer.so.8:_ZN10cask_cudnn12sass_private54maxwell_hcudnn_128x128_3dconv_fprop_small_nn_v0_shaderE
libcudnn_cnn_infer.so.8:_ZN10cask_cudnn12sass_private54maxwell_hcudnn_256x128_3dconv_dgrad_large_nn_v0_paramsE
libcudnn_cnn_infer.so.8:_ZN10cask_cudnn12sass_private54maxwell_hcudnn_256x128_3dconv_dgrad_large_nn_v0_shaderE
libcudnn_cnn_infer.so.8:_ZN10cask_cudnn12sass_private54maxwell_hcudnn_256x128_3dconv_dgrad_small_nn_v0_paramsE
libcudnn_cnn_infer.so.8:_ZN10cask_cudnn12sass_private54maxwell_hcudnn_256x128_3dconv_dgrad_small_nn_v0_shaderE
libcudnn_cnn_infer.so.8:_ZN10cask_cudnn12sass_private54maxwell_hcudnn_256x128_3dconv_fprop_large_nn_v0_paramsE
libcudnn_cnn_infer.so.8:_ZN10cask_cudnn12sass_private54maxwell_hcudnn_256x128_3dconv_fprop_large_nn_v0_shaderE
libcudnn_cnn_infer.so.8:_ZN10cask_cudnn12sass_private54maxwell_hcudnn_256x128_3dconv_fprop_small_nn_v0_paramsE
libcudnn_cnn_infer.so.8:_ZN10cask_cudnn12sass_private54maxwell_hcudnn_256x128_3dconv_fprop_small_nn_v0_shaderE
libcudnn_cnn_infer.so.8:_ZN10cask_cudnn12sass_private54maxwell_hcudnn_256x64_3dconv_dgrad_medium_nn_v0_paramsE
libcudnn_cnn_infer.so.8:_ZN10cask_cudnn12sass_private54maxwell_hcudnn_256x64_3dconv_dgrad_medium_nn_v0_shaderE
libcudnn_cnn_infer.so.8:_ZN10cask_cudnn12sass_private54maxwell_hcudnn_256x64_3dconv_fprop_medium_nn_v0_paramsE
libcudnn_cnn_infer.so.8:_ZN10cask_cudnn12sass_private54maxwell_hcudnn_256x64_3dconv_fprop_medium_nn_v0_shaderE
libcudnn_cnn_infer.so.8:_ZN10cask_cudnn12sass_private54maxwell_scudnn_128x128_3dconv_dgrad_large_nn_v0_paramsE
libcudnn_cnn_infer.so.8:_ZN10cask_cudnn12sass_private54maxwell_scudnn_128x128_3dconv_dgrad_large_nn_v0_shaderE
libcudnn_cnn_infer.so.8:_ZN10cask_cudnn12sass_private54maxwell_scudnn_128x128_3dconv_dgrad_small_nn_v0_paramsE
libcudnn_cnn_infer.so.8:_ZN10cask_cudnn12sass_private54maxwell_scudnn_128x128_3dconv_dgrad_small_nn_v0_shaderE
libcudnn_cnn_infer.so.8:_ZN10cask_cudnn12sass_private54maxwell_scudnn_128x128_3dconv_fprop_large_nn_v0_paramsE
libcudnn_cnn_infer.so.8:_ZN10cask_cudnn12sass_private54maxwell_scudnn_128x128_3dconv_fprop_large_nn_v0_shaderE
libcudnn_cnn_infer.so.8:_ZN10cask_cudnn12sass_private54maxwell_scudnn_128x128_3dconv_fprop_small_nn_v0_paramsE
libcudnn_cnn_infer.so.8:_ZN10cask_cudnn12sass_private54maxwell_scudnn_128x128_3dconv_fprop_small_nn_v0_shaderE
libcudnn_cnn_infer.so.8:_ZN10cask_cudnn12sass_private54maxwell_scudnn_128x32_3dconv_dgrad_medium_nn_v0_paramsE
libcudnn_cnn_infer.so.8:_ZN10cask_cudnn12sass_private54maxwell_scudnn_128x32_3dconv_dgrad_medium_nn_v0_shaderE
libcudnn_cnn_infer.so.8:_ZN10cask_cudnn12sass_private54maxwell_scudnn_128x32_3dconv_fprop_medium_nn_v0_paramsE
libcudnn_cnn_infer.so.8:_ZN10cask_cudnn12sass_private54maxwell_scudnn_128x32_3dconv_fprop_medium_nn_v0_shaderE
libcudnn_cnn_infer.so.8:_ZN10cask_cudnn12sass_private54maxwell_scudnn_128x64_3dconv_dgrad_medium_nn_v0_paramsE
libcudnn_cnn_infer.so.8:_ZN10cask_cudnn12sass_private54maxwell_scudnn_128x64_3dconv_dgrad_medium_nn_v0_shaderE
libcudnn_cnn_infer.so.8:_ZN10cask_cudnn12sass_private54maxwell_scudnn_128x64_3dconv_fprop_medium_nn_v0_paramsE
libcudnn_cnn_infer.so.8:_ZN10cask_cudnn12sass_private54maxwell_scudnn_128x64_3dconv_fprop_medium_nn_v0_shaderE
libcudnn_cnn_infer.so.8:_ZN10cask_cudnn12sass_private54volta_hcudnn_128x128_3dconv_dgrad_small_nn_v1_metadataEv
libcudnn_cnn_infer.so.8:_ZN10cask_cudnn12sass_private54volta_hcudnn_128x128_3dconv_fprop_small_nn_v1_metadataEv
libcudnn_cnn_infer.so.8:_ZN10cask_cudnn12sass_private54volta_scudnn_128x128_3dconv_dgrad_small_nn_v1_metadataEv
libcudnn_cnn_infer.so.8:_ZN10cask_cudnn12sass_private54volta_scudnn_128x128_3dconv_fprop_small_nn_v1_metadataEv
libcudnn_cnn_infer.so.8:_ZN10cask_cudnn12sass_private54volta_scudnn_128x64_3dconv_dgrad_interior_nn_v1_paramsE
libcudnn_cnn_infer.so.8:_ZN10cask_cudnn12sass_private54volta_scudnn_128x64_3dconv_dgrad_interior_nn_v1_shaderE
libcudnn_cnn_infer.so.8:_ZN10cask_cudnn12sass_private54volta_scudnn_128x64_3dconv_dgrad_medium_nn_v1_metadataEv
libcudnn_cnn_infer.so.8:_ZN10cask_cudnn12sass_private54volta_scudnn_128x64_3dconv_fprop_interior_nn_v1_paramsE
libcudnn_cnn_infer.so.8:_ZN10cask_cudnn12sass_private54volta_scudnn_128x64_3dconv_fprop_interior_nn_v1_shaderE
libcudnn_cnn_infer.so.8:_ZN10cask_cudnn12sass_private54volta_scudnn_128x64_3dconv_fprop_medium_nn_v1_metadataEv
libcudnn_cnn_infer.so.8:_ZN10cask_cudnn12sass_private55maxwell_hcudnn_128x128_3dconv_dgrad_medium_nn_v0_paramsE
libcudnn_cnn_infer.so.8:_ZN10cask_cudnn12sass_private55maxwell_hcudnn_128x128_3dconv_dgrad_medium_nn_v0_shaderE
libcudnn_cnn_infer.so.8:_ZN10cask_cudnn12sass_private55maxwell_hcudnn_128x128_3dconv_fprop_medium_nn_v0_paramsE
libcudnn_cnn_infer.so.8:_ZN10cask_cudnn12sass_private55maxwell_hcudnn_128x128_3dconv_fprop_medium_nn_v0_shaderE
libcudnn_cnn_infer.so.8:_ZN10cask_cudnn12sass_private55maxwell_hcudnn_256x128_3dconv_dgrad_medium_nn_v0_paramsE
libcudnn_cnn_infer.so.8:_ZN10cask_cudnn12sass_private55maxwell_hcudnn_256x128_3dconv_dgrad_medium_nn_v0_shaderE
libcudnn_cnn_infer.so.8:_ZN10cask_cudnn12sass_private55maxwell_hcudnn_256x128_3dconv_fprop_medium_nn_v0_paramsE
libcudnn_cnn_infer.so.8:_ZN10cask_cudnn12sass_private55maxwell_hcudnn_256x128_3dconv_fprop_medium_nn_v0_shaderE
libcudnn_cnn_infer.so.8:_ZN10cask_cudnn12sass_private55maxwell_hcudnn_256x64_3dconv_dgrad_large_nn_v0_metadataEv
libcudnn_cnn_infer.so.8:_ZN10cask_cudnn12sass_private55maxwell_hcudnn_256x64_3dconv_dgrad_small_nn_v0_metadataEv
libcudnn_cnn_infer.so.8:_ZN10cask_cudnn12sass_private55maxwell_hcudnn_256x64_3dconv_fprop_large_nn_v0_metadataEv
libcudnn_cnn_infer.so.8:_ZN10cask_cudnn12sass_private55maxwell_hcudnn_256x64_3dconv_fprop_small_nn_v0_metadataEv
libcudnn_cnn_infer.so.8:_ZN10cask_cudnn12sass_private55maxwell_scudnn_128x128_3dconv_dgrad_medium_nn_v0_paramsE
libcudnn_cnn_infer.so.8:_ZN10cask_cudnn12sass_private55maxwell_scudnn_128x128_3dconv_dgrad_medium_nn_v0_shaderE
libcudnn_cnn_infer.so.8:_ZN10cask_cudnn12sass_private55maxwell_scudnn_128x128_3dconv_fprop_medium_nn_v0_paramsE
libcudnn_cnn_infer.so.8:_ZN10cask_cudnn12sass_private55maxwell_scudnn_128x128_3dconv_fprop_medium_nn_v0_shaderE
libcudnn_cnn_infer.so.8:_ZN10cask_cudnn12sass_private55maxwell_scudnn_128x32_3dconv_dgrad_large_nn_v0_metadataEv
libcudnn_cnn_infer.so.8:_ZN10cask_cudnn12sass_private55maxwell_scudnn_128x32_3dconv_dgrad_small_nn_v0_metadataEv
libcudnn_cnn_infer.so.8:_ZN10cask_cudnn12sass_private55maxwell_scudnn_128x32_3dconv_fprop_large_nn_v0_metadataEv
libcudnn_cnn_infer.so.8:_ZN10cask_cudnn12sass_private55maxwell_scudnn_128x32_3dconv_fprop_small_nn_v0_metadataEv
libcudnn_cnn_infer.so.8:_ZN10cask_cudnn12sass_private55maxwell_scudnn_128x64_3dconv_dgrad_large_nn_v0_metadataEv
libcudnn_cnn_infer.so.8:_ZN10cask_cudnn12sass_private55maxwell_scudnn_128x64_3dconv_dgrad_small_nn_v0_metadataEv
libcudnn_cnn_infer.so.8:_ZN10cask_cudnn12sass_private55maxwell_scudnn_128x64_3dconv_fprop_large_nn_v0_metadataEv
libcudnn_cnn_infer.so.8:_ZN10cask_cudnn12sass_private55maxwell_scudnn_128x64_3dconv_fprop_small_nn_v0_metadataEv
libcudnn_cnn_infer.so.8:_ZN10cask_cudnn12sass_private55volta_hcudnn_128x128_3dconv_dgrad_interior_nn_v1_paramsE
libcudnn_cnn_infer.so.8:_ZN10cask_cudnn12sass_private55volta_hcudnn_128x128_3dconv_dgrad_interior_nn_v1_shaderE
libcudnn_cnn_infer.so.8:_ZN10cask_cudnn12sass_private55volta_hcudnn_128x128_3dconv_dgrad_medium_nn_v1_metadataEv
libcudnn_cnn_infer.so.8:_ZN10cask_cudnn12sass_private55volta_hcudnn_128x128_3dconv_fprop_interior_nn_v1_paramsE
libcudnn_cnn_infer.so.8:_ZN10cask_cudnn12sass_private55volta_hcudnn_128x128_3dconv_fprop_interior_nn_v1_shaderE
libcudnn_cnn_infer.so.8:_ZN10cask_cudnn12sass_private55volta_hcudnn_128x128_3dconv_fprop_medium_nn_v1_metadataEv
libcudnn_cnn_infer.so.8:_ZN10cask_cudnn12sass_private55volta_scudnn_128x128_3dconv_dgrad_interior_nn_v1_paramsE
libcudnn_cnn_infer.so.8:_ZN10cask_cudnn12sass_private55volta_scudnn_128x128_3dconv_dgrad_interior_nn_v1_shaderE
libcudnn_cnn_infer.so.8:_ZN10cask_cudnn12sass_private55volta_scudnn_128x128_3dconv_dgrad_medium_nn_v1_metadataEv
libcudnn_cnn_infer.so.8:_ZN10cask_cudnn12sass_private55volta_scudnn_128x128_3dconv_fprop_interior_nn_v1_paramsE
libcudnn_cnn_infer.so.8:_ZN10cask_cudnn12sass_private55volta_scudnn_128x128_3dconv_fprop_interior_nn_v1_shaderE
libcudnn_cnn_infer.so.8:_ZN10cask_cudnn12sass_private55volta_scudnn_128x128_3dconv_fprop_medium_nn_v1_metadataEv
libcudnn_cnn_infer.so.8:_ZN10cask_cudnn12sass_private56maxwell_hcudnn_128x128_3dconv_dgrad_large_nn_v0_metadataEv
libcudnn_cnn_infer.so.8:_ZN10cask_cudnn12sass_private56maxwell_hcudnn_128x128_3dconv_dgrad_small_nn_v0_metadataEv
libcudnn_cnn_infer.so.8:_ZN10cask_cudnn12sass_private56maxwell_hcudnn_128x128_3dconv_fprop_large_nn_v0_metadataEv
libcudnn_cnn_infer.so.8:_ZN10cask_cudnn12sass_private56maxwell_hcudnn_128x128_3dconv_fprop_small_nn_v0_metadataEv
libcudnn_cnn_infer.so.8:_ZN10cask_cudnn12sass_private56maxwell_hcudnn_256x128_3dconv_dgrad_large_nn_v0_metadataEv
libcudnn_cnn_infer.so.8:_ZN10cask_cudnn12sass_private56maxwell_hcudnn_256x128_3dconv_dgrad_small_nn_v0_metadataEv
libcudnn_cnn_infer.so.8:_ZN10cask_cudnn12sass_private56maxwell_hcudnn_256x128_3dconv_fprop_large_nn_v0_metadataEv
libcudnn_cnn_infer.so.8:_ZN10cask_cudnn12sass_private56maxwell_hcudnn_256x128_3dconv_fprop_small_nn_v0_metadataEv
libcudnn_cnn_infer.so.8:_ZN10cask_cudnn12sass_private56maxwell_hcudnn_256x64_3dconv_dgrad_interior_nn_v0_paramsE
libcudnn_cnn_infer.so.8:_ZN10cask_cudnn12sass_private56maxwell_hcudnn_256x64_3dconv_dgrad_interior_nn_v0_shaderE
libcudnn_cnn_infer.so.8:_ZN10cask_cudnn12sass_private56maxwell_hcudnn_256x64_3dconv_dgrad_medium_nn_v0_metadataEv
libcudnn_cnn_infer.so.8:_ZN10cask_cudnn12sass_private56maxwell_hcudnn_256x64_3dconv_fprop_interior_nn_v0_paramsE
libcudnn_cnn_infer.so.8:_ZN10cask_cudnn12sass_private56maxwell_hcudnn_256x64_3dconv_fprop_interior_nn_v0_shaderE
libcudnn_cnn_infer.so.8:_ZN10cask_cudnn12sass_private56maxwell_hcudnn_256x64_3dconv_fprop_medium_nn_v0_metadataEv
libcudnn_cnn_infer.so.8:_ZN10cask_cudnn12sass_private56maxwell_scudnn_128x128_3dconv_dgrad_large_nn_v0_metadataEv
libcudnn_cnn_infer.so.8:_ZN10cask_cudnn12sass_private56maxwell_scudnn_128x128_3dconv_dgrad_small_nn_v0_metadataEv
libcudnn_cnn_infer.so.8:_ZN10cask_cudnn12sass_private56maxwell_scudnn_128x128_3dconv_fprop_large_nn_v0_metadataEv
libcudnn_cnn_infer.so.8:_ZN10cask_cudnn12sass_private56maxwell_scudnn_128x128_3dconv_fprop_small_nn_v0_metadataEv
libcudnn_cnn_infer.so.8:_ZN10cask_cudnn12sass_private56maxwell_scudnn_128x32_3dconv_dgrad_interior_nn_v0_paramsE
libcudnn_cnn_infer.so.8:_ZN10cask_cudnn12sass_private56maxwell_scudnn_128x32_3dconv_dgrad_interior_nn_v0_shaderE
libcudnn_cnn_infer.so.8:_ZN10cask_cudnn12sass_private56maxwell_scudnn_128x32_3dconv_dgrad_medium_nn_v0_metadataEv
libcudnn_cnn_infer.so.8:_ZN10cask_cudnn12sass_private56maxwell_scudnn_128x32_3dconv_fprop_interior_nn_v0_paramsE
libcudnn_cnn_infer.so.8:_ZN10cask_cudnn12sass_private56maxwell_scudnn_128x32_3dconv_fprop_interior_nn_v0_shaderE
libcudnn_cnn_infer.so.8:_ZN10cask_cudnn12sass_private56maxwell_scudnn_128x32_3dconv_fprop_medium_nn_v0_metadataEv
libcudnn_cnn_infer.so.8:_ZN10cask_cudnn12sass_private56maxwell_scudnn_128x64_3dconv_dgrad_interior_nn_v0_paramsE
libcudnn_cnn_infer.so.8:_ZN10cask_cudnn12sass_private56maxwell_scudnn_128x64_3dconv_dgrad_interior_nn_v0_shaderE
libcudnn_cnn_infer.so.8:_ZN10cask_cudnn12sass_private56maxwell_scudnn_128x64_3dconv_dgrad_medium_nn_v0_metadataEv
libcudnn_cnn_infer.so.8:_ZN10cask_cudnn12sass_private56maxwell_scudnn_128x64_3dconv_fprop_interior_nn_v0_paramsE
libcudnn_cnn_infer.so.8:_ZN10cask_cudnn12sass_private56maxwell_scudnn_128x64_3dconv_fprop_interior_nn_v0_shaderE
libcudnn_cnn_infer.so.8:_ZN10cask_cudnn12sass_private56maxwell_scudnn_128x64_3dconv_fprop_medium_nn_v0_metadataEv
libcudnn_cnn_infer.so.8:_ZN10cask_cudnn12sass_private56volta_scudnn_128x64_3dconv_dgrad_interior_nn_v1_metadataEv
libcudnn_cnn_infer.so.8:_ZN10cask_cudnn12sass_private56volta_scudnn_128x64_3dconv_fprop_interior_nn_v1_metadataEv
libcudnn_cnn_infer.so.8:_ZN10cask_cudnn12sass_private57maxwell_hcudnn_128x128_3dconv_dgrad_interior_nn_v0_paramsE
libcudnn_cnn_infer.so.8:_ZN10cask_cudnn12sass_private57maxwell_hcudnn_128x128_3dconv_dgrad_interior_nn_v0_shaderE
libcudnn_cnn_infer.so.8:_ZN10cask_cudnn12sass_private57maxwell_hcudnn_128x128_3dconv_dgrad_medium_nn_v0_metadataEv
libcudnn_cnn_infer.so.8:_ZN10cask_cudnn12sass_private57maxwell_hcudnn_128x128_3dconv_fprop_interior_nn_v0_paramsE
libcudnn_cnn_infer.so.8:_ZN10cask_cudnn12sass_private57maxwell_hcudnn_128x128_3dconv_fprop_interior_nn_v0_shaderE
libcudnn_cnn_infer.so.8:_ZN10cask_cudnn12sass_private57maxwell_hcudnn_128x128_3dconv_fprop_medium_nn_v0_metadataEv
libcudnn_cnn_infer.so.8:_ZN10cask_cudnn12sass_private57maxwell_hcudnn_256x128_3dconv_dgrad_interior_nn_v0_paramsE
libcudnn_cnn_infer.so.8:_ZN10cask_cudnn12sass_private57maxwell_hcudnn_256x128_3dconv_dgrad_interior_nn_v0_shaderE
libcudnn_cnn_infer.so.8:_ZN10cask_cudnn12sass_private57maxwell_hcudnn_256x128_3dconv_dgrad_medium_nn_v0_metadataEv
libcudnn_cnn_infer.so.8:_ZN10cask_cudnn12sass_private57maxwell_hcudnn_256x128_3dconv_fprop_interior_nn_v0_paramsE
libcudnn_cnn_infer.so.8:_ZN10cask_cudnn12sass_private57maxwell_hcudnn_256x128_3dconv_fprop_interior_nn_v0_shaderE
libcudnn_cnn_infer.so.8:_ZN10cask_cudnn12sass_private57maxwell_hcudnn_256x128_3dconv_fprop_medium_nn_v0_metadataEv
libcudnn_cnn_infer.so.8:_ZN10cask_cudnn12sass_private57maxwell_scudnn_128x128_3dconv_dgrad_interior_nn_v0_paramsE
libcudnn_cnn_infer.so.8:_ZN10cask_cudnn12sass_private57maxwell_scudnn_128x128_3dconv_dgrad_interior_nn_v0_shaderE
libcudnn_cnn_infer.so.8:_ZN10cask_cudnn12sass_private57maxwell_scudnn_128x128_3dconv_dgrad_medium_nn_v0_metadataEv
libcudnn_cnn_infer.so.8:_ZN10cask_cudnn12sass_private57maxwell_scudnn_128x128_3dconv_fprop_interior_nn_v0_paramsE
libcudnn_cnn_infer.so.8:_ZN10cask_cudnn12sass_private57maxwell_scudnn_128x128_3dconv_fprop_interior_nn_v0_shaderE
libcudnn_cnn_infer.so.8:_ZN10cask_cudnn12sass_private57maxwell_scudnn_128x128_3dconv_fprop_medium_nn_v0_metadataEv
libcudnn_cnn_infer.so.8:_ZN10cask_cudnn12sass_private57volta_hcudnn_128x128_3dconv_dgrad_interior_nn_v1_metadataEv
libcudnn_cnn_infer.so.8:_ZN10cask_cudnn12sass_private57volta_hcudnn_128x128_3dconv_fprop_interior_nn_v1_metadataEv
libcudnn_cnn_infer.so.8:_ZN10cask_cudnn12sass_private57volta_scudnn_128x128_3dconv_dgrad_interior_nn_v1_metadataEv
libcudnn_cnn_infer.so.8:_ZN10cask_cudnn12sass_private57volta_scudnn_128x128_3dconv_fprop_interior_nn_v1_metadataEv
libcudnn_cnn_infer.so.8:_ZN10cask_cudnn12sass_private57volta_scudnn_128x32_3dconv_dgrad_xregs_large_nn_v1_paramsE
libcudnn_cnn_infer.so.8:_ZN10cask_cudnn12sass_private57volta_scudnn_128x32_3dconv_dgrad_xregs_large_nn_v1_shaderE
libcudnn_cnn_infer.so.8:_ZN10cask_cudnn12sass_private57volta_scudnn_128x32_3dconv_fprop_xregs_large_nn_v1_paramsE
libcudnn_cnn_infer.so.8:_ZN10cask_cudnn12sass_private57volta_scudnn_128x32_3dconv_fprop_xregs_large_nn_v1_shaderE
libcudnn_cnn_infer.so.8:_ZN10cask_cudnn12sass_private57volta_scudnn_128x64_3dconv_dgrad_xregs_large_nn_v1_paramsE
libcudnn_cnn_infer.so.8:_ZN10cask_cudnn12sass_private57volta_scudnn_128x64_3dconv_dgrad_xregs_large_nn_v1_shaderE
libcudnn_cnn_infer.so.8:_ZN10cask_cudnn12sass_private57volta_scudnn_128x64_3dconv_fprop_xregs_large_nn_v1_paramsE
libcudnn_cnn_infer.so.8:_ZN10cask_cudnn12sass_private57volta_scudnn_128x64_3dconv_fprop_xregs_large_nn_v1_shaderE
libcudnn_cnn_infer.so.8:_ZN10cask_cudnn12sass_private58maxwell_hcudnn_256x64_3dconv_dgrad_interior_nn_v0_metadataEv
libcudnn_cnn_infer.so.8:_ZN10cask_cudnn12sass_private58maxwell_hcudnn_256x64_3dconv_fprop_interior_nn_v0_metadataEv
libcudnn_cnn_infer.so.8:_ZN10cask_cudnn12sass_private58maxwell_scudnn_128x32_3dconv_dgrad_interior_nn_v0_metadataEv
libcudnn_cnn_infer.so.8:_ZN10cask_cudnn12sass_private58maxwell_scudnn_128x32_3dconv_fprop_interior_nn_v0_metadataEv
libcudnn_cnn_infer.so.8:_ZN10cask_cudnn12sass_private58maxwell_scudnn_128x64_3dconv_dgrad_interior_nn_v0_metadataEv
libcudnn_cnn_infer.so.8:_ZN10cask_cudnn12sass_private58maxwell_scudnn_128x64_3dconv_fprop_interior_nn_v0_metadataEv
libcudnn_cnn_infer.so.8:_ZN10cask_cudnn12sass_private58volta_scudnn_128x128_3dconv_dgrad_xregs_large_nn_v1_paramsE
libcudnn_cnn_infer.so.8:_ZN10cask_cudnn12sass_private58volta_scudnn_128x128_3dconv_dgrad_xregs_large_nn_v1_shaderE
libcudnn_cnn_infer.so.8:_ZN10cask_cudnn12sass_private58volta_scudnn_128x128_3dconv_fprop_xregs_large_nn_v1_paramsE
libcudnn_cnn_infer.so.8:_ZN10cask_cudnn12sass_private58volta_scudnn_128x128_3dconv_fprop_xregs_large_nn_v1_shaderE
libcudnn_cnn_infer.so.8:_ZN10cask_cudnn12sass_private59maxwell_hcudnn_128x128_3dconv_dgrad_interior_nn_v0_metadataEv
libcudnn_cnn_infer.so.8:_ZN10cask_cudnn12sass_private59maxwell_hcudnn_128x128_3dconv_fprop_interior_nn_v0_metadataEv
libcudnn_cnn_infer.so.8:_ZN10cask_cudnn12sass_private59maxwell_hcudnn_256x128_3dconv_dgrad_interior_nn_v0_metadataEv
libcudnn_cnn_infer.so.8:_ZN10cask_cudnn12sass_private59maxwell_hcudnn_256x128_3dconv_fprop_interior_nn_v0_metadataEv
libcudnn_cnn_infer.so.8:_ZN10cask_cudnn12sass_private59maxwell_scudnn_128x128_3dconv_dgrad_interior_nn_v0_metadataEv
libcudnn_cnn_infer.so.8:_ZN10cask_cudnn12sass_private59maxwell_scudnn_128x128_3dconv_fprop_interior_nn_v0_metadataEv
libcudnn_cnn_infer.so.8:_ZN10cask_cudnn12sass_private59volta_scudnn_128x32_3dconv_dgrad_xregs_large_nn_v1_metadataEv
libcudnn_cnn_infer.so.8:_ZN10cask_cudnn12sass_private59volta_scudnn_128x32_3dconv_fprop_xregs_large_nn_v1_metadataEv
libcudnn_cnn_infer.so.8:_ZN10cask_cudnn12sass_private59volta_scudnn_128x64_3dconv_dgrad_xregs_large_nn_v1_metadataEv
libcudnn_cnn_infer.so.8:_ZN10cask_cudnn12sass_private59volta_scudnn_128x64_3dconv_fprop_xregs_large_nn_v1_metadataEv
libcudnn_cnn_infer.so.8:_ZN10cask_cudnn12sass_private60volta_scudnn_128x128_3dconv_dgrad_xregs_large_nn_v1_metadataEv
libcudnn_cnn_infer.so.8:_ZN10cask_cudnn12sass_private60volta_scudnn_128x128_3dconv_fprop_xregs_large_nn_v1_metadataEv
libcudnn_cnn_infer.so.8:_ZN10cask_cudnn12sass_private62volta_fp16_scudnn_fp16_128x128_3dconv_dgrad_small_nn_v1_paramsE
libcudnn_cnn_infer.so.8:_ZN10cask_cudnn12sass_private62volta_fp16_scudnn_fp16_128x128_3dconv_dgrad_small_nn_v1_shaderE
libcudnn_cnn_infer.so.8:_ZN10cask_cudnn12sass_private62volta_fp16_scudnn_fp16_128x128_3dconv_fprop_small_nn_v1_paramsE
libcudnn_cnn_infer.so.8:_ZN10cask_cudnn12sass_private62volta_fp16_scudnn_fp16_128x128_3dconv_fprop_small_nn_v1_shaderE
libcudnn_cnn_infer.so.8:_ZN10cask_cudnn12sass_private63maxwell_fp16_scudnn_fp16_128x32_3dconv_dgrad_large_nn_v0_paramsE
libcudnn_cnn_infer.so.8:_ZN10cask_cudnn12sass_private63maxwell_fp16_scudnn_fp16_128x32_3dconv_dgrad_large_nn_v0_shaderE
libcudnn_cnn_infer.so.8:_ZN10cask_cudnn12sass_private63maxwell_fp16_scudnn_fp16_128x32_3dconv_dgrad_small_nn_v0_paramsE
libcudnn_cnn_infer.so.8:_ZN10cask_cudnn12sass_private63maxwell_fp16_scudnn_fp16_128x32_3dconv_dgrad_small_nn_v0_shaderE
libcudnn_cnn_infer.so.8:_ZN10cask_cudnn12sass_private63maxwell_fp16_scudnn_fp16_128x32_3dconv_fprop_large_nn_v0_paramsE
libcudnn_cnn_infer.so.8:_ZN10cask_cudnn12sass_private63maxwell_fp16_scudnn_fp16_128x32_3dconv_fprop_large_nn_v0_shaderE
libcudnn_cnn_infer.so.8:_ZN10cask_cudnn12sass_private63maxwell_fp16_scudnn_fp16_128x32_3dconv_fprop_small_nn_v0_paramsE
libcudnn_cnn_infer.so.8:_ZN10cask_cudnn12sass_private63maxwell_fp16_scudnn_fp16_128x32_3dconv_fprop_small_nn_v0_shaderE
libcudnn_cnn_infer.so.8:_ZN10cask_cudnn12sass_private63maxwell_fp16_scudnn_fp16_128x64_3dconv_dgrad_large_nn_v0_paramsE
libcudnn_cnn_infer.so.8:_ZN10cask_cudnn12sass_private63maxwell_fp16_scudnn_fp16_128x64_3dconv_dgrad_large_nn_v0_shaderE
libcudnn_cnn_infer.so.8:_ZN10cask_cudnn12sass_private63maxwell_fp16_scudnn_fp16_128x64_3dconv_dgrad_small_nn_v0_paramsE
libcudnn_cnn_infer.so.8:_ZN10cask_cudnn12sass_private63maxwell_fp16_scudnn_fp16_128x64_3dconv_dgrad_small_nn_v0_shaderE
libcudnn_cnn_infer.so.8:_ZN10cask_cudnn12sass_private63maxwell_fp16_scudnn_fp16_128x64_3dconv_fprop_large_nn_v0_paramsE
libcudnn_cnn_infer.so.8:_ZN10cask_cudnn12sass_private63maxwell_fp16_scudnn_fp16_128x64_3dconv_fprop_large_nn_v0_shaderE
libcudnn_cnn_infer.so.8:_ZN10cask_cudnn12sass_private63maxwell_fp16_scudnn_fp16_128x64_3dconv_fprop_small_nn_v0_paramsE
libcudnn_cnn_infer.so.8:_ZN10cask_cudnn12sass_private63maxwell_fp16_scudnn_fp16_128x64_3dconv_fprop_small_nn_v0_shaderE
libcudnn_cnn_infer.so.8:_ZN10cask_cudnn12sass_private63volta_fp16_scudnn_fp16_128x128_3dconv_dgrad_medium_nn_v1_paramsE
libcudnn_cnn_infer.so.8:_ZN10cask_cudnn12sass_private63volta_fp16_scudnn_fp16_128x128_3dconv_dgrad_medium_nn_v1_shaderE
libcudnn_cnn_infer.so.8:_ZN10cask_cudnn12sass_private63volta_fp16_scudnn_fp16_128x128_3dconv_fprop_medium_nn_v1_paramsE
libcudnn_cnn_infer.so.8:_ZN10cask_cudnn12sass_private63volta_fp16_scudnn_fp16_128x128_3dconv_fprop_medium_nn_v1_shaderE
libcudnn_cnn_infer.so.8:_ZN10cask_cudnn12sass_private64maxwell_fp16_scudnn_fp16_128x128_3dconv_dgrad_large_nn_v0_paramsE
libcudnn_cnn_infer.so.8:_ZN10cask_cudnn12sass_private64maxwell_fp16_scudnn_fp16_128x128_3dconv_dgrad_large_nn_v0_shaderE
libcudnn_cnn_infer.so.8:_ZN10cask_cudnn12sass_private64maxwell_fp16_scudnn_fp16_128x128_3dconv_dgrad_small_nn_v0_paramsE
libcudnn_cnn_infer.so.8:_ZN10cask_cudnn12sass_private64maxwell_fp16_scudnn_fp16_128x128_3dconv_dgrad_small_nn_v0_shaderE
libcudnn_cnn_infer.so.8:_ZN10cask_cudnn12sass_private64maxwell_fp16_scudnn_fp16_128x128_3dconv_fprop_large_nn_v0_paramsE
libcudnn_cnn_infer.so.8:_ZN10cask_cudnn12sass_private64maxwell_fp16_scudnn_fp16_128x128_3dconv_fprop_large_nn_v0_shaderE
libcudnn_cnn_infer.so.8:_ZN10cask_cudnn12sass_private64maxwell_fp16_scudnn_fp16_128x128_3dconv_fprop_small_nn_v0_paramsE
libcudnn_cnn_infer.so.8:_ZN10cask_cudnn12sass_private64maxwell_fp16_scudnn_fp16_128x128_3dconv_fprop_small_nn_v0_shaderE
libcudnn_cnn_infer.so.8:_ZN10cask_cudnn12sass_private64maxwell_fp16_scudnn_fp16_128x32_3dconv_dgrad_medium_nn_v0_paramsE
libcudnn_cnn_infer.so.8:_ZN10cask_cudnn12sass_private64maxwell_fp16_scudnn_fp16_128x32_3dconv_dgrad_medium_nn_v0_shaderE
libcudnn_cnn_infer.so.8:_ZN10cask_cudnn12sass_private64maxwell_fp16_scudnn_fp16_128x32_3dconv_fprop_medium_nn_v0_paramsE
libcudnn_cnn_infer.so.8:_ZN10cask_cudnn12sass_private64maxwell_fp16_scudnn_fp16_128x32_3dconv_fprop_medium_nn_v0_shaderE
libcudnn_cnn_infer.so.8:_ZN10cask_cudnn12sass_private64maxwell_fp16_scudnn_fp16_128x64_3dconv_dgrad_medium_nn_v0_paramsE
libcudnn_cnn_infer.so.8:_ZN10cask_cudnn12sass_private64maxwell_fp16_scudnn_fp16_128x64_3dconv_dgrad_medium_nn_v0_shaderE
libcudnn_cnn_infer.so.8:_ZN10cask_cudnn12sass_private64maxwell_fp16_scudnn_fp16_128x64_3dconv_fprop_medium_nn_v0_paramsE
libcudnn_cnn_infer.so.8:_ZN10cask_cudnn12sass_private64maxwell_fp16_scudnn_fp16_128x64_3dconv_fprop_medium_nn_v0_shaderE
libcudnn_cnn_infer.so.8:_ZN10cask_cudnn12sass_private64volta_fp16_scudnn_fp16_128x128_3dconv_dgrad_small_nn_v1_metadataEv
libcudnn_cnn_infer.so.8:_ZN10cask_cudnn12sass_private64volta_fp16_scudnn_fp16_128x128_3dconv_fprop_small_nn_v1_metadataEv
libcudnn_cnn_infer.so.8:_ZN10cask_cudnn12sass_private65maxwell_fp16_scudnn_fp16_128x128_3dconv_dgrad_medium_nn_v0_paramsE
libcudnn_cnn_infer.so.8:_ZN10cask_cudnn12sass_private65maxwell_fp16_scudnn_fp16_128x128_3dconv_dgrad_medium_nn_v0_shaderE
libcudnn_cnn_infer.so.8:_ZN10cask_cudnn12sass_private65maxwell_fp16_scudnn_fp16_128x128_3dconv_fprop_medium_nn_v0_paramsE
libcudnn_cnn_infer.so.8:_ZN10cask_cudnn12sass_private65maxwell_fp16_scudnn_fp16_128x128_3dconv_fprop_medium_nn_v0_shaderE
libcudnn_cnn_infer.so.8:_ZN10cask_cudnn12sass_private65maxwell_fp16_scudnn_fp16_128x32_3dconv_dgrad_large_nn_v0_metadataEv
libcudnn_cnn_infer.so.8:_ZN10cask_cudnn12sass_private65maxwell_fp16_scudnn_fp16_128x32_3dconv_dgrad_small_nn_v0_metadataEv
libcudnn_cnn_infer.so.8:_ZN10cask_cudnn12sass_private65maxwell_fp16_scudnn_fp16_128x32_3dconv_fprop_large_nn_v0_metadataEv
libcudnn_cnn_infer.so.8:_ZN10cask_cudnn12sass_private65maxwell_fp16_scudnn_fp16_128x32_3dconv_fprop_small_nn_v0_metadataEv
libcudnn_cnn_infer.so.8:_ZN10cask_cudnn12sass_private65maxwell_fp16_scudnn_fp16_128x64_3dconv_dgrad_large_nn_v0_metadataEv
libcudnn_cnn_infer.so.8:_ZN10cask_cudnn12sass_private65maxwell_fp16_scudnn_fp16_128x64_3dconv_dgrad_small_nn_v0_metadataEv
libcudnn_cnn_infer.so.8:_ZN10cask_cudnn12sass_private65maxwell_fp16_scudnn_fp16_128x64_3dconv_fprop_large_nn_v0_metadataEv
libcudnn_cnn_infer.so.8:_ZN10cask_cudnn12sass_private65maxwell_fp16_scudnn_fp16_128x64_3dconv_fprop_small_nn_v0_metadataEv
libcudnn_cnn_infer.so.8:_ZN10cask_cudnn12sass_private65volta_fp16_scudnn_fp16_128x128_3dconv_dgrad_interior_nn_v1_paramsE
libcudnn_cnn_infer.so.8:_ZN10cask_cudnn12sass_private65volta_fp16_scudnn_fp16_128x128_3dconv_dgrad_interior_nn_v1_shaderE
libcudnn_cnn_infer.so.8:_ZN10cask_cudnn12sass_private65volta_fp16_scudnn_fp16_128x128_3dconv_dgrad_medium_nn_v1_metadataEv
libcudnn_cnn_infer.so.8:_ZN10cask_cudnn12sass_private65volta_fp16_scudnn_fp16_128x128_3dconv_fprop_interior_nn_v1_paramsE
libcudnn_cnn_infer.so.8:_ZN10cask_cudnn12sass_private65volta_fp16_scudnn_fp16_128x128_3dconv_fprop_interior_nn_v1_shaderE
libcudnn_cnn_infer.so.8:_ZN10cask_cudnn12sass_private65volta_fp16_scudnn_fp16_128x128_3dconv_fprop_medium_nn_v1_metadataEv
libcudnn_cnn_infer.so.8:_ZN10cask_cudnn12sass_private66maxwell_fp16_scudnn_fp16_128x128_3dconv_dgrad_large_nn_v0_metadataEv
libcudnn_cnn_infer.so.8:_ZN10cask_cudnn12sass_private66maxwell_fp16_scudnn_fp16_128x128_3dconv_dgrad_small_nn_v0_metadataEv
libcudnn_cnn_infer.so.8:_ZN10cask_cudnn12sass_private66maxwell_fp16_scudnn_fp16_128x128_3dconv_fprop_large_nn_v0_metadataEv
libcudnn_cnn_infer.so.8:_ZN10cask_cudnn12sass_private66maxwell_fp16_scudnn_fp16_128x128_3dconv_fprop_small_nn_v0_metadataEv
libcudnn_cnn_infer.so.8:_ZN10cask_cudnn12sass_private66maxwell_fp16_scudnn_fp16_128x32_3dconv_dgrad_interior_nn_v0_paramsE
libcudnn_cnn_infer.so.8:_ZN10cask_cudnn12sass_private66maxwell_fp16_scudnn_fp16_128x32_3dconv_dgrad_interior_nn_v0_shaderE
libcudnn_cnn_infer.so.8:_ZN10cask_cudnn12sass_private66maxwell_fp16_scudnn_fp16_128x32_3dconv_dgrad_medium_nn_v0_metadataEv
libcudnn_cnn_infer.so.8:_ZN10cask_cudnn12sass_private66maxwell_fp16_scudnn_fp16_128x32_3dconv_fprop_interior_nn_v0_paramsE
libcudnn_cnn_infer.so.8:_ZN10cask_cudnn12sass_private66maxwell_fp16_scudnn_fp16_128x32_3dconv_fprop_interior_nn_v0_shaderE
libcudnn_cnn_infer.so.8:_ZN10cask_cudnn12sass_private66maxwell_fp16_scudnn_fp16_128x32_3dconv_fprop_medium_nn_v0_metadataEv
libcudnn_cnn_infer.so.8:_ZN10cask_cudnn12sass_private66maxwell_fp16_scudnn_fp16_128x64_3dconv_dgrad_interior_nn_v0_paramsE
libcudnn_cnn_infer.so.8:_ZN10cask_cudnn12sass_private66maxwell_fp16_scudnn_fp16_128x64_3dconv_dgrad_interior_nn_v0_shaderE
libcudnn_cnn_infer.so.8:_ZN10cask_cudnn12sass_private66maxwell_fp16_scudnn_fp16_128x64_3dconv_dgrad_medium_nn_v0_metadataEv
libcudnn_cnn_infer.so.8:_ZN10cask_cudnn12sass_private66maxwell_fp16_scudnn_fp16_128x64_3dconv_fprop_interior_nn_v0_paramsE
libcudnn_cnn_infer.so.8:_ZN10cask_cudnn12sass_private66maxwell_fp16_scudnn_fp16_128x64_3dconv_fprop_interior_nn_v0_shaderE
libcudnn_cnn_infer.so.8:_ZN10cask_cudnn12sass_private66maxwell_fp16_scudnn_fp16_128x64_3dconv_fprop_medium_nn_v0_metadataEv
libcudnn_cnn_infer.so.8:_ZN10cask_cudnn12sass_private67maxwell_fp16_scudnn_fp16_128x128_3dconv_dgrad_medium_nn_v0_metadataEv
libcudnn_cnn_infer.so.8:_ZN10cask_cudnn12sass_private67maxwell_fp16_scudnn_fp16_128x128_3dconv_fprop_interior_nn_v0_paramsE
libcudnn_cnn_infer.so.8:_ZN10cask_cudnn12sass_private67maxwell_fp16_scudnn_fp16_128x128_3dconv_fprop_interior_nn_v0_shaderE
libcudnn_cnn_infer.so.8:_ZN10cask_cudnn12sass_private67maxwell_fp16_scudnn_fp16_128x128_3dconv_fprop_medium_nn_v0_metadataEv
libcudnn_cnn_infer.so.8:_ZN10cask_cudnn12sass_private67volta_fp16_scudnn_fp16_128x128_3dconv_dgrad_interior_nn_v1_metadataEv
libcudnn_cnn_infer.so.8:_ZN10cask_cudnn12sass_private67volta_fp16_scudnn_fp16_128x128_3dconv_fprop_interior_nn_v1_metadataEv
libcudnn_cnn_infer.so.8:_ZN10cask_cudnn12sass_private68maxwell_fp16_scudnn_fp16_128x32_3dconv_dgrad_interior_nn_v0_metadataEv
libcudnn_cnn_infer.so.8:_ZN10cask_cudnn12sass_private68maxwell_fp16_scudnn_fp16_128x32_3dconv_fprop_interior_nn_v0_metadataEv
libcudnn_cnn_infer.so.8:_ZN10cask_cudnn12sass_private68maxwell_fp16_scudnn_fp16_128x64_3dconv_dgrad_interior_nn_v0_metadataEv
libcudnn_cnn_infer.so.8:_ZN10cask_cudnn12sass_private68maxwell_fp16_scudnn_fp16_128x64_3dconv_fprop_interior_nn_v0_metadataEv
libcudnn_cnn_infer.so.8:_ZN10cask_cudnn12sass_private68volta_fp16_scudnn_fp16_128x128_3dconv_dgrad_xregs_large_nn_v1_paramsE
libcudnn_cnn_infer.so.8:_ZN10cask_cudnn12sass_private68volta_fp16_scudnn_fp16_128x128_3dconv_dgrad_xregs_large_nn_v1_shaderE
libcudnn_cnn_infer.so.8:_ZN10cask_cudnn12sass_private68volta_fp16_scudnn_fp16_128x128_3dconv_fprop_xregs_large_nn_v1_paramsE
libcudnn_cnn_infer.so.8:_ZN10cask_cudnn12sass_private68volta_fp16_scudnn_fp16_128x128_3dconv_fprop_xregs_large_nn_v1_shaderE
libcudnn_cnn_infer.so.8:_ZN10cask_cudnn12sass_private69maxwell_fp16_scudnn_fp16_128x128_3dconv_dgrad_interior_nn_v0_metadataEv
libcudnn_cnn_infer.so.8:_ZN10cask_cudnn12sass_private69maxwell_fp16_scudnn_fp16_128x128_3dconv_fprop_interior_nn_v0_metadataEv
libcudnn_cnn_infer.so.8:_ZN10cask_cudnn12sass_private70volta_fp16_scudnn_fp16_128x128_3dconv_dgrad_xregs_large_nn_v1_metadataEv
libcudnn_cnn_infer.so.8:_ZN10cask_cudnn12sass_private70volta_fp16_scudnn_fp16_128x128_3dconv_fprop_xregs_large_nn_v1_metadataEv
libcudnn_cnn_infer.so.8:_ZN10cask_cudnn13DeconvolutionC1Ev
libcudnn_cnn_infer.so.8:_ZN10cask_cudnn13DeconvolutionC2Ev
libcudnn_cnn_infer.so.8:_ZN10cask_cudnn13cpuFloat2HalfEf
libcudnn_cnn_infer.so.8:_ZN10cask_cudnn14KernelInfoCuda13infoSupportedENS_15KernelInfoNamesE
libcudnn_cnn_infer.so.8:_ZN10cask_cudnn14KernelInfoCudaC1EmNS_12sass_private17elementDataType_tES2_S2_S2_S2_NS1_10edgeType_tEbNS1_13cuDnnLayout_tEbbS4_PKcbbbS6_ttNS1_16chipFamilyType_tES6_NS1_12layoutType_tES8_S6_bNS1_12shapeTypeC_tEttmbtttjiijiijhhNS_12OpDefinitionEbS6_NS1_12abiVersion_tE
libcudnn_cnn_infer.so.8:_ZN10cask_cudnn14KernelInfoCudaC2EmNS_12sass_private17elementDataType_tES2_S2_S2_S2_NS1_10edgeType_tEbNS1_13cuDnnLayout_tEbbS4_PKcbbbS6_ttNS1_16chipFamilyType_tES6_NS1_12layoutType_tES8_S6_bNS1_12shapeTypeC_tEttmbtttjiijiijhhNS_12OpDefinitionEbS6_NS1_12abiVersion_tE
libcudnn_cnn_infer.so.8:_ZN10cask_cudnn14KernelInfoCudaD0Ev
libcudnn_cnn_infer.so.8:_ZN10cask_cudnn14KernelInfoCudaD1Ev
libcudnn_cnn_infer.so.8:_ZN10cask_cudnn14KernelInfoCudaD2Ev
libcudnn_cnn_infer.so.8:_ZN10cask_cudnn14LinkableShader13setLinkOptionENS_10LinkOptionE
libcudnn_cnn_infer.so.8:_ZN10cask_cudnn14LinkableShader4initEv
libcudnn_cnn_infer.so.8:_ZN10cask_cudnn14LinkableShaderC1EPKNS_12sass_private12ShaderParamsEPKNS_10KernelInfoEPKNS_7AbiInfoEPKcSC_
libcudnn_cnn_infer.so.8:_ZN10cask_cudnn14LinkableShaderC2EPKNS_12sass_private12ShaderParamsEPKNS_10KernelInfoEPKNS_7AbiInfoEPKcSC_
libcudnn_cnn_infer.so.8:_ZN10cask_cudnn14WinogradShader13transformBetaERNS_7RunInfoEPKvPvP11CUstream_st
libcudnn_cnn_infer.so.8:_ZN10cask_cudnn14WinogradShader13transformBiasERNS_7RunInfoEPKvPvP11CUstream_st
libcudnn_cnn_infer.so.8:_ZN10cask_cudnn14WinogradShader14transformAlphaERNS_7RunInfoEPKvPvP11CUstream_st
libcudnn_cnn_infer.so.8:_ZN10cask_cudnn14WinogradShader16transformATensorERNS_7RunInfoEPKvPvP11CUstream_st
libcudnn_cnn_infer.so.8:_ZN10cask_cudnn14WinogradShader16transformBTensorERNS_7RunInfoEPKvPvP11CUstream_st
libcudnn_cnn_infer.so.8:_ZN10cask_cudnn14WinogradShader19transformedBetaSizeERNS_7RunInfoE
libcudnn_cnn_infer.so.8:_ZN10cask_cudnn14WinogradShader19transformedBiasSizeERNS_7RunInfoE
libcudnn_cnn_infer.so.8:_ZN10cask_cudnn14WinogradShader20transformedAlphaSizeERNS_7RunInfoE
libcudnn_cnn_infer.so.8:_ZN10cask_cudnn14WinogradShader22transformedATensorSizeERNS_7RunInfoE
libcudnn_cnn_infer.so.8:_ZN10cask_cudnn14WinogradShader22transformedBTensorSizeERNS_7RunInfoE
libcudnn_cnn_infer.so.8:_ZN10cask_cudnn14WinogradShader23initDeviceReservedSpaceERNS_7RunInfoEP11CUstream_st
libcudnn_cnn_infer.so.8:_ZN10cask_cudnn14WinogradShader23updateRuntimeParametersERNS_7RunInfoEP11CUstream_st
libcudnn_cnn_infer.so.8:_ZN10cask_cudnn14WinogradShader3runERNS_7RunInfoEPvPKvS5_S5_S5_S5_S5_P11CUstream_st
libcudnn_cnn_infer.so.8:_ZN10cask_cudnn14WinogradShaderC1EPKNS_12sass_private12ShaderParamsEPKNS_10KernelInfoE
libcudnn_cnn_infer.so.8:_ZN10cask_cudnn14WinogradShaderC2EPKNS_12sass_private12ShaderParamsEPKNS_10KernelInfoE
libcudnn_cnn_infer.so.8:_ZN10cask_cudnn14cuModuleUnloadE
libcudnn_cnn_infer.so.8:_ZN10cask_cudnn14getErrorStringENS_8SafeEnumINS_9ErrorEnumEEE
libcudnn_cnn_infer.so.8:_ZN10cask_cudnn15ConvDgradShaderC1EPKNS_10KernelInfoE
libcudnn_cnn_infer.so.8:_ZN10cask_cudnn15ConvDgradShaderC2EPKNS_10KernelInfoE
libcudnn_cnn_infer.so.8:_ZN10cask_cudnn15ConvDgradShaderD0Ev
libcudnn_cnn_infer.so.8:_ZN10cask_cudnn15ConvDgradShaderD1Ev
libcudnn_cnn_infer.so.8:_ZN10cask_cudnn15ConvDgradShaderD2Ev
libcudnn_cnn_infer.so.8:_ZN10cask_cudnn15ConvWgradShader9getTraitsESs
libcudnn_cnn_infer.so.8:_ZN10cask_cudnn15ConvWgradShaderC1EPKNS_10KernelInfoE
libcudnn_cnn_infer.so.8:_ZN10cask_cudnn15ConvWgradShaderC2EPKNS_10KernelInfoE
libcudnn_cnn_infer.so.8:_ZN10cask_cudnn15ConvWgradShaderD0Ev
libcudnn_cnn_infer.so.8:_ZN10cask_cudnn15ConvWgradShaderD1Ev
libcudnn_cnn_infer.so.8:_ZN10cask_cudnn15ConvWgradShaderD2Ev
libcudnn_cnn_infer.so.8:_ZN10cask_cudnn15MetadataVariantC1ENS_2md33SplitKMode_ENUMCLASS_SCOPEWRAPPER5LabelE
libcudnn_cnn_infer.so.8:_ZN10cask_cudnn15MetadataVariantC1ENS_2md36MmaInstrShape_ENUMCLASS_SCOPEWRAPPER5LabelE
libcudnn_cnn_infer.so.8:_ZN10cask_cudnn15MetadataVariantC1ENS_2md37TriangularKind_ENUMCLASS_SCOPEWRAPPER5LabelE
libcudnn_cnn_infer.so.8:_ZN10cask_cudnn15MetadataVariantC1ENS_2md38MmaInstrSpRatio_ENUMCLASS_SCOPEWRAPPER5LabelE
libcudnn_cnn_infer.so.8:_ZN10cask_cudnn15MetadataVariantC1ENS_8SafeEnumINS_2md33SplitKMode_ENUMCLASS_SCOPEWRAPPEREEE
libcudnn_cnn_infer.so.8:_ZN10cask_cudnn15MetadataVariantC1ENS_8SafeEnumINS_2md36MmaInstrShape_ENUMCLASS_SCOPEWRAPPEREEE
libcudnn_cnn_infer.so.8:_ZN10cask_cudnn15MetadataVariantC1ENS_8SafeEnumINS_2md37TriangularKind_ENUMCLASS_SCOPEWRAPPEREEE
libcudnn_cnn_infer.so.8:_ZN10cask_cudnn15MetadataVariantC1ENS_8SafeEnumINS_2md38MmaInstrSpRatio_ENUMCLASS_SCOPEWRAPPEREEE
libcudnn_cnn_infer.so.8:_ZN10cask_cudnn15MetadataVariantC1EPKc
libcudnn_cnn_infer.so.8:_ZN10cask_cudnn15MetadataVariantC1ERKS0_
libcudnn_cnn_infer.so.8:_ZN10cask_cudnn15MetadataVariantC1Eb
libcudnn_cnn_infer.so.8:_ZN10cask_cudnn15MetadataVariantC1Ei
libcudnn_cnn_infer.so.8:_ZN10cask_cudnn15MetadataVariantC1Ej
libcudnn_cnn_infer.so.8:_ZN10cask_cudnn15MetadataVariantC1El
libcudnn_cnn_infer.so.8:_ZN10cask_cudnn15MetadataVariantC1Em
libcudnn_cnn_infer.so.8:_ZN10cask_cudnn15MetadataVariantC2ENS_2md33SplitKMode_ENUMCLASS_SCOPEWRAPPER5LabelE
libcudnn_cnn_infer.so.8:_ZN10cask_cudnn15MetadataVariantC2ENS_2md36MmaInstrShape_ENUMCLASS_SCOPEWRAPPER5LabelE
libcudnn_cnn_infer.so.8:_ZN10cask_cudnn15MetadataVariantC2ENS_2md37TriangularKind_ENUMCLASS_SCOPEWRAPPER5LabelE
libcudnn_cnn_infer.so.8:_ZN10cask_cudnn15MetadataVariantC2ENS_2md38MmaInstrSpRatio_ENUMCLASS_SCOPEWRAPPER5LabelE
libcudnn_cnn_infer.so.8:_ZN10cask_cudnn15MetadataVariantC2ENS_8SafeEnumINS_2md33SplitKMode_ENUMCLASS_SCOPEWRAPPEREEE
libcudnn_cnn_infer.so.8:_ZN10cask_cudnn15MetadataVariantC2ENS_8SafeEnumINS_2md36MmaInstrShape_ENUMCLASS_SCOPEWRAPPEREEE
libcudnn_cnn_infer.so.8:_ZN10cask_cudnn15MetadataVariantC2ENS_8SafeEnumINS_2md37TriangularKind_ENUMCLASS_SCOPEWRAPPEREEE
libcudnn_cnn_infer.so.8:_ZN10cask_cudnn15MetadataVariantC2ENS_8SafeEnumINS_2md38MmaInstrSpRatio_ENUMCLASS_SCOPEWRAPPEREEE
libcudnn_cnn_infer.so.8:_ZN10cask_cudnn15MetadataVariantC2EPKc
libcudnn_cnn_infer.so.8:_ZN10cask_cudnn15MetadataVariantC2ERKS0_
libcudnn_cnn_infer.so.8:_ZN10cask_cudnn15MetadataVariantC2Eb
libcudnn_cnn_infer.so.8:_ZN10cask_cudnn15MetadataVariantC2Ei
libcudnn_cnn_infer.so.8:_ZN10cask_cudnn15MetadataVariantC2Ej
libcudnn_cnn_infer.so.8:_ZN10cask_cudnn15MetadataVariantC2El
libcudnn_cnn_infer.so.8:_ZN10cask_cudnn15MetadataVariantC2Em
libcudnn_cnn_infer.so.8:_ZN10cask_cudnn15transformTensorEPvPKvRKNS_10TensorDescES5_
libcudnn_cnn_infer.so.8:_ZN10cask_cudnn16ConvolutionDgradC1Ev
libcudnn_cnn_infer.so.8:_ZN10cask_cudnn16ConvolutionDgradC2Ev
libcudnn_cnn_infer.so.8:_ZN10cask_cudnn16ConvolutionWgradC1Ev
libcudnn_cnn_infer.so.8:_ZN10cask_cudnn16ConvolutionWgradC2Ev
libcudnn_cnn_infer.so.8:_ZN10cask_cudnn17KernelInfoDefault13infoSupportedENS_15KernelInfoNamesE
libcudnn_cnn_infer.so.8:_ZN10cask_cudnn17KernelInfoDefaultC1EmNS_12sass_private17elementDataType_tES2_S2_S2_S2_NS1_10edgeType_tEbNS1_13cuDnnLayout_tEbbS4_PKcbbbS6_ttNS1_16chipFamilyType_tES6_NS1_12layoutType_tES8_S6_bNS1_12shapeTypeC_tEttmbtttjiijiijhhNS_12OpDefinitionEbS6_NS1_12abiVersion_tE
libcudnn_cnn_infer.so.8:_ZN10cask_cudnn17KernelInfoDefaultC2EmNS_12sass_private17elementDataType_tES2_S2_S2_S2_NS1_10edgeType_tEbNS1_13cuDnnLayout_tEbbS4_PKcbbbS6_ttNS1_16chipFamilyType_tES6_NS1_12layoutType_tES8_S6_bNS1_12shapeTypeC_tEttmbtttjiijiijhhNS_12OpDefinitionEbS6_NS1_12abiVersion_tE
libcudnn_cnn_infer.so.8:_ZN10cask_cudnn17KernelInfoDefaultD0Ev
libcudnn_cnn_infer.so.8:_ZN10cask_cudnn17KernelInfoDefaultD1Ev
libcudnn_cnn_infer.so.8:_ZN10cask_cudnn17KernelInfoDefaultD2Ev
libcudnn_cnn_infer.so.8:_ZN10cask_cudnn17calcSparsityRatioERKNS_10TensorDescEPKv
libcudnn_cnn_infer.so.8:_ZN10cask_cudnn17shouldPrintParamsEv
libcudnn_cnn_infer.so.8:_ZN10cask_cudnn18ConvKernelInfoCudaC1EmNS_12sass_private17elementDataType_tES2_S2_S2_S2_NS1_10edgeType_tEbNS1_13cuDnnLayout_tEbbS4_PKcbbbS6_ttNS1_16chipFamilyType_tES6_NS1_12layoutType_tES8_S6_bNS1_12shapeTypeC_tEttmbtttjiijiijhhNS_12OpDefinitionEbS6_NS1_12abiVersion_tE
libcudnn_cnn_infer.so.8:_ZN10cask_cudnn18ConvKernelInfoCudaC2EmNS_12sass_private17elementDataType_tES2_S2_S2_S2_NS1_10edgeType_tEbNS1_13cuDnnLayout_tEbbS4_PKcbbbS6_ttNS1_16chipFamilyType_tES6_NS1_12layoutType_tES8_S6_bNS1_12shapeTypeC_tEttmbtttjiijiijhhNS_12OpDefinitionEbS6_NS1_12abiVersion_tE
libcudnn_cnn_infer.so.8:_ZN10cask_cudnn18LinkableConvShader4initEv
libcudnn_cnn_infer.so.8:_ZN10cask_cudnn18LinkableConvShaderC1EPKNS_12sass_private12ShaderParamsEPKNS_10KernelInfoEPKNS_7AbiInfoEPKcSC_
libcudnn_cnn_infer.so.8:_ZN10cask_cudnn18LinkableConvShaderC2EPKNS_12sass_private12ShaderParamsEPKNS_10KernelInfoEPKNS_7AbiInfoEPKcSC_
libcudnn_cnn_infer.so.8:_ZN10cask_cudnn18LinkableGemmShader4initEv
libcudnn_cnn_infer.so.8:_ZN10cask_cudnn18LinkableGemmShaderC1EPKNS_12sass_private12ShaderParamsEPKNS_10KernelInfoEPKNS_7AbiInfoEPKcSC_
libcudnn_cnn_infer.so.8:_ZN10cask_cudnn18LinkableGemmShaderC2EPKNS_12sass_private12ShaderParamsEPKNS_10KernelInfoEPKNS_7AbiInfoEPKcSC_
libcudnn_cnn_infer.so.8:_ZN10cask_cudnn19getBitsOfScalarTypeERKNS_8SafeEnumINS_33ScalarType_ENUMCLASS_SCOPEWRAPPEREEE
libcudnn_cnn_infer.so.8:_ZN10cask_cudnn20KernelTableSingleton12getGemmTableEv
libcudnn_cnn_infer.so.8:_ZN10cask_cudnn20KernelTableSingleton20addConvKernelCreatorERKSsPFPNS_10ConvShaderERKSt6vectorIcSaIcEEP8CUmod_stP9CUfunc_stSD_E
libcudnn_cnn_infer.so.8:_ZN10cask_cudnn20KernelTableSingleton20addGemmKernelCreatorERKSsPFPNS_10GemmShaderERKSt6vectorIcSaIcEEP8CUmod_stP9CUfunc_stSD_E
libcudnn_cnn_infer.so.8:_ZN10cask_cudnn20compressSparseFilterERNS_19SparseTensorsParamsEb
libcudnn_cnn_infer.so.8:_ZN10cask_cudnn20compressSparseTensorERNS_19SparseTensorsParamsERKNS_10KernelInfoEbb
libcudnn_cnn_infer.so.8:_ZN10cask_cudnn20compressSparseTensorERNS_19SparseTensorsParamsEbb
libcudnn_cnn_infer.so.8:_ZN10cask_cudnn20compressSparseTensorERNS_19SparseTensorsParamsEjbb
libcudnn_cnn_infer.so.8:_ZN10cask_cudnn20getComputeCapabilityENS_8SafeEnumINS_47ComputeCapabilityVersion_ENUMCLASS_SCOPEWRAPPEREEENS0_INS_40ComputeCapability_ENUMCLASS_SCOPEWRAPPEREEE
libcudnn_cnn_infer.so.8:_ZN10cask_cudnn21PoolingKernelInfoCudaC1EmNS_12sass_private17elementDataType_tES2_S2_S2_S2_NS1_10edgeType_tEbNS1_13cuDnnLayout_tEbbS4_PKcbbbS6_ttNS1_16chipFamilyType_tES6_NS1_12layoutType_tES8_S6_bNS1_12shapeTypeC_tEttmbtttjiijiijhhNS_12OpDefinitionEbS6_NS1_12abiVersion_tE
libcudnn_cnn_infer.so.8:_ZN10cask_cudnn21PoolingKernelInfoCudaC2EmNS_12sass_private17elementDataType_tES2_S2_S2_S2_NS1_10edgeType_tEbNS1_13cuDnnLayout_tEbbS4_PKcbbbS6_ttNS1_16chipFamilyType_tES6_NS1_12layoutType_tES8_S6_bNS1_12shapeTypeC_tEttmbtttjiijiijhhNS_12OpDefinitionEbS6_NS1_12abiVersion_tE
libcudnn_cnn_infer.so.8:_ZN10cask_cudnn21computeBOffsetsKernelENS_21ComputeBOffsetsParamsE
libcudnn_cnn_infer.so.8:_ZN10cask_cudnn22get_kernel_record_nameEPKNS_15kernel_record_tE
libcudnn_cnn_infer.so.8:_ZN10cask_cudnn22uncompressSparseFilterERNS_19SparseTensorsParamsE
libcudnn_cnn_infer.so.8:_ZN10cask_cudnn22uncompressSparseTensorERNS_19SparseTensorsParamsEb
libcudnn_cnn_infer.so.8:_ZN10cask_cudnn23getCompressedFilterDescERKNS_10KernelInfoENS_10TensorDescERS3_S4_l
libcudnn_cnn_infer.so.8:_ZN10cask_cudnn23getCompressedTensorDescERKNS_10KernelInfoENS_10TensorDescERS3_S4_b
libcudnn_cnn_infer.so.8:_ZN10cask_cudnn23shouldSuppressGpuLaunchEv
libcudnn_cnn_infer.so.8:_ZN10cask_cudnn25getConstantMemParamOffsetENS_8SafeEnumINS_31GemmChip_ENUMCLASS_SCOPEWRAPPEREEEPm
libcudnn_cnn_infer.so.8:_ZN10cask_cudnn2ft10convSearchINS_11ConvolutionELNS_13record_type_tE0EEENS_8SafeEnumINS_9ErrorEnumEEEPNS0_14convTreeHandleEPNS7_7thsch_tERKT_PPNS_15kernel_record_tEPKSE_i
libcudnn_cnn_infer.so.8:_ZN10cask_cudnn2ft10convSearchINS_11ConvolutionELNS_13record_type_tE1EEENS_8SafeEnumINS_9ErrorEnumEEEPNS0_14convTreeHandleEPNS7_7thsch_tERKT_PPNS_15kernel_record_tEPKSE_i
libcudnn_cnn_infer.so.8:_ZN10cask_cudnn2ft10convSearchINS_11ConvolutionELNS_13record_type_tE2EEENS_8SafeEnumINS_9ErrorEnumEEEPNS0_14convTreeHandleEPNS7_7thsch_tERKT_PPNS_15kernel_record_tEPKSE_i
libcudnn_cnn_infer.so.8:_ZN10cask_cudnn2ft10convSearchINS_11ConvolutionELNS_13record_type_tE3EEENS_8SafeEnumINS_9ErrorEnumEEEPNS0_14convTreeHandleEPNS7_7thsch_tERKT_PPNS_15kernel_record_tEPKSE_i
libcudnn_cnn_infer.so.8:_ZN10cask_cudnn2ft10convSearchINS_16ConvolutionDgradELNS_13record_type_tE2EEENS_8SafeEnumINS_9ErrorEnumEEEPNS0_14convTreeHandleEPNS7_7thsch_tERKT_PPNS_15kernel_record_tEPKSE_i
libcudnn_cnn_infer.so.8:_ZN10cask_cudnn2ft10convSearchINS_16ConvolutionWgradELNS_13record_type_tE0EEENS_8SafeEnumINS_9ErrorEnumEEEPNS0_14convTreeHandleEPNS7_7thsch_tERKT_PPNS_15kernel_record_tEPKSE_i
libcudnn_cnn_infer.so.8:_ZN10cask_cudnn2ft10convSearchINS_16ConvolutionWgradELNS_13record_type_tE1EEENS_8SafeEnumINS_9ErrorEnumEEEPNS0_14convTreeHandleEPNS7_7thsch_tERKT_PPNS_15kernel_record_tEPKSE_i
libcudnn_cnn_infer.so.8:_ZN10cask_cudnn2ft10convSearchINS_16ConvolutionWgradELNS_13record_type_tE2EEENS_8SafeEnumINS_9ErrorEnumEEEPNS0_14convTreeHandleEPNS7_7thsch_tERKT_PPNS_15kernel_record_tEPKSE_i
libcudnn_cnn_infer.so.8:_ZN10cask_cudnn2ft10convSearchINS_16ConvolutionWgradELNS_13record_type_tE3EEENS_8SafeEnumINS_9ErrorEnumEEEPNS0_14convTreeHandleEPNS7_7thsch_tERKT_PPNS_15kernel_record_tEPKSE_i
libcudnn_cnn_infer.so.8:_ZN10cask_cudnn2ft11convSetBetaEfPNS_2kr8search_tILm42ELm32EEE
libcudnn_cnn_infer.so.8:_ZN10cask_cudnn2ft11convSetEdgeEPNS_2kr8search_tILm42ELm32EEENS_12sass_private10edgeType_tE
libcudnn_cnn_infer.so.8:_ZN10cask_cudnn2ft11convSetFiltEiPNS_2kr8search_tILm22ELm32EEE
libcudnn_cnn_infer.so.8:_ZN10cask_cudnn2ft11convSetGemmEPNS_2kr8search_tILm42ELm32EEENS_6sasskr6gemm_tE
libcudnn_cnn_infer.so.8:_ZN10cask_cudnn2ft11convSetLdgAEPNS_2kr8search_tILm42ELm32EEENS1_6ldga_tE
libcudnn_cnn_infer.so.8:_ZN10cask_cudnn2ft11convSetLdgBEPNS_2kr8search_tILm42ELm32EEENS1_6ldgb_tE
libcudnn_cnn_infer.so.8:_ZN10cask_cudnn2ft12convSetBatchERKNS_10TensorDescEPNS_2kr8search_tILm42ELm32EEE
libcudnn_cnn_infer.so.8:_ZN10cask_cudnn2ft12convSetWidthEjPNS_2kr8search_tILm34ELm32EEENS_6xmmakr11ldg_width_tE
libcudnn_cnn_infer.so.8:_ZN10cask_cudnn2ft13convSetAWidthEPNS_2kr8search_tILm34ELm32EEENS_6xmmakr11ldg_width_tE
libcudnn_cnn_infer.so.8:_ZN10cask_cudnn2ft13convSetCWidthEPNS_2kr8search_tILm34ELm32EEENS_6xmmakr11ldg_width_tE
libcudnn_cnn_infer.so.8:_ZN10cask_cudnn2ft13convSetFilterENS_6xmmakr16xmma_filter_sz_tEPNS_2kr8search_tILm34ELm32EEE
libcudnn_cnn_infer.so.8:_ZN10cask_cudnn2ft13convSetFilterEiiiPNS_2kr8search_tILm34ELm32EEE
libcudnn_cnn_infer.so.8:_ZN10cask_cudnn2ft13convSetInputCEiPNS_2kr8search_tILm22ELm32EEE
libcudnn_cnn_infer.so.8:_ZN10cask_cudnn2ft13convSetPadAnyEPNS_2kr8search_tILm34ELm32EEE
libcudnn_cnn_infer.so.8:_ZN10cask_cudnn2ft13convSetSimpleEbPNS_2kr8search_tILm34ELm32EEE
libcudnn_cnn_infer.so.8:_ZN10cask_cudnn2ft13convSetSlicedEbPNS_2kr8search_tILm42ELm32EEE
libcudnn_cnn_infer.so.8:_ZN10cask_cudnn2ft13convSetStrideENS_4krcc8stride_tEPNS_2kr8search_tILm24ELm32EEE
libcudnn_cnn_infer.so.8:_ZN10cask_cudnn2ft13convSetStrideENS_6xmmakr18xmma_conv_stride_tEPNS_2kr8search_tILm34ELm32EEE
libcudnn_cnn_infer.so.8:_ZN10cask_cudnn2ft13convSetStrideEiiiPNS_2kr8search_tILm34ELm32EEE
libcudnn_cnn_infer.so.8:_ZN10cask_cudnn2ft13convSetTensorEbPNS_2kr8search_tILm42ELm32EEE
libcudnn_cnn_infer.so.8:_ZN10cask_cudnn2ft13convSetVerAnyEPNS_2kr8search_tILm42ELm32EEE
libcudnn_cnn_infer.so.8:_ZN10cask_cudnn2ft13convertLayoutERKNS_12sass_private13cuDnnLayout_tEPNS_4krcc8layout_tE
libcudnn_cnn_infer.so.8:_ZN10cask_cudnn2ft14convSetEdgeAnyEPNS_2kr8search_tILm42ELm32EEE
libcudnn_cnn_infer.so.8:_ZN10cask_cudnn2ft14convSetFilterKEiPNS_2kr8search_tILm22ELm32EEE
libcudnn_cnn_infer.so.8:_ZN10cask_cudnn2ft14convSetGemmAnyEPNS_2kr8search_tILm42ELm32EEE
libcudnn_cnn_infer.so.8:_ZN10cask_cudnn2ft14convSetLdgAAnyEPNS_2kr8search_tILm42ELm32EEE
libcudnn_cnn_infer.so.8:_ZN10cask_cudnn2ft14convSetLdgBAnyEPNS_2kr8search_tILm42ELm32EEE
libcudnn_cnn_infer.so.8:_ZN10cask_cudnn2ft14convSetPadZeroEPNS_2kr8search_tILm34ELm32EEE
libcudnn_cnn_infer.so.8:_ZN10cask_cudnn2ft14convTreeHandleC1Ev
libcudnn_cnn_infer.so.8:_ZN10cask_cudnn2ft14convTreeHandleC2Ev
libcudnn_cnn_infer.so.8:_ZN10cask_cudnn2ft14convTreeHandleD1Ev
libcudnn_cnn_infer.so.8:_ZN10cask_cudnn2ft14convTreeHandleD2Ev
libcudnn_cnn_infer.so.8:_ZN10cask_cudnn2ft15convSetIteratorENS_5cutkr15iterator_type_tEPNS_2kr8search_tILm24ELm32EEE
libcudnn_cnn_infer.so.8:_ZN10cask_cudnn2ft15convSetWidthAnyEjPNS_2kr8search_tILm34ELm32EEE
libcudnn_cnn_infer.so.8:_ZN10cask_cudnn2ft16allocateSubTreesEPNS0_14convTreeHandleE
libcudnn_cnn_infer.so.8:_ZN10cask_cudnn2ft16convSetAWidthAnyEPNS_2kr8search_tILm34ELm32EEE
libcudnn_cnn_infer.so.8:_ZN10cask_cudnn2ft16convSetCWidthAnyEPNS_2kr8search_tILm34ELm32EEE
libcudnn_cnn_infer.so.8:_ZN10cask_cudnn2ft16convSetSimpleAnyEPNS_2kr8search_tILm34ELm32EEE
libcudnn_cnn_infer.so.8:_ZN10cask_cudnn2ft16convSetSlicedAnyEPNS_2kr8search_tILm42ELm32EEE
libcudnn_cnn_infer.so.8:_ZN10cask_cudnn2ft16convSetStrideAnyEPNS_2kr8search_tILm24ELm32EEE
libcudnn_cnn_infer.so.8:_ZN10cask_cudnn2ft17convSearchOptions10clearStageEv
libcudnn_cnn_infer.so.8:_ZN10cask_cudnn2ft17convSearchOptions10setSplitKREb
libcudnn_cnn_infer.so.8:_ZN10cask_cudnn2ft17convSearchOptions10setSplitKTEb
libcudnn_cnn_infer.so.8:_ZN10cask_cudnn2ft17convSearchOptions11setInputFmtENS_12sass_private13cuDnnLayout_tE
libcudnn_cnn_infer.so.8:_ZN10cask_cudnn2ft17convSearchOptions11setStridedBEb
libcudnn_cnn_infer.so.8:_ZN10cask_cudnn2ft17convSearchOptions11setWarpSpecEb
libcudnn_cnn_infer.so.8:_ZN10cask_cudnn2ft17convSearchOptions11setXMMAAlgoENS_6xmmakr11xmma_algo_tE
libcudnn_cnn_infer.so.8:_ZN10cask_cudnn2ft17convSearchOptions12setAccumTypeENS_12sass_private17elementDataType_tE
libcudnn_cnn_infer.so.8:_ZN10cask_cudnn2ft17convSearchOptions12setAccumTypeERKNS_8SafeEnumINS_33ScalarType_ENUMCLASS_SCOPEWRAPPEREEE
libcudnn_cnn_infer.so.8:_ZN10cask_cudnn2ft17convSearchOptions12setFilterFmtENS_12sass_private13cuDnnLayout_tE
libcudnn_cnn_infer.so.8:_ZN10cask_cudnn2ft17convSearchOptions12setOutputFmtENS_12sass_private13cuDnnLayout_tE
libcudnn_cnn_infer.so.8:_ZN10cask_cudnn2ft17convSearchOptions13setConvStrideENS_4krcc8stride_tE
libcudnn_cnn_infer.so.8:_ZN10cask_cudnn2ft17convSearchOptions13setPerChannelEb
libcudnn_cnn_infer.so.8:_ZN10cask_cudnn2ft17convSearchOptions13setXMMAStrideENS_6xmmakr18xmma_conv_stride_tE
libcudnn_cnn_infer.so.8:_ZN10cask_cudnn2ft17convSearchOptions14setTensorCoresEb
libcudnn_cnn_infer.so.8:_ZN10cask_cudnn2ft17convSearchOptions15setSingleBufferEb
libcudnn_cnn_infer.so.8:_ZN10cask_cudnn2ft17convSearchOptions16setDynamicResizeEb
libcudnn_cnn_infer.so.8:_ZN10cask_cudnn2ft17convSearchOptions22setCUTLASSIteratorTypeENS_5cutkr15iterator_type_tE
libcudnn_cnn_infer.so.8:_ZN10cask_cudnn2ft17convSearchOptions23setFilterSpecializationENS_6xmmakr16xmma_filter_sz_tE
libcudnn_cnn_infer.so.8:_ZN10cask_cudnn2ft17convSearchOptions5setNdEb
libcudnn_cnn_infer.so.8:_ZN10cask_cudnn2ft17convSearchOptions5setOpENS0_4op_tE
libcudnn_cnn_infer.so.8:_ZN10cask_cudnn2ft17convSearchOptions6setIdxEb
libcudnn_cnn_infer.so.8:_ZN10cask_cudnn2ft17convSearchOptions6setSPAENS_2kr5spa_tE
libcudnn_cnn_infer.so.8:_ZN10cask_cudnn2ft17convSearchOptions6setSPAEi
libcudnn_cnn_infer.so.8:_ZN10cask_cudnn2ft17convSearchOptions7setEdgeENS_12sass_private10edgeType_tE
libcudnn_cnn_infer.so.8:_ZN10cask_cudnn2ft17convSearchOptions7setGemmENS_6sasskr6gemm_tE
libcudnn_cnn_infer.so.8:_ZN10cask_cudnn2ft17convSearchOptions7setLdgAENS_2kr6ldga_tE
libcudnn_cnn_infer.so.8:_ZN10cask_cudnn2ft17convSearchOptions7setLdgBENS_2kr6ldgb_tE
libcudnn_cnn_infer.so.8:_ZN10cask_cudnn2ft17convSearchOptions7setReLuEb
libcudnn_cnn_infer.so.8:_ZN10cask_cudnn2ft17convSearchOptions7setSPAsEPNS_2kr5spa_tEi
libcudnn_cnn_infer.so.8:_ZN10cask_cudnn2ft17convSearchOptions8setStageENS_4krcc8stages_tE
libcudnn_cnn_infer.so.8:_ZN10cask_cudnn2ft17convSearchOptions9setAWidthENS_6xmmakr11ldg_width_tE
libcudnn_cnn_infer.so.8:_ZN10cask_cudnn2ft17convSearchOptions9setCWidthENS_6xmmakr11ldg_width_tE
libcudnn_cnn_infer.so.8:_ZN10cask_cudnn2ft17convSearchOptions9setKBlockENS_4krcc8kblock_tE
libcudnn_cnn_infer.so.8:_ZN10cask_cudnn2ft17convSearchOptions9setSimpleEb
libcudnn_cnn_infer.so.8:_ZN10cask_cudnn2ft17convSearchOptions9setSlicedEb
libcudnn_cnn_infer.so.8:_ZN10cask_cudnn2ft17convSearchOptions9setSplitKEb
libcudnn_cnn_infer.so.8:_ZN10cask_cudnn2ft17convSearchOptionsC1ERKS1_
libcudnn_cnn_infer.so.8:_ZN10cask_cudnn2ft17convSearchOptionsC1Ev
libcudnn_cnn_infer.so.8:_ZN10cask_cudnn2ft17convSearchOptionsC2ERKS1_
libcudnn_cnn_infer.so.8:_ZN10cask_cudnn2ft17convSearchOptionsC2Ev
libcudnn_cnn_infer.so.8:_ZN10cask_cudnn2ft17convSearchOptionsD1Ev
libcudnn_cnn_infer.so.8:_ZN10cask_cudnn2ft17convSearchOptionsD2Ev
libcudnn_cnn_infer.so.8:_ZN10cask_cudnn2ft17convSetEdgeByFiltERKNS_10TensorDescEPNS_2kr8search_tILm42ELm32EEE
libcudnn_cnn_infer.so.8:_ZN10cask_cudnn2ft17convSetPerChannelEbPNS_2kr8search_tILm34ELm32EEE
libcudnn_cnn_infer.so.8:_ZN10cask_cudnn2ft17convSetStridedBOnEPNS_2kr8search_tILm42ELm32EEE
libcudnn_cnn_infer.so.8:_ZN10cask_cudnn2ft17gemmSearchOptions14setTensorCoresEb
libcudnn_cnn_infer.so.8:_ZN10cask_cudnn2ft18convSetDilationOneEPNS_2kr8search_tILm34ELm32EEE
libcudnn_cnn_infer.so.8:_ZN10cask_cudnn2ft18convSetIteratorAnyEPNS_2kr8search_tILm24ELm32EEE
libcudnn_cnn_infer.so.8:_ZN10cask_cudnn2ft18convSetStridedBAnyEPNS_2kr8search_tILm42ELm32EEE
libcudnn_cnn_infer.so.8:_ZN10cask_cudnn2ft18convSetStridedBOffEPNS_2kr8search_tILm42ELm32EEE
libcudnn_cnn_infer.so.8:_ZN10cask_cudnn2ft18initializeConvTreeEPNS0_14convTreeHandleENS0_5lib_tE
libcudnn_cnn_infer.so.8:_ZN10cask_cudnn2ft18initializeConvTreeEPNS0_14convTreeHandleEPKNS_15kernel_record_tES5_
libcudnn_cnn_infer.so.8:_ZN10cask_cudnn2ft19convSetFilterSimpleEPNS_2kr8search_tILm34ELm32EEE
libcudnn_cnn_infer.so.8:_ZN10cask_cudnn2ft19convSetSingleBufferEbPNS_2kr8search_tILm42ELm32EEE
libcudnn_cnn_infer.so.8:_ZN10cask_cudnn2ft20initializeConvSearchEPNS0_14convTreeHandleEPNS1_7thsch_tERKNS0_17convSearchOptionsERKNS_9Operation11DescriptionE
libcudnn_cnn_infer.so.8:_ZN10cask_cudnn2ft22convSetSingleBufferAnyEPNS_2kr8search_tILm42ELm32EEE
libcudnn_cnn_infer.so.8:_ZN10cask_cudnn2ft23convSetGemmConvWinogradEPNS_2kr8search_tILm42ELm32EEE
libcudnn_cnn_infer.so.8:_ZN10cask_cudnn2ft9convSetNdEbPNS_2kr8search_tILm42ELm32EEE
libcudnn_cnn_infer.so.8:_ZN10cask_cudnn2ir12UserIteratorC1ENSt8__detail14_Node_iteratorIPNS0_4UserELb1ELb0EEE
libcudnn_cnn_infer.so.8:_ZN10cask_cudnn2ir12UserIteratorC2ENSt8__detail14_Node_iteratorIPNS0_4UserELb1ELb0EEE
libcudnn_cnn_infer.so.8:_ZN10cask_cudnn2ir14NumericVariant20convert_float_to_f64ERdNS_8SafeEnumINS_33ScalarType_ENUMCLASS_SCOPEWRAPPEREEEPKv
libcudnn_cnn_infer.so.8:_ZN10cask_cudnn2ir14NumericVariant25convert_signed_int_to_s64ERlNS_8SafeEnumINS_33ScalarType_ENUMCLASS_SCOPEWRAPPEREEEPKv
libcudnn_cnn_infer.so.8:_ZN10cask_cudnn2ir14NumericVariant27convert_unsigned_int_to_u64ERmNS_8SafeEnumINS_33ScalarType_ENUMCLASS_SCOPEWRAPPEREEEPKv
libcudnn_cnn_infer.so.8:_ZN10cask_cudnn2ir25CreateOrGetTensorArgumentERNS0_9NamespaceEPNS0_11NumericTypeEPNS0_10LayoutTypeE
libcudnn_cnn_infer.so.8:_ZN10cask_cudnn2ir7Builtin11get_pointerENS_8SafeEnumINS_33ScalarType_ENUMCLASS_SCOPEWRAPPEREEE
libcudnn_cnn_infer.so.8:_ZN10cask_cudnn2ir7Builtin15init_cask_core_Ev
libcudnn_cnn_infer.so.8:_ZN10cask_cudnn2ir7Builtin17init_description_Ev
libcudnn_cnn_infer.so.8:_ZN10cask_cudnn2ir7Builtin17init_fundamental_Ev
libcudnn_cnn_infer.so.8:_ZN10cask_cudnn2ir7Builtin3getENS0_8LayoutIDE
libcudnn_cnn_infer.so.8:_ZN10cask_cudnn2ir7Builtin3getENS_8SafeEnumINS_33ScalarType_ENUMCLASS_SCOPEWRAPPEREEE
libcudnn_cnn_infer.so.8:_ZN10cask_cudnn2ir7Builtin3getEv
libcudnn_cnn_infer.so.8:_ZN10cask_cudnn2ir7BuiltinC1Ev
libcudnn_cnn_infer.so.8:_ZN10cask_cudnn2ir7BuiltinC2Ev
libcudnn_cnn_infer.so.8:_ZN10cask_cudnn2kr11convertLdgAEhPNS0_6ldga_tE
libcudnn_cnn_infer.so.8:_ZN10cask_cudnn2kr11convertLdgBEhPNS0_6ldgb_tE
libcudnn_cnn_infer.so.8:_ZN10cask_cudnn2kr15convertDatatypeEPNS_12sass_private17elementDataType_tENS0_10datatype_tE
libcudnn_cnn_infer.so.8:_ZN10cask_cudnn2kr15convertSPAFlagsEPNS0_5spa_tEm
libcudnn_cnn_infer.so.8:_ZN10cask_cudnn2kr17convertScalarTypeERKNS_8SafeEnumINS_33ScalarType_ENUMCLASS_SCOPEWRAPPEREEEPNS0_10datatype_tE
libcudnn_cnn_infer.so.8:_ZN10cask_cudnn2kr22convertElementDatatypeEPNS0_10datatype_tENS_12sass_private17elementDataType_tE
libcudnn_cnn_infer.so.8:_ZN10cask_cudnn2kr8isAmpereENS0_5spa_tE
libcudnn_cnn_infer.so.8:_ZN10cask_cudnn2kr9getTensorEPKNS_12sass_private12ShaderParamsEPNS0_8tensor_tE
libcudnn_cnn_infer.so.8:_ZN10cask_cudnn30getComputeCapabilityFromShaderEPKc
libcudnn_cnn_infer.so.8:_ZN10cask_cudnn30registerGraphShaderDesrializerEPKNS_23GraphShaderDeserializerE
libcudnn_cnn_infer.so.8:_ZN10cask_cudnn33XmmaSparseInt8GemmMetadataReorderERKNS_14GemmKernelInfoERNS_19SparseTensorsParamsE
libcudnn_cnn_infer.so.8:_ZN10cask_cudnn34getComputeCapabilityFromChipFamilyENS_12sass_private16chipFamilyType_tE
libcudnn_cnn_infer.so.8:_ZN10cask_cudnn48voltaDirectGroupConvolutionShader_h884cudnn_c4k4E
libcudnn_cnn_infer.so.8:_ZN10cask_cudnn48voltaDirectGroupConvolutionShader_h884cudnn_c8k8E
libcudnn_cnn_infer.so.8:_ZN10cask_cudnn48voltaDirectGroupConvolutionShader_s884cudnn_c4k4E
libcudnn_cnn_infer.so.8:_ZN10cask_cudnn48voltaDirectGroupConvolutionShader_s884cudnn_c8k8E
libcudnn_cnn_infer.so.8:_ZN10cask_cudnn4krcc10print_convENS0_6conv_tE
libcudnn_cnn_infer.so.8:_ZN10cask_cudnn4krcc13convertKBlockEtPNS0_8kblock_tE
libcudnn_cnn_infer.so.8:_ZN10cask_cudnn4krcc13convertStagesEmPNS0_8stages_tE
libcudnn_cnn_infer.so.8:_ZN10cask_cudnn4krcc20convertVectorizedDimEiPNS0_6vect_tE
libcudnn_cnn_infer.so.8:_ZN10cask_cudnn4krcc24convertScalarsPerElementEiPNS0_14vect_scalars_tE
libcudnn_cnn_infer.so.8:_ZN10cask_cudnn50voltaDirectGroupConvolutionShader_h884cudnn_c16k16E
libcudnn_cnn_infer.so.8:_ZN10cask_cudnn50voltaDirectGroupConvolutionShader_h884cudnn_c32k32E
libcudnn_cnn_infer.so.8:_ZN10cask_cudnn50voltaDirectGroupConvolutionShader_h884cudnn_c4k4_2E
libcudnn_cnn_infer.so.8:_ZN10cask_cudnn50voltaDirectGroupConvolutionShader_h884cudnn_c8k8_2E
libcudnn_cnn_infer.so.8:_ZN10cask_cudnn50voltaDirectGroupConvolutionShader_s884cudnn_c16k16E
libcudnn_cnn_infer.so.8:_ZN10cask_cudnn50voltaDirectGroupConvolutionShader_s884cudnn_c32k32E
libcudnn_cnn_infer.so.8:_ZN10cask_cudnn50voltaDirectGroupConvolutionShader_s884cudnn_c4k4_2E
libcudnn_cnn_infer.so.8:_ZN10cask_cudnn50voltaDirectGroupConvolutionShader_s884cudnn_c8k8_2E
libcudnn_cnn_infer.so.8:_ZN10cask_cudnn52voltaDirectGroupConvolutionShader_h884cudnn_c16k16_2E
libcudnn_cnn_infer.so.8:_ZN10cask_cudnn52voltaDirectGroupConvolutionShader_h884cudnn_c32k32_2E
libcudnn_cnn_infer.so.8:_ZN10cask_cudnn52voltaDirectGroupConvolutionShader_s884cudnn_c16k16_2E
libcudnn_cnn_infer.so.8:_ZN10cask_cudnn52voltaDirectGroupConvolutionShader_s884cudnn_c32k32_2E
libcudnn_cnn_infer.so.8:_ZN10cask_cudnn6ShaderC1EPKNS_10KernelInfoE
libcudnn_cnn_infer.so.8:_ZN10cask_cudnn6ShaderC1ERKSs
libcudnn_cnn_infer.so.8:_ZN10cask_cudnn6ShaderC2EPKNS_10KernelInfoE
libcudnn_cnn_infer.so.8:_ZN10cask_cudnn6ShaderC2ERKSs
libcudnn_cnn_infer.so.8:_ZN10cask_cudnn6sasskr11convertGemmENS_12sass_private10gemmType_tEPNS0_6gemm_tE
libcudnn_cnn_infer.so.8:_ZN10cask_cudnn6sasskr12convertEdgesENS_12sass_private10edgeType_tEPNS0_6edge_tE
libcudnn_cnn_infer.so.8:_ZN10cask_cudnn6sasskr12convertTileNEiPNS0_17batch_n_residue_tE
libcudnn_cnn_infer.so.8:_ZN10cask_cudnn6xmmakr11convert_ldgEiPNS0_11ldg_width_tE
libcudnn_cnn_infer.so.8:_ZN10cask_cudnn6xmmakr12convert_algoEjPNS0_11xmma_algo_tE
libcudnn_cnn_infer.so.8:_ZN10cask_cudnn8GemmImpl16transformATensorERNS_7RunInfoEPKvPvP11CUstream_st
libcudnn_cnn_infer.so.8:_ZN10cask_cudnn8GemmImpl16transformBTensorERNS_7RunInfoEPKvPvP11CUstream_st
libcudnn_cnn_infer.so.8:_ZN10cask_cudnn8GemmImpl22transformedATensorSizeERNS_7RunInfoE
libcudnn_cnn_infer.so.8:_ZN10cask_cudnn8GemmImpl22transformedBTensorSizeERNS_7RunInfoE
libcudnn_cnn_infer.so.8:_ZN10cask_cudnn8GemmImplC1EPKNS_12sass_private12ShaderParamsEPKNS_10KernelInfoE
libcudnn_cnn_infer.so.8:_ZN10cask_cudnn8GemmImplC2EPKNS_12sass_private12ShaderParamsEPKNS_10KernelInfoE
libcudnn_cnn_infer.so.8:_ZN10cask_cudnn8getStageERKSsPm
libcudnn_cnn_infer.so.8:_ZN10cask_cudnn8internal13getShaderTypeEPKhl
libcudnn_cnn_infer.so.8:_ZN10cask_cudnn8internal15serializeShaderENS0_10ShaderTypeERKSsRKSt6vectorIcSaIcEEPh
libcudnn_cnn_infer.so.8:_ZN10cask_cudnn8internal15serializeShaderENS0_10ShaderTypeERKSsRKSt6vectorIcSaIcEERKS4_ISsSaISsEESC_Ph
libcudnn_cnn_infer.so.8:_ZN10cask_cudnn8internal15serializeShaderERKSsPh
libcudnn_cnn_infer.so.8:_ZN10cask_cudnn8internal17deserializeShaderEPKhl
libcudnn_cnn_infer.so.8:_ZN10cask_cudnn8internal28getRequiredSerializationSizeERKSs
libcudnn_cnn_infer.so.8:_ZN10cask_cudnn8internal28getRequiredSerializationSizeERKSsRKSt6vectorIcSaIcEE
libcudnn_cnn_infer.so.8:_ZN10cask_cudnn8internal28getRequiredSerializationSizeERKSsRKSt6vectorIcSaIcEERKS3_ISsSaISsEESB_
libcudnn_cnn_infer.so.8:_ZN10fusible_op31get_convolution_descriptor_portEv
libcudnn_cnn_infer.so.8:_ZN10fusible_op32get_convolution_descriptor_inputEv
libcudnn_cnn_infer.so.8:_ZN15cask_safe_cudnn14getErrorStringENS_5ErrorE
libcudnn_cnn_infer.so.8:_ZN15cask_safe_cudnn17ConvolutionRunnerC1ERKSs
libcudnn_cnn_infer.so.8:_ZN15cask_safe_cudnn17ConvolutionRunnerC2ERKSs
libcudnn_cnn_infer.so.8:_ZN15cask_safe_cudnn29findConvolutionRunnerByHandleEm
libcudnn_cnn_infer.so.8:_ZN15cask_safe_cudnn5crc64EPKhmm
libcudnn_cnn_infer.so.8:_ZN15cask_safe_cudnn5crc64ERKSsm
libcudnn_cnn_infer.so.8:_ZN17cask_plugin_cudnn10xmma_cudnn52implicit_gemm_dgrad_00274d7acd9bbc39d8a3944fb443d12c24kernel_get_kernel_recordEv
libcudnn_cnn_infer.so.8:_ZN17cask_plugin_cudnn10xmma_cudnn52implicit_gemm_dgrad_003e557671186fb417a42da2c8893bb624kernel_get_kernel_recordEv
libcudnn_cnn_infer.so.8:_ZN17cask_plugin_cudnn10xmma_cudnn52implicit_gemm_dgrad_00af3bff0f4e3d785933739730c91c7324kernel_get_kernel_recordEv
libcudnn_cnn_infer.so.8:_ZN17cask_plugin_cudnn10xmma_cudnn52implicit_gemm_dgrad_00c5c86ffb97f515cd154f3cf0564f1d24kernel_get_kernel_recordEv
libcudnn_cnn_infer.so.8:_ZN17cask_plugin_cudnn10xmma_cudnn52implicit_gemm_dgrad_0140ecbdc858bdb2c2732b634283267024kernel_get_kernel_recordEv
libcudnn_cnn_infer.so.8:_ZN17cask_plugin_cudnn10xmma_cudnn52implicit_gemm_dgrad_014e1ad9ed3942b3ec46f2bf4925d61a24kernel_get_kernel_recordEv
libcudnn_cnn_infer.so.8:_ZN17cask_plugin_cudnn10xmma_cudnn52implicit_gemm_dgrad_014e43c4dd4716f9e9bc20a13150591e24kernel_get_kernel_recordEv
libcudnn_cnn_infer.so.8:_ZN17cask_plugin_cudnn10xmma_cudnn52implicit_gemm_dgrad_018427583b5b9269f18c80c81a1ebd4724kernel_get_kernel_recordEv
libcudnn_cnn_infer.so.8:_ZN17cask_plugin_cudnn10xmma_cudnn52implicit_gemm_dgrad_0184e8606278ef141a63fa1c498cd75a24kernel_get_kernel_recordEv
libcudnn_cnn_infer.so.8:_ZN17cask_plugin_cudnn10xmma_cudnn52implicit_gemm_dgrad_01e0520de8d26d63b2f9d11bbaf4ef2824kernel_get_kernel_recordEv
libcudnn_cnn_infer.so.8:_ZN17cask_plugin_cudnn10xmma_cudnn52implicit_gemm_dgrad_024e20c14da1d6abff943eb9a4302da624kernel_get_kernel_recordEv
libcudnn_cnn_infer.so.8:_ZN17cask_plugin_cudnn10xmma_cudnn52implicit_gemm_dgrad_02752bd9f484fabd4ea8250224d58e0324kernel_get_kernel_recordEv
libcudnn_cnn_infer.so.8:_ZN17cask_plugin_cudnn10xmma_cudnn52implicit_gemm_dgrad_027cc131f09742e50d3ca0dee359eba724kernel_get_kernel_recordEv
libcudnn_cnn_infer.so.8:_ZN17cask_plugin_cudnn10xmma_cudnn52implicit_gemm_dgrad_028e838b35b5c32c3eb47fe5ca9aefc624kernel_get_kernel_recordEv
libcudnn_cnn_infer.so.8:_ZN17cask_plugin_cudnn10xmma_cudnn52implicit_gemm_dgrad_0293b86e0e18359a07f553ccf7d52f4124kernel_get_kernel_recordEv
libcudnn_cnn_infer.so.8:_ZN17cask_plugin_cudnn10xmma_cudnn52implicit_gemm_dgrad_02954ecfd48a7b0cced269a9722ae6c724kernel_get_kernel_recordEv
libcudnn_cnn_infer.so.8:_ZN17cask_plugin_cudnn10xmma_cudnn52implicit_gemm_dgrad_02b068d1228bf9ed062ff44940f7b00e24kernel_get_kernel_recordEv
libcudnn_cnn_infer.so.8:_ZN17cask_plugin_cudnn10xmma_cudnn52implicit_gemm_dgrad_02c1c455a8631a9cdb246fbaeb44fcea24kernel_get_kernel_recordEv
libcudnn_cnn_infer.so.8:_ZN17cask_plugin_cudnn10xmma_cudnn52implicit_gemm_dgrad_02d250f23397ebfcd589d031fe84e31224kernel_get_kernel_recordEv
libcudnn_cnn_infer.so.8:_ZN17cask_plugin_cudnn10xmma_cudnn52implicit_gemm_dgrad_02eca59ad43c38eb3ef72ad80a083ec724kernel_get_kernel_recordEv
libcudnn_cnn_infer.so.8:_ZN17cask_plugin_cudnn10xmma_cudnn52implicit_gemm_dgrad_03599cbe2c274a1945d72330120c2d5924kernel_get_kernel_recordEv
libcudnn_cnn_infer.so.8:_ZN17cask_plugin_cudnn10xmma_cudnn52implicit_gemm_dgrad_038b634ee3fcedba4bd669e2f230a9b324kernel_get_kernel_recordEv
libcudnn_cnn_infer.so.8:_ZN17cask_plugin_cudnn10xmma_cudnn52implicit_gemm_dgrad_03953d181f6d410f561eace8816c2c8824kernel_get_kernel_recordEv
libcudnn_cnn_infer.so.8:_ZN17cask_plugin_cudnn10xmma_cudnn52implicit_gemm_dgrad_03c720a8a111df8471144ce60db031c924kernel_get_kernel_recordEv
libcudnn_cnn_infer.so.8:_ZN17cask_plugin_cudnn10xmma_cudnn52implicit_gemm_dgrad_03d621a7a87bf54d2aad6adf427dbdf424kernel_get_kernel_recordEv
libcudnn_cnn_infer.so.8:_ZN17cask_plugin_cudnn10xmma_cudnn52implicit_gemm_dgrad_03dd8080d551d4b33d5740ceb1c3922b24kernel_get_kernel_recordEv
libcudnn_cnn_infer.so.8:_ZN17cask_plugin_cudnn10xmma_cudnn52implicit_gemm_dgrad_03e7fcff7a66b4929ea46595bfe9f75024kernel_get_kernel_recordEv
libcudnn_cnn_infer.so.8:_ZN17cask_plugin_cudnn10xmma_cudnn52implicit_gemm_dgrad_0431f0d5ad4227a400c871c0accefa7b24kernel_get_kernel_recordEv
libcudnn_cnn_infer.so.8:_ZN17cask_plugin_cudnn10xmma_cudnn52implicit_gemm_dgrad_04a508d8317ff0e00231dcac815d5dc424kernel_get_kernel_recordEv
libcudnn_cnn_infer.so.8:_ZN17cask_plugin_cudnn10xmma_cudnn52implicit_gemm_dgrad_04bedb73762227f190f4d61156616d8a24kernel_get_kernel_recordEv
libcudnn_cnn_infer.so.8:_ZN17cask_plugin_cudnn10xmma_cudnn52implicit_gemm_dgrad_04e60c270f53d4d3358f00718115972724kernel_get_kernel_recordEv
libcudnn_cnn_infer.so.8:_ZN17cask_plugin_cudnn10xmma_cudnn52implicit_gemm_dgrad_04ef8a626034d638d13b03ff0ebe1d7024kernel_get_kernel_recordEv
libcudnn_cnn_infer.so.8:_ZN17cask_plugin_cudnn10xmma_cudnn52implicit_gemm_dgrad_04f0f97d7ecd58f0d3bdd4739df58bda24kernel_get_kernel_recordEv
libcudnn_cnn_infer.so.8:_ZN17cask_plugin_cudnn10xmma_cudnn52implicit_gemm_dgrad_0513f176d010ec543db67eb84b0b7b7624kernel_get_kernel_recordEv
libcudnn_cnn_infer.so.8:_ZN17cask_plugin_cudnn10xmma_cudnn52implicit_gemm_dgrad_056093150ed07758578658a726de47a724kernel_get_kernel_recordEv
libcudnn_cnn_infer.so.8:_ZN17cask_plugin_cudnn10xmma_cudnn52implicit_gemm_dgrad_0580d0f274ca231a896426c4757567f324kernel_get_kernel_recordEv
libcudnn_cnn_infer.so.8:_ZN17cask_plugin_cudnn10xmma_cudnn52implicit_gemm_dgrad_0589bd70a5418e2a9ba21c444c3b741424kernel_get_kernel_recordEv
libcudnn_cnn_infer.so.8:_ZN17cask_plugin_cudnn10xmma_cudnn52implicit_gemm_dgrad_059a1671df9b70cd3f7b52c18171bbcf24kernel_get_kernel_recordEv
libcudnn_cnn_infer.so.8:_ZN17cask_plugin_cudnn10xmma_cudnn52implicit_gemm_dgrad_05d3fec9b49c36a4d014ec290ba87d0a24kernel_get_kernel_recordEv
libcudnn_cnn_infer.so.8:_ZN17cask_plugin_cudnn10xmma_cudnn52implicit_gemm_dgrad_05e5e06c9d51a4f188600072ed6772c524kernel_get_kernel_recordEv
libcudnn_cnn_infer.so.8:_ZN17cask_plugin_cudnn10xmma_cudnn52implicit_gemm_dgrad_05fd4a901e5d7c0828b91d14581d7a0c24kernel_get_kernel_recordEv
libcudnn_cnn_infer.so.8:_ZN17cask_plugin_cudnn10xmma_cudnn52implicit_gemm_dgrad_064097e97cb062d448555f57829b38a824kernel_get_kernel_recordEv
libcudnn_cnn_infer.so.8:_ZN17cask_plugin_cudnn10xmma_cudnn52implicit_gemm_dgrad_0643b942acd7f4bd05d1af20b8a39bc424kernel_get_kernel_recordEv
libcudnn_cnn_infer.so.8:_ZN17cask_plugin_cudnn10xmma_cudnn52implicit_gemm_dgrad_068bd012f3eabee21d7cbab32a6da33124kernel_get_kernel_recordEv
libcudnn_cnn_infer.so.8:_ZN17cask_plugin_cudnn10xmma_cudnn52implicit_gemm_dgrad_06a55de4252e05a958ef92d4b71118e624kernel_get_kernel_recordEv
libcudnn_cnn_infer.so.8:_ZN17cask_plugin_cudnn10xmma_cudnn52implicit_gemm_dgrad_06ba663a0d8e33cdc4cabf5f6b91e73124kernel_get_kernel_recordEv
libcudnn_cnn_infer.so.8:_ZN17cask_plugin_cudnn10xmma_cudnn52implicit_gemm_dgrad_06e6c1230b7f87896c2810959868f84024kernel_get_kernel_recordEv
libcudnn_cnn_infer.so.8:_ZN17cask_plugin_cudnn10xmma_cudnn52implicit_gemm_dgrad_0742802eabb86a03f978353d9f4a325a24kernel_get_kernel_recordEv
libcudnn_cnn_infer.so.8:_ZN17cask_plugin_cudnn10xmma_cudnn52implicit_gemm_dgrad_07437de34234a0411b0a64244f5810fd24kernel_get_kernel_recordEv
libcudnn_cnn_infer.so.8:_ZN17cask_plugin_cudnn10xmma_cudnn52implicit_gemm_dgrad_075d556ea76b4f8187b349c062016d1324kernel_get_kernel_recordEv
libcudnn_cnn_infer.so.8:_ZN17cask_plugin_cudnn10xmma_cudnn52implicit_gemm_dgrad_07a0788d9a1da637de07e1ca0327d9ed24kernel_get_kernel_recordEv
libcudnn_cnn_infer.so.8:_ZN17cask_plugin_cudnn10xmma_cudnn52implicit_gemm_dgrad_07cb61f29ff871c69abc34120d8ca74224kernel_get_kernel_recordEv
libcudnn_cnn_infer.so.8:_ZN17cask_plugin_cudnn10xmma_cudnn52implicit_gemm_dgrad_07eb0b3f46ae54ccff20f42f6451d66724kernel_get_kernel_recordEv
libcudnn_cnn_infer.so.8:_ZN17cask_plugin_cudnn10xmma_cudnn52implicit_gemm_dgrad_07ee64576c4b2ee092c438f953ed8c9924kernel_get_kernel_recordEv
libcudnn_cnn_infer.so.8:_ZN17cask_plugin_cudnn10xmma_cudnn52implicit_gemm_dgrad_081019d1b52428733ac2fb8528520e2c24kernel_get_kernel_recordEv
libcudnn_cnn_infer.so.8:_ZN17cask_plugin_cudnn10xmma_cudnn52implicit_gemm_dgrad_08672fbc2779ff34f86be034f4b84d9024kernel_get_kernel_recordEv
libcudnn_cnn_infer.so.8:_ZN17cask_plugin_cudnn10xmma_cudnn52implicit_gemm_dgrad_089eeebc9b85790905e0debb60d65a2a24kernel_get_kernel_recordEv
libcudnn_cnn_infer.so.8:_ZN17cask_plugin_cudnn10xmma_cudnn52implicit_gemm_dgrad_08a748fbcfe61a9c983b48c666dd990624kernel_get_kernel_recordEv
libcudnn_cnn_infer.so.8:_ZN17cask_plugin_cudnn10xmma_cudnn52implicit_gemm_dgrad_08af8dfe912c5165647c4b359a6e776f24kernel_get_kernel_recordEv
libcudnn_cnn_infer.so.8:_ZN17cask_plugin_cudnn10xmma_cudnn52implicit_gemm_dgrad_08b722b02ff4212f098c4d6fcbef28f924kernel_get_kernel_recordEv
libcudnn_cnn_infer.so.8:_ZN17cask_plugin_cudnn10xmma_cudnn52implicit_gemm_dgrad_08e530cae10fe793ed4fc0077dc2494424kernel_get_kernel_recordEv
libcudnn_cnn_infer.so.8:_ZN17cask_plugin_cudnn10xmma_cudnn52implicit_gemm_dgrad_090d56309914f90dfcd212eeac2e66a824kernel_get_kernel_recordEv
libcudnn_cnn_infer.so.8:_ZN17cask_plugin_cudnn10xmma_cudnn52implicit_gemm_dgrad_094174c5cc6287c96646e03d07120fb324kernel_get_kernel_recordEv
libcudnn_cnn_infer.so.8:_ZN17cask_plugin_cudnn10xmma_cudnn52implicit_gemm_dgrad_09841cb986556cd1a5a7c7812b76330024kernel_get_kernel_recordEv
libcudnn_cnn_infer.so.8:_ZN17cask_plugin_cudnn10xmma_cudnn52implicit_gemm_dgrad_09dba96f3d01e90bf299b9214709797924kernel_get_kernel_recordEv
libcudnn_cnn_infer.so.8:_ZN17cask_plugin_cudnn10xmma_cudnn52implicit_gemm_dgrad_09e2f71f263e61c0e93f69e0caf027c824kernel_get_kernel_recordEv
libcudnn_cnn_infer.so.8:_ZN17cask_plugin_cudnn10xmma_cudnn52implicit_gemm_dgrad_09f111dfa043b580de7605e6ac19624624kernel_get_kernel_recordEv
libcudnn_cnn_infer.so.8:_ZN17cask_plugin_cudnn10xmma_cudnn52implicit_gemm_dgrad_0a0ecfbee162fae967c18d4ad602494924kernel_get_kernel_recordEv
libcudnn_cnn_infer.so.8:_ZN17cask_plugin_cudnn10xmma_cudnn52implicit_gemm_dgrad_0a235fdf38ffdd0501de97e72c448b8d24kernel_get_kernel_recordEv
libcudnn_cnn_infer.so.8:_ZN17cask_plugin_cudnn10xmma_cudnn52implicit_gemm_dgrad_0aab094d8fad8a48a341d2edbe89d6ac24kernel_get_kernel_recordEv
libcudnn_cnn_infer.so.8:_ZN17cask_plugin_cudnn10xmma_cudnn52implicit_gemm_dgrad_0aae97172909600814c421baca2d8fd124kernel_get_kernel_recordEv
libcudnn_cnn_infer.so.8:_ZN17cask_plugin_cudnn10xmma_cudnn52implicit_gemm_dgrad_0ab424b5146428ca5cbd3f79e8169a5f24kernel_get_kernel_recordEv
libcudnn_cnn_infer.so.8:_ZN17cask_plugin_cudnn10xmma_cudnn52implicit_gemm_dgrad_0adf0a94c5a5aff47fdaac7e2da4774424kernel_get_kernel_recordEv
libcudnn_cnn_infer.so.8:_ZN17cask_plugin_cudnn10xmma_cudnn52implicit_gemm_dgrad_0ae2c6d60e9d99ab0668369e6bd620f024kernel_get_kernel_recordEv
libcudnn_cnn_infer.so.8:_ZN17cask_plugin_cudnn10xmma_cudnn52implicit_gemm_dgrad_0b1421cb2302e2d856bb5f3b433b401d24kernel_get_kernel_recordEv
libcudnn_cnn_infer.so.8:_ZN17cask_plugin_cudnn10xmma_cudnn52implicit_gemm_dgrad_0b22027f02d9f8e7405a90b39686718324kernel_get_kernel_recordEv
libcudnn_cnn_infer.so.8:_ZN17cask_plugin_cudnn10xmma_cudnn52implicit_gemm_dgrad_0b4f695996f1df2d8130466984ee35e824kernel_get_kernel_recordEv
libcudnn_cnn_infer.so.8:_ZN17cask_plugin_cudnn10xmma_cudnn52implicit_gemm_dgrad_0b6b584e1852133bfc4f6cfaeb39381e24kernel_get_kernel_recordEv
libcudnn_cnn_infer.so.8:_ZN17cask_plugin_cudnn10xmma_cudnn52implicit_gemm_dgrad_0b75b9d3373908baa45111f8d921ee7324kernel_get_kernel_recordEv
libcudnn_cnn_infer.so.8:_ZN17cask_plugin_cudnn10xmma_cudnn52implicit_gemm_dgrad_0b7a682b993bb0e07be1454f9717c51f24kernel_get_kernel_recordEv
libcudnn_cnn_infer.so.8:_ZN17cask_plugin_cudnn10xmma_cudnn52implicit_gemm_dgrad_0baacd39b53e1522a7f8e9316c1c65dc24kernel_get_kernel_recordEv
libcudnn_cnn_infer.so.8:_ZN17cask_plugin_cudnn10xmma_cudnn52implicit_gemm_dgrad_0bad80428b3577f400fdeb231e676a8c24kernel_get_kernel_recordEv
libcudnn_cnn_infer.so.8:_ZN17cask_plugin_cudnn10xmma_cudnn52implicit_gemm_dgrad_0bec2b2d797c0ac1e5c6a6b9905f42e824kernel_get_kernel_recordEv
libcudnn_cnn_infer.so.8:_ZN17cask_plugin_cudnn10xmma_cudnn52implicit_gemm_dgrad_0bf267e8f9c17540e049200137fd705424kernel_get_kernel_recordEv
libcudnn_cnn_infer.so.8:_ZN17cask_plugin_cudnn10xmma_cudnn52implicit_gemm_dgrad_0c2c0478fc0958cfa3f34870cb552c1024kernel_get_kernel_recordEv
libcudnn_cnn_infer.so.8:_ZN17cask_plugin_cudnn10xmma_cudnn52implicit_gemm_dgrad_0c32ef0fcab400a2a5da7a73972d84c924kernel_get_kernel_recordEv
libcudnn_cnn_infer.so.8:_ZN17cask_plugin_cudnn10xmma_cudnn52implicit_gemm_dgrad_0c3d727cbaba3e7c41612e9959ae3a2424kernel_get_kernel_recordEv
libcudnn_cnn_infer.so.8:_ZN17cask_plugin_cudnn10xmma_cudnn52implicit_gemm_dgrad_0c491ec34865918c4df6d0b674d351c024kernel_get_kernel_recordEv
libcudnn_cnn_infer.so.8:_ZN17cask_plugin_cudnn10xmma_cudnn52implicit_gemm_dgrad_0c67ba789a33cafac11df3e598f2e84624kernel_get_kernel_recordEv
libcudnn_cnn_infer.so.8:_ZN17cask_plugin_cudnn10xmma_cudnn52implicit_gemm_dgrad_0cbe6200e62276b6b6a8aadfe524d0e524kernel_get_kernel_recordEv
libcudnn_cnn_infer.so.8:_ZN17cask_plugin_cudnn10xmma_cudnn52implicit_gemm_dgrad_0cfc35906970e41998d63753c56d51d124kernel_get_kernel_recordEv
libcudnn_cnn_infer.so.8:_ZN17cask_plugin_cudnn10xmma_cudnn52implicit_gemm_dgrad_0cffee9e669fc2f1eb3083073c56153c24kernel_get_kernel_recordEv
libcudnn_cnn_infer.so.8:_ZN17cask_plugin_cudnn10xmma_cudnn52implicit_gemm_dgrad_0d6b0d80061f66f0a7011f18c48658ee24kernel_get_kernel_recordEv
libcudnn_cnn_infer.so.8:_ZN17cask_plugin_cudnn10xmma_cudnn52implicit_gemm_dgrad_0d7d752b30de5e3f4c5bb9cdfb46c5b724kernel_get_kernel_recordEv
libcudnn_cnn_infer.so.8:_ZN17cask_plugin_cudnn10xmma_cudnn52implicit_gemm_dgrad_0dbc4b6d91f212a456a1a96ce5982b4024kernel_get_kernel_recordEv
libcudnn_cnn_infer.so.8:_ZN17cask_plugin_cudnn10xmma_cudnn52implicit_gemm_dgrad_0dc0c8f86f4322af4c8a8dae4f93118524kernel_get_kernel_recordEv
libcudnn_cnn_infer.so.8:_ZN17cask_plugin_cudnn10xmma_cudnn52implicit_gemm_dgrad_0ddca6560958ea2177c030185805851724kernel_get_kernel_recordEv
libcudnn_cnn_infer.so.8:_ZN17cask_plugin_cudnn10xmma_cudnn52implicit_gemm_dgrad_0deceae8ae6c92dd2657b3098f9c5e9b24kernel_get_kernel_recordEv
libcudnn_cnn_infer.so.8:_ZN17cask_plugin_cudnn10xmma_cudnn52implicit_gemm_dgrad_0e023efbde75150d6977911a7274a69a24kernel_get_kernel_recordEv
libcudnn_cnn_infer.so.8:_ZN17cask_plugin_cudnn10xmma_cudnn52implicit_gemm_dgrad_0e24b67689219d95c69ee69e319fea8e24kernel_get_kernel_recordEv
libcudnn_cnn_infer.so.8:_ZN17cask_plugin_cudnn10xmma_cudnn52implicit_gemm_dgrad_0e2affd5d838b994ffbdb2bcb13229ee24kernel_get_kernel_recordEv
libcudnn_cnn_infer.so.8:_ZN17cask_plugin_cudnn10xmma_cudnn52implicit_gemm_dgrad_0e3c275a181de51f3459d2c428645a3c24kernel_get_kernel_recordEv
libcudnn_cnn_infer.so.8:_ZN17cask_plugin_cudnn10xmma_cudnn52implicit_gemm_dgrad_0e4987f05639294d7d4cef249eff283424kernel_get_kernel_recordEv
libcudnn_cnn_infer.so.8:_ZN17cask_plugin_cudnn10xmma_cudnn52implicit_gemm_dgrad_0e706b3af5de8f4ed5130338a7ccc10024kernel_get_kernel_recordEv
libcudnn_cnn_infer.so.8:_ZN17cask_plugin_cudnn10xmma_cudnn52implicit_gemm_dgrad_0e729ce8b10f7d9befbe876c9b56922224kernel_get_kernel_recordEv
libcudnn_cnn_infer.so.8:_ZN17cask_plugin_cudnn10xmma_cudnn52implicit_gemm_dgrad_0ec50dffd72838cac78b40c2a6ecefbf24kernel_get_kernel_recordEv
libcudnn_cnn_infer.so.8:_ZN17cask_plugin_cudnn10xmma_cudnn52implicit_gemm_dgrad_0ec999c83c5daab3c8fb9ee6e50461c024kernel_get_kernel_recordEv
libcudnn_cnn_infer.so.8:_ZN17cask_plugin_cudnn10xmma_cudnn52implicit_gemm_dgrad_0ed80a937582855a26d8abfecb133cb224kernel_get_kernel_recordEv
libcudnn_cnn_infer.so.8:_ZN17cask_plugin_cudnn10xmma_cudnn52implicit_gemm_dgrad_0f1fde23130b456619fe39286fad252c24kernel_get_kernel_recordEv
libcudnn_cnn_infer.so.8:_ZN17cask_plugin_cudnn10xmma_cudnn52implicit_gemm_dgrad_0f68937cb209a01468a17bb9baf5671024kernel_get_kernel_recordEv
libcudnn_cnn_infer.so.8:_ZN17cask_plugin_cudnn10xmma_cudnn52implicit_gemm_dgrad_0fbed530537078908d585c2b5e44cc3224kernel_get_kernel_recordEv
libcudnn_cnn_infer.so.8:_ZN17cask_plugin_cudnn10xmma_cudnn52implicit_gemm_dgrad_0fdbbd5d1737092d6cbd99b119e6c13524kernel_get_kernel_recordEv
libcudnn_cnn_infer.so.8:_ZN17cask_plugin_cudnn10xmma_cudnn52implicit_gemm_dgrad_0ff4fa492bc67c28f14221cc262cdedb24kernel_get_kernel_recordEv
libcudnn_cnn_infer.so.8:_ZN17cask_plugin_cudnn10xmma_cudnn52implicit_gemm_dgrad_1084d3675833ce80cfb5dced2c8586d624kernel_get_kernel_recordEv
libcudnn_cnn_infer.so.8:_ZN17cask_plugin_cudnn10xmma_cudnn52implicit_gemm_dgrad_10ca8fcc96a24001575422c7b7db076d24kernel_get_kernel_recordEv
libcudnn_cnn_infer.so.8:_ZN17cask_plugin_cudnn10xmma_cudnn52implicit_gemm_dgrad_10d0747ded4c41930beb650e38289dae24kernel_get_kernel_recordEv
libcudnn_cnn_infer.so.8:_ZN17cask_plugin_cudnn10xmma_cudnn52implicit_gemm_dgrad_10d4d118f19f999bf2daa689437f79bc24kernel_get_kernel_recordEv
libcudnn_cnn_infer.so.8:_ZN17cask_plugin_cudnn10xmma_cudnn52implicit_gemm_dgrad_1119aa3a2b860cc03bdb7835396596ea24kernel_get_kernel_recordEv
libcudnn_cnn_infer.so.8:_ZN17cask_plugin_cudnn10xmma_cudnn52implicit_gemm_dgrad_113be633b744e104733fe074fcc6ed5924kernel_get_kernel_recordEv
libcudnn_cnn_infer.so.8:_ZN17cask_plugin_cudnn10xmma_cudnn52implicit_gemm_dgrad_11af8b5443ea9da3c6373c3f9d87462a24kernel_get_kernel_recordEv
libcudnn_cnn_infer.so.8:_ZN17cask_plugin_cudnn10xmma_cudnn52implicit_gemm_dgrad_11e33a66a1211bf25fa8fe6d1fc3bc0e24kernel_get_kernel_recordEv
libcudnn_cnn_infer.so.8:_ZN17cask_plugin_cudnn10xmma_cudnn52implicit_gemm_dgrad_11f8c4a16c9fdc9770ba693d6c0acdd624kernel_get_kernel_recordEv
libcudnn_cnn_infer.so.8:_ZN17cask_plugin_cudnn10xmma_cudnn52implicit_gemm_dgrad_1211bd3c63f67573d07cb418aeec4b1424kernel_get_kernel_recordEv
libcudnn_cnn_infer.so.8:_ZN17cask_plugin_cudnn10xmma_cudnn52implicit_gemm_dgrad_1236c6d506017d614ef12dcd8650fc3024kernel_get_kernel_recordEv
libcudnn_cnn_infer.so.8:_ZN17cask_plugin_cudnn10xmma_cudnn52implicit_gemm_dgrad_1263296b31c3dc96cb6080aa5f8bfc4d24kernel_get_kernel_recordEv
libcudnn_cnn_infer.so.8:_ZN17cask_plugin_cudnn10xmma_cudnn52implicit_gemm_dgrad_12742493fefb4a9a4ae1c80cbd52d74924kernel_get_kernel_recordEv
libcudnn_cnn_infer.so.8:_ZN17cask_plugin_cudnn10xmma_cudnn52implicit_gemm_dgrad_128752fc76be179096fa63be707c9ce424kernel_get_kernel_recordEv
libcudnn_cnn_infer.so.8:_ZN17cask_plugin_cudnn10xmma_cudnn52implicit_gemm_dgrad_12ad782b40bdadc5819abe8788329ba124kernel_get_kernel_recordEv
libcudnn_cnn_infer.so.8:_ZN17cask_plugin_cudnn10xmma_cudnn52implicit_gemm_dgrad_12af85a1435ac1f661776f462c4a2ea224kernel_get_kernel_recordEv
libcudnn_cnn_infer.so.8:_ZN17cask_plugin_cudnn10xmma_cudnn52implicit_gemm_dgrad_12d2b44c3aabb603208003fa68ed4cb124kernel_get_kernel_recordEv
libcudnn_cnn_infer.so.8:_ZN17cask_plugin_cudnn10xmma_cudnn52implicit_gemm_dgrad_130d8fd9213430724e617d197d7326ac24kernel_get_kernel_recordEv
libcudnn_cnn_infer.so.8:_ZN17cask_plugin_cudnn10xmma_cudnn52implicit_gemm_dgrad_134c79a57b6d0dba11578f15b20ad14424kernel_get_kernel_recordEv
libcudnn_cnn_infer.so.8:_ZN17cask_plugin_cudnn10xmma_cudnn52implicit_gemm_dgrad_1385ddb89e6cbc579c24bad3f05bba9624kernel_get_kernel_recordEv
libcudnn_cnn_infer.so.8:_ZN17cask_plugin_cudnn10xmma_cudnn52implicit_gemm_dgrad_13881e7d3a3f753d43249cff88ecd8c024kernel_get_kernel_recordEv
libcudnn_cnn_infer.so.8:_ZN17cask_plugin_cudnn10xmma_cudnn52implicit_gemm_dgrad_1392f0e82d9942824eef091d1a8ebad924kernel_get_kernel_recordEv
libcudnn_cnn_infer.so.8:_ZN17cask_plugin_cudnn10xmma_cudnn52implicit_gemm_dgrad_13a06bfc1eae8d8252dc8fe8ecf50db924kernel_get_kernel_recordEv
libcudnn_cnn_infer.so.8:_ZN17cask_plugin_cudnn10xmma_cudnn52implicit_gemm_dgrad_13b2a8fd215d13cb0a1aaf23df410e6024kernel_get_kernel_recordEv
libcudnn_cnn_infer.so.8:_ZN17cask_plugin_cudnn10xmma_cudnn52implicit_gemm_dgrad_13c41463fe9e02c67f48b73aec33b80124kernel_get_kernel_recordEv
libcudnn_cnn_infer.so.8:_ZN17cask_plugin_cudnn10xmma_cudnn52implicit_gemm_dgrad_13e1db912dcf7d083e229b836d6fde7424kernel_get_kernel_recordEv
libcudnn_cnn_infer.so.8:_ZN17cask_plugin_cudnn10xmma_cudnn52implicit_gemm_dgrad_14013552a411b1fe5d861f125bf14bd924kernel_get_kernel_recordEv
libcudnn_cnn_infer.so.8:_ZN17cask_plugin_cudnn10xmma_cudnn52implicit_gemm_dgrad_141bdf24b8ec14c981326bf1cb386a7b24kernel_get_kernel_recordEv
libcudnn_cnn_infer.so.8:_ZN17cask_plugin_cudnn10xmma_cudnn52implicit_gemm_dgrad_144a8b083512f3cf1b9ba67aeb0d954d24kernel_get_kernel_recordEv
libcudnn_cnn_infer.so.8:_ZN17cask_plugin_cudnn10xmma_cudnn52implicit_gemm_dgrad_145a4a4a3dee06ba13c830bb6ebc387624kernel_get_kernel_recordEv
libcudnn_cnn_infer.so.8:_ZN17cask_plugin_cudnn10xmma_cudnn52implicit_gemm_dgrad_14d618b9b914e47a65c2719df12a24dc24kernel_get_kernel_recordEv
libcudnn_cnn_infer.so.8:_ZN17cask_plugin_cudnn10xmma_cudnn52implicit_gemm_dgrad_14f56a91a3da8d86e3ebb92d56e08a0524kernel_get_kernel_recordEv
libcudnn_cnn_infer.so.8:_ZN17cask_plugin_cudnn10xmma_cudnn52implicit_gemm_dgrad_1540615fdbeb4cf72835cefa19b985c524kernel_get_kernel_recordEv
libcudnn_cnn_infer.so.8:_ZN17cask_plugin_cudnn10xmma_cudnn52implicit_gemm_dgrad_15863f424fdc3a4a8b35f53fabca9ed224kernel_get_kernel_recordEv
libcudnn_cnn_infer.so.8:_ZN17cask_plugin_cudnn10xmma_cudnn52implicit_gemm_dgrad_15a4f399ab315b58d69e977545aff4cc24kernel_get_kernel_recordEv
libcudnn_cnn_infer.so.8:_ZN17cask_plugin_cudnn10xmma_cudnn52implicit_gemm_dgrad_15b4725149f0d7eab12bf4cb5ca4036c24kernel_get_kernel_recordEv
libcudnn_cnn_infer.so.8:_ZN17cask_plugin_cudnn10xmma_cudnn52implicit_gemm_dgrad_161eac810ca130fa3eb70d9ffe52f93324kernel_get_kernel_recordEv
libcudnn_cnn_infer.so.8:_ZN17cask_plugin_cudnn10xmma_cudnn52implicit_gemm_dgrad_163267a1b9b5d7fd12d3989baed8222424kernel_get_kernel_recordEv
libcudnn_cnn_infer.so.8:_ZN17cask_plugin_cudnn10xmma_cudnn52implicit_gemm_dgrad_165c2ce21295c027b1a25f7aea72895c24kernel_get_kernel_recordEv
libcudnn_cnn_infer.so.8:_ZN17cask_plugin_cudnn10xmma_cudnn52implicit_gemm_dgrad_16649ec099967cc764dba50a5ced4f9424kernel_get_kernel_recordEv
libcudnn_cnn_infer.so.8:_ZN17cask_plugin_cudnn10xmma_cudnn52implicit_gemm_dgrad_166612d73a488509873a1be26585d89824kernel_get_kernel_recordEv
libcudnn_cnn_infer.so.8:_ZN17cask_plugin_cudnn10xmma_cudnn52implicit_gemm_dgrad_168f7fc1f97ae1a17d92fbec616b30b024kernel_get_kernel_recordEv
libcudnn_cnn_infer.so.8:_ZN17cask_plugin_cudnn10xmma_cudnn52implicit_gemm_dgrad_171dabbb5ee6fc2f84e8e60838c011f324kernel_get_kernel_recordEv
libcudnn_cnn_infer.so.8:_ZN17cask_plugin_cudnn10xmma_cudnn52implicit_gemm_dgrad_174686884b96e0595ba769c20aa44b8e24kernel_get_kernel_recordEv
libcudnn_cnn_infer.so.8:_ZN17cask_plugin_cudnn10xmma_cudnn52implicit_gemm_dgrad_175ff5ebecccb7e0b5560f3d1ebddb9024kernel_get_kernel_recordEv
libcudnn_cnn_infer.so.8:_ZN17cask_plugin_cudnn10xmma_cudnn52implicit_gemm_dgrad_17b89077f992ae1cf05d3dfb487be49b24kernel_get_kernel_recordEv
libcudnn_cnn_infer.so.8:_ZN17cask_plugin_cudnn10xmma_cudnn52implicit_gemm_dgrad_17bab4f94fc5f584f2f2a1eae5b551aa24kernel_get_kernel_recordEv
libcudnn_cnn_infer.so.8:_ZN17cask_plugin_cudnn10xmma_cudnn52implicit_gemm_dgrad_17d1bcbc8f6dc04bf7ce66559448533f24kernel_get_kernel_recordEv
libcudnn_cnn_infer.so.8:_ZN17cask_plugin_cudnn10xmma_cudnn52implicit_gemm_dgrad_184c1a61055fd79be44f2be15815949424kernel_get_kernel_recordEv
libcudnn_cnn_infer.so.8:_ZN17cask_plugin_cudnn10xmma_cudnn52implicit_gemm_dgrad_1856fe94a1b0c13412010463bbd95a7f24kernel_get_kernel_recordEv
libcudnn_cnn_infer.so.8:_ZN17cask_plugin_cudnn10xmma_cudnn52implicit_gemm_dgrad_1864f61f2aa7b6352f324d147c672d1a24kernel_get_kernel_recordEv
libcudnn_cnn_infer.so.8:_ZN17cask_plugin_cudnn10xmma_cudnn52implicit_gemm_dgrad_187d1033675f60906f15bada8869efa324kernel_get_kernel_recordEv
libcudnn_cnn_infer.so.8:_ZN17cask_plugin_cudnn10xmma_cudnn52implicit_gemm_dgrad_18c6310e84eaaec43795e1eed37232ba24kernel_get_kernel_recordEv
libcudnn_cnn_infer.so.8:_ZN17cask_plugin_cudnn10xmma_cudnn52implicit_gemm_dgrad_18dca2663f7a89faa83cab55d2bad5e024kernel_get_kernel_recordEv
libcudnn_cnn_infer.so.8:_ZN17cask_plugin_cudnn10xmma_cudnn52implicit_gemm_dgrad_18fb6e9b34475667e6a5496d8190c41a24kernel_get_kernel_recordEv
libcudnn_cnn_infer.so.8:_ZN17cask_plugin_cudnn10xmma_cudnn52implicit_gemm_dgrad_1923cf1581c9652ed21ef692cd91fb9a24kernel_get_kernel_recordEv
libcudnn_cnn_infer.so.8:_ZN17cask_plugin_cudnn10xmma_cudnn52implicit_gemm_dgrad_1936df20b20871b6d5a192dedefaef2224kernel_get_kernel_recordEv
libcudnn_cnn_infer.so.8:_ZN17cask_plugin_cudnn10xmma_cudnn52implicit_gemm_dgrad_1966cc8bb2d4845a47140ab5b2f98a3f24kernel_get_kernel_recordEv
libcudnn_cnn_infer.so.8:_ZN17cask_plugin_cudnn10xmma_cudnn52implicit_gemm_dgrad_19ba5f17faf5dfada0cce2e39a33adc924kernel_get_kernel_recordEv
libcudnn_cnn_infer.so.8:_ZN17cask_plugin_cudnn10xmma_cudnn52implicit_gemm_dgrad_19d87cfe4d01ec955c7999b9bf0b628824kernel_get_kernel_recordEv
libcudnn_cnn_infer.so.8:_ZN17cask_plugin_cudnn10xmma_cudnn52implicit_gemm_dgrad_19f2a71ce7cf4b90f756371e4962356624kernel_get_kernel_recordEv
libcudnn_cnn_infer.so.8:_ZN17cask_plugin_cudnn10xmma_cudnn52implicit_gemm_dgrad_1a2361655b1077accc492d243dfbbe3224kernel_get_kernel_recordEv
libcudnn_cnn_infer.so.8:_ZN17cask_plugin_cudnn10xmma_cudnn52implicit_gemm_dgrad_1a81707e0f7233b337499f5a947f4f9024kernel_get_kernel_recordEv
libcudnn_cnn_infer.so.8:_ZN17cask_plugin_cudnn10xmma_cudnn52implicit_gemm_dgrad_1aa11454a1c97435ed48517ce1daae6b24kernel_get_kernel_recordEv
libcudnn_cnn_infer.so.8:_ZN17cask_plugin_cudnn10xmma_cudnn52implicit_gemm_dgrad_1ace700b986e6fc0920b0f0bf06ec5ca24kernel_get_kernel_recordEv
libcudnn_cnn_infer.so.8:_ZN17cask_plugin_cudnn10xmma_cudnn52implicit_gemm_dgrad_1ae2f2fdda7188905829df8854690ae824kernel_get_kernel_recordEv
libcudnn_cnn_infer.so.8:_ZN17cask_plugin_cudnn10xmma_cudnn52implicit_gemm_dgrad_1af79462fec4cfb574e651c9bdfa439b24kernel_get_kernel_recordEv
libcudnn_cnn_infer.so.8:_ZN17cask_plugin_cudnn10xmma_cudnn52implicit_gemm_dgrad_1b15c456e9a16756eeb225f9b48c427c24kernel_get_kernel_recordEv
libcudnn_cnn_infer.so.8:_ZN17cask_plugin_cudnn10xmma_cudnn52implicit_gemm_dgrad_1bda5de191a5fbbf584a5b10e5c9e76924kernel_get_kernel_recordEv
libcudnn_cnn_infer.so.8:_ZN17cask_plugin_cudnn10xmma_cudnn52implicit_gemm_dgrad_1c18805aed33a0e2ae34a66d809625c324kernel_get_kernel_recordEv
libcudnn_cnn_infer.so.8:_ZN17cask_plugin_cudnn10xmma_cudnn52implicit_gemm_dgrad_1c77f1c19dae836920287a481920ccf524kernel_get_kernel_recordEv
libcudnn_cnn_infer.so.8:_ZN17cask_plugin_cudnn10xmma_cudnn52implicit_gemm_dgrad_1c86587ca006a944198e341f3fe1551324kernel_get_kernel_recordEv
libcudnn_cnn_infer.so.8:_ZN17cask_plugin_cudnn10xmma_cudnn52implicit_gemm_dgrad_1ca819e089160060a522e7bd5fbbe29a24kernel_get_kernel_recordEv
libcudnn_cnn_infer.so.8:_ZN17cask_plugin_cudnn10xmma_cudnn52implicit_gemm_dgrad_1d92d14c33442ad9fb99d5a9cbf6277324kernel_get_kernel_recordEv
libcudnn_cnn_infer.so.8:_ZN17cask_plugin_cudnn10xmma_cudnn52implicit_gemm_dgrad_1da60d44b7355962e3e2a40fe762b87924kernel_get_kernel_recordEv
libcudnn_cnn_infer.so.8:_ZN17cask_plugin_cudnn10xmma_cudnn52implicit_gemm_dgrad_1dabe436e9ee89ae94ee5602c231eec824kernel_get_kernel_recordEv
libcudnn_cnn_infer.so.8:_ZN17cask_plugin_cudnn10xmma_cudnn52implicit_gemm_dgrad_1dd9f5de1d11e069f02508567ab3f17224kernel_get_kernel_recordEv
libcudnn_cnn_infer.so.8:_ZN17cask_plugin_cudnn10xmma_cudnn52implicit_gemm_dgrad_1e213fbe1b8057ab85ded34f100ab3a924kernel_get_kernel_recordEv
libcudnn_cnn_infer.so.8:_ZN17cask_plugin_cudnn10xmma_cudnn52implicit_gemm_dgrad_1e4159b903ba9075f1ac4ab9c2c4fb3f24kernel_get_kernel_recordEv
libcudnn_cnn_infer.so.8:_ZN17cask_plugin_cudnn10xmma_cudnn52implicit_gemm_dgrad_1e47ed85102cd5959c511b16eed05bb824kernel_get_kernel_recordEv
libcudnn_cnn_infer.so.8:_ZN17cask_plugin_cudnn10xmma_cudnn52implicit_gemm_dgrad_1ea185973cc80ef50141b8472e28d6af24kernel_get_kernel_recordEv
libcudnn_cnn_infer.so.8:_ZN17cask_plugin_cudnn10xmma_cudnn52implicit_gemm_dgrad_1ee32326a731bb64e654926fd9ac49f224kernel_get_kernel_recordEv
libcudnn_cnn_infer.so.8:_ZN17cask_plugin_cudnn10xmma_cudnn52implicit_gemm_dgrad_1f09423f5683e842703af13139b4f9da24kernel_get_kernel_recordEv
libcudnn_cnn_infer.so.8:_ZN17cask_plugin_cudnn10xmma_cudnn52implicit_gemm_dgrad_1f167c5b529984128312ff4eb11be5e324kernel_get_kernel_recordEv
libcudnn_cnn_infer.so.8:_ZN17cask_plugin_cudnn10xmma_cudnn52implicit_gemm_dgrad_1f414111b352da217f1171af00ca712f24kernel_get_kernel_recordEv
libcudnn_cnn_infer.so.8:_ZN17cask_plugin_cudnn10xmma_cudnn52implicit_gemm_dgrad_1f4c63f6fb3615773f92d9ac142e862224kernel_get_kernel_recordEv
libcudnn_cnn_infer.so.8:_ZN17cask_plugin_cudnn10xmma_cudnn52implicit_gemm_dgrad_1f73d8a1d14b11174f4a4a1dd352b80424kernel_get_kernel_recordEv
libcudnn_cnn_infer.so.8:_ZN17cask_plugin_cudnn10xmma_cudnn52implicit_gemm_dgrad_1f83df8ecf7775c9ac998c323179002d24kernel_get_kernel_recordEv
libcudnn_cnn_infer.so.8:_ZN17cask_plugin_cudnn10xmma_cudnn52implicit_gemm_dgrad_1fe9ffb6a765aadc025acee358e56f5024kernel_get_kernel_recordEv
libcudnn_cnn_infer.so.8:_ZN17cask_plugin_cudnn10xmma_cudnn52implicit_gemm_dgrad_1fff64a2aa5f754769b29bedb7d89c0f24kernel_get_kernel_recordEv
libcudnn_cnn_infer.so.8:_ZN17cask_plugin_cudnn10xmma_cudnn52implicit_gemm_dgrad_2024be93fcfef81d82eb973f464bc3d624kernel_get_kernel_recordEv
libcudnn_cnn_infer.so.8:_ZN17cask_plugin_cudnn10xmma_cudnn52implicit_gemm_dgrad_20aced46f88ad9a06809667ed98a54e524kernel_get_kernel_recordEv
libcudnn_cnn_infer.so.8:_ZN17cask_plugin_cudnn10xmma_cudnn52implicit_gemm_dgrad_20fc2a87dfd2f182b4e43937365696cd24kernel_get_kernel_recordEv
libcudnn_cnn_infer.so.8:_ZN17cask_plugin_cudnn10xmma_cudnn52implicit_gemm_dgrad_21b7af8d94e5dd0969503a2af0072e8624kernel_get_kernel_recordEv
libcudnn_cnn_infer.so.8:_ZN17cask_plugin_cudnn10xmma_cudnn52implicit_gemm_dgrad_21bab7f8a25a72b7965bd57afc77696d24kernel_get_kernel_recordEv
libcudnn_cnn_infer.so.8:_ZN17cask_plugin_cudnn10xmma_cudnn52implicit_gemm_dgrad_21f21c988f45cee4d5a2b4579140dfac24kernel_get_kernel_recordEv
libcudnn_cnn_infer.so.8:_ZN17cask_plugin_cudnn10xmma_cudnn52implicit_gemm_dgrad_224ae34fa01d36ea01d20cdf6617326524kernel_get_kernel_recordEv
libcudnn_cnn_infer.so.8:_ZN17cask_plugin_cudnn10xmma_cudnn52implicit_gemm_dgrad_2295277bec1a0781ae390c568ee6cc7324kernel_get_kernel_recordEv
libcudnn_cnn_infer.so.8:_ZN17cask_plugin_cudnn10xmma_cudnn52implicit_gemm_dgrad_22d7bb3d238e6d44745267e3938489a724kernel_get_kernel_recordEv
libcudnn_cnn_infer.so.8:_ZN17cask_plugin_cudnn10xmma_cudnn52implicit_gemm_dgrad_22f9e8c9fde34ac177b10109a29a291224kernel_get_kernel_recordEv
libcudnn_cnn_infer.so.8:_ZN17cask_plugin_cudnn10xmma_cudnn52implicit_gemm_dgrad_22fea80b471ad7abfc663726f955db7424kernel_get_kernel_recordEv
libcudnn_cnn_infer.so.8:_ZN17cask_plugin_cudnn10xmma_cudnn52implicit_gemm_dgrad_2316ad42dbc96714c87dad686304523324kernel_get_kernel_recordEv
libcudnn_cnn_infer.so.8:_ZN17cask_plugin_cudnn10xmma_cudnn52implicit_gemm_dgrad_2324f4bca70e6b168b288060f3429f7924kernel_get_kernel_recordEv
libcudnn_cnn_infer.so.8:_ZN17cask_plugin_cudnn10xmma_cudnn52implicit_gemm_dgrad_234b7dc8c95f2bec1fb3bcc19976f0c324kernel_get_kernel_recordEv
libcudnn_cnn_infer.so.8:_ZN17cask_plugin_cudnn10xmma_cudnn52implicit_gemm_dgrad_23590410fe3e36ffd063a950898c102424kernel_get_kernel_recordEv
libcudnn_cnn_infer.so.8:_ZN17cask_plugin_cudnn10xmma_cudnn52implicit_gemm_dgrad_23894a6878f82a5c000e30388aaec0ca24kernel_get_kernel_recordEv
libcudnn_cnn_infer.so.8:_ZN17cask_plugin_cudnn10xmma_cudnn52implicit_gemm_dgrad_23a22d93117d020daf49d16c03bf868024kernel_get_kernel_recordEv
libcudnn_cnn_infer.so.8:_ZN17cask_plugin_cudnn10xmma_cudnn52implicit_gemm_dgrad_23a633cb09238a7d0640a917a749eadf24kernel_get_kernel_recordEv
libcudnn_cnn_infer.so.8:_ZN17cask_plugin_cudnn10xmma_cudnn52implicit_gemm_dgrad_23a900717c33a097cb51538e4b961d2c24kernel_get_kernel_recordEv
libcudnn_cnn_infer.so.8:_ZN17cask_plugin_cudnn10xmma_cudnn52implicit_gemm_dgrad_23b1474dbe34ec998ba48c9410a5a5b124kernel_get_kernel_recordEv
libcudnn_cnn_infer.so.8:_ZN17cask_plugin_cudnn10xmma_cudnn52implicit_gemm_dgrad_23ecba85be59ec717697e10c2ae17fc524kernel_get_kernel_recordEv
libcudnn_cnn_infer.so.8:_ZN17cask_plugin_cudnn10xmma_cudnn52implicit_gemm_dgrad_23f633a909f496e4a4a1e66958f53a1224kernel_get_kernel_recordEv
libcudnn_cnn_infer.so.8:_ZN17cask_plugin_cudnn10xmma_cudnn52implicit_gemm_dgrad_24261ed6896978debe0cc599c8729a1924kernel_get_kernel_recordEv
libcudnn_cnn_infer.so.8:_ZN17cask_plugin_cudnn10xmma_cudnn52implicit_gemm_dgrad_2440b602c96473f606b38658dff816ab24kernel_get_kernel_recordEv
libcudnn_cnn_infer.so.8:_ZN17cask_plugin_cudnn10xmma_cudnn52implicit_gemm_dgrad_24656964a8924e6c1f58dcef3225bebf24kernel_get_kernel_recordEv
libcudnn_cnn_infer.so.8:_ZN17cask_plugin_cudnn10xmma_cudnn52implicit_gemm_dgrad_249f8f7ca0f2384fa91bf3699a27ca8124kernel_get_kernel_recordEv
libcudnn_cnn_infer.so.8:_ZN17cask_plugin_cudnn10xmma_cudnn52implicit_gemm_dgrad_24a6c73bc5b79bc48bc5b77ddf21ba7f24kernel_get_kernel_recordEv
libcudnn_cnn_infer.so.8:_ZN17cask_plugin_cudnn10xmma_cudnn52implicit_gemm_dgrad_24a8983a8f9b097323e9322f5cdd1c2824kernel_get_kernel_recordEv
libcudnn_cnn_infer.so.8:_ZN17cask_plugin_cudnn10xmma_cudnn52implicit_gemm_dgrad_24bf809c09dcf270da7eba0040985eab24kernel_get_kernel_recordEv
libcudnn_cnn_infer.so.8:_ZN17cask_plugin_cudnn10xmma_cudnn52implicit_gemm_dgrad_24c8bd4329258447d609d67eb5287f0224kernel_get_kernel_recordEv
libcudnn_cnn_infer.so.8:_ZN17cask_plugin_cudnn10xmma_cudnn52implicit_gemm_dgrad_24d455b7b7493731d8438a887399076424kernel_get_kernel_recordEv
libcudnn_cnn_infer.so.8:_ZN17cask_plugin_cudnn10xmma_cudnn52implicit_gemm_dgrad_24e9695953718da29e05e75cf4e0999724kernel_get_kernel_recordEv
libcudnn_cnn_infer.so.8:_ZN17cask_plugin_cudnn10xmma_cudnn52implicit_gemm_dgrad_2534cea16a8f6bd0083a51af3f945edf24kernel_get_kernel_recordEv
libcudnn_cnn_infer.so.8:_ZN17cask_plugin_cudnn10xmma_cudnn52implicit_gemm_dgrad_2547d1447253b1b77174840b8598142a24kernel_get_kernel_recordEv
libcudnn_cnn_infer.so.8:_ZN17cask_plugin_cudnn10xmma_cudnn52implicit_gemm_dgrad_2562a5d4e1cb2a77540e1ba7efc07dea24kernel_get_kernel_recordEv
libcudnn_cnn_infer.so.8:_ZN17cask_plugin_cudnn10xmma_cudnn52implicit_gemm_dgrad_256dffd68cce2d33f98848faad56657b24kernel_get_kernel_recordEv
libcudnn_cnn_infer.so.8:_ZN17cask_plugin_cudnn10xmma_cudnn52implicit_gemm_dgrad_258cc62e07fe481e3aaebef99ccff1aa24kernel_get_kernel_recordEv
libcudnn_cnn_infer.so.8:_ZN17cask_plugin_cudnn10xmma_cudnn52implicit_gemm_dgrad_25b28f037f61a54205324a6bbafa310b24kernel_get_kernel_recordEv
libcudnn_cnn_infer.so.8:_ZN17cask_plugin_cudnn10xmma_cudnn52implicit_gemm_dgrad_25c024dbf569f81f52d150dc3f3840d624kernel_get_kernel_recordEv
libcudnn_cnn_infer.so.8:_ZN17cask_plugin_cudnn10xmma_cudnn52implicit_gemm_dgrad_25e654a727c3dbb99ab99260ca4e279f24kernel_get_kernel_recordEv
libcudnn_cnn_infer.so.8:_ZN17cask_plugin_cudnn10xmma_cudnn52implicit_gemm_dgrad_260542070bb5bc915fccf9f9f7a4882624kernel_get_kernel_recordEv
libcudnn_cnn_infer.so.8:_ZN17cask_plugin_cudnn10xmma_cudnn52implicit_gemm_dgrad_2647d460bb3fdfdb718342323a7340cd24kernel_get_kernel_recordEv
libcudnn_cnn_infer.so.8:_ZN17cask_plugin_cudnn10xmma_cudnn52implicit_gemm_dgrad_264854e5f02bfb591696065019cb418d24kernel_get_kernel_recordEv
libcudnn_cnn_infer.so.8:_ZN17cask_plugin_cudnn10xmma_cudnn52implicit_gemm_dgrad_265067f725bd55c74f2d398bffc3758824kernel_get_kernel_recordEv
libcudnn_cnn_infer.so.8:_ZN17cask_plugin_cudnn10xmma_cudnn52implicit_gemm_dgrad_26915260b0fca08da260d6ff048b14b424kernel_get_kernel_recordEv
libcudnn_cnn_infer.so.8:_ZN17cask_plugin_cudnn10xmma_cudnn52implicit_gemm_dgrad_26b9212e989393b44ccab1ee5002b76224kernel_get_kernel_recordEv
libcudnn_cnn_infer.so.8:_ZN17cask_plugin_cudnn10xmma_cudnn52implicit_gemm_dgrad_26ff8328956faec146be5eb558a1a9ff24kernel_get_kernel_recordEv
libcudnn_cnn_infer.so.8:_ZN17cask_plugin_cudnn10xmma_cudnn52implicit_gemm_dgrad_2740b4b84de1e8f95f9d1ec5dfc4bb6824kernel_get_kernel_recordEv
libcudnn_cnn_infer.so.8:_ZN17cask_plugin_cudnn10xmma_cudnn52implicit_gemm_dgrad_2741912f7fb40f9b57d4ba21da83d1da24kernel_get_kernel_recordEv
libcudnn_cnn_infer.so.8:_ZN17cask_plugin_cudnn10xmma_cudnn52implicit_gemm_dgrad_275a5763c1c642bef22677491b65ad9b24kernel_get_kernel_recordEv
libcudnn_cnn_infer.so.8:_ZN17cask_plugin_cudnn10xmma_cudnn52implicit_gemm_dgrad_2797f7953d7d1dbb2c0016a34d60c95b24kernel_get_kernel_recordEv
libcudnn_cnn_infer.so.8:_ZN17cask_plugin_cudnn10xmma_cudnn52implicit_gemm_dgrad_27993a987d2fbdc8df83325301d7b27024kernel_get_kernel_recordEv
libcudnn_cnn_infer.so.8:_ZN17cask_plugin_cudnn10xmma_cudnn52implicit_gemm_dgrad_27ac212ad5aaa2b7650ff8fed74d8eae24kernel_get_kernel_recordEv
libcudnn_cnn_infer.so.8:_ZN17cask_plugin_cudnn10xmma_cudnn52implicit_gemm_dgrad_27ba8b3f69808ad53f8aa2d8ac285e1f24kernel_get_kernel_recordEv
libcudnn_cnn_infer.so.8:_ZN17cask_plugin_cudnn10xmma_cudnn52implicit_gemm_dgrad_27c35c401bc5229d8abe241e09ca319224kernel_get_kernel_recordEv
libcudnn_cnn_infer.so.8:_ZN17cask_plugin_cudnn10xmma_cudnn52implicit_gemm_dgrad_27c6421029aa5fd7c9646ecb0037e6f424kernel_get_kernel_recordEv
libcudnn_cnn_infer.so.8:_ZN17cask_plugin_cudnn10xmma_cudnn52implicit_gemm_dgrad_27d3ee7ed81a7929778c0359b351a60224kernel_get_kernel_recordEv
libcudnn_cnn_infer.so.8:_ZN17cask_plugin_cudnn10xmma_cudnn52implicit_gemm_dgrad_282136f8c67eb7ab7c36c32ee9294ee524kernel_get_kernel_recordEv
libcudnn_cnn_infer.so.8:_ZN17cask_plugin_cudnn10xmma_cudnn52implicit_gemm_dgrad_282564d2107dc8d85b52335089cd232424kernel_get_kernel_recordEv
libcudnn_cnn_infer.so.8:_ZN17cask_plugin_cudnn10xmma_cudnn52implicit_gemm_dgrad_2847ccfe5bf7f744430bcdb9768f727324kernel_get_kernel_recordEv
libcudnn_cnn_infer.so.8:_ZN17cask_plugin_cudnn10xmma_cudnn52implicit_gemm_dgrad_284a99dbece353a55d350fcff808eed724kernel_get_kernel_recordEv
libcudnn_cnn_infer.so.8:_ZN17cask_plugin_cudnn10xmma_cudnn52implicit_gemm_dgrad_286e11035c2b691d6be0505c80e83d2724kernel_get_kernel_recordEv
libcudnn_cnn_infer.so.8:_ZN17cask_plugin_cudnn10xmma_cudnn52implicit_gemm_dgrad_288c0d6d163e5727431d5c81a9e67b9024kernel_get_kernel_recordEv
libcudnn_cnn_infer.so.8:_ZN17cask_plugin_cudnn10xmma_cudnn52implicit_gemm_dgrad_28bdb704785cc8aeb47dbba568da80a924kernel_get_kernel_recordEv
libcudnn_cnn_infer.so.8:_ZN17cask_plugin_cudnn10xmma_cudnn52implicit_gemm_dgrad_28d58f679d82fdff419a05c5a388873824kernel_get_kernel_recordEv
libcudnn_cnn_infer.so.8:_ZN17cask_plugin_cudnn10xmma_cudnn52implicit_gemm_dgrad_29673c38a73e4a31df14842127ba80d024kernel_get_kernel_recordEv
libcudnn_cnn_infer.so.8:_ZN17cask_plugin_cudnn10xmma_cudnn52implicit_gemm_dgrad_2970bc70863e635fd7c8b2e8673fe1e424kernel_get_kernel_recordEv
libcudnn_cnn_infer.so.8:_ZN17cask_plugin_cudnn10xmma_cudnn52implicit_gemm_dgrad_29bd4a67ceddb13f5c2d75cf34369dcf24kernel_get_kernel_recordEv
libcudnn_cnn_infer.so.8:_ZN17cask_plugin_cudnn10xmma_cudnn52implicit_gemm_dgrad_2a00b6a3557a4e5845055f0e9c372aad24kernel_get_kernel_recordEv
libcudnn_cnn_infer.so.8:_ZN17cask_plugin_cudnn10xmma_cudnn52implicit_gemm_dgrad_2a53ec2680ff6396d26fab0f8150945124kernel_get_kernel_recordEv
libcudnn_cnn_infer.so.8:_ZN17cask_plugin_cudnn10xmma_cudnn52implicit_gemm_dgrad_2a5c0611e5680c68374b77d9c7934c1224kernel_get_kernel_recordEv
libcudnn_cnn_infer.so.8:_ZN17cask_plugin_cudnn10xmma_cudnn52implicit_gemm_dgrad_2a6985d339ff85820f2986b5c43c3ed724kernel_get_kernel_recordEv
libcudnn_cnn_infer.so.8:_ZN17cask_plugin_cudnn10xmma_cudnn52implicit_gemm_dgrad_2a75490d0c8cab32f0283e0a2131fdc024kernel_get_kernel_recordEv
libcudnn_cnn_infer.so.8:_ZN17cask_plugin_cudnn10xmma_cudnn52implicit_gemm_dgrad_2a7ebae4914a4e8d705efca25166d61724kernel_get_kernel_recordEv
libcudnn_cnn_infer.so.8:_ZN17cask_plugin_cudnn10xmma_cudnn52implicit_gemm_dgrad_2aa688e61dd1136a1afb7d7b1b291e2524kernel_get_kernel_recordEv
libcudnn_cnn_infer.so.8:_ZN17cask_plugin_cudnn10xmma_cudnn52implicit_gemm_dgrad_2b495b9213f2ca5315fddf4baf4bb73a24kernel_get_kernel_recordEv
libcudnn_cnn_infer.so.8:_ZN17cask_plugin_cudnn10xmma_cudnn52implicit_gemm_dgrad_2b6deae4840000cd4e5ffcedd87cdbb524kernel_get_kernel_recordEv
libcudnn_cnn_infer.so.8:_ZN17cask_plugin_cudnn10xmma_cudnn52implicit_gemm_dgrad_2bcdbca446908a447d62a4123faa76ba24kernel_get_kernel_recordEv
libcudnn_cnn_infer.so.8:_ZN17cask_plugin_cudnn10xmma_cudnn52implicit_gemm_dgrad_2bf21f7055a6b1d98461e2e0f7e7a0bb24kernel_get_kernel_recordEv
libcudnn_cnn_infer.so.8:_ZN17cask_plugin_cudnn10xmma_cudnn52implicit_gemm_dgrad_2c0269bd3c67b882b91f7865694e681924kernel_get_kernel_recordEv
libcudnn_cnn_infer.so.8:_ZN17cask_plugin_cudnn10xmma_cudnn52implicit_gemm_dgrad_2c0bb51cbc367acdc76ea6444b0bb6fd24kernel_get_kernel_recordEv
libcudnn_cnn_infer.so.8:_ZN17cask_plugin_cudnn10xmma_cudnn52implicit_gemm_dgrad_2c69c96fae4e0ffe92883bc3a7baeae424kernel_get_kernel_recordEv
libcudnn_cnn_infer.so.8:_ZN17cask_plugin_cudnn10xmma_cudnn52implicit_gemm_dgrad_2ca1c9f1570adb17b004edcdf78f0a5624kernel_get_kernel_recordEv
libcudnn_cnn_infer.so.8:_ZN17cask_plugin_cudnn10xmma_cudnn52implicit_gemm_dgrad_2cacc68168fbeb684ef4bf6d8a24e79024kernel_get_kernel_recordEv
libcudnn_cnn_infer.so.8:_ZN17cask_plugin_cudnn10xmma_cudnn52implicit_gemm_dgrad_2d14a763150e792c9cd3eb35b68b5c0e24kernel_get_kernel_recordEv
libcudnn_cnn_infer.so.8:_ZN17cask_plugin_cudnn10xmma_cudnn52implicit_gemm_dgrad_2d1d9cc9e5f10b63c9072694cab3cc3c24kernel_get_kernel_recordEv
libcudnn_cnn_infer.so.8:_ZN17cask_plugin_cudnn10xmma_cudnn52implicit_gemm_dgrad_2d8daa3c5af54e014879e406a8b6360824kernel_get_kernel_recordEv
libcudnn_cnn_infer.so.8:_ZN17cask_plugin_cudnn10xmma_cudnn52implicit_gemm_dgrad_2dbf9367f44a9c60f85cd842231a6d6324kernel_get_kernel_recordEv
libcudnn_cnn_infer.so.8:_ZN17cask_plugin_cudnn10xmma_cudnn52implicit_gemm_dgrad_2dcca960f849de7cf959b4ba30655bf924kernel_get_kernel_recordEv
libcudnn_cnn_infer.so.8:_ZN17cask_plugin_cudnn10xmma_cudnn52implicit_gemm_dgrad_2dde8fa177228a3e2c0beb1ea2e96b5824kernel_get_kernel_recordEv
libcudnn_cnn_infer.so.8:_ZN17cask_plugin_cudnn10xmma_cudnn52implicit_gemm_dgrad_2e9d4da59c51ca0df995a0217548938824kernel_get_kernel_recordEv
libcudnn_cnn_infer.so.8:_ZN17cask_plugin_cudnn10xmma_cudnn52implicit_gemm_dgrad_2ea93cd03414862f952baddaba498e5e24kernel_get_kernel_recordEv
libcudnn_cnn_infer.so.8:_ZN17cask_plugin_cudnn10xmma_cudnn52implicit_gemm_dgrad_2eadf76ed5a49e574868a28d06481da924kernel_get_kernel_recordEv
libcudnn_cnn_infer.so.8:_ZN17cask_plugin_cudnn10xmma_cudnn52implicit_gemm_dgrad_2ebe8df6c69195b492d66aca32ea74e924kernel_get_kernel_recordEv
libcudnn_cnn_infer.so.8:_ZN17cask_plugin_cudnn10xmma_cudnn52implicit_gemm_dgrad_2ef1a7db49824b4f0393332b5096cc3424kernel_get_kernel_recordEv
libcudnn_cnn_infer.so.8:_ZN17cask_plugin_cudnn10xmma_cudnn52implicit_gemm_dgrad_2f0a096dad708fc19d17afd954c107a524kernel_get_kernel_recordEv
libcudnn_cnn_infer.so.8:_ZN17cask_plugin_cudnn10xmma_cudnn52implicit_gemm_dgrad_2fea2359a46381659c5caa70dc325b8c24kernel_get_kernel_recordEv
libcudnn_cnn_infer.so.8:_ZN17cask_plugin_cudnn10xmma_cudnn52implicit_gemm_dgrad_302fe6b8d29569429c62a0cceb33b8fd24kernel_get_kernel_recordEv
libcudnn_cnn_infer.so.8:_ZN17cask_plugin_cudnn10xmma_cudnn52implicit_gemm_dgrad_303610181dce3fd32c15d311c3a88ce424kernel_get_kernel_recordEv
libcudnn_cnn_infer.so.8:_ZN17cask_plugin_cudnn10xmma_cudnn52implicit_gemm_dgrad_307498c790157b81899d6410881860d124kernel_get_kernel_recordEv
libcudnn_cnn_infer.so.8:_ZN17cask_plugin_cudnn10xmma_cudnn52implicit_gemm_dgrad_3091ae6d0c636cfe499d1bbb2e8e411d24kernel_get_kernel_recordEv
libcudnn_cnn_infer.so.8:_ZN17cask_plugin_cudnn10xmma_cudnn52implicit_gemm_dgrad_30ae044a189a6ab5b0dd7c922bbf636224kernel_get_kernel_recordEv
libcudnn_cnn_infer.so.8:_ZN17cask_plugin_cudnn10xmma_cudnn52implicit_gemm_dgrad_30b9ef267c8ada878f299b099b28d39024kernel_get_kernel_recordEv
libcudnn_cnn_infer.so.8:_ZN17cask_plugin_cudnn10xmma_cudnn52implicit_gemm_dgrad_30bcaa5eef39b06d01d72a4b85ce626924kernel_get_kernel_recordEv
libcudnn_cnn_infer.so.8:_ZN17cask_plugin_cudnn10xmma_cudnn52implicit_gemm_dgrad_30c56b6d8b002ed2038e437f1c0097db24kernel_get_kernel_recordEv
libcudnn_cnn_infer.so.8:_ZN17cask_plugin_cudnn10xmma_cudnn52implicit_gemm_dgrad_30c62b334f2d053b4d121cf7ea8f1eea24kernel_get_kernel_recordEv
libcudnn_cnn_infer.so.8:_ZN17cask_plugin_cudnn10xmma_cudnn52implicit_gemm_dgrad_310f454f60e4e8c756c62b974c1006d824kernel_get_kernel_recordEv
libcudnn_cnn_infer.so.8:_ZN17cask_plugin_cudnn10xmma_cudnn52implicit_gemm_dgrad_3118844b8fa733dc98a4299428cfcff924kernel_get_kernel_recordEv
libcudnn_cnn_infer.so.8:_ZN17cask_plugin_cudnn10xmma_cudnn52implicit_gemm_dgrad_31206c6c723fb6885347f787bb452d5d24kernel_get_kernel_recordEv
libcudnn_cnn_infer.so.8:_ZN17cask_plugin_cudnn10xmma_cudnn52implicit_gemm_dgrad_315c6f3dbb63efd079093a2cfb73e2f624kernel_get_kernel_recordEv
libcudnn_cnn_infer.so.8:_ZN17cask_plugin_cudnn10xmma_cudnn52implicit_gemm_dgrad_31b23442e10f496793fced328390565924kernel_get_kernel_recordEv
libcudnn_cnn_infer.so.8:_ZN17cask_plugin_cudnn10xmma_cudnn52implicit_gemm_dgrad_3218926e664f10b253beedd607fe453c24kernel_get_kernel_recordEv
libcudnn_cnn_infer.so.8:_ZN17cask_plugin_cudnn10xmma_cudnn52implicit_gemm_dgrad_322a387498d6d78c79d9ad1f5b9604b224kernel_get_kernel_recordEv
libcudnn_cnn_infer.so.8:_ZN17cask_plugin_cudnn10xmma_cudnn52implicit_gemm_dgrad_3245d0a0b734089e51b5158bf75a185924kernel_get_kernel_recordEv
libcudnn_cnn_infer.so.8:_ZN17cask_plugin_cudnn10xmma_cudnn52implicit_gemm_dgrad_3268e7841304ea3e130cb123c0cb2c7524kernel_get_kernel_recordEv
libcudnn_cnn_infer.so.8:_ZN17cask_plugin_cudnn10xmma_cudnn52implicit_gemm_dgrad_3269d93acb2614b6878c222fde7ee81a24kernel_get_kernel_recordEv
libcudnn_cnn_infer.so.8:_ZN17cask_plugin_cudnn10xmma_cudnn52implicit_gemm_dgrad_32aca19531f66f71c47aee68bd00cd0a24kernel_get_kernel_recordEv
libcudnn_cnn_infer.so.8:_ZN17cask_plugin_cudnn10xmma_cudnn52implicit_gemm_dgrad_32f5b0890153f8e46ecc0f02887ebc7524kernel_get_kernel_recordEv
libcudnn_cnn_infer.so.8:_ZN17cask_plugin_cudnn10xmma_cudnn52implicit_gemm_dgrad_32fda750e873a73057ee4d935f9cd88824kernel_get_kernel_recordEv
libcudnn_cnn_infer.so.8:_ZN17cask_plugin_cudnn10xmma_cudnn52implicit_gemm_dgrad_33317c2176fef71d6d3c058062055e8624kernel_get_kernel_recordEv
libcudnn_cnn_infer.so.8:_ZN17cask_plugin_cudnn10xmma_cudnn52implicit_gemm_dgrad_3367ba0d96ba52a29707ee3dc9f9ac3f24kernel_get_kernel_recordEv
libcudnn_cnn_infer.so.8:_ZN17cask_plugin_cudnn10xmma_cudnn52implicit_gemm_dgrad_336e5709c24074a05e301b27272b941924kernel_get_kernel_recordEv
libcudnn_cnn_infer.so.8:_ZN17cask_plugin_cudnn10xmma_cudnn52implicit_gemm_dgrad_337a051859165f8e91f28fed12e2599b24kernel_get_kernel_recordEv
libcudnn_cnn_infer.so.8:_ZN17cask_plugin_cudnn10xmma_cudnn52implicit_gemm_dgrad_337be824b6632e4f7fde06035b68312424kernel_get_kernel_recordEv
libcudnn_cnn_infer.so.8:_ZN17cask_plugin_cudnn10xmma_cudnn52implicit_gemm_dgrad_33f31d689cee8a0dd2de497dea69a6de24kernel_get_kernel_recordEv
libcudnn_cnn_infer.so.8:_ZN17cask_plugin_cudnn10xmma_cudnn52implicit_gemm_dgrad_340b6c6efc6288e924bd893b09f15ede24kernel_get_kernel_recordEv
libcudnn_cnn_infer.so.8:_ZN17cask_plugin_cudnn10xmma_cudnn52implicit_gemm_dgrad_3441b65624440a6d1de980352ba2530524kernel_get_kernel_recordEv
libcudnn_cnn_infer.so.8:_ZN17cask_plugin_cudnn10xmma_cudnn52implicit_gemm_dgrad_345e9e5bdf2f560722c9fb34a3a15cc724kernel_get_kernel_recordEv
libcudnn_cnn_infer.so.8:_ZN17cask_plugin_cudnn10xmma_cudnn52implicit_gemm_dgrad_348b479570af0345cfd3989a204bf7e024kernel_get_kernel_recordEv
libcudnn_cnn_infer.so.8:_ZN17cask_plugin_cudnn10xmma_cudnn52implicit_gemm_dgrad_349f8a734cd245e8f0bc333b524a06a724kernel_get_kernel_recordEv
libcudnn_cnn_infer.so.8:_ZN17cask_plugin_cudnn10xmma_cudnn52implicit_gemm_dgrad_34dbf4d01fa70a47914088619120cc4324kernel_get_kernel_recordEv
libcudnn_cnn_infer.so.8:_ZN17cask_plugin_cudnn10xmma_cudnn52implicit_gemm_dgrad_35001611929ce5d65cc2f4bd7671fd0324kernel_get_kernel_recordEv
libcudnn_cnn_infer.so.8:_ZN17cask_plugin_cudnn10xmma_cudnn52implicit_gemm_dgrad_350d7778c800a874c2bfac3118e0e6fa24kernel_get_kernel_recordEv
libcudnn_cnn_infer.so.8:_ZN17cask_plugin_cudnn10xmma_cudnn52implicit_gemm_dgrad_35ef8cd782508440847a34eceaee508324kernel_get_kernel_recordEv
libcudnn_cnn_infer.so.8:_ZN17cask_plugin_cudnn10xmma_cudnn52implicit_gemm_dgrad_3622d8d7e506765c28858d1ea09ea86c24kernel_get_kernel_recordEv
libcudnn_cnn_infer.so.8:_ZN17cask_plugin_cudnn10xmma_cudnn52implicit_gemm_dgrad_3665378524d6a4e7dfbd298cc2641d4224kernel_get_kernel_recordEv
libcudnn_cnn_infer.so.8:_ZN17cask_plugin_cudnn10xmma_cudnn52implicit_gemm_dgrad_3666088bda1c98adb19035dcc441c34724kernel_get_kernel_recordEv
libcudnn_cnn_infer.so.8:_ZN17cask_plugin_cudnn10xmma_cudnn52implicit_gemm_dgrad_36ae22bbbb7e2d9c2db5d351db77dad024kernel_get_kernel_recordEv
libcudnn_cnn_infer.so.8:_ZN17cask_plugin_cudnn10xmma_cudnn52implicit_gemm_dgrad_37aa6164b5c99fcc0250be14b2d2074f24kernel_get_kernel_recordEv
libcudnn_cnn_infer.so.8:_ZN17cask_plugin_cudnn10xmma_cudnn52implicit_gemm_dgrad_37b7f674f6f5d46b091e8593741ea10b24kernel_get_kernel_recordEv
libcudnn_cnn_infer.so.8:_ZN17cask_plugin_cudnn10xmma_cudnn52implicit_gemm_dgrad_37f345794a127202c85b25ac6c8d0f1224kernel_get_kernel_recordEv
libcudnn_cnn_infer.so.8:_ZN17cask_plugin_cudnn10xmma_cudnn52implicit_gemm_dgrad_38231ee810f1451ce43a509939c118a424kernel_get_kernel_recordEv
libcudnn_cnn_infer.so.8:_ZN17cask_plugin_cudnn10xmma_cudnn52implicit_gemm_dgrad_383b595be83dbbd342fb4bbc1295cd0924kernel_get_kernel_recordEv
libcudnn_cnn_infer.so.8:_ZN17cask_plugin_cudnn10xmma_cudnn52implicit_gemm_dgrad_387b84be16e8423ba95eff809daa4ae824kernel_get_kernel_recordEv
libcudnn_cnn_infer.so.8:_ZN17cask_plugin_cudnn10xmma_cudnn52implicit_gemm_dgrad_387ec493e0668092e268373aeedbc1ba24kernel_get_kernel_recordEv
libcudnn_cnn_infer.so.8:_ZN17cask_plugin_cudnn10xmma_cudnn52implicit_gemm_dgrad_388a528b37c690b82e08148c04d87e2d24kernel_get_kernel_recordEv
libcudnn_cnn_infer.so.8:_ZN17cask_plugin_cudnn10xmma_cudnn52implicit_gemm_dgrad_38be7d7fee32ea02d5a8db2f18153d2324kernel_get_kernel_recordEv
libcudnn_cnn_infer.so.8:_ZN17cask_plugin_cudnn10xmma_cudnn52implicit_gemm_dgrad_38c6d4a1d62d5b4cf1c661aa805b814624kernel_get_kernel_recordEv
libcudnn_cnn_infer.so.8:_ZN17cask_plugin_cudnn10xmma_cudnn52implicit_gemm_dgrad_38e54bab79e53fed1c45c2697acf6d6724kernel_get_kernel_recordEv
libcudnn_cnn_infer.so.8:_ZN17cask_plugin_cudnn10xmma_cudnn52implicit_gemm_dgrad_38fcf750c842c9d9584d9028daa3e06d24kernel_get_kernel_recordEv
libcudnn_cnn_infer.so.8:_ZN17cask_plugin_cudnn10xmma_cudnn52implicit_gemm_dgrad_39171cbf5244ff490857589469043fd224kernel_get_kernel_recordEv
libcudnn_cnn_infer.so.8:_ZN17cask_plugin_cudnn10xmma_cudnn52implicit_gemm_dgrad_3931c0a61a19673bed5eaed8c825fbf024kernel_get_kernel_recordEv
libcudnn_cnn_infer.so.8:_ZN17cask_plugin_cudnn10xmma_cudnn52implicit_gemm_dgrad_3989d6557c4bce8fe2e9983d8e03f59b24kernel_get_kernel_recordEv
libcudnn_cnn_infer.so.8:_ZN17cask_plugin_cudnn10xmma_cudnn52implicit_gemm_dgrad_399818a5328ffc3b7ba8db7539aad8ed24kernel_get_kernel_recordEv
libcudnn_cnn_infer.so.8:_ZN17cask_plugin_cudnn10xmma_cudnn52implicit_gemm_dgrad_3a12f496440125441074b718541e820524kernel_get_kernel_recordEv
libcudnn_cnn_infer.so.8:_ZN17cask_plugin_cudnn10xmma_cudnn52implicit_gemm_dgrad_3a2f92cfddb1fb111f6d30c42530285524kernel_get_kernel_recordEv
libcudnn_cnn_infer.so.8:_ZN17cask_plugin_cudnn10xmma_cudnn52implicit_gemm_dgrad_3a8f208b99367d223136b67c67003cee24kernel_get_kernel_recordEv
libcudnn_cnn_infer.so.8:_ZN17cask_plugin_cudnn10xmma_cudnn52implicit_gemm_dgrad_3a94b908d5f48d0c6c799a033766933724kernel_get_kernel_recordEv
libcudnn_cnn_infer.so.8:_ZN17cask_plugin_cudnn10xmma_cudnn52implicit_gemm_dgrad_3a9b0a083e5aadaa399fbb7c7a3dfdd024kernel_get_kernel_recordEv
libcudnn_cnn_infer.so.8:_ZN17cask_plugin_cudnn10xmma_cudnn52implicit_gemm_dgrad_3aa3c653bafc3818e9ee8a1bed299c9a24kernel_get_kernel_recordEv
libcudnn_cnn_infer.so.8:_ZN17cask_plugin_cudnn10xmma_cudnn52implicit_gemm_dgrad_3aaa0f2ce115d4cf94fbfda7c22b20da24kernel_get_kernel_recordEv
libcudnn_cnn_infer.so.8:_ZN17cask_plugin_cudnn10xmma_cudnn52implicit_gemm_dgrad_3abdc8b2254635981d2c4f7dd99d932024kernel_get_kernel_recordEv
libcudnn_cnn_infer.so.8:_ZN17cask_plugin_cudnn10xmma_cudnn52implicit_gemm_dgrad_3ae843766da50f0623e5a75f5fa68d5d24kernel_get_kernel_recordEv
libcudnn_cnn_infer.so.8:_ZN17cask_plugin_cudnn10xmma_cudnn52implicit_gemm_dgrad_3b31b858c1a43cc80d1263744a42743324kernel_get_kernel_recordEv
libcudnn_cnn_infer.so.8:_ZN17cask_plugin_cudnn10xmma_cudnn52implicit_gemm_dgrad_3b3a4d5c4e6f6699e0c92e3ee5a5939a24kernel_get_kernel_recordEv
libcudnn_cnn_infer.so.8:_ZN17cask_plugin_cudnn10xmma_cudnn52implicit_gemm_dgrad_3b94b5775161df0f080d500ee42d98a324kernel_get_kernel_recordEv
libcudnn_cnn_infer.so.8:_ZN17cask_plugin_cudnn10xmma_cudnn52implicit_gemm_dgrad_3ba56ecb2cc436fef9e2efc8015fe27824kernel_get_kernel_recordEv
libcudnn_cnn_infer.so.8:_ZN17cask_plugin_cudnn10xmma_cudnn52implicit_gemm_dgrad_3bd8bd414fdda2c8733414e9c2983a3824kernel_get_kernel_recordEv
libcudnn_cnn_infer.so.8:_ZN17cask_plugin_cudnn10xmma_cudnn52implicit_gemm_dgrad_3c439ee07b535467f6ea92838b38169824kernel_get_kernel_recordEv
libcudnn_cnn_infer.so.8:_ZN17cask_plugin_cudnn10xmma_cudnn52implicit_gemm_dgrad_3c5b75c91be3ee888598a326dd6eba8524kernel_get_kernel_recordEv
libcudnn_cnn_infer.so.8:_ZN17cask_plugin_cudnn10xmma_cudnn52implicit_gemm_dgrad_3c7b38c2fa71f20e1b08df54f5be5a6b24kernel_get_kernel_recordEv
libcudnn_cnn_infer.so.8:_ZN17cask_plugin_cudnn10xmma_cudnn52implicit_gemm_dgrad_3c920e67ec31514cda92435113e3b2b424kernel_get_kernel_recordEv
libcudnn_cnn_infer.so.8:_ZN17cask_plugin_cudnn10xmma_cudnn52implicit_gemm_dgrad_3c9b037883cef4f203810a5ad87f47bf24kernel_get_kernel_recordEv
libcudnn_cnn_infer.so.8:_ZN17cask_plugin_cudnn10xmma_cudnn52implicit_gemm_dgrad_3ca4b9dbd1230ddde61e0519623731a124kernel_get_kernel_recordEv
libcudnn_cnn_infer.so.8:_ZN17cask_plugin_cudnn10xmma_cudnn52implicit_gemm_dgrad_3ce52562dc5684e8822f755aa99a8fcd24kernel_get_kernel_recordEv
libcudnn_cnn_infer.so.8:_ZN17cask_plugin_cudnn10xmma_cudnn52implicit_gemm_dgrad_3d0d766f6fbd522a8add9e7333bbe3b824kernel_get_kernel_recordEv
libcudnn_cnn_infer.so.8:_ZN17cask_plugin_cudnn10xmma_cudnn52implicit_gemm_dgrad_3d1acd2c0617dfa21612ca5b6c57599024kernel_get_kernel_recordEv
libcudnn_cnn_infer.so.8:_ZN17cask_plugin_cudnn10xmma_cudnn52implicit_gemm_dgrad_3d3213e06085ad4d669b8a4ddde008e524kernel_get_kernel_recordEv
libcudnn_cnn_infer.so.8:_ZN17cask_plugin_cudnn10xmma_cudnn52implicit_gemm_dgrad_3d36859c47cd26af7d99737cdde4a77624kernel_get_kernel_recordEv
libcudnn_cnn_infer.so.8:_ZN17cask_plugin_cudnn10xmma_cudnn52implicit_gemm_dgrad_3d6c4d716247ef2e186a889ccb75a0ce24kernel_get_kernel_recordEv
libcudnn_cnn_infer.so.8:_ZN17cask_plugin_cudnn10xmma_cudnn52implicit_gemm_dgrad_3da26c22a538ad51c32879cbb427c46124kernel_get_kernel_recordEv
libcudnn_cnn_infer.so.8:_ZN17cask_plugin_cudnn10xmma_cudnn52implicit_gemm_dgrad_3dd8e191a076040bac93c6e7c6b12e0f24kernel_get_kernel_recordEv
libcudnn_cnn_infer.so.8:_ZN17cask_plugin_cudnn10xmma_cudnn52implicit_gemm_dgrad_3dedf03bef1a6a0bc7a551530e87c3ca24kernel_get_kernel_recordEv
libcudnn_cnn_infer.so.8:_ZN17cask_plugin_cudnn10xmma_cudnn52implicit_gemm_dgrad_3df3a403895f918b9ede8844db964ea924kernel_get_kernel_recordEv
libcudnn_cnn_infer.so.8:_ZN17cask_plugin_cudnn10xmma_cudnn52implicit_gemm_dgrad_3e54a17fab5226696201b6fb44411fdb24kernel_get_kernel_recordEv
libcudnn_cnn_infer.so.8:_ZN17cask_plugin_cudnn10xmma_cudnn52implicit_gemm_dgrad_3e69e37c0e3f687b77e54b6b8df74e4624kernel_get_kernel_recordEv
libcudnn_cnn_infer.so.8:_ZN17cask_plugin_cudnn10xmma_cudnn52implicit_gemm_dgrad_3e749bfd0fcb171580165d451a26156924kernel_get_kernel_recordEv
libcudnn_cnn_infer.so.8:_ZN17cask_plugin_cudnn10xmma_cudnn52implicit_gemm_dgrad_3ec82ff937e15ecb2e83abe10272e17c24kernel_get_kernel_recordEv
libcudnn_cnn_infer.so.8:_ZN17cask_plugin_cudnn10xmma_cudnn52implicit_gemm_dgrad_3ed38ff3463051ad8b980c3f414af98324kernel_get_kernel_recordEv
libcudnn_cnn_infer.so.8:_ZN17cask_plugin_cudnn10xmma_cudnn52implicit_gemm_dgrad_3ef84d6e60bb2f25ed204fd5b358745824kernel_get_kernel_recordEv
libcudnn_cnn_infer.so.8:_ZN17cask_plugin_cudnn10xmma_cudnn52implicit_gemm_dgrad_3f02f22a352df8675566dd9635be50fc24kernel_get_kernel_recordEv
libcudnn_cnn_infer.so.8:_ZN17cask_plugin_cudnn10xmma_cudnn52implicit_gemm_dgrad_3f1802bf6134c90b03ef69c7d7a353f124kernel_get_kernel_recordEv
libcudnn_cnn_infer.so.8:_ZN17cask_plugin_cudnn10xmma_cudnn52implicit_gemm_dgrad_3f31afe6629e468654ec195faa33343124kernel_get_kernel_recordEv
libcudnn_cnn_infer.so.8:_ZN17cask_plugin_cudnn10xmma_cudnn52implicit_gemm_dgrad_3f35d6852d3e050c7ed449cb97d96bb424kernel_get_kernel_recordEv
libcudnn_cnn_infer.so.8:_ZN17cask_plugin_cudnn10xmma_cudnn52implicit_gemm_dgrad_3f3a9eb7447546ba37ae57a792a2b7b424kernel_get_kernel_recordEv
libcudnn_cnn_infer.so.8:_ZN17cask_plugin_cudnn10xmma_cudnn52implicit_gemm_dgrad_3f44ecff567be67634cd969e1b29ebba24kernel_get_kernel_recordEv
libcudnn_cnn_infer.so.8:_ZN17cask_plugin_cudnn10xmma_cudnn52implicit_gemm_dgrad_3fd6cdadea30e786eed6deb228634c0024kernel_get_kernel_recordEv
libcudnn_cnn_infer.so.8:_ZN17cask_plugin_cudnn10xmma_cudnn52implicit_gemm_dgrad_3fdc5abba79ca7fa4960ed86b6d16f3524kernel_get_kernel_recordEv
libcudnn_cnn_infer.so.8:_ZN17cask_plugin_cudnn10xmma_cudnn52implicit_gemm_dgrad_3fe2abdc7361cb1c144f23b35f1a63ca24kernel_get_kernel_recordEv
libcudnn_cnn_infer.so.8:_ZN17cask_plugin_cudnn10xmma_cudnn52implicit_gemm_dgrad_401160e25555051820654982b573a29524kernel_get_kernel_recordEv
libcudnn_cnn_infer.so.8:_ZN17cask_plugin_cudnn10xmma_cudnn52implicit_gemm_dgrad_401975dd2484d42726e51bd9f7da47d124kernel_get_kernel_recordEv
libcudnn_cnn_infer.so.8:_ZN17cask_plugin_cudnn10xmma_cudnn52implicit_gemm_dgrad_40469d23115d20196c2a1ee34f948b6d24kernel_get_kernel_recordEv
libcudnn_cnn_infer.so.8:_ZN17cask_plugin_cudnn10xmma_cudnn52implicit_gemm_dgrad_40e6e0b98852d39c581c563d60a120ff24kernel_get_kernel_recordEv
libcudnn_cnn_infer.so.8:_ZN17cask_plugin_cudnn10xmma_cudnn52implicit_gemm_dgrad_40e9ecd51f2f922e02afddac2ba6c93f24kernel_get_kernel_recordEv
libcudnn_cnn_infer.so.8:_ZN17cask_plugin_cudnn10xmma_cudnn52implicit_gemm_dgrad_4140d9184e645991a4e6c6eb4db8cb7924kernel_get_kernel_recordEv
libcudnn_cnn_infer.so.8:_ZN17cask_plugin_cudnn10xmma_cudnn52implicit_gemm_dgrad_417e38bb9fe361881a67cd932391753724kernel_get_kernel_recordEv
libcudnn_cnn_infer.so.8:_ZN17cask_plugin_cudnn10xmma_cudnn52implicit_gemm_dgrad_417e3a367645bfd1e890b2760345deb324kernel_get_kernel_recordEv
libcudnn_cnn_infer.so.8:_ZN17cask_plugin_cudnn10xmma_cudnn52implicit_gemm_dgrad_41b3240e7cd45a53962eff8a3851279d24kernel_get_kernel_recordEv
libcudnn_cnn_infer.so.8:_ZN17cask_plugin_cudnn10xmma_cudnn52implicit_gemm_dgrad_41cbadc42d6e1370d722409f3640a9da24kernel_get_kernel_recordEv
libcudnn_cnn_infer.so.8:_ZN17cask_plugin_cudnn10xmma_cudnn52implicit_gemm_dgrad_41de210993d25abd87d6bc9c41fe521d24kernel_get_kernel_recordEv
libcudnn_cnn_infer.so.8:_ZN17cask_plugin_cudnn10xmma_cudnn52implicit_gemm_dgrad_424a13eaba100b8ed3579ecf2bc0e54024kernel_get_kernel_recordEv
libcudnn_cnn_infer.so.8:_ZN17cask_plugin_cudnn10xmma_cudnn52implicit_gemm_dgrad_42647864dd44ef59dc8d0276bb426e3924kernel_get_kernel_recordEv
libcudnn_cnn_infer.so.8:_ZN17cask_plugin_cudnn10xmma_cudnn52implicit_gemm_dgrad_4271d7ecfe84c6b7c10a3f5b22d4a12e24kernel_get_kernel_recordEv
libcudnn_cnn_infer.so.8:_ZN17cask_plugin_cudnn10xmma_cudnn52implicit_gemm_dgrad_428500330059abe57e066eeedc8db33f24kernel_get_kernel_recordEv
libcudnn_cnn_infer.so.8:_ZN17cask_plugin_cudnn10xmma_cudnn52implicit_gemm_dgrad_42a7a7dd5f28ab3f03c2fe444124915924kernel_get_kernel_recordEv
libcudnn_cnn_infer.so.8:_ZN17cask_plugin_cudnn10xmma_cudnn52implicit_gemm_dgrad_430d4772c9d6f59eb1f290476e16202b24kernel_get_kernel_recordEv
libcudnn_cnn_infer.so.8:_ZN17cask_plugin_cudnn10xmma_cudnn52implicit_gemm_dgrad_430d8c9d79303a11eb780f29a3af6b7a24kernel_get_kernel_recordEv
libcudnn_cnn_infer.so.8:_ZN17cask_plugin_cudnn10xmma_cudnn52implicit_gemm_dgrad_430db1b1d9785ce75bf0a75a8f42e00324kernel_get_kernel_recordEv
libcudnn_cnn_infer.so.8:_ZN17cask_plugin_cudnn10xmma_cudnn52implicit_gemm_dgrad_436687f7096f5bc1bc5a435197adb7b524kernel_get_kernel_recordEv
libcudnn_cnn_infer.so.8:_ZN17cask_plugin_cudnn10xmma_cudnn52implicit_gemm_dgrad_436b58495284845a34c180d06a371c7324kernel_get_kernel_recordEv
libcudnn_cnn_infer.so.8:_ZN17cask_plugin_cudnn10xmma_cudnn52implicit_gemm_dgrad_436d65f3b2472a81a5249de2b030be4824kernel_get_kernel_recordEv
libcudnn_cnn_infer.so.8:_ZN17cask_plugin_cudnn10xmma_cudnn52implicit_gemm_dgrad_43731e36e1c5a2d76c8feab2ec7ae09424kernel_get_kernel_recordEv
libcudnn_cnn_infer.so.8:_ZN17cask_plugin_cudnn10xmma_cudnn52implicit_gemm_dgrad_43824f4e23f202b95aaa04c07646589424kernel_get_kernel_recordEv
libcudnn_cnn_infer.so.8:_ZN17cask_plugin_cudnn10xmma_cudnn52implicit_gemm_dgrad_438cf0defcf58ba34a32a2c11a27d44d24kernel_get_kernel_recordEv
libcudnn_cnn_infer.so.8:_ZN17cask_plugin_cudnn10xmma_cudnn52implicit_gemm_dgrad_43b735b5488fd05ccee339c36ff61fd224kernel_get_kernel_recordEv
libcudnn_cnn_infer.so.8:_ZN17cask_plugin_cudnn10xmma_cudnn52implicit_gemm_dgrad_43e7c87b9957c9a48eeb22b273f53f4324kernel_get_kernel_recordEv
libcudnn_cnn_infer.so.8:_ZN17cask_plugin_cudnn10xmma_cudnn52implicit_gemm_dgrad_43ed5e6caa1c62a5b5a4813d4282478a24kernel_get_kernel_recordEv
libcudnn_cnn_infer.so.8:_ZN17cask_plugin_cudnn10xmma_cudnn52implicit_gemm_dgrad_43fefca4202ac2047505fa726e1d5ea624kernel_get_kernel_recordEv
libcudnn_cnn_infer.so.8:_ZN17cask_plugin_cudnn10xmma_cudnn52implicit_gemm_dgrad_44280dfc683468134b97d6fe8c78433d24kernel_get_kernel_recordEv
libcudnn_cnn_infer.so.8:_ZN17cask_plugin_cudnn10xmma_cudnn52implicit_gemm_dgrad_4447d4f9ec7a14ca4a8056bc4cd92d1824kernel_get_kernel_recordEv
libcudnn_cnn_infer.so.8:_ZN17cask_plugin_cudnn10xmma_cudnn52implicit_gemm_dgrad_44c08df0b15d2a1a0b3264781dca61a924kernel_get_kernel_recordEv
libcudnn_cnn_infer.so.8:_ZN17cask_plugin_cudnn10xmma_cudnn52implicit_gemm_dgrad_456ac681b12fbf0aff458742215fcf9224kernel_get_kernel_recordEv
libcudnn_cnn_infer.so.8:_ZN17cask_plugin_cudnn10xmma_cudnn52implicit_gemm_dgrad_45a138bc71da66db49714be14390c6d224kernel_get_kernel_recordEv
libcudnn_cnn_infer.so.8:_ZN17cask_plugin_cudnn10xmma_cudnn52implicit_gemm_dgrad_45a26672f96668f5fe10c5871ab427e124kernel_get_kernel_recordEv
libcudnn_cnn_infer.so.8:_ZN17cask_plugin_cudnn10xmma_cudnn52implicit_gemm_dgrad_465bb238a1333f3800c0b1d25a26914b24kernel_get_kernel_recordEv
libcudnn_cnn_infer.so.8:_ZN17cask_plugin_cudnn10xmma_cudnn52implicit_gemm_dgrad_46692d8547b5a000cb39afb549580ab424kernel_get_kernel_recordEv
libcudnn_cnn_infer.so.8:_ZN17cask_plugin_cudnn10xmma_cudnn52implicit_gemm_dgrad_467d6b5ab9f6f4c2734e8892c347d3ca24kernel_get_kernel_recordEv
libcudnn_cnn_infer.so.8:_ZN17cask_plugin_cudnn10xmma_cudnn52implicit_gemm_dgrad_46a43662d5715ef7d2fcb9117ad9311724kernel_get_kernel_recordEv
libcudnn_cnn_infer.so.8:_ZN17cask_plugin_cudnn10xmma_cudnn52implicit_gemm_dgrad_46b7e77ef6988bf0967caab2ee7db4bd24kernel_get_kernel_recordEv
libcudnn_cnn_infer.so.8:_ZN17cask_plugin_cudnn10xmma_cudnn52implicit_gemm_dgrad_46ce497ec4a31ce7609284d0757e324224kernel_get_kernel_recordEv
libcudnn_cnn_infer.so.8:_ZN17cask_plugin_cudnn10xmma_cudnn52implicit_gemm_dgrad_47073c29250d05191d9fac31b7dee89524kernel_get_kernel_recordEv
libcudnn_cnn_infer.so.8:_ZN17cask_plugin_cudnn10xmma_cudnn52implicit_gemm_dgrad_474b3d31b09b29231557ab6d2713112d24kernel_get_kernel_recordEv
libcudnn_cnn_infer.so.8:_ZN17cask_plugin_cudnn10xmma_cudnn52implicit_gemm_dgrad_4788fc791b97d0cc644b4f078d8dbd1a24kernel_get_kernel_recordEv
libcudnn_cnn_infer.so.8:_ZN17cask_plugin_cudnn10xmma_cudnn52implicit_gemm_dgrad_47eabece4a79fa093f2b42d5b411817824kernel_get_kernel_recordEv
libcudnn_cnn_infer.so.8:_ZN17cask_plugin_cudnn10xmma_cudnn52implicit_gemm_dgrad_484e911e52884a65ea718d2609e0aff424kernel_get_kernel_recordEv
libcudnn_cnn_infer.so.8:_ZN17cask_plugin_cudnn10xmma_cudnn52implicit_gemm_dgrad_48bff15c637ddf7bfe54cf9ab2ee883d24kernel_get_kernel_recordEv
libcudnn_cnn_infer.so.8:_ZN17cask_plugin_cudnn10xmma_cudnn52implicit_gemm_dgrad_48c83c64de6877810d63de7425cb03b424kernel_get_kernel_recordEv
libcudnn_cnn_infer.so.8:_ZN17cask_plugin_cudnn10xmma_cudnn52implicit_gemm_dgrad_48e03c27dbcea3df304f1a8b2bc3aa5b24kernel_get_kernel_recordEv
libcudnn_cnn_infer.so.8:_ZN17cask_plugin_cudnn10xmma_cudnn52implicit_gemm_dgrad_48e7b1812317bd6ed52e5a45c365ac1624kernel_get_kernel_recordEv
libcudnn_cnn_infer.so.8:_ZN17cask_plugin_cudnn10xmma_cudnn52implicit_gemm_dgrad_48fbcdff2937ca2f8c0db53efc4de63a24kernel_get_kernel_recordEv
libcudnn_cnn_infer.so.8:_ZN17cask_plugin_cudnn10xmma_cudnn52implicit_gemm_dgrad_493cb41fe33ddffbc92d5c23398cce2624kernel_get_kernel_recordEv
libcudnn_cnn_infer.so.8:_ZN17cask_plugin_cudnn10xmma_cudnn52implicit_gemm_dgrad_49584ce4973d1372983748c7c819c67a24kernel_get_kernel_recordEv
libcudnn_cnn_infer.so.8:_ZN17cask_plugin_cudnn10xmma_cudnn52implicit_gemm_dgrad_4979ad35c58b64f1192a95a28d78d1fd24kernel_get_kernel_recordEv
libcudnn_cnn_infer.so.8:_ZN17cask_plugin_cudnn10xmma_cudnn52implicit_gemm_dgrad_4979efbead8724ff7f1e0e9d0cc93e1d24kernel_get_kernel_recordEv
libcudnn_cnn_infer.so.8:_ZN17cask_plugin_cudnn10xmma_cudnn52implicit_gemm_dgrad_4979fcc0e379eb6efe0030cdccf45bf724kernel_get_kernel_recordEv
libcudnn_cnn_infer.so.8:_ZN17cask_plugin_cudnn10xmma_cudnn52implicit_gemm_dgrad_4a023480ba71122117cad7e11fbc134124kernel_get_kernel_recordEv
libcudnn_cnn_infer.so.8:_ZN17cask_plugin_cudnn10xmma_cudnn52implicit_gemm_dgrad_4a0b2ec2c97d099c6f909f2c41ed6a0f24kernel_get_kernel_recordEv
libcudnn_cnn_infer.so.8:_ZN17cask_plugin_cudnn10xmma_cudnn52implicit_gemm_dgrad_4a0f60a0c66bdd739f2092bb2380aa0524kernel_get_kernel_recordEv
libcudnn_cnn_infer.so.8:_ZN17cask_plugin_cudnn10xmma_cudnn52implicit_gemm_dgrad_4a71d64eaea40ef07d9aafe004d1332124kernel_get_kernel_recordEv
libcudnn_cnn_infer.so.8:_ZN17cask_plugin_cudnn10xmma_cudnn52implicit_gemm_dgrad_4a9f156697cf5fc45bbeb216cc297fa124kernel_get_kernel_recordEv
libcudnn_cnn_infer.so.8:_ZN17cask_plugin_cudnn10xmma_cudnn52implicit_gemm_dgrad_4aa61fc4620dbace3294a536b0bf60e124kernel_get_kernel_recordEv
libcudnn_cnn_infer.so.8:_ZN17cask_plugin_cudnn10xmma_cudnn52implicit_gemm_dgrad_4abfc1fa3376935f0d08e1a99531781224kernel_get_kernel_recordEv
libcudnn_cnn_infer.so.8:_ZN17cask_plugin_cudnn10xmma_cudnn52implicit_gemm_dgrad_4ac5b7c3d1d7e0be3d69238b6c676f2d24kernel_get_kernel_recordEv
libcudnn_cnn_infer.so.8:_ZN17cask_plugin_cudnn10xmma_cudnn52implicit_gemm_dgrad_4b1903cab8dbd113adf009b6caa4c13b24kernel_get_kernel_recordEv
libcudnn_cnn_infer.so.8:_ZN17cask_plugin_cudnn10xmma_cudnn52implicit_gemm_dgrad_4b84a935acabc4bc3c53c1f50e1f01ff24kernel_get_kernel_recordEv
libcudnn_cnn_infer.so.8:_ZN17cask_plugin_cudnn10xmma_cudnn52implicit_gemm_dgrad_4b99b0c377dcfcef3e8571749c4c854a24kernel_get_kernel_recordEv
libcudnn_cnn_infer.so.8:_ZN17cask_plugin_cudnn10xmma_cudnn52implicit_gemm_dgrad_4ba4480c481940a46e7def2054cd256024kernel_get_kernel_recordEv
libcudnn_cnn_infer.so.8:_ZN17cask_plugin_cudnn10xmma_cudnn52implicit_gemm_dgrad_4bc59e3b3fabeccaf381e2a26456fa9824kernel_get_kernel_recordEv
libcudnn_cnn_infer.so.8:_ZN17cask_plugin_cudnn10xmma_cudnn52implicit_gemm_dgrad_4bdbbe713e71967606378203f364c32924kernel_get_kernel_recordEv
libcudnn_cnn_infer.so.8:_ZN17cask_plugin_cudnn10xmma_cudnn52implicit_gemm_dgrad_4bf5874fa2f1f722c57104127c76a63024kernel_get_kernel_recordEv
libcudnn_cnn_infer.so.8:_ZN17cask_plugin_cudnn10xmma_cudnn52implicit_gemm_dgrad_4c019119c135cba06ffc4f41fa28fef724kernel_get_kernel_recordEv
libcudnn_cnn_infer.so.8:_ZN17cask_plugin_cudnn10xmma_cudnn52implicit_gemm_dgrad_4c219321b551bbe34e45ed0c86af50f424kernel_get_kernel_recordEv
libcudnn_cnn_infer.so.8:_ZN17cask_plugin_cudnn10xmma_cudnn52implicit_gemm_dgrad_4c6833ea072e1d1eee4d44552c278ce424kernel_get_kernel_recordEv
libcudnn_cnn_infer.so.8:_ZN17cask_plugin_cudnn10xmma_cudnn52implicit_gemm_dgrad_4c957cc453060ccb6f603e9a738df26b24kernel_get_kernel_recordEv
libcudnn_cnn_infer.so.8:_ZN17cask_plugin_cudnn10xmma_cudnn52implicit_gemm_dgrad_4c9a3eee9b354bc3833c223db5f7aae524kernel_get_kernel_recordEv
libcudnn_cnn_infer.so.8:_ZN17cask_plugin_cudnn10xmma_cudnn52implicit_gemm_dgrad_4cc687a53a251e8680a3513777c27fdb24kernel_get_kernel_recordEv
libcudnn_cnn_infer.so.8:_ZN17cask_plugin_cudnn10xmma_cudnn52implicit_gemm_dgrad_4cc908654f4e5c579caa6d59d8981c9e24kernel_get_kernel_recordEv
libcudnn_cnn_infer.so.8:_ZN17cask_plugin_cudnn10xmma_cudnn52implicit_gemm_dgrad_4ccf384cce1df84bbc3df243e0195a9124kernel_get_kernel_recordEv
libcudnn_cnn_infer.so.8:_ZN17cask_plugin_cudnn10xmma_cudnn52implicit_gemm_dgrad_4cfa6d2be13c63d7d6e93a8768c6da3f24kernel_get_kernel_recordEv
libcudnn_cnn_infer.so.8:_ZN17cask_plugin_cudnn10xmma_cudnn52implicit_gemm_dgrad_4cfe107b65886aba3bf415daa6d1be4c24kernel_get_kernel_recordEv
libcudnn_cnn_infer.so.8:_ZN17cask_plugin_cudnn10xmma_cudnn52implicit_gemm_dgrad_4d3a50c44ac4da5e77732297be3d376b24kernel_get_kernel_recordEv
libcudnn_cnn_infer.so.8:_ZN17cask_plugin_cudnn10xmma_cudnn52implicit_gemm_dgrad_4d5313bdf297d79f8db57313aa1e88cc24kernel_get_kernel_recordEv
libcudnn_cnn_infer.so.8:_ZN17cask_plugin_cudnn10xmma_cudnn52implicit_gemm_dgrad_4d78449abfb620bc35086bd16345b32624kernel_get_kernel_recordEv
libcudnn_cnn_infer.so.8:_ZN17cask_plugin_cudnn10xmma_cudnn52implicit_gemm_dgrad_4db6845e5c5f5f3ccb6749574feeaeb724kernel_get_kernel_recordEv
libcudnn_cnn_infer.so.8:_ZN17cask_plugin_cudnn10xmma_cudnn52implicit_gemm_dgrad_4dd6b77c98bb6717e6badb90f78ea51724kernel_get_kernel_recordEv
libcudnn_cnn_infer.so.8:_ZN17cask_plugin_cudnn10xmma_cudnn52implicit_gemm_dgrad_4dfc70acbba5174ba05a314fef043c8024kernel_get_kernel_recordEv
libcudnn_cnn_infer.so.8:_ZN17cask_plugin_cudnn10xmma_cudnn52implicit_gemm_dgrad_4e848896c222db620f45f7aa097225a124kernel_get_kernel_recordEv
libcudnn_cnn_infer.so.8:_ZN17cask_plugin_cudnn10xmma_cudnn52implicit_gemm_dgrad_4f35b9c52e467b923d5ae088da56949b24kernel_get_kernel_recordEv
libcudnn_cnn_infer.so.8:_ZN17cask_plugin_cudnn10xmma_cudnn52implicit_gemm_dgrad_4fdd544021abe86e7e975d6e175f2ae424kernel_get_kernel_recordEv
libcudnn_cnn_infer.so.8:_ZN17cask_plugin_cudnn10xmma_cudnn52implicit_gemm_dgrad_4fff90af11ee8abfd146ad2a5639ad1724kernel_get_kernel_recordEv
libcudnn_cnn_infer.so.8:_ZN17cask_plugin_cudnn10xmma_cudnn52implicit_gemm_dgrad_500838f98a6298fceee587bee532649f24kernel_get_kernel_recordEv
libcudnn_cnn_infer.so.8:_ZN17cask_plugin_cudnn10xmma_cudnn52implicit_gemm_dgrad_503a6a7146b56402d37a1acf6860449524kernel_get_kernel_recordEv
libcudnn_cnn_infer.so.8:_ZN17cask_plugin_cudnn10xmma_cudnn52implicit_gemm_dgrad_505cd411597e6a7db52a84be6685947224kernel_get_kernel_recordEv
libcudnn_cnn_infer.so.8:_ZN17cask_plugin_cudnn10xmma_cudnn52implicit_gemm_dgrad_50f9b7b6e2725a19dc612a35a13b4fed24kernel_get_kernel_recordEv
libcudnn_cnn_infer.so.8:_ZN17cask_plugin_cudnn10xmma_cudnn52implicit_gemm_dgrad_517e4dfef19f1eaf4107457f9215a29824kernel_get_kernel_recordEv
libcudnn_cnn_infer.so.8:_ZN17cask_plugin_cudnn10xmma_cudnn52implicit_gemm_dgrad_51903e41040998aa774eef11bdd5745124kernel_get_kernel_recordEv
libcudnn_cnn_infer.so.8:_ZN17cask_plugin_cudnn10xmma_cudnn52implicit_gemm_dgrad_519660fa9c3ec0e07e61fb2bfac6249b24kernel_get_kernel_recordEv
libcudnn_cnn_infer.so.8:_ZN17cask_plugin_cudnn10xmma_cudnn52implicit_gemm_dgrad_519966fee94c72df6045fe1c55000f8824kernel_get_kernel_recordEv
libcudnn_cnn_infer.so.8:_ZN17cask_plugin_cudnn10xmma_cudnn52implicit_gemm_dgrad_51bdcf0c444b88f723bad0801dc8dc6924kernel_get_kernel_recordEv
libcudnn_cnn_infer.so.8:_ZN17cask_plugin_cudnn10xmma_cudnn52implicit_gemm_dgrad_51d30e9d1705321dd0a7d8dbc8957eeb24kernel_get_kernel_recordEv
libcudnn_cnn_infer.so.8:_ZN17cask_plugin_cudnn10xmma_cudnn52implicit_gemm_dgrad_51e0d42ced246b3205fc64a114ec54e924kernel_get_kernel_recordEv
libcudnn_cnn_infer.so.8:_ZN17cask_plugin_cudnn10xmma_cudnn52implicit_gemm_dgrad_51f9079c2ce7e0af59ac9758acd7b36124kernel_get_kernel_recordEv
libcudnn_cnn_infer.so.8:_ZN17cask_plugin_cudnn10xmma_cudnn52implicit_gemm_dgrad_51fb7cbb7bcc4f2f216bea3f4e67068624kernel_get_kernel_recordEv
libcudnn_cnn_infer.so.8:_ZN17cask_plugin_cudnn10xmma_cudnn52implicit_gemm_dgrad_520aa09d68b9ab562ecd4700c7fafbd724kernel_get_kernel_recordEv
libcudnn_cnn_infer.so.8:_ZN17cask_plugin_cudnn10xmma_cudnn52implicit_gemm_dgrad_52895e62bde5c69f983121c4853a9bc424kernel_get_kernel_recordEv
libcudnn_cnn_infer.so.8:_ZN17cask_plugin_cudnn10xmma_cudnn52implicit_gemm_dgrad_5293bfeec3eb4d689d42bbd7e723a06e24kernel_get_kernel_recordEv
libcudnn_cnn_infer.so.8:_ZN17cask_plugin_cudnn10xmma_cudnn52implicit_gemm_dgrad_53454ffbc7455ee864133bd87a35e08b24kernel_get_kernel_recordEv
libcudnn_cnn_infer.so.8:_ZN17cask_plugin_cudnn10xmma_cudnn52implicit_gemm_dgrad_537149c5e2c8fe92af12334dc62ce11a24kernel_get_kernel_recordEv
libcudnn_cnn_infer.so.8:_ZN17cask_plugin_cudnn10xmma_cudnn52implicit_gemm_dgrad_53765d137f5ce73d79d6b31b88dc761524kernel_get_kernel_recordEv
libcudnn_cnn_infer.so.8:_ZN17cask_plugin_cudnn10xmma_cudnn52implicit_gemm_dgrad_53d2a2509dbd87d80083951716ddb85c24kernel_get_kernel_recordEv
libcudnn_cnn_infer.so.8:_ZN17cask_plugin_cudnn10xmma_cudnn52implicit_gemm_dgrad_53df25606237003baab3b276394232da24kernel_get_kernel_recordEv
libcudnn_cnn_infer.so.8:_ZN17cask_plugin_cudnn10xmma_cudnn52implicit_gemm_dgrad_540d7055c53efe7ab19d8b6cb36dda1f24kernel_get_kernel_recordEv
libcudnn_cnn_infer.so.8:_ZN17cask_plugin_cudnn10xmma_cudnn52implicit_gemm_dgrad_54832724137834b578129f28374f76f524kernel_get_kernel_recordEv
libcudnn_cnn_infer.so.8:_ZN17cask_plugin_cudnn10xmma_cudnn52implicit_gemm_dgrad_549fff084a35bf7be7ee32732ac481d924kernel_get_kernel_recordEv
libcudnn_cnn_infer.so.8:_ZN17cask_plugin_cudnn10xmma_cudnn52implicit_gemm_dgrad_54e3a3841a44c0dc87dff843e832d0df24kernel_get_kernel_recordEv
libcudnn_cnn_infer.so.8:_ZN17cask_plugin_cudnn10xmma_cudnn52implicit_gemm_dgrad_552cbe089ff9812955093f34d527c75b24kernel_get_kernel_recordEv
libcudnn_cnn_infer.so.8:_ZN17cask_plugin_cudnn10xmma_cudnn52implicit_gemm_dgrad_554fafb998231c9617c4c8826ab75b2b24kernel_get_kernel_recordEv
libcudnn_cnn_infer.so.8:_ZN17cask_plugin_cudnn10xmma_cudnn52implicit_gemm_dgrad_5552b310d24774f5888ca070c0d1883e24kernel_get_kernel_recordEv
libcudnn_cnn_infer.so.8:_ZN17cask_plugin_cudnn10xmma_cudnn52implicit_gemm_dgrad_5568c068439a59e44f7fdcfbdff2cc4f24kernel_get_kernel_recordEv
libcudnn_cnn_infer.so.8:_ZN17cask_plugin_cudnn10xmma_cudnn52implicit_gemm_dgrad_558685a9f76fd493a9b8c8a228ce42c224kernel_get_kernel_recordEv
libcudnn_cnn_infer.so.8:_ZN17cask_plugin_cudnn10xmma_cudnn52implicit_gemm_dgrad_55f093d6590235f23e16d919d23908aa24kernel_get_kernel_recordEv
libcudnn_cnn_infer.so.8:_ZN17cask_plugin_cudnn10xmma_cudnn52implicit_gemm_dgrad_5656eee5cf09ca5977b30fbb4149238424kernel_get_kernel_recordEv
libcudnn_cnn_infer.so.8:_ZN17cask_plugin_cudnn10xmma_cudnn52implicit_gemm_dgrad_567fb5a60fd9821e6aa268ec709a966524kernel_get_kernel_recordEv
libcudnn_cnn_infer.so.8:_ZN17cask_plugin_cudnn10xmma_cudnn52implicit_gemm_dgrad_56b8748d63ff5756863b37479ccdc22e24kernel_get_kernel_recordEv
libcudnn_cnn_infer.so.8:_ZN17cask_plugin_cudnn10xmma_cudnn52implicit_gemm_dgrad_5723ef7cbf0701e475b4a88c1993a13424kernel_get_kernel_recordEv
libcudnn_cnn_infer.so.8:_ZN17cask_plugin_cudnn10xmma_cudnn52implicit_gemm_dgrad_573295f2f98bfad00a10be66600e8ece24kernel_get_kernel_recordEv
libcudnn_cnn_infer.so.8:_ZN17cask_plugin_cudnn10xmma_cudnn52implicit_gemm_dgrad_573eb50df3e1af6c2cf1577054e3fc7f24kernel_get_kernel_recordEv
libcudnn_cnn_infer.so.8:_ZN17cask_plugin_cudnn10xmma_cudnn52implicit_gemm_dgrad_574b932a363e58e5d872b82fd4eca9eb24kernel_get_kernel_recordEv
libcudnn_cnn_infer.so.8:_ZN17cask_plugin_cudnn10xmma_cudnn52implicit_gemm_dgrad_57640381fbf8bc9cb184dcd17c9d411b24kernel_get_kernel_recordEv
libcudnn_cnn_infer.so.8:_ZN17cask_plugin_cudnn10xmma_cudnn52implicit_gemm_dgrad_5779f67360652c8221357682586265a124kernel_get_kernel_recordEv
libcudnn_cnn_infer.so.8:_ZN17cask_plugin_cudnn10xmma_cudnn52implicit_gemm_dgrad_5790e09115cca742673a0e391ea3a79124kernel_get_kernel_recordEv
libcudnn_cnn_infer.so.8:_ZN17cask_plugin_cudnn10xmma_cudnn52implicit_gemm_dgrad_57919279eb6241325cbfe05e3f4fdd7c24kernel_get_kernel_recordEv
libcudnn_cnn_infer.so.8:_ZN17cask_plugin_cudnn10xmma_cudnn52implicit_gemm_dgrad_5792ffc9f0562e1c939f9b8b61d135f724kernel_get_kernel_recordEv
libcudnn_cnn_infer.so.8:_ZN17cask_plugin_cudnn10xmma_cudnn52implicit_gemm_dgrad_5793a37ca61d4bcad7d9262850af2bbf24kernel_get_kernel_recordEv
libcudnn_cnn_infer.so.8:_ZN17cask_plugin_cudnn10xmma_cudnn52implicit_gemm_dgrad_579ab7ae2733d31bbcebab650fbde13d24kernel_get_kernel_recordEv
libcudnn_cnn_infer.so.8:_ZN17cask_plugin_cudnn10xmma_cudnn52implicit_gemm_dgrad_58104de84933a9dac930dccd32ac30a924kernel_get_kernel_recordEv
libcudnn_cnn_infer.so.8:_ZN17cask_plugin_cudnn10xmma_cudnn52implicit_gemm_dgrad_588e7f4be701d73571af8995a5b70cb424kernel_get_kernel_recordEv
libcudnn_cnn_infer.so.8:_ZN17cask_plugin_cudnn10xmma_cudnn52implicit_gemm_dgrad_589aaf8dc69130dc116a87a870fe231824kernel_get_kernel_recordEv
libcudnn_cnn_infer.so.8:_ZN17cask_plugin_cudnn10xmma_cudnn52implicit_gemm_dgrad_589dbfab11d7f3a2bab05e5c0f0b3d7d24kernel_get_kernel_recordEv
libcudnn_cnn_infer.so.8:_ZN17cask_plugin_cudnn10xmma_cudnn52implicit_gemm_dgrad_58f845b2519cdbf5103ff5e61205244424kernel_get_kernel_recordEv
libcudnn_cnn_infer.so.8:_ZN17cask_plugin_cudnn10xmma_cudnn52implicit_gemm_dgrad_59257509653a7a8e1e9113eb2dd46d2224kernel_get_kernel_recordEv
libcudnn_cnn_infer.so.8:_ZN17cask_plugin_cudnn10xmma_cudnn52implicit_gemm_dgrad_5981f808da6f11a6faaa4c5fa5af04d224kernel_get_kernel_recordEv
libcudnn_cnn_infer.so.8:_ZN17cask_plugin_cudnn10xmma_cudnn52implicit_gemm_dgrad_5a2b17b0bf75c8215d06b599bcd1895524kernel_get_kernel_recordEv
libcudnn_cnn_infer.so.8:_ZN17cask_plugin_cudnn10xmma_cudnn52implicit_gemm_dgrad_5a48189ef77ae97dea0fa2ed0f674a6824kernel_get_kernel_recordEv
libcudnn_cnn_infer.so.8:_ZN17cask_plugin_cudnn10xmma_cudnn52implicit_gemm_dgrad_5a9c665163a12917b25006fcedd1d2bc24kernel_get_kernel_recordEv
libcudnn_cnn_infer.so.8:_ZN17cask_plugin_cudnn10xmma_cudnn52implicit_gemm_dgrad_5ac111ed9a6d4723e009dab6db5a096d24kernel_get_kernel_recordEv
libcudnn_cnn_infer.so.8:_ZN17cask_plugin_cudnn10xmma_cudnn52implicit_gemm_dgrad_5ad000898f199c13e019e95a24f8723c24kernel_get_kernel_recordEv
libcudnn_cnn_infer.so.8:_ZN17cask_plugin_cudnn10xmma_cudnn52implicit_gemm_dgrad_5baa3f365f277401c4f71fd559eba91624kernel_get_kernel_recordEv
libcudnn_cnn_infer.so.8:_ZN17cask_plugin_cudnn10xmma_cudnn52implicit_gemm_dgrad_5bd66478a486d1054c5b30cddda0908d24kernel_get_kernel_recordEv
libcudnn_cnn_infer.so.8:_ZN17cask_plugin_cudnn10xmma_cudnn52implicit_gemm_dgrad_5bf89c32a835e1b2ebd0034021a58b6524kernel_get_kernel_recordEv
libcudnn_cnn_infer.so.8:_ZN17cask_plugin_cudnn10xmma_cudnn52implicit_gemm_dgrad_5c0cd40a032fe09367de4dec54df767924kernel_get_kernel_recordEv
libcudnn_cnn_infer.so.8:_ZN17cask_plugin_cudnn10xmma_cudnn52implicit_gemm_dgrad_5c4ba1314850c344079b79f97d96321724kernel_get_kernel_recordEv
libcudnn_cnn_infer.so.8:_ZN17cask_plugin_cudnn10xmma_cudnn52implicit_gemm_dgrad_5c54d8397a734c4214e31eec1b2deb9f24kernel_get_kernel_recordEv
libcudnn_cnn_infer.so.8:_ZN17cask_plugin_cudnn10xmma_cudnn52implicit_gemm_dgrad_5c5bbd605fb1b413445856395282d7ff24kernel_get_kernel_recordEv
libcudnn_cnn_infer.so.8:_ZN17cask_plugin_cudnn10xmma_cudnn52implicit_gemm_dgrad_5c9d12076160009b247f0de0f6a74b3f24kernel_get_kernel_recordEv
libcudnn_cnn_infer.so.8:_ZN17cask_plugin_cudnn10xmma_cudnn52implicit_gemm_dgrad_5ca46f2d3816f07a0f30dccb79a542f624kernel_get_kernel_recordEv
libcudnn_cnn_infer.so.8:_ZN17cask_plugin_cudnn10xmma_cudnn52implicit_gemm_dgrad_5cdca29bb01e3c427d5b664e7665504224kernel_get_kernel_recordEv
libcudnn_cnn_infer.so.8:_ZN17cask_plugin_cudnn10xmma_cudnn52implicit_gemm_dgrad_5d2d9c29882a4853e7445b8004f483a324kernel_get_kernel_recordEv
libcudnn_cnn_infer.so.8:_ZN17cask_plugin_cudnn10xmma_cudnn52implicit_gemm_dgrad_5d4a51a2f6fd48945daaa3bd6e57f93b24kernel_get_kernel_recordEv
libcudnn_cnn_infer.so.8:_ZN17cask_plugin_cudnn10xmma_cudnn52implicit_gemm_dgrad_5d4f69a4bb5404e24c84041bac623ce524kernel_get_kernel_recordEv
libcudnn_cnn_infer.so.8:_ZN17cask_plugin_cudnn10xmma_cudnn52implicit_gemm_dgrad_5d96167d2dfb0d7c601394f6f738767c24kernel_get_kernel_recordEv
libcudnn_cnn_infer.so.8:_ZN17cask_plugin_cudnn10xmma_cudnn52implicit_gemm_dgrad_5df62d306aa716433d1df1f4031af29124kernel_get_kernel_recordEv
libcudnn_cnn_infer.so.8:_ZN17cask_plugin_cudnn10xmma_cudnn52implicit_gemm_dgrad_5e1e12124dc7172af54b90407bab07f124kernel_get_kernel_recordEv
libcudnn_cnn_infer.so.8:_ZN17cask_plugin_cudnn10xmma_cudnn52implicit_gemm_dgrad_5e49ef8415d7f211713e78230f0347f724kernel_get_kernel_recordEv
libcudnn_cnn_infer.so.8:_ZN17cask_plugin_cudnn10xmma_cudnn52implicit_gemm_dgrad_5ee955e9c7a0acd983b6f5bf8443b8e024kernel_get_kernel_recordEv
libcudnn_cnn_infer.so.8:_ZN17cask_plugin_cudnn10xmma_cudnn52implicit_gemm_dgrad_5ef9dbbc352494284de929059932235d24kernel_get_kernel_recordEv
libcudnn_cnn_infer.so.8:_ZN17cask_plugin_cudnn10xmma_cudnn52implicit_gemm_dgrad_5f1f5c5c35cee00ff29d6ba8027083c024kernel_get_kernel_recordEv
libcudnn_cnn_infer.so.8:_ZN17cask_plugin_cudnn10xmma_cudnn52implicit_gemm_dgrad_5f63f4b0bf69b7f9e5b36b3551deba5b24kernel_get_kernel_recordEv
libcudnn_cnn_infer.so.8:_ZN17cask_plugin_cudnn10xmma_cudnn52implicit_gemm_dgrad_5f72d9c4a614de4446db386416a3155924kernel_get_kernel_recordEv
libcudnn_cnn_infer.so.8:_ZN17cask_plugin_cudnn10xmma_cudnn52implicit_gemm_dgrad_5f735c8c3e98f3309c9482b057845cb524kernel_get_kernel_recordEv
libcudnn_cnn_infer.so.8:_ZN17cask_plugin_cudnn10xmma_cudnn52implicit_gemm_dgrad_5f835a0aa4a237242213dd5b2b9c470724kernel_get_kernel_recordEv
libcudnn_cnn_infer.so.8:_ZN17cask_plugin_cudnn10xmma_cudnn52implicit_gemm_dgrad_5fb01e1debb415ee81e025c2cccd6c2a24kernel_get_kernel_recordEv
libcudnn_cnn_infer.so.8:_ZN17cask_plugin_cudnn10xmma_cudnn52implicit_gemm_dgrad_5fd77200822af1186bab71f4ea1d10d524kernel_get_kernel_recordEv
libcudnn_cnn_infer.so.8:_ZN17cask_plugin_cudnn10xmma_cudnn52implicit_gemm_dgrad_5ff19a8f5172a8be8f33f00d9a65626724kernel_get_kernel_recordEv
libcudnn_cnn_infer.so.8:_ZN17cask_plugin_cudnn10xmma_cudnn52implicit_gemm_dgrad_605b09d42d0c81b959c81d71444ccf7424kernel_get_kernel_recordEv
libcudnn_cnn_infer.so.8:_ZN17cask_plugin_cudnn10xmma_cudnn52implicit_gemm_dgrad_6089bc526677a37ae903978ccd5e9dfc24kernel_get_kernel_recordEv
libcudnn_cnn_infer.so.8:_ZN17cask_plugin_cudnn10xmma_cudnn52implicit_gemm_dgrad_608ab1ee8edf2feecc1f7bc0fe4eabf224kernel_get_kernel_recordEv
libcudnn_cnn_infer.so.8:_ZN17cask_plugin_cudnn10xmma_cudnn52implicit_gemm_dgrad_60aa1b2b8a709fadbd92013a1408b13f24kernel_get_kernel_recordEv
libcudnn_cnn_infer.so.8:_ZN17cask_plugin_cudnn10xmma_cudnn52implicit_gemm_dgrad_60d2aa418dd3de16f80efaf1e72234aa24kernel_get_kernel_recordEv
libcudnn_cnn_infer.so.8:_ZN17cask_plugin_cudnn10xmma_cudnn52implicit_gemm_dgrad_60ee44cc8d407823ade488b1926770de24kernel_get_kernel_recordEv
libcudnn_cnn_infer.so.8:_ZN17cask_plugin_cudnn10xmma_cudnn52implicit_gemm_dgrad_61189eb2ea36f0fe4ffb5bffa6326ad524kernel_get_kernel_recordEv
libcudnn_cnn_infer.so.8:_ZN17cask_plugin_cudnn10xmma_cudnn52implicit_gemm_dgrad_6125c55dcbb763fa295db81a4bcb42ec24kernel_get_kernel_recordEv
libcudnn_cnn_infer.so.8:_ZN17cask_plugin_cudnn10xmma_cudnn52implicit_gemm_dgrad_616d55198695c69c67d3173e38f5a47f24kernel_get_kernel_recordEv
libcudnn_cnn_infer.so.8:_ZN17cask_plugin_cudnn10xmma_cudnn52implicit_gemm_dgrad_618f128408f4d69b4689c39ad950519e24kernel_get_kernel_recordEv
libcudnn_cnn_infer.so.8:_ZN17cask_plugin_cudnn10xmma_cudnn52implicit_gemm_dgrad_61b6593ae303ac32ca6de08f2851939c24kernel_get_kernel_recordEv
libcudnn_cnn_infer.so.8:_ZN17cask_plugin_cudnn10xmma_cudnn52implicit_gemm_dgrad_61f6e559aad321d2352e806ce3e0fc8b24kernel_get_kernel_recordEv
libcudnn_cnn_infer.so.8:_ZN17cask_plugin_cudnn10xmma_cudnn52implicit_gemm_dgrad_62085c05143838d51bc4138279d5a4e224kernel_get_kernel_recordEv
libcudnn_cnn_infer.so.8:_ZN17cask_plugin_cudnn10xmma_cudnn52implicit_gemm_dgrad_621cd55f22b87fb4a6ba476269030a7424kernel_get_kernel_recordEv
libcudnn_cnn_infer.so.8:_ZN17cask_plugin_cudnn10xmma_cudnn52implicit_gemm_dgrad_62435c9c790e35eb48a58ce9cf53032624kernel_get_kernel_recordEv
libcudnn_cnn_infer.so.8:_ZN17cask_plugin_cudnn10xmma_cudnn52implicit_gemm_dgrad_6243a66a02c3b31ac9a9d4c1a996a13e24kernel_get_kernel_recordEv
libcudnn_cnn_infer.so.8:_ZN17cask_plugin_cudnn10xmma_cudnn52implicit_gemm_dgrad_628a84ac44e73916103d97229b087f6124kernel_get_kernel_recordEv
libcudnn_cnn_infer.so.8:_ZN17cask_plugin_cudnn10xmma_cudnn52implicit_gemm_dgrad_629bf2eca28d8185d89bb6ddab07784224kernel_get_kernel_recordEv
libcudnn_cnn_infer.so.8:_ZN17cask_plugin_cudnn10xmma_cudnn52implicit_gemm_dgrad_62d5cc8bfa28c6b2854fc50b8bc890d524kernel_get_kernel_recordEv
libcudnn_cnn_infer.so.8:_ZN17cask_plugin_cudnn10xmma_cudnn52implicit_gemm_dgrad_62fed7e05d51e5b88173c5c85b02ea6f24kernel_get_kernel_recordEv
libcudnn_cnn_infer.so.8:_ZN17cask_plugin_cudnn10xmma_cudnn52implicit_gemm_dgrad_631f34513c2faccb9843bc686c21348724kernel_get_kernel_recordEv
libcudnn_cnn_infer.so.8:_ZN17cask_plugin_cudnn10xmma_cudnn52implicit_gemm_dgrad_6320caccbe211b82989df758ee13880924kernel_get_kernel_recordEv
libcudnn_cnn_infer.so.8:_ZN17cask_plugin_cudnn10xmma_cudnn52implicit_gemm_dgrad_63302c9f52dc74dcffddae2c46526a6f24kernel_get_kernel_recordEv
libcudnn_cnn_infer.so.8:_ZN17cask_plugin_cudnn10xmma_cudnn52implicit_gemm_dgrad_6340df0278c0f4ef86e835047a57c07424kernel_get_kernel_recordEv
libcudnn_cnn_infer.so.8:_ZN17cask_plugin_cudnn10xmma_cudnn52implicit_gemm_dgrad_6393361460faf2019c379ab5a899a4fa24kernel_get_kernel_recordEv
libcudnn_cnn_infer.so.8:_ZN17cask_plugin_cudnn10xmma_cudnn52implicit_gemm_dgrad_63991499b047d638d7ef8ae072bfad5524kernel_get_kernel_recordEv
libcudnn_cnn_infer.so.8:_ZN17cask_plugin_cudnn10xmma_cudnn52implicit_gemm_dgrad_63acbefd2e992b20e0b5989e4cd2f66624kernel_get_kernel_recordEv
libcudnn_cnn_infer.so.8:_ZN17cask_plugin_cudnn10xmma_cudnn52implicit_gemm_dgrad_6425f3be02315e0a7c28253e22aa068f24kernel_get_kernel_recordEv
libcudnn_cnn_infer.so.8:_ZN17cask_plugin_cudnn10xmma_cudnn52implicit_gemm_dgrad_642cfef6733f08acca1d842e16496cc224kernel_get_kernel_recordEv
libcudnn_cnn_infer.so.8:_ZN17cask_plugin_cudnn10xmma_cudnn52implicit_gemm_dgrad_643da6c80c614943bbf7e7b8162d8c0c24kernel_get_kernel_recordEv
libcudnn_cnn_infer.so.8:_ZN17cask_plugin_cudnn10xmma_cudnn52implicit_gemm_dgrad_6441cc9ba090df31c8259b449140fc9024kernel_get_kernel_recordEv
libcudnn_cnn_infer.so.8:_ZN17cask_plugin_cudnn10xmma_cudnn52implicit_gemm_dgrad_64adf0796e30fa87c8cad3159773e85f24kernel_get_kernel_recordEv
libcudnn_cnn_infer.so.8:_ZN17cask_plugin_cudnn10xmma_cudnn52implicit_gemm_dgrad_64b28d94b0c82c3c5773917625070a4b24kernel_get_kernel_recordEv
libcudnn_cnn_infer.so.8:_ZN17cask_plugin_cudnn10xmma_cudnn52implicit_gemm_dgrad_64cee82819d96b088f7201b372f3aafb24kernel_get_kernel_recordEv
libcudnn_cnn_infer.so.8:_ZN17cask_plugin_cudnn10xmma_cudnn52implicit_gemm_dgrad_64d2aae6c19cc76fbdd706b88d248ed124kernel_get_kernel_recordEv
libcudnn_cnn_infer.so.8:_ZN17cask_plugin_cudnn10xmma_cudnn52implicit_gemm_dgrad_64e2f74624ad62ac3a6718a76382a85624kernel_get_kernel_recordEv
libcudnn_cnn_infer.so.8:_ZN17cask_plugin_cudnn10xmma_cudnn52implicit_gemm_dgrad_64f26614daa57f250d6fdf2a2fe693c224kernel_get_kernel_recordEv
libcudnn_cnn_infer.so.8:_ZN17cask_plugin_cudnn10xmma_cudnn52implicit_gemm_dgrad_64f6ac7c07d5138354ad1f763fe4ceb324kernel_get_kernel_recordEv
libcudnn_cnn_infer.so.8:_ZN17cask_plugin_cudnn10xmma_cudnn52implicit_gemm_dgrad_64fc885e25ff3c8602e2b5716e137e3624kernel_get_kernel_recordEv
libcudnn_cnn_infer.so.8:_ZN17cask_plugin_cudnn10xmma_cudnn52implicit_gemm_dgrad_65529dff943dac0dbdc0bc529f722d7c24kernel_get_kernel_recordEv
libcudnn_cnn_infer.so.8:_ZN17cask_plugin_cudnn10xmma_cudnn52implicit_gemm_dgrad_656539e62aa339d73bfd7f0be5d6b0aa24kernel_get_kernel_recordEv
libcudnn_cnn_infer.so.8:_ZN17cask_plugin_cudnn10xmma_cudnn52implicit_gemm_dgrad_6579f64d0655a42560299d67d6ab744c24kernel_get_kernel_recordEv
libcudnn_cnn_infer.so.8:_ZN17cask_plugin_cudnn10xmma_cudnn52implicit_gemm_dgrad_658f4c779c1708aeb7c53a493ec001b324kernel_get_kernel_recordEv
libcudnn_cnn_infer.so.8:_ZN17cask_plugin_cudnn10xmma_cudnn52implicit_gemm_dgrad_65a9339421a250cf1bd5f2e2e028151424kernel_get_kernel_recordEv
libcudnn_cnn_infer.so.8:_ZN17cask_plugin_cudnn10xmma_cudnn52implicit_gemm_dgrad_65fa930c4d821e55d096780901487c9924kernel_get_kernel_recordEv
libcudnn_cnn_infer.so.8:_ZN17cask_plugin_cudnn10xmma_cudnn52implicit_gemm_dgrad_664de65dd7202aabaed4970194e43b1524kernel_get_kernel_recordEv
libcudnn_cnn_infer.so.8:_ZN17cask_plugin_cudnn10xmma_cudnn52implicit_gemm_dgrad_667cf6de1fd0ce7cd382dc4126f2ae2124kernel_get_kernel_recordEv
libcudnn_cnn_infer.so.8:_ZN17cask_plugin_cudnn10xmma_cudnn52implicit_gemm_dgrad_667d9fa120a0a0f556fd1ba12da9723724kernel_get_kernel_recordEv
libcudnn_cnn_infer.so.8:_ZN17cask_plugin_cudnn10xmma_cudnn52implicit_gemm_dgrad_668de7c1c135b7be721be40e13de1ffd24kernel_get_kernel_recordEv
libcudnn_cnn_infer.so.8:_ZN17cask_plugin_cudnn10xmma_cudnn52implicit_gemm_dgrad_669585c472af9352c68950c4e64a8cbc24kernel_get_kernel_recordEv
libcudnn_cnn_infer.so.8:_ZN17cask_plugin_cudnn10xmma_cudnn52implicit_gemm_dgrad_669a00aa508bb1a942a56a5200b2504324kernel_get_kernel_recordEv
libcudnn_cnn_infer.so.8:_ZN17cask_plugin_cudnn10xmma_cudnn52implicit_gemm_dgrad_669bbe0f65ab43c249103942f783928524kernel_get_kernel_recordEv
libcudnn_cnn_infer.so.8:_ZN17cask_plugin_cudnn10xmma_cudnn52implicit_gemm_dgrad_66b5e01eb7c3d972ccd13ea2e98417b224kernel_get_kernel_recordEv
libcudnn_cnn_infer.so.8:_ZN17cask_plugin_cudnn10xmma_cudnn52implicit_gemm_dgrad_66da36f004926e5b15ca6a5266642d3e24kernel_get_kernel_recordEv
libcudnn_cnn_infer.so.8:_ZN17cask_plugin_cudnn10xmma_cudnn52implicit_gemm_dgrad_66e76e83a014115c6a30526331f177a424kernel_get_kernel_recordEv
libcudnn_cnn_infer.so.8:_ZN17cask_plugin_cudnn10xmma_cudnn52implicit_gemm_dgrad_672487a1f5fc1172ca9247966af033b824kernel_get_kernel_recordEv
libcudnn_cnn_infer.so.8:_ZN17cask_plugin_cudnn10xmma_cudnn52implicit_gemm_dgrad_67a82234ff70c21d486b0a39e47652ce24kernel_get_kernel_recordEv
libcudnn_cnn_infer.so.8:_ZN17cask_plugin_cudnn10xmma_cudnn52implicit_gemm_dgrad_67c826c65748e47e331ab2823ba1e9bf24kernel_get_kernel_recordEv
libcudnn_cnn_infer.so.8:_ZN17cask_plugin_cudnn10xmma_cudnn52implicit_gemm_dgrad_67cafcc671854d11655ea68bd353b82924kernel_get_kernel_recordEv
libcudnn_cnn_infer.so.8:_ZN17cask_plugin_cudnn10xmma_cudnn52implicit_gemm_dgrad_67d947984a22cf7387f4ed986c20ae3224kernel_get_kernel_recordEv
libcudnn_cnn_infer.so.8:_ZN17cask_plugin_cudnn10xmma_cudnn52implicit_gemm_dgrad_67e678567788cfb0761f754cdaabbddb24kernel_get_kernel_recordEv
libcudnn_cnn_infer.so.8:_ZN17cask_plugin_cudnn10xmma_cudnn52implicit_gemm_dgrad_67f269beef72fb44200eb579e844974e24kernel_get_kernel_recordEv
libcudnn_cnn_infer.so.8:_ZN17cask_plugin_cudnn10xmma_cudnn52implicit_gemm_dgrad_6833f13845d34a918e04b30289e723e624kernel_get_kernel_recordEv
libcudnn_cnn_infer.so.8:_ZN17cask_plugin_cudnn10xmma_cudnn52implicit_gemm_dgrad_68d45df2a6f8fa3bc1618f0beecd6d7224kernel_get_kernel_recordEv
libcudnn_cnn_infer.so.8:_ZN17cask_plugin_cudnn10xmma_cudnn52implicit_gemm_dgrad_68f9297366fad8eb9dc7d6e098bd9ee624kernel_get_kernel_recordEv
libcudnn_cnn_infer.so.8:_ZN17cask_plugin_cudnn10xmma_cudnn52implicit_gemm_dgrad_6907c9ec88288158b33d222f633d582a24kernel_get_kernel_recordEv
libcudnn_cnn_infer.so.8:_ZN17cask_plugin_cudnn10xmma_cudnn52implicit_gemm_dgrad_692e366328a498c09a3fcec60521743c24kernel_get_kernel_recordEv
libcudnn_cnn_infer.so.8:_ZN17cask_plugin_cudnn10xmma_cudnn52implicit_gemm_dgrad_6946624b6ffa21b17601633d7290f51a24kernel_get_kernel_recordEv
libcudnn_cnn_infer.so.8:_ZN17cask_plugin_cudnn10xmma_cudnn52implicit_gemm_dgrad_695a4b7774300ecdf76a810f033d24c424kernel_get_kernel_recordEv
libcudnn_cnn_infer.so.8:_ZN17cask_plugin_cudnn10xmma_cudnn52implicit_gemm_dgrad_696e57abdb2ac4469a3c3a1e4095c97024kernel_get_kernel_recordEv
libcudnn_cnn_infer.so.8:_ZN17cask_plugin_cudnn10xmma_cudnn52implicit_gemm_dgrad_69a2f5ba5ca9d04fec184fb985db92ed24kernel_get_kernel_recordEv
libcudnn_cnn_infer.so.8:_ZN17cask_plugin_cudnn10xmma_cudnn52implicit_gemm_dgrad_69cb48b2231f247cd486219f9a4f01b524kernel_get_kernel_recordEv
libcudnn_cnn_infer.so.8:_ZN17cask_plugin_cudnn10xmma_cudnn52implicit_gemm_dgrad_69f4cd8840d740f3018d482ad55d218824kernel_get_kernel_recordEv
libcudnn_cnn_infer.so.8:_ZN17cask_plugin_cudnn10xmma_cudnn52implicit_gemm_dgrad_6a2065010f42c908f536f07e2a43a07e24kernel_get_kernel_recordEv
libcudnn_cnn_infer.so.8:_ZN17cask_plugin_cudnn10xmma_cudnn52implicit_gemm_dgrad_6a2cf69eb80751c62c58a0906da9797524kernel_get_kernel_recordEv
libcudnn_cnn_infer.so.8:_ZN17cask_plugin_cudnn10xmma_cudnn52implicit_gemm_dgrad_6a2f42f393b3be9dc439249f9155831a24kernel_get_kernel_recordEv
libcudnn_cnn_infer.so.8:_ZN17cask_plugin_cudnn10xmma_cudnn52implicit_gemm_dgrad_6a41280893252a87ccae1a7ebb9a4f6d24kernel_get_kernel_recordEv
libcudnn_cnn_infer.so.8:_ZN17cask_plugin_cudnn10xmma_cudnn52implicit_gemm_dgrad_6a5582121835534ed1d9bb4b247211d024kernel_get_kernel_recordEv
libcudnn_cnn_infer.so.8:_ZN17cask_plugin_cudnn10xmma_cudnn52implicit_gemm_dgrad_6a71060a85a4b3a4147cee738666a46424kernel_get_kernel_recordEv
libcudnn_cnn_infer.so.8:_ZN17cask_plugin_cudnn10xmma_cudnn52implicit_gemm_dgrad_6a73a42013e7c0a194241763375d047424kernel_get_kernel_recordEv
libcudnn_cnn_infer.so.8:_ZN17cask_plugin_cudnn10xmma_cudnn52implicit_gemm_dgrad_6a81e67bf0d51649c00818f0a10f9b9124kernel_get_kernel_recordEv
libcudnn_cnn_infer.so.8:_ZN17cask_plugin_cudnn10xmma_cudnn52implicit_gemm_dgrad_6abcdf2f140dc9c9e690c5470a1a424524kernel_get_kernel_recordEv
libcudnn_cnn_infer.so.8:_ZN17cask_plugin_cudnn10xmma_cudnn52implicit_gemm_dgrad_6acdd3358a8f0571b21c032b79e7cf3424kernel_get_kernel_recordEv
libcudnn_cnn_infer.so.8:_ZN17cask_plugin_cudnn10xmma_cudnn52implicit_gemm_dgrad_6ad1644a05ad25f99aa5d95b71013e0b24kernel_get_kernel_recordEv
libcudnn_cnn_infer.so.8:_ZN17cask_plugin_cudnn10xmma_cudnn52implicit_gemm_dgrad_6b13414f96dd99d3bb3d92edefc5065d24kernel_get_kernel_recordEv
libcudnn_cnn_infer.so.8:_ZN17cask_plugin_cudnn10xmma_cudnn52implicit_gemm_dgrad_6b1fe90320e929b58744e233e2b31dd024kernel_get_kernel_recordEv
libcudnn_cnn_infer.so.8:_ZN17cask_plugin_cudnn10xmma_cudnn52implicit_gemm_dgrad_6b4407f938829bb7077b039b13a6daf324kernel_get_kernel_recordEv
libcudnn_cnn_infer.so.8:_ZN17cask_plugin_cudnn10xmma_cudnn52implicit_gemm_dgrad_6ba15e93153d5be759239d95e729996d24kernel_get_kernel_recordEv
libcudnn_cnn_infer.so.8:_ZN17cask_plugin_cudnn10xmma_cudnn52implicit_gemm_dgrad_6bf1a9623264038988eda072192aed8f24kernel_get_kernel_recordEv
libcudnn_cnn_infer.so.8:_ZN17cask_plugin_cudnn10xmma_cudnn52implicit_gemm_dgrad_6bf406cca183987033205bf8fc441ec724kernel_get_kernel_recordEv
libcudnn_cnn_infer.so.8:_ZN17cask_plugin_cudnn10xmma_cudnn52implicit_gemm_dgrad_6c32cee169b218f03287201e9101ebf624kernel_get_kernel_recordEv
libcudnn_cnn_infer.so.8:_ZN17cask_plugin_cudnn10xmma_cudnn52implicit_gemm_dgrad_6c34079f4e31866dbee8aadfba3ade1324kernel_get_kernel_recordEv
libcudnn_cnn_infer.so.8:_ZN17cask_plugin_cudnn10xmma_cudnn52implicit_gemm_dgrad_6c3e3f1179cede7198077039c4c096d324kernel_get_kernel_recordEv
libcudnn_cnn_infer.so.8:_ZN17cask_plugin_cudnn10xmma_cudnn52implicit_gemm_dgrad_6c9a675c931d06ca5d352cbdb9fc40a024kernel_get_kernel_recordEv
libcudnn_cnn_infer.so.8:_ZN17cask_plugin_cudnn10xmma_cudnn52implicit_gemm_dgrad_6cbb5b531fcaa3661623fb979a8c377024kernel_get_kernel_recordEv
libcudnn_cnn_infer.so.8:_ZN17cask_plugin_cudnn10xmma_cudnn52implicit_gemm_dgrad_6cc9310e54f5e1c57c8cb79803c35f4424kernel_get_kernel_recordEv
libcudnn_cnn_infer.so.8:_ZN17cask_plugin_cudnn10xmma_cudnn52implicit_gemm_dgrad_6cdf72961e20fbcd6ba7946c73f3c85a24kernel_get_kernel_recordEv
libcudnn_cnn_infer.so.8:_ZN17cask_plugin_cudnn10xmma_cudnn52implicit_gemm_dgrad_6cf040c61d26a69c9c2459e22d78da9824kernel_get_kernel_recordEv
libcudnn_cnn_infer.so.8:_ZN17cask_plugin_cudnn10xmma_cudnn52implicit_gemm_dgrad_6cf541a2bfbaa310067c1ece92319cea24kernel_get_kernel_recordEv
libcudnn_cnn_infer.so.8:_ZN17cask_plugin_cudnn10xmma_cudnn52implicit_gemm_dgrad_6d306a1af1ccb50880838bc642d6d3ad24kernel_get_kernel_recordEv
libcudnn_cnn_infer.so.8:_ZN17cask_plugin_cudnn10xmma_cudnn52implicit_gemm_dgrad_6d4560deba5d1f1e190e495fb1bc006d24kernel_get_kernel_recordEv
libcudnn_cnn_infer.so.8:_ZN17cask_plugin_cudnn10xmma_cudnn52implicit_gemm_dgrad_6d58c9bbd65762e506f994a5c93c8c1e24kernel_get_kernel_recordEv
libcudnn_cnn_infer.so.8:_ZN17cask_plugin_cudnn10xmma_cudnn52implicit_gemm_dgrad_6da2c8ec552cb663cc2de2a1c8d8c8ed24kernel_get_kernel_recordEv
libcudnn_cnn_infer.so.8:_ZN17cask_plugin_cudnn10xmma_cudnn52implicit_gemm_dgrad_6e0f69a75676b90f20c8beb503d1ca0224kernel_get_kernel_recordEv
libcudnn_cnn_infer.so.8:_ZN17cask_plugin_cudnn10xmma_cudnn52implicit_gemm_dgrad_6e2aeab69d70e9fd573f05742078787624kernel_get_kernel_recordEv
libcudnn_cnn_infer.so.8:_ZN17cask_plugin_cudnn10xmma_cudnn52implicit_gemm_dgrad_6e3fa925ff1d57158771aa63f293d5db24kernel_get_kernel_recordEv
libcudnn_cnn_infer.so.8:_ZN17cask_plugin_cudnn10xmma_cudnn52implicit_gemm_dgrad_6e57a295dad6853db8c6ffe338f3a67224kernel_get_kernel_recordEv
libcudnn_cnn_infer.so.8:_ZN17cask_plugin_cudnn10xmma_cudnn52implicit_gemm_dgrad_6e5849873c2f08c88cd33a98a98cedb324kernel_get_kernel_recordEv
libcudnn_cnn_infer.so.8:_ZN17cask_plugin_cudnn10xmma_cudnn52implicit_gemm_dgrad_6e586271a46c40d79c2ee6bf1a0ae14824kernel_get_kernel_recordEv
libcudnn_cnn_infer.so.8:_ZN17cask_plugin_cudnn10xmma_cudnn52implicit_gemm_dgrad_6e6b4b25afa3352499ddc806e78db86c24kernel_get_kernel_recordEv
libcudnn_cnn_infer.so.8:_ZN17cask_plugin_cudnn10xmma_cudnn52implicit_gemm_dgrad_6eac5a9264130b56a36307ded4afb98524kernel_get_kernel_recordEv
libcudnn_cnn_infer.so.8:_ZN17cask_plugin_cudnn10xmma_cudnn52implicit_gemm_dgrad_6eae2aa0dc1a19cc49a82e843eca578524kernel_get_kernel_recordEv
libcudnn_cnn_infer.so.8:_ZN17cask_plugin_cudnn10xmma_cudnn52implicit_gemm_dgrad_6f9c3586f3e5fde0e3d9e6238b5d5a7a24kernel_get_kernel_recordEv
libcudnn_cnn_infer.so.8:_ZN17cask_plugin_cudnn10xmma_cudnn52implicit_gemm_dgrad_70275a4ed03e62fa51e873582270f90124kernel_get_kernel_recordEv
libcudnn_cnn_infer.so.8:_ZN17cask_plugin_cudnn10xmma_cudnn52implicit_gemm_dgrad_7067a4266ad49e49a319163d1dbdbbfa24kernel_get_kernel_recordEv
libcudnn_cnn_infer.so.8:_ZN17cask_plugin_cudnn10xmma_cudnn52implicit_gemm_dgrad_7074671eb95861633815fe6c421ffe8a24kernel_get_kernel_recordEv
libcudnn_cnn_infer.so.8:_ZN17cask_plugin_cudnn10xmma_cudnn52implicit_gemm_dgrad_7088f915d4f52f7514805e41c8d3d47724kernel_get_kernel_recordEv
libcudnn_cnn_infer.so.8:_ZN17cask_plugin_cudnn10xmma_cudnn52implicit_gemm_dgrad_70a57c11e032a71acaa06917f9cd6a5e24kernel_get_kernel_recordEv
libcudnn_cnn_infer.so.8:_ZN17cask_plugin_cudnn10xmma_cudnn52implicit_gemm_dgrad_70c6b2d9af59ad3aad8fdd7198a15bfc24kernel_get_kernel_recordEv
libcudnn_cnn_infer.so.8:_ZN17cask_plugin_cudnn10xmma_cudnn52implicit_gemm_dgrad_70e2084c0096ae4c61691cec2fa1a34724kernel_get_kernel_recordEv
libcudnn_cnn_infer.so.8:_ZN17cask_plugin_cudnn10xmma_cudnn52implicit_gemm_dgrad_70eb9c1615db544a2aeff0b6ccc0986424kernel_get_kernel_recordEv
libcudnn_cnn_infer.so.8:_ZN17cask_plugin_cudnn10xmma_cudnn52implicit_gemm_dgrad_711062c67d1e0b252ecad682612e187624kernel_get_kernel_recordEv
libcudnn_cnn_infer.so.8:_ZN17cask_plugin_cudnn10xmma_cudnn52implicit_gemm_dgrad_718d8b9990381a1e76c7a67282d7133224kernel_get_kernel_recordEv
libcudnn_cnn_infer.so.8:_ZN17cask_plugin_cudnn10xmma_cudnn52implicit_gemm_dgrad_71bdb0243a36b6f19414941455ef2c5524kernel_get_kernel_recordEv
libcudnn_cnn_infer.so.8:_ZN17cask_plugin_cudnn10xmma_cudnn52implicit_gemm_dgrad_71c24d46028efb9f740128550824487e24kernel_get_kernel_recordEv
libcudnn_cnn_infer.so.8:_ZN17cask_plugin_cudnn10xmma_cudnn52implicit_gemm_dgrad_71c903d8a9972d967f90f8e432a47e1224kernel_get_kernel_recordEv
libcudnn_cnn_infer.so.8:_ZN17cask_plugin_cudnn10xmma_cudnn52implicit_gemm_dgrad_71dd11fbd4e0ceb3b667c6ef0a6fab4724kernel_get_kernel_recordEv
libcudnn_cnn_infer.so.8:_ZN17cask_plugin_cudnn10xmma_cudnn52implicit_gemm_dgrad_72b1fb6288459aa623cd54b02649908f24kernel_get_kernel_recordEv
libcudnn_cnn_infer.so.8:_ZN17cask_plugin_cudnn10xmma_cudnn52implicit_gemm_dgrad_72c53b5ccd2ee8f33731f4d0b5b4730c24kernel_get_kernel_recordEv
libcudnn_cnn_infer.so.8:_ZN17cask_plugin_cudnn10xmma_cudnn52implicit_gemm_dgrad_72dce09680064fd738c7d6ff3466231824kernel_get_kernel_recordEv
libcudnn_cnn_infer.so.8:_ZN17cask_plugin_cudnn10xmma_cudnn52implicit_gemm_dgrad_72e6a24133043c3d7633be75d08118fd24kernel_get_kernel_recordEv
libcudnn_cnn_infer.so.8:_ZN17cask_plugin_cudnn10xmma_cudnn52implicit_gemm_dgrad_72eb046075c5d55c96201ee413af849c24kernel_get_kernel_recordEv
libcudnn_cnn_infer.so.8:_ZN17cask_plugin_cudnn10xmma_cudnn52implicit_gemm_dgrad_72f36b27a2818097ead2954c0e68b04024kernel_get_kernel_recordEv
libcudnn_cnn_infer.so.8:_ZN17cask_plugin_cudnn10xmma_cudnn52implicit_gemm_dgrad_7340d96dcfd64317863c0e059e38709124kernel_get_kernel_recordEv
libcudnn_cnn_infer.so.8:_ZN17cask_plugin_cudnn10xmma_cudnn52implicit_gemm_dgrad_737e5c3ab1290e7be20b4d56bc8597c324kernel_get_kernel_recordEv
libcudnn_cnn_infer.so.8:_ZN17cask_plugin_cudnn10xmma_cudnn52implicit_gemm_dgrad_73fcd9f5025c2586a6a5472054000d0f24kernel_get_kernel_recordEv
libcudnn_cnn_infer.so.8:_ZN17cask_plugin_cudnn10xmma_cudnn52implicit_gemm_dgrad_7401066d93e87ffdc1d40b0cd4483ff124kernel_get_kernel_recordEv
libcudnn_cnn_infer.so.8:_ZN17cask_plugin_cudnn10xmma_cudnn52implicit_gemm_dgrad_740ea7bd7a2ba4d6bec340c6984da19e24kernel_get_kernel_recordEv
libcudnn_cnn_infer.so.8:_ZN17cask_plugin_cudnn10xmma_cudnn52implicit_gemm_dgrad_7439e54ec06ff2b9ff5747386fcda9dc24kernel_get_kernel_recordEv
libcudnn_cnn_infer.so.8:_ZN17cask_plugin_cudnn10xmma_cudnn52implicit_gemm_dgrad_743e2c4e185e10f3261e6aa743a8983924kernel_get_kernel_recordEv
libcudnn_cnn_infer.so.8:_ZN17cask_plugin_cudnn10xmma_cudnn52implicit_gemm_dgrad_7455eed41e645ae9c9f16f310b4cb29124kernel_get_kernel_recordEv
libcudnn_cnn_infer.so.8:_ZN17cask_plugin_cudnn10xmma_cudnn52implicit_gemm_dgrad_746aa653e77862b62cecb769e21e5b8324kernel_get_kernel_recordEv
libcudnn_cnn_infer.so.8:_ZN17cask_plugin_cudnn10xmma_cudnn52implicit_gemm_dgrad_7589093bf9d7ff9a0e271e9f53f1621924kernel_get_kernel_recordEv
libcudnn_cnn_infer.so.8:_ZN17cask_plugin_cudnn10xmma_cudnn52implicit_gemm_dgrad_75c71a16ed89f26d5a2dae0ea2df973c24kernel_get_kernel_recordEv
libcudnn_cnn_infer.so.8:_ZN17cask_plugin_cudnn10xmma_cudnn52implicit_gemm_dgrad_75d209fca5477e1f04f4796faf9ed70524kernel_get_kernel_recordEv
libcudnn_cnn_infer.so.8:_ZN17cask_plugin_cudnn10xmma_cudnn52implicit_gemm_dgrad_75da8859cfbd839feaffbbb4d99e4f5024kernel_get_kernel_recordEv
libcudnn_cnn_infer.so.8:_ZN17cask_plugin_cudnn10xmma_cudnn52implicit_gemm_dgrad_75f3c2c1f38d5def337a8f4cb040d57124kernel_get_kernel_recordEv
libcudnn_cnn_infer.so.8:_ZN17cask_plugin_cudnn10xmma_cudnn52implicit_gemm_dgrad_76169596699462df9506829fe49d556a24kernel_get_kernel_recordEv
libcudnn_cnn_infer.so.8:_ZN17cask_plugin_cudnn10xmma_cudnn52implicit_gemm_dgrad_7618c74373cbdf253d31dca0900f74de24kernel_get_kernel_recordEv
libcudnn_cnn_infer.so.8:_ZN17cask_plugin_cudnn10xmma_cudnn52implicit_gemm_dgrad_76a463f0a8ff42b1ca76955971508f6224kernel_get_kernel_recordEv
libcudnn_cnn_infer.so.8:_ZN17cask_plugin_cudnn10xmma_cudnn52implicit_gemm_dgrad_773adb6a6ae1ad5e93e70d6ae2f4589324kernel_get_kernel_recordEv
libcudnn_cnn_infer.so.8:_ZN17cask_plugin_cudnn10xmma_cudnn52implicit_gemm_dgrad_7754975e44c0437eb93c22267000d37324kernel_get_kernel_recordEv
libcudnn_cnn_infer.so.8:_ZN17cask_plugin_cudnn10xmma_cudnn52implicit_gemm_dgrad_77849f7a93d2b3ae3f2a408a4a0ac46724kernel_get_kernel_recordEv
libcudnn_cnn_infer.so.8:_ZN17cask_plugin_cudnn10xmma_cudnn52implicit_gemm_dgrad_77b6724ec5bf66127fba8190dcd3574024kernel_get_kernel_recordEv
libcudnn_cnn_infer.so.8:_ZN17cask_plugin_cudnn10xmma_cudnn52implicit_gemm_dgrad_77bff3a3f90d81973eb9f04be1e2fe9c24kernel_get_kernel_recordEv
libcudnn_cnn_infer.so.8:_ZN17cask_plugin_cudnn10xmma_cudnn52implicit_gemm_dgrad_77f887bdf4d1ee9d687d5f44f6492abe24kernel_get_kernel_recordEv
libcudnn_cnn_infer.so.8:_ZN17cask_plugin_cudnn10xmma_cudnn52implicit_gemm_dgrad_77fa129e24723580336f3cae95635fce24kernel_get_kernel_recordEv
libcudnn_cnn_infer.so.8:_ZN17cask_plugin_cudnn10xmma_cudnn52implicit_gemm_dgrad_782307804153e201a4c69ded06f4fd3224kernel_get_kernel_recordEv
libcudnn_cnn_infer.so.8:_ZN17cask_plugin_cudnn10xmma_cudnn52implicit_gemm_dgrad_7828a99637012eea7c64eefa7a9b94d424kernel_get_kernel_recordEv
libcudnn_cnn_infer.so.8:_ZN17cask_plugin_cudnn10xmma_cudnn52implicit_gemm_dgrad_783064fea90831b3b20084796668a61b24kernel_get_kernel_recordEv
libcudnn_cnn_infer.so.8:_ZN17cask_plugin_cudnn10xmma_cudnn52implicit_gemm_dgrad_786cd69acb4fcb3f65a531602982826124kernel_get_kernel_recordEv
libcudnn_cnn_infer.so.8:_ZN17cask_plugin_cudnn10xmma_cudnn52implicit_gemm_dgrad_78793ca74a954d63c318e8c458c0d75324kernel_get_kernel_recordEv
libcudnn_cnn_infer.so.8:_ZN17cask_plugin_cudnn10xmma_cudnn52implicit_gemm_dgrad_7889f68b5f2c9583a0d0d877c3b3a04624kernel_get_kernel_recordEv
libcudnn_cnn_infer.so.8:_ZN17cask_plugin_cudnn10xmma_cudnn52implicit_gemm_dgrad_789c55592da64fa46d510906e99687bd24kernel_get_kernel_recordEv
libcudnn_cnn_infer.so.8:_ZN17cask_plugin_cudnn10xmma_cudnn52implicit_gemm_dgrad_78b2635e844fcf38b6a77064327d50a124kernel_get_kernel_recordEv
libcudnn_cnn_infer.so.8:_ZN17cask_plugin_cudnn10xmma_cudnn52implicit_gemm_dgrad_793c08d3cd2c5314438aea1822f5df9224kernel_get_kernel_recordEv
libcudnn_cnn_infer.so.8:_ZN17cask_plugin_cudnn10xmma_cudnn52implicit_gemm_dgrad_797652c65b8c574a78d98f90b1e29b6724kernel_get_kernel_recordEv
libcudnn_cnn_infer.so.8:_ZN17cask_plugin_cudnn10xmma_cudnn52implicit_gemm_dgrad_79b4900962d572d478aea34a484a568224kernel_get_kernel_recordEv
libcudnn_cnn_infer.so.8:_ZN17cask_plugin_cudnn10xmma_cudnn52implicit_gemm_dgrad_79e35b1517d9c57a24872ace81942d8a24kernel_get_kernel_recordEv
libcudnn_cnn_infer.so.8:_ZN17cask_plugin_cudnn10xmma_cudnn52implicit_gemm_dgrad_7a8e3a2fa2ee8ce8d0f8ceebb2aedb6724kernel_get_kernel_recordEv
libcudnn_cnn_infer.so.8:_ZN17cask_plugin_cudnn10xmma_cudnn52implicit_gemm_dgrad_7aa671c5889c08f8d45a5235a05de4e024kernel_get_kernel_recordEv
libcudnn_cnn_infer.so.8:_ZN17cask_plugin_cudnn10xmma_cudnn52implicit_gemm_dgrad_7abb647f9bd5ba68110049e0763e807f24kernel_get_kernel_recordEv
libcudnn_cnn_infer.so.8:_ZN17cask_plugin_cudnn10xmma_cudnn52implicit_gemm_dgrad_7abb97943d9c528f174ffcc0b0a25b3e24kernel_get_kernel_recordEv
libcudnn_cnn_infer.so.8:_ZN17cask_plugin_cudnn10xmma_cudnn52implicit_gemm_dgrad_7ae73648fc950020220a929c79c2434024kernel_get_kernel_recordEv
libcudnn_cnn_infer.so.8:_ZN17cask_plugin_cudnn10xmma_cudnn52implicit_gemm_dgrad_7af6da6de182b068be1a3adb959d8f3c24kernel_get_kernel_recordEv
libcudnn_cnn_infer.so.8:_ZN17cask_plugin_cudnn10xmma_cudnn52implicit_gemm_dgrad_7be518187e4d07ada854b6e9cb3c0fb524kernel_get_kernel_recordEv
libcudnn_cnn_infer.so.8:_ZN17cask_plugin_cudnn10xmma_cudnn52implicit_gemm_dgrad_7bf891dbba46cf766953dbfb3f6ec2df24kernel_get_kernel_recordEv
libcudnn_cnn_infer.so.8:_ZN17cask_plugin_cudnn10xmma_cudnn52implicit_gemm_dgrad_7c05e1776d8900a18305d1965c8cf5ac24kernel_get_kernel_recordEv
libcudnn_cnn_infer.so.8:_ZN17cask_plugin_cudnn10xmma_cudnn52implicit_gemm_dgrad_7c115d52452ce458cd3cbe04f5c26aec24kernel_get_kernel_recordEv
libcudnn_cnn_infer.so.8:_ZN17cask_plugin_cudnn10xmma_cudnn52implicit_gemm_dgrad_7ccf6bb2332eea4d12c824a8a8ad1d4c24kernel_get_kernel_recordEv
libcudnn_cnn_infer.so.8:_ZN17cask_plugin_cudnn10xmma_cudnn52implicit_gemm_dgrad_7d0a852a2479f48930d1445367552ce524kernel_get_kernel_recordEv
libcudnn_cnn_infer.so.8:_ZN17cask_plugin_cudnn10xmma_cudnn52implicit_gemm_dgrad_7d461b4ced3191205b4206654f2b6dbc24kernel_get_kernel_recordEv
libcudnn_cnn_infer.so.8:_ZN17cask_plugin_cudnn10xmma_cudnn52implicit_gemm_dgrad_7d837b5f4ae0f3ffc081561c487da0da24kernel_get_kernel_recordEv
libcudnn_cnn_infer.so.8:_ZN17cask_plugin_cudnn10xmma_cudnn52implicit_gemm_dgrad_7d9330468998586037ef32aae4a9abc324kernel_get_kernel_recordEv
libcudnn_cnn_infer.so.8:_ZN17cask_plugin_cudnn10xmma_cudnn52implicit_gemm_dgrad_7d97aba417db06ae7dc5a231da1f951f24kernel_get_kernel_recordEv
libcudnn_cnn_infer.so.8:_ZN17cask_plugin_cudnn10xmma_cudnn52implicit_gemm_dgrad_7da8d5c858e7455059cee10cc7f1a2ee24kernel_get_kernel_recordEv
libcudnn_cnn_infer.so.8:_ZN17cask_plugin_cudnn10xmma_cudnn52implicit_gemm_dgrad_7dd8a81cf5ee42bdd21c9f2cacf37cd024kernel_get_kernel_recordEv
libcudnn_cnn_infer.so.8:_ZN17cask_plugin_cudnn10xmma_cudnn52implicit_gemm_dgrad_7dda91e05754b9bce8435f11fa7e5bbb24kernel_get_kernel_recordEv
libcudnn_cnn_infer.so.8:_ZN17cask_plugin_cudnn10xmma_cudnn52implicit_gemm_dgrad_7ddc2bb0554563310a2556c742060b2b24kernel_get_kernel_recordEv
libcudnn_cnn_infer.so.8:_ZN17cask_plugin_cudnn10xmma_cudnn52implicit_gemm_dgrad_7de24c5b6f3f21ab77a5bc1101b74ae124kernel_get_kernel_recordEv
libcudnn_cnn_infer.so.8:_ZN17cask_plugin_cudnn10xmma_cudnn52implicit_gemm_dgrad_7df0f0d0ccfa51c964e8b69761559f8c24kernel_get_kernel_recordEv
libcudnn_cnn_infer.so.8:_ZN17cask_plugin_cudnn10xmma_cudnn52implicit_gemm_dgrad_7e2bb9d64cbb4229b0995e65caed407424kernel_get_kernel_recordEv
libcudnn_cnn_infer.so.8:_ZN17cask_plugin_cudnn10xmma_cudnn52implicit_gemm_dgrad_7e313c2e1ce62429ef71c13e9304b24924kernel_get_kernel_recordEv
libcudnn_cnn_infer.so.8:_ZN17cask_plugin_cudnn10xmma_cudnn52implicit_gemm_dgrad_7e5e520618cb318ad1e277fff96966f624kernel_get_kernel_recordEv
libcudnn_cnn_infer.so.8:_ZN17cask_plugin_cudnn10xmma_cudnn52implicit_gemm_dgrad_7e724276189ee369d5920fd8d7f4079224kernel_get_kernel_recordEv
libcudnn_cnn_infer.so.8:_ZN17cask_plugin_cudnn10xmma_cudnn52implicit_gemm_dgrad_7e9d7e9a1ac6aa998a74614a0a087f0524kernel_get_kernel_recordEv
libcudnn_cnn_infer.so.8:_ZN17cask_plugin_cudnn10xmma_cudnn52implicit_gemm_dgrad_7ed22fc9727724db5b9e4b0254c48b1224kernel_get_kernel_recordEv
libcudnn_cnn_infer.so.8:_ZN17cask_plugin_cudnn10xmma_cudnn52implicit_gemm_dgrad_7f0fc86542fb2f935a6b40858542121d24kernel_get_kernel_recordEv
libcudnn_cnn_infer.so.8:_ZN17cask_plugin_cudnn10xmma_cudnn52implicit_gemm_dgrad_7f89ae26d0c1896d89e575be14ba6b7624kernel_get_kernel_recordEv
libcudnn_cnn_infer.so.8:_ZN17cask_plugin_cudnn10xmma_cudnn52implicit_gemm_dgrad_7f9e1d79e6bf68e23121da267a1525e424kernel_get_kernel_recordEv
libcudnn_cnn_infer.so.8:_ZN17cask_plugin_cudnn10xmma_cudnn52implicit_gemm_dgrad_800f29890051b34eb03ba774e4fd7a3624kernel_get_kernel_recordEv
libcudnn_cnn_infer.so.8:_ZN17cask_plugin_cudnn10xmma_cudnn52implicit_gemm_dgrad_804243fa9387653872589ffd616d35ea24kernel_get_kernel_recordEv
libcudnn_cnn_infer.so.8:_ZN17cask_plugin_cudnn10xmma_cudnn52implicit_gemm_dgrad_805a51df569754b418230d293c3f0dfb24kernel_get_kernel_recordEv
libcudnn_cnn_infer.so.8:_ZN17cask_plugin_cudnn10xmma_cudnn52implicit_gemm_dgrad_8062ba71dd3833907db080c3d6d4aaa624kernel_get_kernel_recordEv
libcudnn_cnn_infer.so.8:_ZN17cask_plugin_cudnn10xmma_cudnn52implicit_gemm_dgrad_80a5438c8e2363a77f42f0d9b62bd64524kernel_get_kernel_recordEv
libcudnn_cnn_infer.so.8:_ZN17cask_plugin_cudnn10xmma_cudnn52implicit_gemm_dgrad_80b1822f78f9ddc4561a73015f5161be24kernel_get_kernel_recordEv
libcudnn_cnn_infer.so.8:_ZN17cask_plugin_cudnn10xmma_cudnn52implicit_gemm_dgrad_80cd6a8fe812fe8321530a49a2f9a8c324kernel_get_kernel_recordEv
libcudnn_cnn_infer.so.8:_ZN17cask_plugin_cudnn10xmma_cudnn52implicit_gemm_dgrad_811022508730b569b294403d7bd2aae424kernel_get_kernel_recordEv
libcudnn_cnn_infer.so.8:_ZN17cask_plugin_cudnn10xmma_cudnn52implicit_gemm_dgrad_811a873b6b3a1591e9b40985b141ca8a24kernel_get_kernel_recordEv
libcudnn_cnn_infer.so.8:_ZN17cask_plugin_cudnn10xmma_cudnn52implicit_gemm_dgrad_81231538803e1928d53b3e072b3825e724kernel_get_kernel_recordEv
libcudnn_cnn_infer.so.8:_ZN17cask_plugin_cudnn10xmma_cudnn52implicit_gemm_dgrad_814e1d89fd974d0d0cd9194160d74be724kernel_get_kernel_recordEv
libcudnn_cnn_infer.so.8:_ZN17cask_plugin_cudnn10xmma_cudnn52implicit_gemm_dgrad_8168a490cda5e33366f878111665d87324kernel_get_kernel_recordEv
libcudnn_cnn_infer.so.8:_ZN17cask_plugin_cudnn10xmma_cudnn52implicit_gemm_dgrad_81c48cdead839531ff10db876c955f7924kernel_get_kernel_recordEv
libcudnn_cnn_infer.so.8:_ZN17cask_plugin_cudnn10xmma_cudnn52implicit_gemm_dgrad_81d72ef1ecce281b75a66fabccc7c0d824kernel_get_kernel_recordEv
libcudnn_cnn_infer.so.8:_ZN17cask_plugin_cudnn10xmma_cudnn52implicit_gemm_dgrad_8229f5a6ef0f926f9e24605f4d9a5eff24kernel_get_kernel_recordEv
libcudnn_cnn_infer.so.8:_ZN17cask_plugin_cudnn10xmma_cudnn52implicit_gemm_dgrad_822aaaeab5741d6604aba211f5b47b7924kernel_get_kernel_recordEv
libcudnn_cnn_infer.so.8:_ZN17cask_plugin_cudnn10xmma_cudnn52implicit_gemm_dgrad_822d0216a985c9a8e71151d6bdc0a55c24kernel_get_kernel_recordEv
libcudnn_cnn_infer.so.8:_ZN17cask_plugin_cudnn10xmma_cudnn52implicit_gemm_dgrad_82307eeea8539142f377405200bda63b24kernel_get_kernel_recordEv
libcudnn_cnn_infer.so.8:_ZN17cask_plugin_cudnn10xmma_cudnn52implicit_gemm_dgrad_82380c766d9476b827dd7c1a4ef8beee24kernel_get_kernel_recordEv
libcudnn_cnn_infer.so.8:_ZN17cask_plugin_cudnn10xmma_cudnn52implicit_gemm_dgrad_82447d98dc4b6dd62cc5f710d871725924kernel_get_kernel_recordEv
libcudnn_cnn_infer.so.8:_ZN17cask_plugin_cudnn10xmma_cudnn52implicit_gemm_dgrad_82cbaef334569be7f12c036a5eb9a21524kernel_get_kernel_recordEv
libcudnn_cnn_infer.so.8:_ZN17cask_plugin_cudnn10xmma_cudnn52implicit_gemm_dgrad_82fe452bc19e42d25c747ed4960324a324kernel_get_kernel_recordEv
libcudnn_cnn_infer.so.8:_ZN17cask_plugin_cudnn10xmma_cudnn52implicit_gemm_dgrad_830317552bc00d8f4b31e506c6a0d27124kernel_get_kernel_recordEv
libcudnn_cnn_infer.so.8:_ZN17cask_plugin_cudnn10xmma_cudnn52implicit_gemm_dgrad_832c67f3b3faf48bd02e475c4dd55d7c24kernel_get_kernel_recordEv
libcudnn_cnn_infer.so.8:_ZN17cask_plugin_cudnn10xmma_cudnn52implicit_gemm_dgrad_8342bbe2b5e5685b2acdaf463dc6fb8124kernel_get_kernel_recordEv
libcudnn_cnn_infer.so.8:_ZN17cask_plugin_cudnn10xmma_cudnn52implicit_gemm_dgrad_837126ed366cd038988300ee103bd87024kernel_get_kernel_recordEv
libcudnn_cnn_infer.so.8:_ZN17cask_plugin_cudnn10xmma_cudnn52implicit_gemm_dgrad_83b6dba8faaabb1beefae552a50f785724kernel_get_kernel_recordEv
libcudnn_cnn_infer.so.8:_ZN17cask_plugin_cudnn10xmma_cudnn52implicit_gemm_dgrad_83c18f68f83145ad7e992d29377f16aa24kernel_get_kernel_recordEv
libcudnn_cnn_infer.so.8:_ZN17cask_plugin_cudnn10xmma_cudnn52implicit_gemm_dgrad_83d8451fde2f05308a72fea21a2b16bf24kernel_get_kernel_recordEv
libcudnn_cnn_infer.so.8:_ZN17cask_plugin_cudnn10xmma_cudnn52implicit_gemm_dgrad_83dbe0f65e68f5930f45e9df777b476124kernel_get_kernel_recordEv
libcudnn_cnn_infer.so.8:_ZN17cask_plugin_cudnn10xmma_cudnn52implicit_gemm_dgrad_840474b1fda8efddbc67275a635b146424kernel_get_kernel_recordEv
libcudnn_cnn_infer.so.8:_ZN17cask_plugin_cudnn10xmma_cudnn52implicit_gemm_dgrad_843419ad1942b4d90486d135c1bdce4024kernel_get_kernel_recordEv
libcudnn_cnn_infer.so.8:_ZN17cask_plugin_cudnn10xmma_cudnn52implicit_gemm_dgrad_843803bb45388cc329a53d58cd1525e424kernel_get_kernel_recordEv
libcudnn_cnn_infer.so.8:_ZN17cask_plugin_cudnn10xmma_cudnn52implicit_gemm_dgrad_844893a6f8fbe4b5c6495ae795bd864424kernel_get_kernel_recordEv
libcudnn_cnn_infer.so.8:_ZN17cask_plugin_cudnn10xmma_cudnn52implicit_gemm_dgrad_84536a27a7efc04019431bb61e33d4ac24kernel_get_kernel_recordEv
libcudnn_cnn_infer.so.8:_ZN17cask_plugin_cudnn10xmma_cudnn52implicit_gemm_dgrad_84709a93742165131afe40ff35035c6224kernel_get_kernel_recordEv
libcudnn_cnn_infer.so.8:_ZN17cask_plugin_cudnn10xmma_cudnn52implicit_gemm_dgrad_84cb9836b7a867733e98c79a182e988c24kernel_get_kernel_recordEv
libcudnn_cnn_infer.so.8:_ZN17cask_plugin_cudnn10xmma_cudnn52implicit_gemm_dgrad_84e39a331046c2e7aa011a372ef2995524kernel_get_kernel_recordEv
libcudnn_cnn_infer.so.8:_ZN17cask_plugin_cudnn10xmma_cudnn52implicit_gemm_dgrad_85775f200849a55a4ba381a08b974e9e24kernel_get_kernel_recordEv
libcudnn_cnn_infer.so.8:_ZN17cask_plugin_cudnn10xmma_cudnn52implicit_gemm_dgrad_85a0ac9fa9f25393de44032a87fa319a24kernel_get_kernel_recordEv
libcudnn_cnn_infer.so.8:_ZN17cask_plugin_cudnn10xmma_cudnn52implicit_gemm_dgrad_8671517a593144438d84739d4d4f7ceb24kernel_get_kernel_recordEv
libcudnn_cnn_infer.so.8:_ZN17cask_plugin_cudnn10xmma_cudnn52implicit_gemm_dgrad_86fccfda78698bafd4342140336a287a24kernel_get_kernel_recordEv
libcudnn_cnn_infer.so.8:_ZN17cask_plugin_cudnn10xmma_cudnn52implicit_gemm_dgrad_8706f74cfc0db65bd6529a4561232ad224kernel_get_kernel_recordEv
libcudnn_cnn_infer.so.8:_ZN17cask_plugin_cudnn10xmma_cudnn52implicit_gemm_dgrad_870dbac88edb7444a013067c68867b7e24kernel_get_kernel_recordEv
libcudnn_cnn_infer.so.8:_ZN17cask_plugin_cudnn10xmma_cudnn52implicit_gemm_dgrad_8725a2468e41d6c9a6908e2ad2bce68824kernel_get_kernel_recordEv
libcudnn_cnn_infer.so.8:_ZN17cask_plugin_cudnn10xmma_cudnn52implicit_gemm_dgrad_87261aacdfed73075db4bb0f6ef855fc24kernel_get_kernel_recordEv
libcudnn_cnn_infer.so.8:_ZN17cask_plugin_cudnn10xmma_cudnn52implicit_gemm_dgrad_875436d1baec24a0a696bd9008cd157024kernel_get_kernel_recordEv
libcudnn_cnn_infer.so.8:_ZN17cask_plugin_cudnn10xmma_cudnn52implicit_gemm_dgrad_876acd921d7b37787ba967b4b49733da24kernel_get_kernel_recordEv
libcudnn_cnn_infer.so.8:_ZN17cask_plugin_cudnn10xmma_cudnn52implicit_gemm_dgrad_8794e667f73cfce0c5b42b8febf535f924kernel_get_kernel_recordEv
libcudnn_cnn_infer.so.8:_ZN17cask_plugin_cudnn10xmma_cudnn52implicit_gemm_dgrad_87b2303f14fb62aca614ee88440c944224kernel_get_kernel_recordEv
libcudnn_cnn_infer.so.8:_ZN17cask_plugin_cudnn10xmma_cudnn52implicit_gemm_dgrad_87c6a7f509c8076364d19f6f18648b0e24kernel_get_kernel_recordEv
libcudnn_cnn_infer.so.8:_ZN17cask_plugin_cudnn10xmma_cudnn52implicit_gemm_dgrad_87e6eb8cbf45b776d31e5cef902c2aa124kernel_get_kernel_recordEv
libcudnn_cnn_infer.so.8:_ZN17cask_plugin_cudnn10xmma_cudnn52implicit_gemm_dgrad_87fa6a483b9509638c344db557c2a75724kernel_get_kernel_recordEv
libcudnn_cnn_infer.so.8:_ZN17cask_plugin_cudnn10xmma_cudnn52implicit_gemm_dgrad_87fb40f3e00effe87253c1306f98f71c24kernel_get_kernel_recordEv
libcudnn_cnn_infer.so.8:_ZN17cask_plugin_cudnn10xmma_cudnn52implicit_gemm_dgrad_88137c110e3ba920f54679bf32ea862524kernel_get_kernel_recordEv
libcudnn_cnn_infer.so.8:_ZN17cask_plugin_cudnn10xmma_cudnn52implicit_gemm_dgrad_8820376c8129d19404f3999134e0ea3624kernel_get_kernel_recordEv
libcudnn_cnn_infer.so.8:_ZN17cask_plugin_cudnn10xmma_cudnn52implicit_gemm_dgrad_884d2522775c84e93ed69ebc2c756dc524kernel_get_kernel_recordEv
libcudnn_cnn_infer.so.8:_ZN17cask_plugin_cudnn10xmma_cudnn52implicit_gemm_dgrad_88576da5f1819460069fa6a1a9a7f2f824kernel_get_kernel_recordEv
libcudnn_cnn_infer.so.8:_ZN17cask_plugin_cudnn10xmma_cudnn52implicit_gemm_dgrad_887b5d8b252dd637f4f7a048df45a1f024kernel_get_kernel_recordEv
libcudnn_cnn_infer.so.8:_ZN17cask_plugin_cudnn10xmma_cudnn52implicit_gemm_dgrad_8887825e5cf33d032f53ac9b70b9d80124kernel_get_kernel_recordEv
libcudnn_cnn_infer.so.8:_ZN17cask_plugin_cudnn10xmma_cudnn52implicit_gemm_dgrad_8887bda4104b64a8e8d4283017352af024kernel_get_kernel_recordEv
libcudnn_cnn_infer.so.8:_ZN17cask_plugin_cudnn10xmma_cudnn52implicit_gemm_dgrad_888806a0e3f71d6e4e21aaa7cfe70dc924kernel_get_kernel_recordEv
libcudnn_cnn_infer.so.8:_ZN17cask_plugin_cudnn10xmma_cudnn52implicit_gemm_dgrad_889dc60af17502428b6cc84fcb61193e24kernel_get_kernel_recordEv
libcudnn_cnn_infer.so.8:_ZN17cask_plugin_cudnn10xmma_cudnn52implicit_gemm_dgrad_8938076a552d2d57eea8a48278d392fb24kernel_get_kernel_recordEv
libcudnn_cnn_infer.so.8:_ZN17cask_plugin_cudnn10xmma_cudnn52implicit_gemm_dgrad_8955aa2470a570b9aaaa2501de066b3a24kernel_get_kernel_recordEv
libcudnn_cnn_infer.so.8:_ZN17cask_plugin_cudnn10xmma_cudnn52implicit_gemm_dgrad_897b6a12604ee2955b2db1d32109dc9624kernel_get_kernel_recordEv
libcudnn_cnn_infer.so.8:_ZN17cask_plugin_cudnn10xmma_cudnn52implicit_gemm_dgrad_898bf6dc3383e48e3bde2a9a128db9bd24kernel_get_kernel_recordEv
libcudnn_cnn_infer.so.8:_ZN17cask_plugin_cudnn10xmma_cudnn52implicit_gemm_dgrad_89a88d20c347f89783c81e1829906a9724kernel_get_kernel_recordEv
libcudnn_cnn_infer.so.8:_ZN17cask_plugin_cudnn10xmma_cudnn52implicit_gemm_dgrad_89bbf3a9be1e13c9828153395bab9da324kernel_get_kernel_recordEv
libcudnn_cnn_infer.so.8:_ZN17cask_plugin_cudnn10xmma_cudnn52implicit_gemm_dgrad_8a0309baee1a522723a7424d9401b78924kernel_get_kernel_recordEv
libcudnn_cnn_infer.so.8:_ZN17cask_plugin_cudnn10xmma_cudnn52implicit_gemm_dgrad_8a6209847afdcd02a82615dfd69e5fbc24kernel_get_kernel_recordEv
libcudnn_cnn_infer.so.8:_ZN17cask_plugin_cudnn10xmma_cudnn52implicit_gemm_dgrad_8a73b8ecb7d5eb75dc23198bcbdff9b624kernel_get_kernel_recordEv
libcudnn_cnn_infer.so.8:_ZN17cask_plugin_cudnn10xmma_cudnn52implicit_gemm_dgrad_8a86cf48b5976e5d495bafa00c989a6324kernel_get_kernel_recordEv
libcudnn_cnn_infer.so.8:_ZN17cask_plugin_cudnn10xmma_cudnn52implicit_gemm_dgrad_8a8b81e7c827923210c733278027d9cd24kernel_get_kernel_recordEv
libcudnn_cnn_infer.so.8:_ZN17cask_plugin_cudnn10xmma_cudnn52implicit_gemm_dgrad_8ab04751c6f14c10b8486c8c0bfac67c24kernel_get_kernel_recordEv
libcudnn_cnn_infer.so.8:_ZN17cask_plugin_cudnn10xmma_cudnn52implicit_gemm_dgrad_8ae59b61bf8df29b82ca012102442cf624kernel_get_kernel_recordEv
libcudnn_cnn_infer.so.8:_ZN17cask_plugin_cudnn10xmma_cudnn52implicit_gemm_dgrad_8b3f77df5843186fb43c4c1781bc51fe24kernel_get_kernel_recordEv
libcudnn_cnn_infer.so.8:_ZN17cask_plugin_cudnn10xmma_cudnn52implicit_gemm_dgrad_8b4248880085a39a2aea79d43e1769c924kernel_get_kernel_recordEv
libcudnn_cnn_infer.so.8:_ZN17cask_plugin_cudnn10xmma_cudnn52implicit_gemm_dgrad_8b5e64972c788a7cec99bc78432c355224kernel_get_kernel_recordEv
libcudnn_cnn_infer.so.8:_ZN17cask_plugin_cudnn10xmma_cudnn52implicit_gemm_dgrad_8bc6c6566025ba0ecf84e58d8584455e24kernel_get_kernel_recordEv
libcudnn_cnn_infer.so.8:_ZN17cask_plugin_cudnn10xmma_cudnn52implicit_gemm_dgrad_8bcc437b14ce6738dfdd7ce35d88662724kernel_get_kernel_recordEv
libcudnn_cnn_infer.so.8:_ZN17cask_plugin_cudnn10xmma_cudnn52implicit_gemm_dgrad_8beebe4bd50117ca73b3638658ea78c224kernel_get_kernel_recordEv
libcudnn_cnn_infer.so.8:_ZN17cask_plugin_cudnn10xmma_cudnn52implicit_gemm_dgrad_8c8950274f4725ac473ea34c7ba15eac24kernel_get_kernel_recordEv
libcudnn_cnn_infer.so.8:_ZN17cask_plugin_cudnn10xmma_cudnn52implicit_gemm_dgrad_8c9ed8add5f42e3d467bf61f50b8abe524kernel_get_kernel_recordEv
libcudnn_cnn_infer.so.8:_ZN17cask_plugin_cudnn10xmma_cudnn52implicit_gemm_dgrad_8cc1a5567b5d49cb244d1857ab0ea40224kernel_get_kernel_recordEv
libcudnn_cnn_infer.so.8:_ZN17cask_plugin_cudnn10xmma_cudnn52implicit_gemm_dgrad_8cd5364d68ce53c93d26d4661528623224kernel_get_kernel_recordEv
libcudnn_cnn_infer.so.8:_ZN17cask_plugin_cudnn10xmma_cudnn52implicit_gemm_dgrad_8ceee9299dd349a391f39ad58a4da1c624kernel_get_kernel_recordEv
libcudnn_cnn_infer.so.8:_ZN17cask_plugin_cudnn10xmma_cudnn52implicit_gemm_dgrad_8d836400baf804b36a2f94293fdc9eee24kernel_get_kernel_recordEv
libcudnn_cnn_infer.so.8:_ZN17cask_plugin_cudnn10xmma_cudnn52implicit_gemm_dgrad_8db1458aa9c01e052962228e2d27800724kernel_get_kernel_recordEv
libcudnn_cnn_infer.so.8:_ZN17cask_plugin_cudnn10xmma_cudnn52implicit_gemm_dgrad_8db275a5776911542a16c1d8ae59658824kernel_get_kernel_recordEv
libcudnn_cnn_infer.so.8:_ZN17cask_plugin_cudnn10xmma_cudnn52implicit_gemm_dgrad_8dccfd2b017f8addf41dfe6e474d459924kernel_get_kernel_recordEv
libcudnn_cnn_infer.so.8:_ZN17cask_plugin_cudnn10xmma_cudnn52implicit_gemm_dgrad_8e303d62681dbd4c7bbfee72d9f3717924kernel_get_kernel_recordEv
libcudnn_cnn_infer.so.8:_ZN17cask_plugin_cudnn10xmma_cudnn52implicit_gemm_dgrad_8e6035a76e07c1893cb1a9c8a44cc53a24kernel_get_kernel_recordEv
libcudnn_cnn_infer.so.8:_ZN17cask_plugin_cudnn10xmma_cudnn52implicit_gemm_dgrad_8e7174433983776077a63bdc549f1d0724kernel_get_kernel_recordEv
libcudnn_cnn_infer.so.8:_ZN17cask_plugin_cudnn10xmma_cudnn52implicit_gemm_dgrad_8e717ee15155973a150cce4aabd9158a24kernel_get_kernel_recordEv
libcudnn_cnn_infer.so.8:_ZN17cask_plugin_cudnn10xmma_cudnn52implicit_gemm_dgrad_8e8bec79af3c96fd897dca8a40d8d6f324kernel_get_kernel_recordEv
libcudnn_cnn_infer.so.8:_ZN17cask_plugin_cudnn10xmma_cudnn52implicit_gemm_dgrad_8e8fede47eb6c622ca9022e49357b64724kernel_get_kernel_recordEv
libcudnn_cnn_infer.so.8:_ZN17cask_plugin_cudnn10xmma_cudnn52implicit_gemm_dgrad_8ed0b6e5e50870012e9af6937bcf2dc524kernel_get_kernel_recordEv
libcudnn_cnn_infer.so.8:_ZN17cask_plugin_cudnn10xmma_cudnn52implicit_gemm_dgrad_8f06711bf156e5187a2d2aefb328f02d24kernel_get_kernel_recordEv
libcudnn_cnn_infer.so.8:_ZN17cask_plugin_cudnn10xmma_cudnn52implicit_gemm_dgrad_8f4b45f877a26bb3a130492dfb6e69fe24kernel_get_kernel_recordEv
libcudnn_cnn_infer.so.8:_ZN17cask_plugin_cudnn10xmma_cudnn52implicit_gemm_dgrad_8f50ed1c2a7855e6c152ecbff0cc3d0024kernel_get_kernel_recordEv
libcudnn_cnn_infer.so.8:_ZN17cask_plugin_cudnn10xmma_cudnn52implicit_gemm_dgrad_8f52bf726de9a580e841f372da5ef7d324kernel_get_kernel_recordEv
libcudnn_cnn_infer.so.8:_ZN17cask_plugin_cudnn10xmma_cudnn52implicit_gemm_dgrad_8fa67a2d65f7a902c414860ac146d43524kernel_get_kernel_recordEv
libcudnn_cnn_infer.so.8:_ZN17cask_plugin_cudnn10xmma_cudnn52implicit_gemm_dgrad_8faa83ba7e23b98862baf6d9e2562bed24kernel_get_kernel_recordEv
libcudnn_cnn_infer.so.8:_ZN17cask_plugin_cudnn10xmma_cudnn52implicit_gemm_dgrad_8fbbaf3d81ed4b189bfa91c57a9fc32e24kernel_get_kernel_recordEv
libcudnn_cnn_infer.so.8:_ZN17cask_plugin_cudnn10xmma_cudnn52implicit_gemm_dgrad_903a627fa4ab07a1c0f370523633a0f124kernel_get_kernel_recordEv
libcudnn_cnn_infer.so.8:_ZN17cask_plugin_cudnn10xmma_cudnn52implicit_gemm_dgrad_9068c0544ebe8fc1ede090960435b2c624kernel_get_kernel_recordEv
libcudnn_cnn_infer.so.8:_ZN17cask_plugin_cudnn10xmma_cudnn52implicit_gemm_dgrad_90741053153f54f01d3d83a49697458424kernel_get_kernel_recordEv
libcudnn_cnn_infer.so.8:_ZN17cask_plugin_cudnn10xmma_cudnn52implicit_gemm_dgrad_90793dcd479135ccb939bdd65a87905a24kernel_get_kernel_recordEv
libcudnn_cnn_infer.so.8:_ZN17cask_plugin_cudnn10xmma_cudnn52implicit_gemm_dgrad_90c543624fb6fc3df139f74190a0cd1724kernel_get_kernel_recordEv
libcudnn_cnn_infer.so.8:_ZN17cask_plugin_cudnn10xmma_cudnn52implicit_gemm_dgrad_9166f9f56f4a4206a864b495434879ca24kernel_get_kernel_recordEv
libcudnn_cnn_infer.so.8:_ZN17cask_plugin_cudnn10xmma_cudnn52implicit_gemm_dgrad_917135f26cc24d797cd30996bd66f50424kernel_get_kernel_recordEv
libcudnn_cnn_infer.so.8:_ZN17cask_plugin_cudnn10xmma_cudnn52implicit_gemm_dgrad_91770b6ce1ab3569f1d2cdcd19f0a80324kernel_get_kernel_recordEv
libcudnn_cnn_infer.so.8:_ZN17cask_plugin_cudnn10xmma_cudnn52implicit_gemm_dgrad_917718fe23a08684079923455dfe041424kernel_get_kernel_recordEv
libcudnn_cnn_infer.so.8:_ZN17cask_plugin_cudnn10xmma_cudnn52implicit_gemm_dgrad_91c902c7e33faa88167ae59358c155e824kernel_get_kernel_recordEv
libcudnn_cnn_infer.so.8:_ZN17cask_plugin_cudnn10xmma_cudnn52implicit_gemm_dgrad_91e6f5de7b721fffa148071578116dfb24kernel_get_kernel_recordEv
libcudnn_cnn_infer.so.8:_ZN17cask_plugin_cudnn10xmma_cudnn52implicit_gemm_dgrad_92001260a196ac137acf23aba1c61e7b24kernel_get_kernel_recordEv
libcudnn_cnn_infer.so.8:_ZN17cask_plugin_cudnn10xmma_cudnn52implicit_gemm_dgrad_9205e6925d9b449b6e90200c7df2beb724kernel_get_kernel_recordEv
libcudnn_cnn_infer.so.8:_ZN17cask_plugin_cudnn10xmma_cudnn52implicit_gemm_dgrad_92120196af8051bf7f66dc67ea31caed24kernel_get_kernel_recordEv
libcudnn_cnn_infer.so.8:_ZN17cask_plugin_cudnn10xmma_cudnn52implicit_gemm_dgrad_924cf3c441b6041ebc19aa08d302da5e24kernel_get_kernel_recordEv
libcudnn_cnn_infer.so.8:_ZN17cask_plugin_cudnn10xmma_cudnn52implicit_gemm_dgrad_9267e2ef3c604dd168f4423b07fbe94b24kernel_get_kernel_recordEv
libcudnn_cnn_infer.so.8:_ZN17cask_plugin_cudnn10xmma_cudnn52implicit_gemm_dgrad_92938ac935b6f8f0a33a492db0504f0324kernel_get_kernel_recordEv
libcudnn_cnn_infer.so.8:_ZN17cask_plugin_cudnn10xmma_cudnn52implicit_gemm_dgrad_9324e785fa4051a1804e334303ce9c3224kernel_get_kernel_recordEv
libcudnn_cnn_infer.so.8:_ZN17cask_plugin_cudnn10xmma_cudnn52implicit_gemm_dgrad_933745c60a2241c251968cd4bcbe64ac24kernel_get_kernel_recordEv
libcudnn_cnn_infer.so.8:_ZN17cask_plugin_cudnn10xmma_cudnn52implicit_gemm_dgrad_935339856ef28f28f8bb4f282443ff8d24kernel_get_kernel_recordEv
libcudnn_cnn_infer.so.8:_ZN17cask_plugin_cudnn10xmma_cudnn52implicit_gemm_dgrad_936589d47d60eddd4f858bde504582e924kernel_get_kernel_recordEv
libcudnn_cnn_infer.so.8:_ZN17cask_plugin_cudnn10xmma_cudnn52implicit_gemm_dgrad_9391fcf8b6a2cb7ab728cff57cad0ca424kernel_get_kernel_recordEv
libcudnn_cnn_infer.so.8:_ZN17cask_plugin_cudnn10xmma_cudnn52implicit_gemm_dgrad_93b711b72f9301811f84a914ba43ec8224kernel_get_kernel_recordEv
libcudnn_cnn_infer.so.8:_ZN17cask_plugin_cudnn10xmma_cudnn52implicit_gemm_dgrad_93c17d13c093746f34d478e419de356c24kernel_get_kernel_recordEv
libcudnn_cnn_infer.so.8:_ZN17cask_plugin_cudnn10xmma_cudnn52implicit_gemm_dgrad_93d15fff1a21959bdbc8cbe7f1ffb0a524kernel_get_kernel_recordEv
libcudnn_cnn_infer.so.8:_ZN17cask_plugin_cudnn10xmma_cudnn52implicit_gemm_dgrad_93e2afb14c4e0c41495fa94fd478de0b24kernel_get_kernel_recordEv
libcudnn_cnn_infer.so.8:_ZN17cask_plugin_cudnn10xmma_cudnn52implicit_gemm_dgrad_93ea1ba27ba14d6ad8cc1bd11bf1d39724kernel_get_kernel_recordEv
libcudnn_cnn_infer.so.8:_ZN17cask_plugin_cudnn10xmma_cudnn52implicit_gemm_dgrad_93f8460cd9eb4e5c2fa16b3da096ed6524kernel_get_kernel_recordEv
libcudnn_cnn_infer.so.8:_ZN17cask_plugin_cudnn10xmma_cudnn52implicit_gemm_dgrad_940fac852520f1c471d8668711206fa724kernel_get_kernel_recordEv
libcudnn_cnn_infer.so.8:_ZN17cask_plugin_cudnn10xmma_cudnn52implicit_gemm_dgrad_9485eea6799e3462d5d630175f86642d24kernel_get_kernel_recordEv
libcudnn_cnn_infer.so.8:_ZN17cask_plugin_cudnn10xmma_cudnn52implicit_gemm_dgrad_9492b155fa3683d4ddda79b826b39ef424kernel_get_kernel_recordEv
libcudnn_cnn_infer.so.8:_ZN17cask_plugin_cudnn10xmma_cudnn52implicit_gemm_dgrad_94b331a87b690a448dc2ca36adf0991124kernel_get_kernel_recordEv
libcudnn_cnn_infer.so.8:_ZN17cask_plugin_cudnn10xmma_cudnn52implicit_gemm_dgrad_9514b2adf0969541b4f4bba58ff97bf524kernel_get_kernel_recordEv
libcudnn_cnn_infer.so.8:_ZN17cask_plugin_cudnn10xmma_cudnn52implicit_gemm_dgrad_957baa211b625b8016a8c9512e47515824kernel_get_kernel_recordEv
libcudnn_cnn_infer.so.8:_ZN17cask_plugin_cudnn10xmma_cudnn52implicit_gemm_dgrad_958063ab430c63ce6342cc5fb308694924kernel_get_kernel_recordEv
libcudnn_cnn_infer.so.8:_ZN17cask_plugin_cudnn10xmma_cudnn52implicit_gemm_dgrad_95ac32cf1e8dd8541290435f7731f1e124kernel_get_kernel_recordEv
libcudnn_cnn_infer.so.8:_ZN17cask_plugin_cudnn10xmma_cudnn52implicit_gemm_dgrad_95cb28455342bed0209f25788298110e24kernel_get_kernel_recordEv
libcudnn_cnn_infer.so.8:_ZN17cask_plugin_cudnn10xmma_cudnn52implicit_gemm_dgrad_95f182301da5fef180a425347d1e0ddd24kernel_get_kernel_recordEv
libcudnn_cnn_infer.so.8:_ZN17cask_plugin_cudnn10xmma_cudnn52implicit_gemm_dgrad_9602e3b035256ab964baf8e98d98914a24kernel_get_kernel_recordEv
libcudnn_cnn_infer.so.8:_ZN17cask_plugin_cudnn10xmma_cudnn52implicit_gemm_dgrad_967f6a28d7967a8a35517c099ac11b3924kernel_get_kernel_recordEv
libcudnn_cnn_infer.so.8:_ZN17cask_plugin_cudnn10xmma_cudnn52implicit_gemm_dgrad_96946127cc88ff463c65c5db60e7450924kernel_get_kernel_recordEv
libcudnn_cnn_infer.so.8:_ZN17cask_plugin_cudnn10xmma_cudnn52implicit_gemm_dgrad_96beebec10018ea66213142aa721fb3724kernel_get_kernel_recordEv
libcudnn_cnn_infer.so.8:_ZN17cask_plugin_cudnn10xmma_cudnn52implicit_gemm_dgrad_971d59aa90b8772c933ed7c0c705aff324kernel_get_kernel_recordEv
libcudnn_cnn_infer.so.8:_ZN17cask_plugin_cudnn10xmma_cudnn52implicit_gemm_dgrad_9738275a50a8b552cd90f51fab57b40224kernel_get_kernel_recordEv
libcudnn_cnn_infer.so.8:_ZN17cask_plugin_cudnn10xmma_cudnn52implicit_gemm_dgrad_973c2b617824a10b2879d653eb6fc37d24kernel_get_kernel_recordEv
libcudnn_cnn_infer.so.8:_ZN17cask_plugin_cudnn10xmma_cudnn52implicit_gemm_dgrad_9770555f54d0445bd000299e11c4a13d24kernel_get_kernel_recordEv
libcudnn_cnn_infer.so.8:_ZN17cask_plugin_cudnn10xmma_cudnn52implicit_gemm_dgrad_97f262cd35a3648bd31094de970728da24kernel_get_kernel_recordEv
libcudnn_cnn_infer.so.8:_ZN17cask_plugin_cudnn10xmma_cudnn52implicit_gemm_dgrad_980740882d18de479303d59b4e88b1cd24kernel_get_kernel_recordEv
libcudnn_cnn_infer.so.8:_ZN17cask_plugin_cudnn10xmma_cudnn52implicit_gemm_dgrad_982b9483ada6ca36429aeadc5ef74e1124kernel_get_kernel_recordEv
libcudnn_cnn_infer.so.8:_ZN17cask_plugin_cudnn10xmma_cudnn52implicit_gemm_dgrad_98bbae969a0c4f4cf5bacb6f6414863124kernel_get_kernel_recordEv
libcudnn_cnn_infer.so.8:_ZN17cask_plugin_cudnn10xmma_cudnn52implicit_gemm_dgrad_98be775e281b192d3630b0f12d75b33224kernel_get_kernel_recordEv
libcudnn_cnn_infer.so.8:_ZN17cask_plugin_cudnn10xmma_cudnn52implicit_gemm_dgrad_990713f630bec9785a9e6d835ac9161224kernel_get_kernel_recordEv
libcudnn_cnn_infer.so.8:_ZN17cask_plugin_cudnn10xmma_cudnn52implicit_gemm_dgrad_9921c221eed03ac511fcf766a0e8a59724kernel_get_kernel_recordEv
libcudnn_cnn_infer.so.8:_ZN17cask_plugin_cudnn10xmma_cudnn52implicit_gemm_dgrad_9924fad96bd2a558bff71d8012d8461224kernel_get_kernel_recordEv
libcudnn_cnn_infer.so.8:_ZN17cask_plugin_cudnn10xmma_cudnn52implicit_gemm_dgrad_994b9eaef1833b866f9006f83d37ace824kernel_get_kernel_recordEv
libcudnn_cnn_infer.so.8:_ZN17cask_plugin_cudnn10xmma_cudnn52implicit_gemm_dgrad_9951e1716e6f0c9e8641d61381394d9024kernel_get_kernel_recordEv
libcudnn_cnn_infer.so.8:_ZN17cask_plugin_cudnn10xmma_cudnn52implicit_gemm_dgrad_9963c1322c056fe83bd7121025cde64d24kernel_get_kernel_recordEv
libcudnn_cnn_infer.so.8:_ZN17cask_plugin_cudnn10xmma_cudnn52implicit_gemm_dgrad_996be3ac08f351a99cd2e672cfe21b9f24kernel_get_kernel_recordEv
libcudnn_cnn_infer.so.8:_ZN17cask_plugin_cudnn10xmma_cudnn52implicit_gemm_dgrad_996ec9902af51c35efe214089c91536d24kernel_get_kernel_recordEv
libcudnn_cnn_infer.so.8:_ZN17cask_plugin_cudnn10xmma_cudnn52implicit_gemm_dgrad_997d77a37fd3d123e62005bff28ffdd024kernel_get_kernel_recordEv
libcudnn_cnn_infer.so.8:_ZN17cask_plugin_cudnn10xmma_cudnn52implicit_gemm_dgrad_9999b80d9334dfa2d612d5bf6e5ccf5424kernel_get_kernel_recordEv
libcudnn_cnn_infer.so.8:_ZN17cask_plugin_cudnn10xmma_cudnn52implicit_gemm_dgrad_99ca4518d791538e87eb32fc6bdae6f424kernel_get_kernel_recordEv
libcudnn_cnn_infer.so.8:_ZN17cask_plugin_cudnn10xmma_cudnn52implicit_gemm_dgrad_9a02ce726dcc85989fefbb9dc803925b24kernel_get_kernel_recordEv
libcudnn_cnn_infer.so.8:_ZN17cask_plugin_cudnn10xmma_cudnn52implicit_gemm_dgrad_9a0c3dedd1ea06b649261c295e26980f24kernel_get_kernel_recordEv
libcudnn_cnn_infer.so.8:_ZN17cask_plugin_cudnn10xmma_cudnn52implicit_gemm_dgrad_9a23adc482d834cae5ac402e885f57e724kernel_get_kernel_recordEv
libcudnn_cnn_infer.so.8:_ZN17cask_plugin_cudnn10xmma_cudnn52implicit_gemm_dgrad_9a8b49c3b90081b6d3d5acfbf57c49e424kernel_get_kernel_recordEv
libcudnn_cnn_infer.so.8:_ZN17cask_plugin_cudnn10xmma_cudnn52implicit_gemm_dgrad_9abcbc10976cbd6c88d4a00c9b5ff17824kernel_get_kernel_recordEv
libcudnn_cnn_infer.so.8:_ZN17cask_plugin_cudnn10xmma_cudnn52implicit_gemm_dgrad_9b27a0a8655dec37c2ac9485598a015324kernel_get_kernel_recordEv
libcudnn_cnn_infer.so.8:_ZN17cask_plugin_cudnn10xmma_cudnn52implicit_gemm_dgrad_9b2af3714680a708271ec78f9376ba6824kernel_get_kernel_recordEv
libcudnn_cnn_infer.so.8:_ZN17cask_plugin_cudnn10xmma_cudnn52implicit_gemm_dgrad_9b500ba18842f91ed1d2af333d1959cd24kernel_get_kernel_recordEv
libcudnn_cnn_infer.so.8:_ZN17cask_plugin_cudnn10xmma_cudnn52implicit_gemm_dgrad_9ba5af5919b95dd6624b7253aa6dd99c24kernel_get_kernel_recordEv
libcudnn_cnn_infer.so.8:_ZN17cask_plugin_cudnn10xmma_cudnn52implicit_gemm_dgrad_9bc4720962616e4b65eb6880f028c89f24kernel_get_kernel_recordEv
libcudnn_cnn_infer.so.8:_ZN17cask_plugin_cudnn10xmma_cudnn52implicit_gemm_dgrad_9be04b176c7cf9bb0b4e6f41398f56af24kernel_get_kernel_recordEv
libcudnn_cnn_infer.so.8:_ZN17cask_plugin_cudnn10xmma_cudnn52implicit_gemm_dgrad_9be2858857173b38afaa573375b6b16b24kernel_get_kernel_recordEv
libcudnn_cnn_infer.so.8:_ZN17cask_plugin_cudnn10xmma_cudnn52implicit_gemm_dgrad_9bebc339f26adc8f722309a59c5c1eaa24kernel_get_kernel_recordEv
libcudnn_cnn_infer.so.8:_ZN17cask_plugin_cudnn10xmma_cudnn52implicit_gemm_dgrad_9c0d2274503f5b4cd5486d7d111d059224kernel_get_kernel_recordEv
libcudnn_cnn_infer.so.8:_ZN17cask_plugin_cudnn10xmma_cudnn52implicit_gemm_dgrad_9c46c055dd8153dd088e510bb720485124kernel_get_kernel_recordEv
libcudnn_cnn_infer.so.8:_ZN17cask_plugin_cudnn10xmma_cudnn52implicit_gemm_dgrad_9c54ab9c5861c7d2154dbafa4773596524kernel_get_kernel_recordEv
libcudnn_cnn_infer.so.8:_ZN17cask_plugin_cudnn10xmma_cudnn52implicit_gemm_dgrad_9c5d909a7cf39989195d10c3e650dcbd24kernel_get_kernel_recordEv
libcudnn_cnn_infer.so.8:_ZN17cask_plugin_cudnn10xmma_cudnn52implicit_gemm_dgrad_9c9d311c42dcaf5a0cf1c5632a6e714c24kernel_get_kernel_recordEv
libcudnn_cnn_infer.so.8:_ZN17cask_plugin_cudnn10xmma_cudnn52implicit_gemm_dgrad_9ccfdd129327089aae72741dae01065024kernel_get_kernel_recordEv
libcudnn_cnn_infer.so.8:_ZN17cask_plugin_cudnn10xmma_cudnn52implicit_gemm_dgrad_9cf0228ac8e20ada206393120cf4423824kernel_get_kernel_recordEv
libcudnn_cnn_infer.so.8:_ZN17cask_plugin_cudnn10xmma_cudnn52implicit_gemm_dgrad_9cf3d70510577e0245a5a0aeeb51b09b24kernel_get_kernel_recordEv
libcudnn_cnn_infer.so.8:_ZN17cask_plugin_cudnn10xmma_cudnn52implicit_gemm_dgrad_9d0684eb3162a322caa135516068ad4e24kernel_get_kernel_recordEv
libcudnn_cnn_infer.so.8:_ZN17cask_plugin_cudnn10xmma_cudnn52implicit_gemm_dgrad_9d54a76114fc149c2f774ea8e6dca23a24kernel_get_kernel_recordEv
libcudnn_cnn_infer.so.8:_ZN17cask_plugin_cudnn10xmma_cudnn52implicit_gemm_dgrad_9d97e975454b9100adbca1c2b3ac120824kernel_get_kernel_recordEv
libcudnn_cnn_infer.so.8:_ZN17cask_plugin_cudnn10xmma_cudnn52implicit_gemm_dgrad_9d9bde879f090ba476968e882f56af3e24kernel_get_kernel_recordEv
libcudnn_cnn_infer.so.8:_ZN17cask_plugin_cudnn10xmma_cudnn52implicit_gemm_dgrad_9ddf55578415378d1b2b4c597e7b2f4924kernel_get_kernel_recordEv
libcudnn_cnn_infer.so.8:_ZN17cask_plugin_cudnn10xmma_cudnn52implicit_gemm_dgrad_9de587b64e6d3147b4c61853490f9a0024kernel_get_kernel_recordEv
libcudnn_cnn_infer.so.8:_ZN17cask_plugin_cudnn10xmma_cudnn52implicit_gemm_dgrad_9e07a4fc60e6d32c8d7b6a383c4fe77024kernel_get_kernel_recordEv
libcudnn_cnn_infer.so.8:_ZN17cask_plugin_cudnn10xmma_cudnn52implicit_gemm_dgrad_9e1027de06ff115bf004233dff7cac7224kernel_get_kernel_recordEv
libcudnn_cnn_infer.so.8:_ZN17cask_plugin_cudnn10xmma_cudnn52implicit_gemm_dgrad_9e291855c49ce4b8ccb3cca14236dfc724kernel_get_kernel_recordEv
libcudnn_cnn_infer.so.8:_ZN17cask_plugin_cudnn10xmma_cudnn52implicit_gemm_dgrad_9e2f4d6c2b048759632005f2a616e36f24kernel_get_kernel_recordEv
libcudnn_cnn_infer.so.8:_ZN17cask_plugin_cudnn10xmma_cudnn52implicit_gemm_dgrad_9e32e4d7506ccd7b4db6d3fab9b7e32d24kernel_get_kernel_recordEv
libcudnn_cnn_infer.so.8:_ZN17cask_plugin_cudnn10xmma_cudnn52implicit_gemm_dgrad_9e3baf252ddd4fff9042fb3c73f6c6df24kernel_get_kernel_recordEv
libcudnn_cnn_infer.so.8:_ZN17cask_plugin_cudnn10xmma_cudnn52implicit_gemm_dgrad_9e81c5b3546c5eebeb5fdafc0507f7aa24kernel_get_kernel_recordEv
libcudnn_cnn_infer.so.8:_ZN17cask_plugin_cudnn10xmma_cudnn52implicit_gemm_dgrad_9eceb148b3b16b89f7a8e4038865d0f524kernel_get_kernel_recordEv
libcudnn_cnn_infer.so.8:_ZN17cask_plugin_cudnn10xmma_cudnn52implicit_gemm_dgrad_9eee88d7655e363a7db41645564e3ec624kernel_get_kernel_recordEv
libcudnn_cnn_infer.so.8:_ZN17cask_plugin_cudnn10xmma_cudnn52implicit_gemm_dgrad_9f103657641867c0a313922b9384c00024kernel_get_kernel_recordEv
libcudnn_cnn_infer.so.8:_ZN17cask_plugin_cudnn10xmma_cudnn52implicit_gemm_dgrad_9f1d539aaf819af51f3cad8d5ceaa3ce24kernel_get_kernel_recordEv
libcudnn_cnn_infer.so.8:_ZN17cask_plugin_cudnn10xmma_cudnn52implicit_gemm_dgrad_9f9c7860d1e5e58dc08ba01d7fcbd0e024kernel_get_kernel_recordEv
libcudnn_cnn_infer.so.8:_ZN17cask_plugin_cudnn10xmma_cudnn52implicit_gemm_dgrad_9fac63b58929ad771aebe1a8efa7eec424kernel_get_kernel_recordEv
libcudnn_cnn_infer.so.8:_ZN17cask_plugin_cudnn10xmma_cudnn52implicit_gemm_dgrad_9fb2ac655523489d6da99577d7fb77e224kernel_get_kernel_recordEv
libcudnn_cnn_infer.so.8:_ZN17cask_plugin_cudnn10xmma_cudnn52implicit_gemm_dgrad_9fd431cf22c993e94bd8f3a18c4d05f524kernel_get_kernel_recordEv
libcudnn_cnn_infer.so.8:_ZN17cask_plugin_cudnn10xmma_cudnn52implicit_gemm_dgrad_a00d30f910026593ff066370eabe4bcf24kernel_get_kernel_recordEv
libcudnn_cnn_infer.so.8:_ZN17cask_plugin_cudnn10xmma_cudnn52implicit_gemm_dgrad_a06030a9b09121faa5880abdfc2801d624kernel_get_kernel_recordEv
libcudnn_cnn_infer.so.8:_ZN17cask_plugin_cudnn10xmma_cudnn52implicit_gemm_dgrad_a0625b61f965a5ff69e237d5f48b83a224kernel_get_kernel_recordEv
libcudnn_cnn_infer.so.8:_ZN17cask_plugin_cudnn10xmma_cudnn52implicit_gemm_dgrad_a073a19c4b35c2fd5a1ace5738cb766624kernel_get_kernel_recordEv
libcudnn_cnn_infer.so.8:_ZN17cask_plugin_cudnn10xmma_cudnn52implicit_gemm_dgrad_a07f22e703224c082bd05ad5c775820a24kernel_get_kernel_recordEv
libcudnn_cnn_infer.so.8:_ZN17cask_plugin_cudnn10xmma_cudnn52implicit_gemm_dgrad_a0cf2f8e157208b5310671255e76d8a524kernel_get_kernel_recordEv
libcudnn_cnn_infer.so.8:_ZN17cask_plugin_cudnn10xmma_cudnn52implicit_gemm_dgrad_a0f934a2b433a812a887693d1eaacdcd24kernel_get_kernel_recordEv
libcudnn_cnn_infer.so.8:_ZN17cask_plugin_cudnn10xmma_cudnn52implicit_gemm_dgrad_a0f939c69fb519fab679efa976cbd4d624kernel_get_kernel_recordEv
libcudnn_cnn_infer.so.8:_ZN17cask_plugin_cudnn10xmma_cudnn52implicit_gemm_dgrad_a11fa3e5f994a0e2deb7a42f215505a424kernel_get_kernel_recordEv
libcudnn_cnn_infer.so.8:_ZN17cask_plugin_cudnn10xmma_cudnn52implicit_gemm_dgrad_a14a3e69d7b805f0da4e20844edaa97824kernel_get_kernel_recordEv
libcudnn_cnn_infer.so.8:_ZN17cask_plugin_cudnn10xmma_cudnn52implicit_gemm_dgrad_a161508c8e369c7a28c35a15c3b6b19e24kernel_get_kernel_recordEv
libcudnn_cnn_infer.so.8:_ZN17cask_plugin_cudnn10xmma_cudnn52implicit_gemm_dgrad_a1923eaf40fdfde3dfb0e7627ea0d74924kernel_get_kernel_recordEv
libcudnn_cnn_infer.so.8:_ZN17cask_plugin_cudnn10xmma_cudnn52implicit_gemm_dgrad_a1a68bd3378ad9eb97f90dc3f5e8ae3a24kernel_get_kernel_recordEv
libcudnn_cnn_infer.so.8:_ZN17cask_plugin_cudnn10xmma_cudnn52implicit_gemm_dgrad_a1df0977f2ca654d27d036a97adce45924kernel_get_kernel_recordEv
libcudnn_cnn_infer.so.8:_ZN17cask_plugin_cudnn10xmma_cudnn52implicit_gemm_dgrad_a2445031f1871a048c054ff1d6a72db924kernel_get_kernel_recordEv
libcudnn_cnn_infer.so.8:_ZN17cask_plugin_cudnn10xmma_cudnn52implicit_gemm_dgrad_a251e303e6943671ecf08056aed911b724kernel_get_kernel_recordEv
libcudnn_cnn_infer.so.8:_ZN17cask_plugin_cudnn10xmma_cudnn52implicit_gemm_dgrad_a26e1010e34f44813c5c0051c516030424kernel_get_kernel_recordEv
libcudnn_cnn_infer.so.8:_ZN17cask_plugin_cudnn10xmma_cudnn52implicit_gemm_dgrad_a28213fbdea7177b4307553d1a1b872e24kernel_get_kernel_recordEv
libcudnn_cnn_infer.so.8:_ZN17cask_plugin_cudnn10xmma_cudnn52implicit_gemm_dgrad_a2e75af499ddfdbb2c929c88b574664624kernel_get_kernel_recordEv
libcudnn_cnn_infer.so.8:_ZN17cask_plugin_cudnn10xmma_cudnn52implicit_gemm_dgrad_a346bd7b9ea5bb08644b5075bb02c03c24kernel_get_kernel_recordEv
libcudnn_cnn_infer.so.8:_ZN17cask_plugin_cudnn10xmma_cudnn52implicit_gemm_dgrad_a41984fbb46218467e83a26a248c416224kernel_get_kernel_recordEv
libcudnn_cnn_infer.so.8:_ZN17cask_plugin_cudnn10xmma_cudnn52implicit_gemm_dgrad_a4978391b858dfa65ba74064324afeb324kernel_get_kernel_recordEv
libcudnn_cnn_infer.so.8:_ZN17cask_plugin_cudnn10xmma_cudnn52implicit_gemm_dgrad_a4fc54808dd9aa5be47de068bd2539eb24kernel_get_kernel_recordEv
libcudnn_cnn_infer.so.8:_ZN17cask_plugin_cudnn10xmma_cudnn52implicit_gemm_dgrad_a507cd0a5497b316fe7dd642ad7ac04024kernel_get_kernel_recordEv
libcudnn_cnn_infer.so.8:_ZN17cask_plugin_cudnn10xmma_cudnn52implicit_gemm_dgrad_a517439fae74ace7ccb50230c363187924kernel_get_kernel_recordEv
libcudnn_cnn_infer.so.8:_ZN17cask_plugin_cudnn10xmma_cudnn52implicit_gemm_dgrad_a561c6b5b9bb747d351ac8715039727424kernel_get_kernel_recordEv
libcudnn_cnn_infer.so.8:_ZN17cask_plugin_cudnn10xmma_cudnn52implicit_gemm_dgrad_a56798fef98da80b4160aa54eb7ea50624kernel_get_kernel_recordEv
libcudnn_cnn_infer.so.8:_ZN17cask_plugin_cudnn10xmma_cudnn52implicit_gemm_dgrad_a5681f9e9d870473a8e0694aaa7b7bb824kernel_get_kernel_recordEv
libcudnn_cnn_infer.so.8:_ZN17cask_plugin_cudnn10xmma_cudnn52implicit_gemm_dgrad_a57fb044e33c1bae5c1534a31820f6a624kernel_get_kernel_recordEv
libcudnn_cnn_infer.so.8:_ZN17cask_plugin_cudnn10xmma_cudnn52implicit_gemm_dgrad_a597471fb66a5d6cf6996f0ba011fb6024kernel_get_kernel_recordEv
libcudnn_cnn_infer.so.8:_ZN17cask_plugin_cudnn10xmma_cudnn52implicit_gemm_dgrad_a5ca8c6a50e1f24d83accd048b99266c24kernel_get_kernel_recordEv
libcudnn_cnn_infer.so.8:_ZN17cask_plugin_cudnn10xmma_cudnn52implicit_gemm_dgrad_a5e6e726d24554b2ba6a6d6a44bb1def24kernel_get_kernel_recordEv
libcudnn_cnn_infer.so.8:_ZN17cask_plugin_cudnn10xmma_cudnn52implicit_gemm_dgrad_a5f98e3151cd2ba22979103f1270c49f24kernel_get_kernel_recordEv
libcudnn_cnn_infer.so.8:_ZN17cask_plugin_cudnn10xmma_cudnn52implicit_gemm_dgrad_a5fa7d5aa7f17cf7d1449eb7970141f124kernel_get_kernel_recordEv
libcudnn_cnn_infer.so.8:_ZN17cask_plugin_cudnn10xmma_cudnn52implicit_gemm_dgrad_a6011f79621022433cdc611914c55f6824kernel_get_kernel_recordEv
libcudnn_cnn_infer.so.8:_ZN17cask_plugin_cudnn10xmma_cudnn52implicit_gemm_dgrad_a601881c41cb81b6b4b224a4da57558d24kernel_get_kernel_recordEv
libcudnn_cnn_infer.so.8:_ZN17cask_plugin_cudnn10xmma_cudnn52implicit_gemm_dgrad_a62abf473e96c17946bf8fef2cf8ab4024kernel_get_kernel_recordEv
libcudnn_cnn_infer.so.8:_ZN17cask_plugin_cudnn10xmma_cudnn52implicit_gemm_dgrad_a656f90d0875d9b16604ab1fc0ffea7b24kernel_get_kernel_recordEv
libcudnn_cnn_infer.so.8:_ZN17cask_plugin_cudnn10xmma_cudnn52implicit_gemm_dgrad_a6a1be3820e4047f646b0e891a113b3f24kernel_get_kernel_recordEv
libcudnn_cnn_infer.so.8:_ZN17cask_plugin_cudnn10xmma_cudnn52implicit_gemm_dgrad_a6b7cdff9161fc748f883851244264a924kernel_get_kernel_recordEv
libcudnn_cnn_infer.so.8:_ZN17cask_plugin_cudnn10xmma_cudnn52implicit_gemm_dgrad_a6c0e397ef851229960bc4e4e2026ad824kernel_get_kernel_recordEv
libcudnn_cnn_infer.so.8:_ZN17cask_plugin_cudnn10xmma_cudnn52implicit_gemm_dgrad_a6f350014e20d0255827b023db8485c924kernel_get_kernel_recordEv
libcudnn_cnn_infer.so.8:_ZN17cask_plugin_cudnn10xmma_cudnn52implicit_gemm_dgrad_a702856710c2ea71859accb9d9a9ecc524kernel_get_kernel_recordEv
libcudnn_cnn_infer.so.8:_ZN17cask_plugin_cudnn10xmma_cudnn52implicit_gemm_dgrad_a7163df3cbe4b703cc05e04a3e89346224kernel_get_kernel_recordEv
libcudnn_cnn_infer.so.8:_ZN17cask_plugin_cudnn10xmma_cudnn52implicit_gemm_dgrad_a741f5dc49b26a5328a9b4a50b531d1824kernel_get_kernel_recordEv
libcudnn_cnn_infer.so.8:_ZN17cask_plugin_cudnn10xmma_cudnn52implicit_gemm_dgrad_a793f155448d0d252c619cc9bd2b0da124kernel_get_kernel_recordEv
libcudnn_cnn_infer.so.8:_ZN17cask_plugin_cudnn10xmma_cudnn52implicit_gemm_dgrad_a7951183f6c9e57223dee5b363a7d20124kernel_get_kernel_recordEv
libcudnn_cnn_infer.so.8:_ZN17cask_plugin_cudnn10xmma_cudnn52implicit_gemm_dgrad_a808304f546e391ca23773bbd145c5a824kernel_get_kernel_recordEv
libcudnn_cnn_infer.so.8:_ZN17cask_plugin_cudnn10xmma_cudnn52implicit_gemm_dgrad_a809942aa4eb91e3dfdff5845200050824kernel_get_kernel_recordEv
libcudnn_cnn_infer.so.8:_ZN17cask_plugin_cudnn10xmma_cudnn52implicit_gemm_dgrad_a82817ca86f946b1e0a50161b930a33024kernel_get_kernel_recordEv
libcudnn_cnn_infer.so.8:_ZN17cask_plugin_cudnn10xmma_cudnn52implicit_gemm_dgrad_a82c25e79b136aefac3951df8b74671b24kernel_get_kernel_recordEv
libcudnn_cnn_infer.so.8:_ZN17cask_plugin_cudnn10xmma_cudnn52implicit_gemm_dgrad_a85e39209ae23948fbaa46b1f1c2d0b824kernel_get_kernel_recordEv
libcudnn_cnn_infer.so.8:_ZN17cask_plugin_cudnn10xmma_cudnn52implicit_gemm_dgrad_a860d03e5f0f517c7d861a889447749d24kernel_get_kernel_recordEv
libcudnn_cnn_infer.so.8:_ZN17cask_plugin_cudnn10xmma_cudnn52implicit_gemm_dgrad_a875374908e76a74a02cdc0cbfe6f6da24kernel_get_kernel_recordEv
libcudnn_cnn_infer.so.8:_ZN17cask_plugin_cudnn10xmma_cudnn52implicit_gemm_dgrad_a87d49d7996114fd51c0f2f38a446e1a24kernel_get_kernel_recordEv
libcudnn_cnn_infer.so.8:_ZN17cask_plugin_cudnn10xmma_cudnn52implicit_gemm_dgrad_a8fc60d3ace9bb34bb4826cfd1a7d2e024kernel_get_kernel_recordEv
libcudnn_cnn_infer.so.8:_ZN17cask_plugin_cudnn10xmma_cudnn52implicit_gemm_dgrad_a8fcb831a8e4e754e4788572ba26285224kernel_get_kernel_recordEv
libcudnn_cnn_infer.so.8:_ZN17cask_plugin_cudnn10xmma_cudnn52implicit_gemm_dgrad_a90d8c61c1fdc0de453edf538588d28624kernel_get_kernel_recordEv
libcudnn_cnn_infer.so.8:_ZN17cask_plugin_cudnn10xmma_cudnn52implicit_gemm_dgrad_a91343f90fe76b0be871cacaa6e020b624kernel_get_kernel_recordEv
libcudnn_cnn_infer.so.8:_ZN17cask_plugin_cudnn10xmma_cudnn52implicit_gemm_dgrad_a91ce99995d6bb37d7cd01a0c1d0c8e124kernel_get_kernel_recordEv
libcudnn_cnn_infer.so.8:_ZN17cask_plugin_cudnn10xmma_cudnn52implicit_gemm_dgrad_a9428913da202b4a428008f2710151ed24kernel_get_kernel_recordEv
libcudnn_cnn_infer.so.8:_ZN17cask_plugin_cudnn10xmma_cudnn52implicit_gemm_dgrad_a99333826c3d61fb46d69353fccf9a7824kernel_get_kernel_recordEv
libcudnn_cnn_infer.so.8:_ZN17cask_plugin_cudnn10xmma_cudnn52implicit_gemm_dgrad_a9a0307841103e35d2ea2e551663617b24kernel_get_kernel_recordEv
libcudnn_cnn_infer.so.8:_ZN17cask_plugin_cudnn10xmma_cudnn52implicit_gemm_dgrad_aa3a5fa0a293a3703baf323f3ca66bec24kernel_get_kernel_recordEv
libcudnn_cnn_infer.so.8:_ZN17cask_plugin_cudnn10xmma_cudnn52implicit_gemm_dgrad_aa9da10ce5aaaa269d1399c804e431f324kernel_get_kernel_recordEv
libcudnn_cnn_infer.so.8:_ZN17cask_plugin_cudnn10xmma_cudnn52implicit_gemm_dgrad_aacf4ba6ed8625f2fbcf680bab928a3324kernel_get_kernel_recordEv
libcudnn_cnn_infer.so.8:_ZN17cask_plugin_cudnn10xmma_cudnn52implicit_gemm_dgrad_aad4223716a3eb9f3547bd770072d49524kernel_get_kernel_recordEv
libcudnn_cnn_infer.so.8:_ZN17cask_plugin_cudnn10xmma_cudnn52implicit_gemm_dgrad_ab143933d1152615d5e377815181ab6224kernel_get_kernel_recordEv
libcudnn_cnn_infer.so.8:_ZN17cask_plugin_cudnn10xmma_cudnn52implicit_gemm_dgrad_ab45248cf3396f89acf0c06dba1325ce24kernel_get_kernel_recordEv
libcudnn_cnn_infer.so.8:_ZN17cask_plugin_cudnn10xmma_cudnn52implicit_gemm_dgrad_ab825718445c61da214fccfe17795e8124kernel_get_kernel_recordEv
libcudnn_cnn_infer.so.8:_ZN17cask_plugin_cudnn10xmma_cudnn52implicit_gemm_dgrad_ab85a390622bbd727f432781ab24977024kernel_get_kernel_recordEv
libcudnn_cnn_infer.so.8:_ZN17cask_plugin_cudnn10xmma_cudnn52implicit_gemm_dgrad_ab99aeb32fd4cd9b0b0e6266a015f29424kernel_get_kernel_recordEv
libcudnn_cnn_infer.so.8:_ZN17cask_plugin_cudnn10xmma_cudnn52implicit_gemm_dgrad_abc3fc812915bfa923a095a22ecd75c024kernel_get_kernel_recordEv
libcudnn_cnn_infer.so.8:_ZN17cask_plugin_cudnn10xmma_cudnn52implicit_gemm_dgrad_abc8eb984cb0a90688f84bc20c49a9f824kernel_get_kernel_recordEv
libcudnn_cnn_infer.so.8:_ZN17cask_plugin_cudnn10xmma_cudnn52implicit_gemm_dgrad_abce5eb30c9f5724ef7e0c2e768087e424kernel_get_kernel_recordEv
libcudnn_cnn_infer.so.8:_ZN17cask_plugin_cudnn10xmma_cudnn52implicit_gemm_dgrad_ac0cb1f16769717d9793cead69fc7fa624kernel_get_kernel_recordEv
libcudnn_cnn_infer.so.8:_ZN17cask_plugin_cudnn10xmma_cudnn52implicit_gemm_dgrad_ac556341738dd283f14cddbe19bdc64e24kernel_get_kernel_recordEv
libcudnn_cnn_infer.so.8:_ZN17cask_plugin_cudnn10xmma_cudnn52implicit_gemm_dgrad_acad56d06003569f473ac7d130baf2d224kernel_get_kernel_recordEv
libcudnn_cnn_infer.so.8:_ZN17cask_plugin_cudnn10xmma_cudnn52implicit_gemm_dgrad_acd11f5d3d02a756d025858c85bd9c0024kernel_get_kernel_recordEv
libcudnn_cnn_infer.so.8:_ZN17cask_plugin_cudnn10xmma_cudnn52implicit_gemm_dgrad_acd8006a74d08323968e088d4b679d2324kernel_get_kernel_recordEv
libcudnn_cnn_infer.so.8:_ZN17cask_plugin_cudnn10xmma_cudnn52implicit_gemm_dgrad_ace5445c7d95820036fd2b3f4c56422924kernel_get_kernel_recordEv
libcudnn_cnn_infer.so.8:_ZN17cask_plugin_cudnn10xmma_cudnn52implicit_gemm_dgrad_acf8e5cda019829c802e7e25e820ea8824kernel_get_kernel_recordEv
libcudnn_cnn_infer.so.8:_ZN17cask_plugin_cudnn10xmma_cudnn52implicit_gemm_dgrad_ad28f2e9dd23183340609196647c129c24kernel_get_kernel_recordEv
libcudnn_cnn_infer.so.8:_ZN17cask_plugin_cudnn10xmma_cudnn52implicit_gemm_dgrad_ad5c84b1c36804f99e6a551a20302c1724kernel_get_kernel_recordEv
libcudnn_cnn_infer.so.8:_ZN17cask_plugin_cudnn10xmma_cudnn52implicit_gemm_dgrad_ada49be44dacc4ca5fb7b4e18cdbcbb024kernel_get_kernel_recordEv
libcudnn_cnn_infer.so.8:_ZN17cask_plugin_cudnn10xmma_cudnn52implicit_gemm_dgrad_adcc2f8ce9f42f496a733f41c9f0f57224kernel_get_kernel_recordEv
libcudnn_cnn_infer.so.8:_ZN17cask_plugin_cudnn10xmma_cudnn52implicit_gemm_dgrad_add8925331c6da2f2b1581b8662948c524kernel_get_kernel_recordEv
libcudnn_cnn_infer.so.8:_ZN17cask_plugin_cudnn10xmma_cudnn52implicit_gemm_dgrad_ae0e7acb1b7e15a81e4cb60a04f0e71c24kernel_get_kernel_recordEv
libcudnn_cnn_infer.so.8:_ZN17cask_plugin_cudnn10xmma_cudnn52implicit_gemm_dgrad_ae892c8a51bf1c17094f8e1d23cadc7a24kernel_get_kernel_recordEv
libcudnn_cnn_infer.so.8:_ZN17cask_plugin_cudnn10xmma_cudnn52implicit_gemm_dgrad_aea032f31b958df91b0c7fd610cc209824kernel_get_kernel_recordEv
libcudnn_cnn_infer.so.8:_ZN17cask_plugin_cudnn10xmma_cudnn52implicit_gemm_dgrad_aeade62b5472897cdee0c88c6749256a24kernel_get_kernel_recordEv
libcudnn_cnn_infer.so.8:_ZN17cask_plugin_cudnn10xmma_cudnn52implicit_gemm_dgrad_aebd191014ad6ad000cc4db2887bb29924kernel_get_kernel_recordEv
libcudnn_cnn_infer.so.8:_ZN17cask_plugin_cudnn10xmma_cudnn52implicit_gemm_dgrad_aebd922d3ca4ed12e721aca0420ff26b24kernel_get_kernel_recordEv
libcudnn_cnn_infer.so.8:_ZN17cask_plugin_cudnn10xmma_cudnn52implicit_gemm_dgrad_aec6932ff4258b7e7b3b2ced24bdf31624kernel_get_kernel_recordEv
libcudnn_cnn_infer.so.8:_ZN17cask_plugin_cudnn10xmma_cudnn52implicit_gemm_dgrad_aec76ac16b0fc5837096c07cec2a063224kernel_get_kernel_recordEv
libcudnn_cnn_infer.so.8:_ZN17cask_plugin_cudnn10xmma_cudnn52implicit_gemm_dgrad_aeedb3d68578c9fd770345880d9842f624kernel_get_kernel_recordEv
libcudnn_cnn_infer.so.8:_ZN17cask_plugin_cudnn10xmma_cudnn52implicit_gemm_dgrad_aefb085dd5820816a8c0b979bc58ce6324kernel_get_kernel_recordEv
libcudnn_cnn_infer.so.8:_ZN17cask_plugin_cudnn10xmma_cudnn52implicit_gemm_dgrad_aefdc7e1c07b89f7822c3baeff8eda3b24kernel_get_kernel_recordEv
libcudnn_cnn_infer.so.8:_ZN17cask_plugin_cudnn10xmma_cudnn52implicit_gemm_dgrad_af08ce4f4b46035abaef5bbda865d76e24kernel_get_kernel_recordEv
libcudnn_cnn_infer.so.8:_ZN17cask_plugin_cudnn10xmma_cudnn52implicit_gemm_dgrad_af216122c2410eee10249fe2930fa65724kernel_get_kernel_recordEv
libcudnn_cnn_infer.so.8:_ZN17cask_plugin_cudnn10xmma_cudnn52implicit_gemm_dgrad_af5d519e8a7ec3b3050bb3287382588f24kernel_get_kernel_recordEv
libcudnn_cnn_infer.so.8:_ZN17cask_plugin_cudnn10xmma_cudnn52implicit_gemm_dgrad_af84f8f2f1aac17341eae2b1a3bf292224kernel_get_kernel_recordEv
libcudnn_cnn_infer.so.8:_ZN17cask_plugin_cudnn10xmma_cudnn52implicit_gemm_dgrad_afcac447940878573937704cb936ab9624kernel_get_kernel_recordEv
libcudnn_cnn_infer.so.8:_ZN17cask_plugin_cudnn10xmma_cudnn52implicit_gemm_dgrad_afcef4ec0d6e7de58bbb86576b9b5a2b24kernel_get_kernel_recordEv
libcudnn_cnn_infer.so.8:_ZN17cask_plugin_cudnn10xmma_cudnn52implicit_gemm_dgrad_b08608cd57b4b4ccb21e91b8b898481d24kernel_get_kernel_recordEv
libcudnn_cnn_infer.so.8:_ZN17cask_plugin_cudnn10xmma_cudnn52implicit_gemm_dgrad_b0c386690c7d064417d614e10c30b28424kernel_get_kernel_recordEv
libcudnn_cnn_infer.so.8:_ZN17cask_plugin_cudnn10xmma_cudnn52implicit_gemm_dgrad_b0c7bdef96d74ba9d824345c044ed63024kernel_get_kernel_recordEv
libcudnn_cnn_infer.so.8:_ZN17cask_plugin_cudnn10xmma_cudnn52implicit_gemm_dgrad_b0dfb53418218d854f78a4825314d33524kernel_get_kernel_recordEv
libcudnn_cnn_infer.so.8:_ZN17cask_plugin_cudnn10xmma_cudnn52implicit_gemm_dgrad_b10e7aaff6e120ecb638a2b67848643e24kernel_get_kernel_recordEv
libcudnn_cnn_infer.so.8:_ZN17cask_plugin_cudnn10xmma_cudnn52implicit_gemm_dgrad_b13cbe13bc258693d8d02ce8a4a6c73c24kernel_get_kernel_recordEv
libcudnn_cnn_infer.so.8:_ZN17cask_plugin_cudnn10xmma_cudnn52implicit_gemm_dgrad_b15f1a592c39af2946d093b47fa5f4c824kernel_get_kernel_recordEv
libcudnn_cnn_infer.so.8:_ZN17cask_plugin_cudnn10xmma_cudnn52implicit_gemm_dgrad_b16a0f192cde2282591623c009dffc1024kernel_get_kernel_recordEv
libcudnn_cnn_infer.so.8:_ZN17cask_plugin_cudnn10xmma_cudnn52implicit_gemm_dgrad_b18797a41e9c3f49cae9a4a8686fd57a24kernel_get_kernel_recordEv
libcudnn_cnn_infer.so.8:_ZN17cask_plugin_cudnn10xmma_cudnn52implicit_gemm_dgrad_b18a2de47162718553b8c3fe5c608c4f24kernel_get_kernel_recordEv
libcudnn_cnn_infer.so.8:_ZN17cask_plugin_cudnn10xmma_cudnn52implicit_gemm_dgrad_b1f8d15f95f765293b1bad23ed55525f24kernel_get_kernel_recordEv
libcudnn_cnn_infer.so.8:_ZN17cask_plugin_cudnn10xmma_cudnn52implicit_gemm_dgrad_b2262da9eecd23550983abe6e85715d424kernel_get_kernel_recordEv
libcudnn_cnn_infer.so.8:_ZN17cask_plugin_cudnn10xmma_cudnn52implicit_gemm_dgrad_b248ffa5cf2fce3d0b1ea4914e8aee9824kernel_get_kernel_recordEv
libcudnn_cnn_infer.so.8:_ZN17cask_plugin_cudnn10xmma_cudnn52implicit_gemm_dgrad_b25a800debc9762ac54b399c1797907f24kernel_get_kernel_recordEv
libcudnn_cnn_infer.so.8:_ZN17cask_plugin_cudnn10xmma_cudnn52implicit_gemm_dgrad_b264ac6bcf75cb220108cdd90a4f4ace24kernel_get_kernel_recordEv
libcudnn_cnn_infer.so.8:_ZN17cask_plugin_cudnn10xmma_cudnn52implicit_gemm_dgrad_b2965547b87374fe9ba87f8d94fa2b8624kernel_get_kernel_recordEv
libcudnn_cnn_infer.so.8:_ZN17cask_plugin_cudnn10xmma_cudnn52implicit_gemm_dgrad_b2ad922f9ebe0df4caa6407a186ff3c624kernel_get_kernel_recordEv
libcudnn_cnn_infer.so.8:_ZN17cask_plugin_cudnn10xmma_cudnn52implicit_gemm_dgrad_b2be9042090d61ee3d4d611c2861202724kernel_get_kernel_recordEv
libcudnn_cnn_infer.so.8:_ZN17cask_plugin_cudnn10xmma_cudnn52implicit_gemm_dgrad_b2fcf5045fb4b14e2d409c34028deeb924kernel_get_kernel_recordEv
libcudnn_cnn_infer.so.8:_ZN17cask_plugin_cudnn10xmma_cudnn52implicit_gemm_dgrad_b300616ced3d25d2294b0077f059248024kernel_get_kernel_recordEv
libcudnn_cnn_infer.so.8:_ZN17cask_plugin_cudnn10xmma_cudnn52implicit_gemm_dgrad_b305b4daea9734eb6a7de345903db35924kernel_get_kernel_recordEv
libcudnn_cnn_infer.so.8:_ZN17cask_plugin_cudnn10xmma_cudnn52implicit_gemm_dgrad_b308d6e7d6e43a3eac93424e38252d4624kernel_get_kernel_recordEv
libcudnn_cnn_infer.so.8:_ZN17cask_plugin_cudnn10xmma_cudnn52implicit_gemm_dgrad_b30b8f99cc6621d94394b5ed945481a324kernel_get_kernel_recordEv
libcudnn_cnn_infer.so.8:_ZN17cask_plugin_cudnn10xmma_cudnn52implicit_gemm_dgrad_b323f977760d2b3fb937dba90e9da23324kernel_get_kernel_recordEv
libcudnn_cnn_infer.so.8:_ZN17cask_plugin_cudnn10xmma_cudnn52implicit_gemm_dgrad_b35b71b46f236bb763b8d83de065945b24kernel_get_kernel_recordEv
libcudnn_cnn_infer.so.8:_ZN17cask_plugin_cudnn10xmma_cudnn52implicit_gemm_dgrad_b36caa6521e410f097843c11035a741424kernel_get_kernel_recordEv
libcudnn_cnn_infer.so.8:_ZN17cask_plugin_cudnn10xmma_cudnn52implicit_gemm_dgrad_b3b50d0fd891c427c17ba147de418a5124kernel_get_kernel_recordEv
libcudnn_cnn_infer.so.8:_ZN17cask_plugin_cudnn10xmma_cudnn52implicit_gemm_dgrad_b3c042199339f414ae4b9acd356e1ef724kernel_get_kernel_recordEv
libcudnn_cnn_infer.so.8:_ZN17cask_plugin_cudnn10xmma_cudnn52implicit_gemm_dgrad_b3c78f94ff1555d6a3dd91ee6151f43524kernel_get_kernel_recordEv
libcudnn_cnn_infer.so.8:_ZN17cask_plugin_cudnn10xmma_cudnn52implicit_gemm_dgrad_b3ebcc5c30963c29ad473f409279182724kernel_get_kernel_recordEv
libcudnn_cnn_infer.so.8:_ZN17cask_plugin_cudnn10xmma_cudnn52implicit_gemm_dgrad_b43f2b2e04c42c855252ff69c9037d3224kernel_get_kernel_recordEv
libcudnn_cnn_infer.so.8:_ZN17cask_plugin_cudnn10xmma_cudnn52implicit_gemm_dgrad_b462e6760f5e22057d36c3c9f1b1b2dc24kernel_get_kernel_recordEv
libcudnn_cnn_infer.so.8:_ZN17cask_plugin_cudnn10xmma_cudnn52implicit_gemm_dgrad_b47312a7f7ce323e274c42cdc599c35024kernel_get_kernel_recordEv
libcudnn_cnn_infer.so.8:_ZN17cask_plugin_cudnn10xmma_cudnn52implicit_gemm_dgrad_b488bca1a872121920c25313c924087224kernel_get_kernel_recordEv
libcudnn_cnn_infer.so.8:_ZN17cask_plugin_cudnn10xmma_cudnn52implicit_gemm_dgrad_b4a46a4239bcd34472766e58a8c215f424kernel_get_kernel_recordEv
libcudnn_cnn_infer.so.8:_ZN17cask_plugin_cudnn10xmma_cudnn52implicit_gemm_dgrad_b4e876308fe2cc6ae3c0cdaaac6fb39f24kernel_get_kernel_recordEv
libcudnn_cnn_infer.so.8:_ZN17cask_plugin_cudnn10xmma_cudnn52implicit_gemm_dgrad_b4ef914d8463fe428e7a3ea182e3d81d24kernel_get_kernel_recordEv
libcudnn_cnn_infer.so.8:_ZN17cask_plugin_cudnn10xmma_cudnn52implicit_gemm_dgrad_b55437d58b9651bc29fc46d26173bc6124kernel_get_kernel_recordEv
libcudnn_cnn_infer.so.8:_ZN17cask_plugin_cudnn10xmma_cudnn52implicit_gemm_dgrad_b565de3b38ddcae4c8108139681fe68024kernel_get_kernel_recordEv
libcudnn_cnn_infer.so.8:_ZN17cask_plugin_cudnn10xmma_cudnn52implicit_gemm_dgrad_b57d76924bd12816f6146db32979f2b724kernel_get_kernel_recordEv
libcudnn_cnn_infer.so.8:_ZN17cask_plugin_cudnn10xmma_cudnn52implicit_gemm_dgrad_b57e85b8286bf3245de9c0871212b9c224kernel_get_kernel_recordEv
libcudnn_cnn_infer.so.8:_ZN17cask_plugin_cudnn10xmma_cudnn52implicit_gemm_dgrad_b5837c0aa86d82cf0d9b7aa38d80af9b24kernel_get_kernel_recordEv
libcudnn_cnn_infer.so.8:_ZN17cask_plugin_cudnn10xmma_cudnn52implicit_gemm_dgrad_b6090aceca8fc5a16d6e5e9894d16ad324kernel_get_kernel_recordEv
libcudnn_cnn_infer.so.8:_ZN17cask_plugin_cudnn10xmma_cudnn52implicit_gemm_dgrad_b6094cb28287c72c4cbbcaf91427f82a24kernel_get_kernel_recordEv
libcudnn_cnn_infer.so.8:_ZN17cask_plugin_cudnn10xmma_cudnn52implicit_gemm_dgrad_b60ca68dccd55acc923016b2e1c6efb724kernel_get_kernel_recordEv
libcudnn_cnn_infer.so.8:_ZN17cask_plugin_cudnn10xmma_cudnn52implicit_gemm_dgrad_b61c2f83d684e586d2451e0b58a0ec5124kernel_get_kernel_recordEv
libcudnn_cnn_infer.so.8:_ZN17cask_plugin_cudnn10xmma_cudnn52implicit_gemm_dgrad_b61f15d1db6f8072f4a663dc92ae4ad124kernel_get_kernel_recordEv
libcudnn_cnn_infer.so.8:_ZN17cask_plugin_cudnn10xmma_cudnn52implicit_gemm_dgrad_b6353f64faed3195f48d1d588496908624kernel_get_kernel_recordEv
libcudnn_cnn_infer.so.8:_ZN17cask_plugin_cudnn10xmma_cudnn52implicit_gemm_dgrad_b63af0559951647fe5befc6621d012ab24kernel_get_kernel_recordEv
libcudnn_cnn_infer.so.8:_ZN17cask_plugin_cudnn10xmma_cudnn52implicit_gemm_dgrad_b675872dbc2fe221ec9847041170caaa24kernel_get_kernel_recordEv
libcudnn_cnn_infer.so.8:_ZN17cask_plugin_cudnn10xmma_cudnn52implicit_gemm_dgrad_b682243f5a3f9f0b144c1481ceaaf1fc24kernel_get_kernel_recordEv
libcudnn_cnn_infer.so.8:_ZN17cask_plugin_cudnn10xmma_cudnn52implicit_gemm_dgrad_b6d5ebb4246710a368e5f06de1b526b024kernel_get_kernel_recordEv
libcudnn_cnn_infer.so.8:_ZN17cask_plugin_cudnn10xmma_cudnn52implicit_gemm_dgrad_b6db4d1a98859ddf4e09323dd93eca2424kernel_get_kernel_recordEv
libcudnn_cnn_infer.so.8:_ZN17cask_plugin_cudnn10xmma_cudnn52implicit_gemm_dgrad_b6e0b893baca09131c648033542e8d0324kernel_get_kernel_recordEv
libcudnn_cnn_infer.so.8:_ZN17cask_plugin_cudnn10xmma_cudnn52implicit_gemm_dgrad_b6e7fd2bd222f100fcb32d92b56d4a7c24kernel_get_kernel_recordEv
libcudnn_cnn_infer.so.8:_ZN17cask_plugin_cudnn10xmma_cudnn52implicit_gemm_dgrad_b6f2d9da4231ca4edbb6e0204fa260b324kernel_get_kernel_recordEv
libcudnn_cnn_infer.so.8:_ZN17cask_plugin_cudnn10xmma_cudnn52implicit_gemm_dgrad_b748844fcc0c0e0d18e048d4a3e1443324kernel_get_kernel_recordEv
libcudnn_cnn_infer.so.8:_ZN17cask_plugin_cudnn10xmma_cudnn52implicit_gemm_dgrad_b78e75eae7f46092e9a63301e985ef9e24kernel_get_kernel_recordEv
libcudnn_cnn_infer.so.8:_ZN17cask_plugin_cudnn10xmma_cudnn52implicit_gemm_dgrad_b7a2493e880bd51f721d1835dc482ac924kernel_get_kernel_recordEv
libcudnn_cnn_infer.so.8:_ZN17cask_plugin_cudnn10xmma_cudnn52implicit_gemm_dgrad_b7d91c4e0a6465770a7699686ef13ee124kernel_get_kernel_recordEv
libcudnn_cnn_infer.so.8:_ZN17cask_plugin_cudnn10xmma_cudnn52implicit_gemm_dgrad_b7e1edfa6356fd84debc576003472c9a24kernel_get_kernel_recordEv
libcudnn_cnn_infer.so.8:_ZN17cask_plugin_cudnn10xmma_cudnn52implicit_gemm_dgrad_b7ec82c72f16ad7fdcce5c43377da2c124kernel_get_kernel_recordEv
libcudnn_cnn_infer.so.8:_ZN17cask_plugin_cudnn10xmma_cudnn52implicit_gemm_dgrad_b7ff6fe35e06a23264e1c24b5537f04824kernel_get_kernel_recordEv
libcudnn_cnn_infer.so.8:_ZN17cask_plugin_cudnn10xmma_cudnn52implicit_gemm_dgrad_b835e86bcc2e3a5ab4e19f9727271ff424kernel_get_kernel_recordEv
libcudnn_cnn_infer.so.8:_ZN17cask_plugin_cudnn10xmma_cudnn52implicit_gemm_dgrad_b83bb4daf37c4fa6301f7e36b375408b24kernel_get_kernel_recordEv
libcudnn_cnn_infer.so.8:_ZN17cask_plugin_cudnn10xmma_cudnn52implicit_gemm_dgrad_b85b6619b284f51d5a243e83d80f1ded24kernel_get_kernel_recordEv
libcudnn_cnn_infer.so.8:_ZN17cask_plugin_cudnn10xmma_cudnn52implicit_gemm_dgrad_b890326b1b9642dad391d6602c7437a324kernel_get_kernel_recordEv
libcudnn_cnn_infer.so.8:_ZN17cask_plugin_cudnn10xmma_cudnn52implicit_gemm_dgrad_b8a0c0caceb22ebf153fe6982cc1809624kernel_get_kernel_recordEv
libcudnn_cnn_infer.so.8:_ZN17cask_plugin_cudnn10xmma_cudnn52implicit_gemm_dgrad_b8b14f48f0eb109e34a5cfbdb59e95d524kernel_get_kernel_recordEv
libcudnn_cnn_infer.so.8:_ZN17cask_plugin_cudnn10xmma_cudnn52implicit_gemm_dgrad_b8f1a537b9363c726e23a2f49577887b24kernel_get_kernel_recordEv
libcudnn_cnn_infer.so.8:_ZN17cask_plugin_cudnn10xmma_cudnn52implicit_gemm_dgrad_b909eed8446937d3a0b0c5a394c0b6f924kernel_get_kernel_recordEv
libcudnn_cnn_infer.so.8:_ZN17cask_plugin_cudnn10xmma_cudnn52implicit_gemm_dgrad_b92d38be912c9d96ad0106ed631eecc424kernel_get_kernel_recordEv
libcudnn_cnn_infer.so.8:_ZN17cask_plugin_cudnn10xmma_cudnn52implicit_gemm_dgrad_b93e14f5d910fa5dc428b469921a2bf924kernel_get_kernel_recordEv
libcudnn_cnn_infer.so.8:_ZN17cask_plugin_cudnn10xmma_cudnn52implicit_gemm_dgrad_b96aaa0a5106f946f08cb645cb2f5cb724kernel_get_kernel_recordEv
libcudnn_cnn_infer.so.8:_ZN17cask_plugin_cudnn10xmma_cudnn52implicit_gemm_dgrad_b99192fae2c7be7499e52a606cb96a3e24kernel_get_kernel_recordEv
libcudnn_cnn_infer.so.8:_ZN17cask_plugin_cudnn10xmma_cudnn52implicit_gemm_dgrad_b9a07304ddf712c23e327e1e3333b48924kernel_get_kernel_recordEv
libcudnn_cnn_infer.so.8:_ZN17cask_plugin_cudnn10xmma_cudnn52implicit_gemm_dgrad_b9a683e83c0042069783420359a0230d24kernel_get_kernel_recordEv
libcudnn_cnn_infer.so.8:_ZN17cask_plugin_cudnn10xmma_cudnn52implicit_gemm_dgrad_b9c55b777154430fbab4ffac8b84371b24kernel_get_kernel_recordEv
libcudnn_cnn_infer.so.8:_ZN17cask_plugin_cudnn10xmma_cudnn52implicit_gemm_dgrad_b9c8cdfd1662e097d47fd753dda1144e24kernel_get_kernel_recordEv
libcudnn_cnn_infer.so.8:_ZN17cask_plugin_cudnn10xmma_cudnn52implicit_gemm_dgrad_ba64323d903bc6f4fac93e4e84af554424kernel_get_kernel_recordEv
libcudnn_cnn_infer.so.8:_ZN17cask_plugin_cudnn10xmma_cudnn52implicit_gemm_dgrad_bab5c0e5ddc0cbc108d31c41b7400e0124kernel_get_kernel_recordEv
libcudnn_cnn_infer.so.8:_ZN17cask_plugin_cudnn10xmma_cudnn52implicit_gemm_dgrad_bac2a58d0da080aad49aa8a3df28e0c424kernel_get_kernel_recordEv
libcudnn_cnn_infer.so.8:_ZN17cask_plugin_cudnn10xmma_cudnn52implicit_gemm_dgrad_bad1d1673d5475700eb4571dd4ffcc1b24kernel_get_kernel_recordEv
libcudnn_cnn_infer.so.8:_ZN17cask_plugin_cudnn10xmma_cudnn52implicit_gemm_dgrad_baf6065c295aabf34fc5eeb7512f102a24kernel_get_kernel_recordEv
libcudnn_cnn_infer.so.8:_ZN17cask_plugin_cudnn10xmma_cudnn52implicit_gemm_dgrad_bb6946508f0ea5d32a16f4e50e01232824kernel_get_kernel_recordEv
libcudnn_cnn_infer.so.8:_ZN17cask_plugin_cudnn10xmma_cudnn52implicit_gemm_dgrad_bb7c005dcb139449203bcba53e81b28324kernel_get_kernel_recordEv
libcudnn_cnn_infer.so.8:_ZN17cask_plugin_cudnn10xmma_cudnn52implicit_gemm_dgrad_bbaf484c74034e1c0ae616bf1a6800b624kernel_get_kernel_recordEv
libcudnn_cnn_infer.so.8:_ZN17cask_plugin_cudnn10xmma_cudnn52implicit_gemm_dgrad_bbe075170a6ca6d5a7e7da17cd083e2224kernel_get_kernel_recordEv
libcudnn_cnn_infer.so.8:_ZN17cask_plugin_cudnn10xmma_cudnn52implicit_gemm_dgrad_bbe143beefbf93af69a5a3deaa6d447d24kernel_get_kernel_recordEv
libcudnn_cnn_infer.so.8:_ZN17cask_plugin_cudnn10xmma_cudnn52implicit_gemm_dgrad_bbf650ad57c5ee74ed811e52219bd13e24kernel_get_kernel_recordEv
libcudnn_cnn_infer.so.8:_ZN17cask_plugin_cudnn10xmma_cudnn52implicit_gemm_dgrad_bc896501f9c033725e2b5ffe7806231d24kernel_get_kernel_recordEv
libcudnn_cnn_infer.so.8:_ZN17cask_plugin_cudnn10xmma_cudnn52implicit_gemm_dgrad_bcbdae2de8a7f71dddd113866d22a2e124kernel_get_kernel_recordEv
libcudnn_cnn_infer.so.8:_ZN17cask_plugin_cudnn10xmma_cudnn52implicit_gemm_dgrad_bcdbb1b21764a85f8f054bc2b505de7524kernel_get_kernel_recordEv
libcudnn_cnn_infer.so.8:_ZN17cask_plugin_cudnn10xmma_cudnn52implicit_gemm_dgrad_bd45c9af008a3acfc936c638ea29ec5024kernel_get_kernel_recordEv
libcudnn_cnn_infer.so.8:_ZN17cask_plugin_cudnn10xmma_cudnn52implicit_gemm_dgrad_bd5685e4d0f3097170e0a45b303d6ccd24kernel_get_kernel_recordEv
libcudnn_cnn_infer.so.8:_ZN17cask_plugin_cudnn10xmma_cudnn52implicit_gemm_dgrad_bd6a3697f01659136422396a285af5d824kernel_get_kernel_recordEv
libcudnn_cnn_infer.so.8:_ZN17cask_plugin_cudnn10xmma_cudnn52implicit_gemm_dgrad_bda409784706a495931e65eb3c3b332524kernel_get_kernel_recordEv
libcudnn_cnn_infer.so.8:_ZN17cask_plugin_cudnn10xmma_cudnn52implicit_gemm_dgrad_be2b7232be740ed5f209cebaf823de8124kernel_get_kernel_recordEv
libcudnn_cnn_infer.so.8:_ZN17cask_plugin_cudnn10xmma_cudnn52implicit_gemm_dgrad_be39ee0bf8de50cd1d64829f5a155bd624kernel_get_kernel_recordEv
libcudnn_cnn_infer.so.8:_ZN17cask_plugin_cudnn10xmma_cudnn52implicit_gemm_dgrad_be660e66de56a2cdf068a06f2ae0153724kernel_get_kernel_recordEv
libcudnn_cnn_infer.so.8:_ZN17cask_plugin_cudnn10xmma_cudnn52implicit_gemm_dgrad_be680b53bbbfe1c6f52b2df0b112f68c24kernel_get_kernel_recordEv
libcudnn_cnn_infer.so.8:_ZN17cask_plugin_cudnn10xmma_cudnn52implicit_gemm_dgrad_be77781fa1e33487b60b7520d60f256c24kernel_get_kernel_recordEv
libcudnn_cnn_infer.so.8:_ZN17cask_plugin_cudnn10xmma_cudnn52implicit_gemm_dgrad_be7b98e80999023af59210096bdbf61724kernel_get_kernel_recordEv
libcudnn_cnn_infer.so.8:_ZN17cask_plugin_cudnn10xmma_cudnn52implicit_gemm_dgrad_be8230ac7401bb9d5d31d8a5898028b224kernel_get_kernel_recordEv
libcudnn_cnn_infer.so.8:_ZN17cask_plugin_cudnn10xmma_cudnn52implicit_gemm_dgrad_be96dd258ce7079c7c1b23cab4cf07c524kernel_get_kernel_recordEv
libcudnn_cnn_infer.so.8:_ZN17cask_plugin_cudnn10xmma_cudnn52implicit_gemm_dgrad_be98cd5b0f6902d75d3a89adfdfc0b6124kernel_get_kernel_recordEv
libcudnn_cnn_infer.so.8:_ZN17cask_plugin_cudnn10xmma_cudnn52implicit_gemm_dgrad_beb372838b0f79cc39914aebb422215d24kernel_get_kernel_recordEv
libcudnn_cnn_infer.so.8:_ZN17cask_plugin_cudnn10xmma_cudnn52implicit_gemm_dgrad_bec75c3ac8ea79334473491c4f6a383a24kernel_get_kernel_recordEv
libcudnn_cnn_infer.so.8:_ZN17cask_plugin_cudnn10xmma_cudnn52implicit_gemm_dgrad_beea6d03c2cefef9a5ec758e0860a0d424kernel_get_kernel_recordEv
libcudnn_cnn_infer.so.8:_ZN17cask_plugin_cudnn10xmma_cudnn52implicit_gemm_dgrad_befc9c314d258d7a04087d28f83d25c524kernel_get_kernel_recordEv
libcudnn_cnn_infer.so.8:_ZN17cask_plugin_cudnn10xmma_cudnn52implicit_gemm_dgrad_bf0ecb0373b653ae771999e9b9d151e024kernel_get_kernel_recordEv
libcudnn_cnn_infer.so.8:_ZN17cask_plugin_cudnn10xmma_cudnn52implicit_gemm_dgrad_bf7df9f7088f17124bf2211deab5f9e824kernel_get_kernel_recordEv
libcudnn_cnn_infer.so.8:_ZN17cask_plugin_cudnn10xmma_cudnn52implicit_gemm_dgrad_bf9c6b6ff46d4aef01ae1e37e0b4aa9d24kernel_get_kernel_recordEv
libcudnn_cnn_infer.so.8:_ZN17cask_plugin_cudnn10xmma_cudnn52implicit_gemm_dgrad_c0085b8ad80417b71dec90425848dfbe24kernel_get_kernel_recordEv
libcudnn_cnn_infer.so.8:_ZN17cask_plugin_cudnn10xmma_cudnn52implicit_gemm_dgrad_c0248d730f737be08153bd79f29bfef924kernel_get_kernel_recordEv
libcudnn_cnn_infer.so.8:_ZN17cask_plugin_cudnn10xmma_cudnn52implicit_gemm_dgrad_c1206773330994c3efa8b7bfd62620d824kernel_get_kernel_recordEv
libcudnn_cnn_infer.so.8:_ZN17cask_plugin_cudnn10xmma_cudnn52implicit_gemm_dgrad_c19b9b67ecbded4414f02bc4e6aea13124kernel_get_kernel_recordEv
libcudnn_cnn_infer.so.8:_ZN17cask_plugin_cudnn10xmma_cudnn52implicit_gemm_dgrad_c19cdec2e5b89d4a1e00e8a82a4ca38024kernel_get_kernel_recordEv
libcudnn_cnn_infer.so.8:_ZN17cask_plugin_cudnn10xmma_cudnn52implicit_gemm_dgrad_c22655b810b0addcbca1da994844720724kernel_get_kernel_recordEv
libcudnn_cnn_infer.so.8:_ZN17cask_plugin_cudnn10xmma_cudnn52implicit_gemm_dgrad_c2395eec99cb461c6992cac979b170a724kernel_get_kernel_recordEv
libcudnn_cnn_infer.so.8:_ZN17cask_plugin_cudnn10xmma_cudnn52implicit_gemm_dgrad_c23b27ce9bfb9645d1504fbd7830b1ad24kernel_get_kernel_recordEv
libcudnn_cnn_infer.so.8:_ZN17cask_plugin_cudnn10xmma_cudnn52implicit_gemm_dgrad_c2695aae6ec61ad2f617ab4c373b58c624kernel_get_kernel_recordEv
libcudnn_cnn_infer.so.8:_ZN17cask_plugin_cudnn10xmma_cudnn52implicit_gemm_dgrad_c2778d187a4975b8f1d820b0bc23489a24kernel_get_kernel_recordEv
libcudnn_cnn_infer.so.8:_ZN17cask_plugin_cudnn10xmma_cudnn52implicit_gemm_dgrad_c278472c223a9e02017b64f7806b7fb724kernel_get_kernel_recordEv
libcudnn_cnn_infer.so.8:_ZN17cask_plugin_cudnn10xmma_cudnn52implicit_gemm_dgrad_c2d5eb07cd96b4cb2921065987aaff2824kernel_get_kernel_recordEv
libcudnn_cnn_infer.so.8:_ZN17cask_plugin_cudnn10xmma_cudnn52implicit_gemm_dgrad_c340722a2776e7b30e695bb5691996b724kernel_get_kernel_recordEv
libcudnn_cnn_infer.so.8:_ZN17cask_plugin_cudnn10xmma_cudnn52implicit_gemm_dgrad_c35874448951b27086d4007663429cd224kernel_get_kernel_recordEv
libcudnn_cnn_infer.so.8:_ZN17cask_plugin_cudnn10xmma_cudnn52implicit_gemm_dgrad_c3897b48ae1bd3dad651bda03b798b8c24kernel_get_kernel_recordEv
libcudnn_cnn_infer.so.8:_ZN17cask_plugin_cudnn10xmma_cudnn52implicit_gemm_dgrad_c38dba0f9f07d67a660698f1758a1acb24kernel_get_kernel_recordEv
libcudnn_cnn_infer.so.8:_ZN17cask_plugin_cudnn10xmma_cudnn52implicit_gemm_dgrad_c41a4a88382862d8a0aa2b467093b37824kernel_get_kernel_recordEv
libcudnn_cnn_infer.so.8:_ZN17cask_plugin_cudnn10xmma_cudnn52implicit_gemm_dgrad_c47b5537f0c56553c869a85eaf5aee1d24kernel_get_kernel_recordEv
libcudnn_cnn_infer.so.8:_ZN17cask_plugin_cudnn10xmma_cudnn52implicit_gemm_dgrad_c481c60afe9e4fc2ae4ac41f58b062aa24kernel_get_kernel_recordEv
libcudnn_cnn_infer.so.8:_ZN17cask_plugin_cudnn10xmma_cudnn52implicit_gemm_dgrad_c4a8cf0c88e9d5795aee94da62f48f0e24kernel_get_kernel_recordEv
libcudnn_cnn_infer.so.8:_ZN17cask_plugin_cudnn10xmma_cudnn52implicit_gemm_dgrad_c4addb650d011ed39f79bb951e6bba5924kernel_get_kernel_recordEv
libcudnn_cnn_infer.so.8:_ZN17cask_plugin_cudnn10xmma_cudnn52implicit_gemm_dgrad_c5529cdde110f6b40263f1095783a74024kernel_get_kernel_recordEv
libcudnn_cnn_infer.so.8:_ZN17cask_plugin_cudnn10xmma_cudnn52implicit_gemm_dgrad_c568d273b5ea901a384317893dc00c9a24kernel_get_kernel_recordEv
libcudnn_cnn_infer.so.8:_ZN17cask_plugin_cudnn10xmma_cudnn52implicit_gemm_dgrad_c58e90154b90d152e69442c928439e5324kernel_get_kernel_recordEv
libcudnn_cnn_infer.so.8:_ZN17cask_plugin_cudnn10xmma_cudnn52implicit_gemm_dgrad_c5acdbd6f7b4dbddb95385258c22076024kernel_get_kernel_recordEv
libcudnn_cnn_infer.so.8:_ZN17cask_plugin_cudnn10xmma_cudnn52implicit_gemm_dgrad_c5bd519ad9149f36f4c6f8a1f856d48e24kernel_get_kernel_recordEv
libcudnn_cnn_infer.so.8:_ZN17cask_plugin_cudnn10xmma_cudnn52implicit_gemm_dgrad_c5cfe3d961aa487475bf5e7645130a6e24kernel_get_kernel_recordEv
libcudnn_cnn_infer.so.8:_ZN17cask_plugin_cudnn10xmma_cudnn52implicit_gemm_dgrad_c5df6569453c16901d9915ae8cdd43fa24kernel_get_kernel_recordEv
libcudnn_cnn_infer.so.8:_ZN17cask_plugin_cudnn10xmma_cudnn52implicit_gemm_dgrad_c5e002b3792353036a6edfa39fc8158a24kernel_get_kernel_recordEv
libcudnn_cnn_infer.so.8:_ZN17cask_plugin_cudnn10xmma_cudnn52implicit_gemm_dgrad_c608eca161731954470cb6dba812775b24kernel_get_kernel_recordEv
libcudnn_cnn_infer.so.8:_ZN17cask_plugin_cudnn10xmma_cudnn52implicit_gemm_dgrad_c61d929cde7c765a63d63984a31957db24kernel_get_kernel_recordEv
libcudnn_cnn_infer.so.8:_ZN17cask_plugin_cudnn10xmma_cudnn52implicit_gemm_dgrad_c627860cc0777582241199a59203f92224kernel_get_kernel_recordEv
libcudnn_cnn_infer.so.8:_ZN17cask_plugin_cudnn10xmma_cudnn52implicit_gemm_dgrad_c6b5f973c9e5ce1c8170efc31c5f259c24kernel_get_kernel_recordEv
libcudnn_cnn_infer.so.8:_ZN17cask_plugin_cudnn10xmma_cudnn52implicit_gemm_dgrad_c7324d61bd2f2233a355f7afea87477024kernel_get_kernel_recordEv
libcudnn_cnn_infer.so.8:_ZN17cask_plugin_cudnn10xmma_cudnn52implicit_gemm_dgrad_c7330849777579bda0b6d9ec8c9636fd24kernel_get_kernel_recordEv
libcudnn_cnn_infer.so.8:_ZN17cask_plugin_cudnn10xmma_cudnn52implicit_gemm_dgrad_c7469982042bddb418a24e15795903de24kernel_get_kernel_recordEv
libcudnn_cnn_infer.so.8:_ZN17cask_plugin_cudnn10xmma_cudnn52implicit_gemm_dgrad_c75c0b3b1a3635ae6aacc7e8a55f78a624kernel_get_kernel_recordEv
libcudnn_cnn_infer.so.8:_ZN17cask_plugin_cudnn10xmma_cudnn52implicit_gemm_dgrad_c76b8497a89ae7bf4443b6669b51e4d524kernel_get_kernel_recordEv
libcudnn_cnn_infer.so.8:_ZN17cask_plugin_cudnn10xmma_cudnn52implicit_gemm_dgrad_c7897895683d3436a27c97d931ee2e5d24kernel_get_kernel_recordEv
libcudnn_cnn_infer.so.8:_ZN17cask_plugin_cudnn10xmma_cudnn52implicit_gemm_dgrad_c7cdb8c95f4064acd4d19082fc26810d24kernel_get_kernel_recordEv
libcudnn_cnn_infer.so.8:_ZN17cask_plugin_cudnn10xmma_cudnn52implicit_gemm_dgrad_c8315609a1c2fbe3470779b8190cd82f24kernel_get_kernel_recordEv
libcudnn_cnn_infer.so.8:_ZN17cask_plugin_cudnn10xmma_cudnn52implicit_gemm_dgrad_c83b5bb31dfddb965259b5e2c78626d724kernel_get_kernel_recordEv
libcudnn_cnn_infer.so.8:_ZN17cask_plugin_cudnn10xmma_cudnn52implicit_gemm_dgrad_c83d6afd553e44da7a58c0fc137e944824kernel_get_kernel_recordEv
libcudnn_cnn_infer.so.8:_ZN17cask_plugin_cudnn10xmma_cudnn52implicit_gemm_dgrad_c8423cf063acd31c0ae9f5e9961d5a3324kernel_get_kernel_recordEv
libcudnn_cnn_infer.so.8:_ZN17cask_plugin_cudnn10xmma_cudnn52implicit_gemm_dgrad_c84ce8db9c9d7dbf5f8a0004059147db24kernel_get_kernel_recordEv
libcudnn_cnn_infer.so.8:_ZN17cask_plugin_cudnn10xmma_cudnn52implicit_gemm_dgrad_c8732153f330a36d3f70bc7a10bcd15d24kernel_get_kernel_recordEv
libcudnn_cnn_infer.so.8:_ZN17cask_plugin_cudnn10xmma_cudnn52implicit_gemm_dgrad_c8807a8b3a21a65ceb73e455380befec24kernel_get_kernel_recordEv
libcudnn_cnn_infer.so.8:_ZN17cask_plugin_cudnn10xmma_cudnn52implicit_gemm_dgrad_c89916ecb3f2fed96c2f3ec442aa43b824kernel_get_kernel_recordEv
libcudnn_cnn_infer.so.8:_ZN17cask_plugin_cudnn10xmma_cudnn52implicit_gemm_dgrad_c8ed753d15b148a2b8cafa76340537f224kernel_get_kernel_recordEv
libcudnn_cnn_infer.so.8:_ZN17cask_plugin_cudnn10xmma_cudnn52implicit_gemm_dgrad_c94cd50738e853f0a5b635a7d9aa610b24kernel_get_kernel_recordEv
libcudnn_cnn_infer.so.8:_ZN17cask_plugin_cudnn10xmma_cudnn52implicit_gemm_dgrad_c9534dc88754379e66fad0209fb16ae024kernel_get_kernel_recordEv
libcudnn_cnn_infer.so.8:_ZN17cask_plugin_cudnn10xmma_cudnn52implicit_gemm_dgrad_c96a34192f97a6079e2a22e63010997924kernel_get_kernel_recordEv
libcudnn_cnn_infer.so.8:_ZN17cask_plugin_cudnn10xmma_cudnn52implicit_gemm_dgrad_c97b3f90a255df630ba90ea7b3e54ccc24kernel_get_kernel_recordEv
libcudnn_cnn_infer.so.8:_ZN17cask_plugin_cudnn10xmma_cudnn52implicit_gemm_dgrad_c9af28e167dd60a5eddf0abcc053cd4024kernel_get_kernel_recordEv
libcudnn_cnn_infer.so.8:_ZN17cask_plugin_cudnn10xmma_cudnn52implicit_gemm_dgrad_c9e663932ec133c8a376b7e315af859e24kernel_get_kernel_recordEv
libcudnn_cnn_infer.so.8:_ZN17cask_plugin_cudnn10xmma_cudnn52implicit_gemm_dgrad_ca31781e520c83efba6d3ae7132c26c324kernel_get_kernel_recordEv
libcudnn_cnn_infer.so.8:_ZN17cask_plugin_cudnn10xmma_cudnn52implicit_gemm_dgrad_ca4123d6c23409a5f4138db12ea68e5b24kernel_get_kernel_recordEv
libcudnn_cnn_infer.so.8:_ZN17cask_plugin_cudnn10xmma_cudnn52implicit_gemm_dgrad_ca95a81bd2f9bd52983befe74fecc43424kernel_get_kernel_recordEv
libcudnn_cnn_infer.so.8:_ZN17cask_plugin_cudnn10xmma_cudnn52implicit_gemm_dgrad_ca9665ddf5cd862db3862941cbf2d56f24kernel_get_kernel_recordEv
libcudnn_cnn_infer.so.8:_ZN17cask_plugin_cudnn10xmma_cudnn52implicit_gemm_dgrad_cacdac0ecfd3939dc7b3db4e7d01faf324kernel_get_kernel_recordEv
libcudnn_cnn_infer.so.8:_ZN17cask_plugin_cudnn10xmma_cudnn52implicit_gemm_dgrad_cacf8b16e780cc7fdc5f33850a79e74424kernel_get_kernel_recordEv
libcudnn_cnn_infer.so.8:_ZN17cask_plugin_cudnn10xmma_cudnn52implicit_gemm_dgrad_cafc3fd0046ade7a77b5c3337cf9d10024kernel_get_kernel_recordEv
libcudnn_cnn_infer.so.8:_ZN17cask_plugin_cudnn10xmma_cudnn52implicit_gemm_dgrad_cb15e4ab9947be27b628a070f4a3ccaa24kernel_get_kernel_recordEv
libcudnn_cnn_infer.so.8:_ZN17cask_plugin_cudnn10xmma_cudnn52implicit_gemm_dgrad_cb2a467080e2eb5bef729f21fd21a5dc24kernel_get_kernel_recordEv
libcudnn_cnn_infer.so.8:_ZN17cask_plugin_cudnn10xmma_cudnn52implicit_gemm_dgrad_cba602e0c918a1bd51f32484dbfc819224kernel_get_kernel_recordEv
libcudnn_cnn_infer.so.8:_ZN17cask_plugin_cudnn10xmma_cudnn52implicit_gemm_dgrad_cbcf7a66ab62342ccdcc027b553d62d924kernel_get_kernel_recordEv
libcudnn_cnn_infer.so.8:_ZN17cask_plugin_cudnn10xmma_cudnn52implicit_gemm_dgrad_cbe11d2bbfc329f984f89f7552465ac924kernel_get_kernel_recordEv
libcudnn_cnn_infer.so.8:_ZN17cask_plugin_cudnn10xmma_cudnn52implicit_gemm_dgrad_cc3b78f32e91879ba684aad38a7dfa0b24kernel_get_kernel_recordEv
libcudnn_cnn_infer.so.8:_ZN17cask_plugin_cudnn10xmma_cudnn52implicit_gemm_dgrad_cc42281f5275afeca73c1ea876f4210224kernel_get_kernel_recordEv
libcudnn_cnn_infer.so.8:_ZN17cask_plugin_cudnn10xmma_cudnn52implicit_gemm_dgrad_cc49924c761b1b596ed70998aaac20bb24kernel_get_kernel_recordEv
libcudnn_cnn_infer.so.8:_ZN17cask_plugin_cudnn10xmma_cudnn52implicit_gemm_dgrad_cc6250b372fc3112648a11753f84ec2124kernel_get_kernel_recordEv
libcudnn_cnn_infer.so.8:_ZN17cask_plugin_cudnn10xmma_cudnn52implicit_gemm_dgrad_cc7758f20bb3904ea2b8d1098e5c1a5a24kernel_get_kernel_recordEv
libcudnn_cnn_infer.so.8:_ZN17cask_plugin_cudnn10xmma_cudnn52implicit_gemm_dgrad_cc954ac471ab3093d742a9617743713724kernel_get_kernel_recordEv
libcudnn_cnn_infer.so.8:_ZN17cask_plugin_cudnn10xmma_cudnn52implicit_gemm_dgrad_cc9575f61c6c3a119c4a653b1c4f055f24kernel_get_kernel_recordEv
libcudnn_cnn_infer.so.8:_ZN17cask_plugin_cudnn10xmma_cudnn52implicit_gemm_dgrad_ccb652f241803a7f73d510f526f8a50824kernel_get_kernel_recordEv
libcudnn_cnn_infer.so.8:_ZN17cask_plugin_cudnn10xmma_cudnn52implicit_gemm_dgrad_ccc9dc89ec5345b4ea97cd39c7bf462824kernel_get_kernel_recordEv
libcudnn_cnn_infer.so.8:_ZN17cask_plugin_cudnn10xmma_cudnn52implicit_gemm_dgrad_ccda8ca29c69c156f06b9cffb285d35f24kernel_get_kernel_recordEv
libcudnn_cnn_infer.so.8:_ZN17cask_plugin_cudnn10xmma_cudnn52implicit_gemm_dgrad_cd05d561a739bd89f74ea05650da267524kernel_get_kernel_recordEv
libcudnn_cnn_infer.so.8:_ZN17cask_plugin_cudnn10xmma_cudnn52implicit_gemm_dgrad_cd10949f570b302837472ec38438ad6224kernel_get_kernel_recordEv
libcudnn_cnn_infer.so.8:_ZN17cask_plugin_cudnn10xmma_cudnn52implicit_gemm_dgrad_cd1f91702df422c410b692dd107e8cfc24kernel_get_kernel_recordEv
libcudnn_cnn_infer.so.8:_ZN17cask_plugin_cudnn10xmma_cudnn52implicit_gemm_dgrad_cd38772c1f28923655acb355ac3505ae24kernel_get_kernel_recordEv
libcudnn_cnn_infer.so.8:_ZN17cask_plugin_cudnn10xmma_cudnn52implicit_gemm_dgrad_cd4d8f17fb4869ccb93bad2e03c7422c24kernel_get_kernel_recordEv
libcudnn_cnn_infer.so.8:_ZN17cask_plugin_cudnn10xmma_cudnn52implicit_gemm_dgrad_cd4f83e5677d7678856fe87584a135f324kernel_get_kernel_recordEv
libcudnn_cnn_infer.so.8:_ZN17cask_plugin_cudnn10xmma_cudnn52implicit_gemm_dgrad_cd8a7e54d910aa7e9a88e8db9e3e91da24kernel_get_kernel_recordEv
libcudnn_cnn_infer.so.8:_ZN17cask_plugin_cudnn10xmma_cudnn52implicit_gemm_dgrad_cd946bcbe4a739699d5ba44711cb57db24kernel_get_kernel_recordEv
libcudnn_cnn_infer.so.8:_ZN17cask_plugin_cudnn10xmma_cudnn52implicit_gemm_dgrad_cd9c5c72090d95e72226f51ae24b500124kernel_get_kernel_recordEv
libcudnn_cnn_infer.so.8:_ZN17cask_plugin_cudnn10xmma_cudnn52implicit_gemm_dgrad_cdadc91541b9832d0f9e1b0b81cd5b5a24kernel_get_kernel_recordEv
libcudnn_cnn_infer.so.8:_ZN17cask_plugin_cudnn10xmma_cudnn52implicit_gemm_dgrad_cde53afc1519ab5de02341c88dad315324kernel_get_kernel_recordEv
libcudnn_cnn_infer.so.8:_ZN17cask_plugin_cudnn10xmma_cudnn52implicit_gemm_dgrad_cdf1691fb9bde92b26a419cec0b4ddc524kernel_get_kernel_recordEv
libcudnn_cnn_infer.so.8:_ZN17cask_plugin_cudnn10xmma_cudnn52implicit_gemm_dgrad_ce1efcc2152fe57bc053ed6f8b613f8324kernel_get_kernel_recordEv
libcudnn_cnn_infer.so.8:_ZN17cask_plugin_cudnn10xmma_cudnn52implicit_gemm_dgrad_ce2f363b9a44342c872dd86e56a51d9c24kernel_get_kernel_recordEv
libcudnn_cnn_infer.so.8:_ZN17cask_plugin_cudnn10xmma_cudnn52implicit_gemm_dgrad_cebc157ea261d1925d851b653fc23cba24kernel_get_kernel_recordEv
libcudnn_cnn_infer.so.8:_ZN17cask_plugin_cudnn10xmma_cudnn52implicit_gemm_dgrad_cebcaab1a003f795696f5cccfb51e78d24kernel_get_kernel_recordEv
libcudnn_cnn_infer.so.8:_ZN17cask_plugin_cudnn10xmma_cudnn52implicit_gemm_dgrad_cecb44ea7a9275acb3492b07a6ede3d924kernel_get_kernel_recordEv
libcudnn_cnn_infer.so.8:_ZN17cask_plugin_cudnn10xmma_cudnn52implicit_gemm_dgrad_cf075cc224a37520b7872f15003aafe924kernel_get_kernel_recordEv
libcudnn_cnn_infer.so.8:_ZN17cask_plugin_cudnn10xmma_cudnn52implicit_gemm_dgrad_cf20ec895f52a7eea2f2c5b20086291324kernel_get_kernel_recordEv
libcudnn_cnn_infer.so.8:_ZN17cask_plugin_cudnn10xmma_cudnn52implicit_gemm_dgrad_cf25eb19ea16eda48643c521c827949924kernel_get_kernel_recordEv
libcudnn_cnn_infer.so.8:_ZN17cask_plugin_cudnn10xmma_cudnn52implicit_gemm_dgrad_cf2f36a7e9928de1cc771d556525c04024kernel_get_kernel_recordEv
libcudnn_cnn_infer.so.8:_ZN17cask_plugin_cudnn10xmma_cudnn52implicit_gemm_dgrad_cf33cc4049fa58e88ff8c3d8f26c13c724kernel_get_kernel_recordEv
libcudnn_cnn_infer.so.8:_ZN17cask_plugin_cudnn10xmma_cudnn52implicit_gemm_dgrad_cf70e6d874b49b52fd22a7eeceba165624kernel_get_kernel_recordEv
libcudnn_cnn_infer.so.8:_ZN17cask_plugin_cudnn10xmma_cudnn52implicit_gemm_dgrad_cf78904c148b8c90dddf69117929ac2c24kernel_get_kernel_recordEv
libcudnn_cnn_infer.so.8:_ZN17cask_plugin_cudnn10xmma_cudnn52implicit_gemm_dgrad_cfb168df21a598addee128195a5b9f7124kernel_get_kernel_recordEv
libcudnn_cnn_infer.so.8:_ZN17cask_plugin_cudnn10xmma_cudnn52implicit_gemm_dgrad_cfd626dfe1a3ff03f08e1989002f628b24kernel_get_kernel_recordEv
libcudnn_cnn_infer.so.8:_ZN17cask_plugin_cudnn10xmma_cudnn52implicit_gemm_dgrad_cfe3d831786428f05d04e6da8a40664524kernel_get_kernel_recordEv
libcudnn_cnn_infer.so.8:_ZN17cask_plugin_cudnn10xmma_cudnn52implicit_gemm_dgrad_d080b065f1ecbd1bc11dac5cfdd802d824kernel_get_kernel_recordEv
libcudnn_cnn_infer.so.8:_ZN17cask_plugin_cudnn10xmma_cudnn52implicit_gemm_dgrad_d09c31278933b5757abfc1766437b1d024kernel_get_kernel_recordEv
libcudnn_cnn_infer.so.8:_ZN17cask_plugin_cudnn10xmma_cudnn52implicit_gemm_dgrad_d09e6dbd733026424cb8f12965774c9a24kernel_get_kernel_recordEv
libcudnn_cnn_infer.so.8:_ZN17cask_plugin_cudnn10xmma_cudnn52implicit_gemm_dgrad_d0c203319fac6b99168a9a57e685cef024kernel_get_kernel_recordEv
libcudnn_cnn_infer.so.8:_ZN17cask_plugin_cudnn10xmma_cudnn52implicit_gemm_dgrad_d0f022c3d78c18dcaa3b49a68b3f21f724kernel_get_kernel_recordEv
libcudnn_cnn_infer.so.8:_ZN17cask_plugin_cudnn10xmma_cudnn52implicit_gemm_dgrad_d15dd952e1c8d4b5c2297c35813fe04c24kernel_get_kernel_recordEv
libcudnn_cnn_infer.so.8:_ZN17cask_plugin_cudnn10xmma_cudnn52implicit_gemm_dgrad_d17089149d254381f444d674aa2e0f7c24kernel_get_kernel_recordEv
libcudnn_cnn_infer.so.8:_ZN17cask_plugin_cudnn10xmma_cudnn52implicit_gemm_dgrad_d1c1ee89d180fd2a7a6f9fe514f872c224kernel_get_kernel_recordEv
libcudnn_cnn_infer.so.8:_ZN17cask_plugin_cudnn10xmma_cudnn52implicit_gemm_dgrad_d1d8c29fd5c01fc61a0a361bfba2038b24kernel_get_kernel_recordEv
libcudnn_cnn_infer.so.8:_ZN17cask_plugin_cudnn10xmma_cudnn52implicit_gemm_dgrad_d201d9df7371a5c20cf975441560f0cf24kernel_get_kernel_recordEv
libcudnn_cnn_infer.so.8:_ZN17cask_plugin_cudnn10xmma_cudnn52implicit_gemm_dgrad_d24dcd7cfd3d5de8cddbd448512c787424kernel_get_kernel_recordEv
libcudnn_cnn_infer.so.8:_ZN17cask_plugin_cudnn10xmma_cudnn52implicit_gemm_dgrad_d251a2d4d45b485e4dc2f6a7cbe1865e24kernel_get_kernel_recordEv
libcudnn_cnn_infer.so.8:_ZN17cask_plugin_cudnn10xmma_cudnn52implicit_gemm_dgrad_d2b9c8e88d1cd0de2b3a4abce37a0d2a24kernel_get_kernel_recordEv
libcudnn_cnn_infer.so.8:_ZN17cask_plugin_cudnn10xmma_cudnn52implicit_gemm_dgrad_d2e530d17cac7126ae5c24b84a98b0d624kernel_get_kernel_recordEv
libcudnn_cnn_infer.so.8:_ZN17cask_plugin_cudnn10xmma_cudnn52implicit_gemm_dgrad_d3105c463265e4c6b4aea9a8eaff482d24kernel_get_kernel_recordEv
libcudnn_cnn_infer.so.8:_ZN17cask_plugin_cudnn10xmma_cudnn52implicit_gemm_dgrad_d34900346ad096ee837679f2f911da1124kernel_get_kernel_recordEv
libcudnn_cnn_infer.so.8:_ZN17cask_plugin_cudnn10xmma_cudnn52implicit_gemm_dgrad_d3752932eec871f7bba43ab8ba8f6a7424kernel_get_kernel_recordEv
libcudnn_cnn_infer.so.8:_ZN17cask_plugin_cudnn10xmma_cudnn52implicit_gemm_dgrad_d38c01b9df25c28ee6af080de1c125a524kernel_get_kernel_recordEv
libcudnn_cnn_infer.so.8:_ZN17cask_plugin_cudnn10xmma_cudnn52implicit_gemm_dgrad_d3b91b10195ae00a7840ffa94a99598524kernel_get_kernel_recordEv
libcudnn_cnn_infer.so.8:_ZN17cask_plugin_cudnn10xmma_cudnn52implicit_gemm_dgrad_d3c6ff246b0909d191aba6fc56af652d24kernel_get_kernel_recordEv
libcudnn_cnn_infer.so.8:_ZN17cask_plugin_cudnn10xmma_cudnn52implicit_gemm_dgrad_d40909356e52824d0b6f24d459f97f4424kernel_get_kernel_recordEv
libcudnn_cnn_infer.so.8:_ZN17cask_plugin_cudnn10xmma_cudnn52implicit_gemm_dgrad_d40b8cfa969b559c1d5bc2980783cfaa24kernel_get_kernel_recordEv
libcudnn_cnn_infer.so.8:_ZN17cask_plugin_cudnn10xmma_cudnn52implicit_gemm_dgrad_d4e9fe956aae628d7609a876fc3d475324kernel_get_kernel_recordEv
libcudnn_cnn_infer.so.8:_ZN17cask_plugin_cudnn10xmma_cudnn52implicit_gemm_dgrad_d4f858175575c7f602684fec6b58b34d24kernel_get_kernel_recordEv
libcudnn_cnn_infer.so.8:_ZN17cask_plugin_cudnn10xmma_cudnn52implicit_gemm_dgrad_d500d11ec908128ac581593646070c5c24kernel_get_kernel_recordEv
libcudnn_cnn_infer.so.8:_ZN17cask_plugin_cudnn10xmma_cudnn52implicit_gemm_dgrad_d50840f4a5ef06ae6bf43f4e5246daff24kernel_get_kernel_recordEv
libcudnn_cnn_infer.so.8:_ZN17cask_plugin_cudnn10xmma_cudnn52implicit_gemm_dgrad_d536878e3978472d2da97925ebd3f60124kernel_get_kernel_recordEv
libcudnn_cnn_infer.so.8:_ZN17cask_plugin_cudnn10xmma_cudnn52implicit_gemm_dgrad_d5ae356cacf00a5c3c623804cbb2aadd24kernel_get_kernel_recordEv
libcudnn_cnn_infer.so.8:_ZN17cask_plugin_cudnn10xmma_cudnn52implicit_gemm_dgrad_d5d8e5cc94478cf4cce8ca961658f3dd24kernel_get_kernel_recordEv
libcudnn_cnn_infer.so.8:_ZN17cask_plugin_cudnn10xmma_cudnn52implicit_gemm_dgrad_d5dde413eac65b96287186f6676981c124kernel_get_kernel_recordEv
libcudnn_cnn_infer.so.8:_ZN17cask_plugin_cudnn10xmma_cudnn52implicit_gemm_dgrad_d63663c7f1de003e6ad3a00c466a484524kernel_get_kernel_recordEv
libcudnn_cnn_infer.so.8:_ZN17cask_plugin_cudnn10xmma_cudnn52implicit_gemm_dgrad_d6c67715b30dd5b15fc4fc307ba75bbe24kernel_get_kernel_recordEv
libcudnn_cnn_infer.so.8:_ZN17cask_plugin_cudnn10xmma_cudnn52implicit_gemm_dgrad_d6c704de6535fde25fcb046773e2bbdc24kernel_get_kernel_recordEv
libcudnn_cnn_infer.so.8:_ZN17cask_plugin_cudnn10xmma_cudnn52implicit_gemm_dgrad_d710887bf45492e1460c8a57d184585024kernel_get_kernel_recordEv
libcudnn_cnn_infer.so.8:_ZN17cask_plugin_cudnn10xmma_cudnn52implicit_gemm_dgrad_d71ef09df250d703d0e2ffc4aadfe06824kernel_get_kernel_recordEv
libcudnn_cnn_infer.so.8:_ZN17cask_plugin_cudnn10xmma_cudnn52implicit_gemm_dgrad_d724f29b418180b5596f2ca0718818ca24kernel_get_kernel_recordEv
libcudnn_cnn_infer.so.8:_ZN17cask_plugin_cudnn10xmma_cudnn52implicit_gemm_dgrad_d73a9b429552d7a15439ea6ae99a4b5624kernel_get_kernel_recordEv
libcudnn_cnn_infer.so.8:_ZN17cask_plugin_cudnn10xmma_cudnn52implicit_gemm_dgrad_d749795062dfa9b78d71616d3355fa3524kernel_get_kernel_recordEv
libcudnn_cnn_infer.so.8:_ZN17cask_plugin_cudnn10xmma_cudnn52implicit_gemm_dgrad_d7b6d37d3d9a8bc50cd513e2a2a1bd4d24kernel_get_kernel_recordEv
libcudnn_cnn_infer.so.8:_ZN17cask_plugin_cudnn10xmma_cudnn52implicit_gemm_dgrad_d7c571e71e6657275756eef7dd20488d24kernel_get_kernel_recordEv
libcudnn_cnn_infer.so.8:_ZN17cask_plugin_cudnn10xmma_cudnn52implicit_gemm_dgrad_d7deabb2acb5ee2ae56ff1fcc4c344da24kernel_get_kernel_recordEv
libcudnn_cnn_infer.so.8:_ZN17cask_plugin_cudnn10xmma_cudnn52implicit_gemm_dgrad_d829fdb3ca24436545ac3691d17c9e3224kernel_get_kernel_recordEv
libcudnn_cnn_infer.so.8:_ZN17cask_plugin_cudnn10xmma_cudnn52implicit_gemm_dgrad_d82a779104dce941ac4e926a74080e7124kernel_get_kernel_recordEv
libcudnn_cnn_infer.so.8:_ZN17cask_plugin_cudnn10xmma_cudnn52implicit_gemm_dgrad_d866ca9a630d1e54f0c5d48f7512095424kernel_get_kernel_recordEv
libcudnn_cnn_infer.so.8:_ZN17cask_plugin_cudnn10xmma_cudnn52implicit_gemm_dgrad_d8bd0b7509b9398a4a8a2e17fb74bd7024kernel_get_kernel_recordEv
libcudnn_cnn_infer.so.8:_ZN17cask_plugin_cudnn10xmma_cudnn52implicit_gemm_dgrad_d8de477c0e445d428a2d227830d4c1a924kernel_get_kernel_recordEv
libcudnn_cnn_infer.so.8:_ZN17cask_plugin_cudnn10xmma_cudnn52implicit_gemm_dgrad_d8e14127314da4834a34fbe8a3fa7bb724kernel_get_kernel_recordEv
libcudnn_cnn_infer.so.8:_ZN17cask_plugin_cudnn10xmma_cudnn52implicit_gemm_dgrad_d90388c8ab96842aa2e829d0e9e10c4c24kernel_get_kernel_recordEv
libcudnn_cnn_infer.so.8:_ZN17cask_plugin_cudnn10xmma_cudnn52implicit_gemm_dgrad_d908df1f60bef4cbc4479230bfbd839724kernel_get_kernel_recordEv
libcudnn_cnn_infer.so.8:_ZN17cask_plugin_cudnn10xmma_cudnn52implicit_gemm_dgrad_d910ba5bec267febb955400bd61a8d5524kernel_get_kernel_recordEv
libcudnn_cnn_infer.so.8:_ZN17cask_plugin_cudnn10xmma_cudnn52implicit_gemm_dgrad_d916249c73fa39152fa10900dfa2ed2524kernel_get_kernel_recordEv
libcudnn_cnn_infer.so.8:_ZN17cask_plugin_cudnn10xmma_cudnn52implicit_gemm_dgrad_d961bbed39826dee692ac46a8509c1fd24kernel_get_kernel_recordEv
libcudnn_cnn_infer.so.8:_ZN17cask_plugin_cudnn10xmma_cudnn52implicit_gemm_dgrad_d96bf4ca318eada10f58b44442d4ab7d24kernel_get_kernel_recordEv
libcudnn_cnn_infer.so.8:_ZN17cask_plugin_cudnn10xmma_cudnn52implicit_gemm_dgrad_d986830aa302edc2b5e68d24dbcd7f0624kernel_get_kernel_recordEv
libcudnn_cnn_infer.so.8:_ZN17cask_plugin_cudnn10xmma_cudnn52implicit_gemm_dgrad_d9ac5d03c26760ca80e861fc38fd3a7524kernel_get_kernel_recordEv
libcudnn_cnn_infer.so.8:_ZN17cask_plugin_cudnn10xmma_cudnn52implicit_gemm_dgrad_d9d7febe24288110f34ea3daa19ba97024kernel_get_kernel_recordEv
libcudnn_cnn_infer.so.8:_ZN17cask_plugin_cudnn10xmma_cudnn52implicit_gemm_dgrad_da0b17c4ac70cfe1bb67cdc9655054de24kernel_get_kernel_recordEv
libcudnn_cnn_infer.so.8:_ZN17cask_plugin_cudnn10xmma_cudnn52implicit_gemm_dgrad_da41e04ac87ef3fc6dcd5937c1a2432224kernel_get_kernel_recordEv
libcudnn_cnn_infer.so.8:_ZN17cask_plugin_cudnn10xmma_cudnn52implicit_gemm_dgrad_da6e759d9ea0a015cecd247e0acf90a324kernel_get_kernel_recordEv
libcudnn_cnn_infer.so.8:_ZN17cask_plugin_cudnn10xmma_cudnn52implicit_gemm_dgrad_dad30e58cefd8a4d49048e22c6fc2aa924kernel_get_kernel_recordEv
libcudnn_cnn_infer.so.8:_ZN17cask_plugin_cudnn10xmma_cudnn52implicit_gemm_dgrad_daf582883efa5565eaba63cb416e2c3c24kernel_get_kernel_recordEv
libcudnn_cnn_infer.so.8:_ZN17cask_plugin_cudnn10xmma_cudnn52implicit_gemm_dgrad_db1f7fc7f3d8c815a0ec3a0a4da9433e24kernel_get_kernel_recordEv
libcudnn_cnn_infer.so.8:_ZN17cask_plugin_cudnn10xmma_cudnn52implicit_gemm_dgrad_db2a3722cc7e1a64fd3e8c50dab918fb24kernel_get_kernel_recordEv
libcudnn_cnn_infer.so.8:_ZN17cask_plugin_cudnn10xmma_cudnn52implicit_gemm_dgrad_db470db51b8816aec4395c6db9f21d5b24kernel_get_kernel_recordEv
libcudnn_cnn_infer.so.8:_ZN17cask_plugin_cudnn10xmma_cudnn52implicit_gemm_dgrad_db472bc32857582041d50653d39cf72024kernel_get_kernel_recordEv
libcudnn_cnn_infer.so.8:_ZN17cask_plugin_cudnn10xmma_cudnn52implicit_gemm_dgrad_db5ae30a66d3d3b918a82f6db3bf460424kernel_get_kernel_recordEv
libcudnn_cnn_infer.so.8:_ZN17cask_plugin_cudnn10xmma_cudnn52implicit_gemm_dgrad_db688ee52214bc2cbe1cf432a8ef1ab924kernel_get_kernel_recordEv
libcudnn_cnn_infer.so.8:_ZN17cask_plugin_cudnn10xmma_cudnn52implicit_gemm_dgrad_db6bbfbec7da27938513412689f3b1c724kernel_get_kernel_recordEv
libcudnn_cnn_infer.so.8:_ZN17cask_plugin_cudnn10xmma_cudnn52implicit_gemm_dgrad_db77e197c68234efd4b98dfd4111b62224kernel_get_kernel_recordEv
libcudnn_cnn_infer.so.8:_ZN17cask_plugin_cudnn10xmma_cudnn52implicit_gemm_dgrad_db7cb95dce3101cef7b86ea985824f2f24kernel_get_kernel_recordEv
libcudnn_cnn_infer.so.8:_ZN17cask_plugin_cudnn10xmma_cudnn52implicit_gemm_dgrad_dbcc237cae6e5c50233bafab89ced4d624kernel_get_kernel_recordEv
libcudnn_cnn_infer.so.8:_ZN17cask_plugin_cudnn10xmma_cudnn52implicit_gemm_dgrad_dbd2b1b31b3ecb89d3ebdc2c22d1081424kernel_get_kernel_recordEv
libcudnn_cnn_infer.so.8:_ZN17cask_plugin_cudnn10xmma_cudnn52implicit_gemm_dgrad_dbd60ee99f1e7407320a7f09ba27e9b424kernel_get_kernel_recordEv
libcudnn_cnn_infer.so.8:_ZN17cask_plugin_cudnn10xmma_cudnn52implicit_gemm_dgrad_dbd6d6905de0efa8e43ee634558157ab24kernel_get_kernel_recordEv
libcudnn_cnn_infer.so.8:_ZN17cask_plugin_cudnn10xmma_cudnn52implicit_gemm_dgrad_dc3b2911ee51eb8f80d9fd6b184ac7cc24kernel_get_kernel_recordEv
libcudnn_cnn_infer.so.8:_ZN17cask_plugin_cudnn10xmma_cudnn52implicit_gemm_dgrad_dc76e6f3f91dcf52230a582b85b5fd4924kernel_get_kernel_recordEv
libcudnn_cnn_infer.so.8:_ZN17cask_plugin_cudnn10xmma_cudnn52implicit_gemm_dgrad_dc97f278b39b74d745a34c0997769d2024kernel_get_kernel_recordEv
libcudnn_cnn_infer.so.8:_ZN17cask_plugin_cudnn10xmma_cudnn52implicit_gemm_dgrad_dc9a00065b8297c12f98fa5a6107b7f324kernel_get_kernel_recordEv
libcudnn_cnn_infer.so.8:_ZN17cask_plugin_cudnn10xmma_cudnn52implicit_gemm_dgrad_dcde6cf0e38fc1dbc612f7eb3e25e85024kernel_get_kernel_recordEv
libcudnn_cnn_infer.so.8:_ZN17cask_plugin_cudnn10xmma_cudnn52implicit_gemm_dgrad_dd665f30044759674c72c5b52da3d26824kernel_get_kernel_recordEv
libcudnn_cnn_infer.so.8:_ZN17cask_plugin_cudnn10xmma_cudnn52implicit_gemm_dgrad_ddf520bc963766e306a7b6d10ef535d424kernel_get_kernel_recordEv
libcudnn_cnn_infer.so.8:_ZN17cask_plugin_cudnn10xmma_cudnn52implicit_gemm_dgrad_dea138129342694f515c390779066a2124kernel_get_kernel_recordEv
libcudnn_cnn_infer.so.8:_ZN17cask_plugin_cudnn10xmma_cudnn52implicit_gemm_dgrad_deaa37fca82aaf195b4d735624e18c5724kernel_get_kernel_recordEv
libcudnn_cnn_infer.so.8:_ZN17cask_plugin_cudnn10xmma_cudnn52implicit_gemm_dgrad_deec5fb8c4378b6e129aecc72ef2520424kernel_get_kernel_recordEv
libcudnn_cnn_infer.so.8:_ZN17cask_plugin_cudnn10xmma_cudnn52implicit_gemm_dgrad_df0e9f099a961dac2de2c0161e5e420924kernel_get_kernel_recordEv
libcudnn_cnn_infer.so.8:_ZN17cask_plugin_cudnn10xmma_cudnn52implicit_gemm_dgrad_df322d24a867182555f047a8e25033e224kernel_get_kernel_recordEv
libcudnn_cnn_infer.so.8:_ZN17cask_plugin_cudnn10xmma_cudnn52implicit_gemm_dgrad_df5d499b70e488616f9c62282279f98324kernel_get_kernel_recordEv
libcudnn_cnn_infer.so.8:_ZN17cask_plugin_cudnn10xmma_cudnn52implicit_gemm_dgrad_df6b39a99fed4cce528e3aa5befc0bb724kernel_get_kernel_recordEv
libcudnn_cnn_infer.so.8:_ZN17cask_plugin_cudnn10xmma_cudnn52implicit_gemm_dgrad_dfc14f664cfa3937e562f7bc4ba3d0e124kernel_get_kernel_recordEv
libcudnn_cnn_infer.so.8:_ZN17cask_plugin_cudnn10xmma_cudnn52implicit_gemm_dgrad_dff1b18aa1756d6ee7db1983be4a0ee724kernel_get_kernel_recordEv
libcudnn_cnn_infer.so.8:_ZN17cask_plugin_cudnn10xmma_cudnn52implicit_gemm_dgrad_dffaba045004085d67ce7693b10521a924kernel_get_kernel_recordEv
libcudnn_cnn_infer.so.8:_ZN17cask_plugin_cudnn10xmma_cudnn52implicit_gemm_dgrad_e014b9a8b75d430d7ec27d1fc33291ad24kernel_get_kernel_recordEv
libcudnn_cnn_infer.so.8:_ZN17cask_plugin_cudnn10xmma_cudnn52implicit_gemm_dgrad_e041d4b2094bfbe8452427162c37cdc324kernel_get_kernel_recordEv
libcudnn_cnn_infer.so.8:_ZN17cask_plugin_cudnn10xmma_cudnn52implicit_gemm_dgrad_e06981699d9c84f7734857dfffd5434824kernel_get_kernel_recordEv
libcudnn_cnn_infer.so.8:_ZN17cask_plugin_cudnn10xmma_cudnn52implicit_gemm_dgrad_e06988148ab2e3a54ad111e2f244f31d24kernel_get_kernel_recordEv
libcudnn_cnn_infer.so.8:_ZN17cask_plugin_cudnn10xmma_cudnn52implicit_gemm_dgrad_e072649226ddb6a7e03a772c547947bf24kernel_get_kernel_recordEv
libcudnn_cnn_infer.so.8:_ZN17cask_plugin_cudnn10xmma_cudnn52implicit_gemm_dgrad_e091f72a6034ecea8cf56fa9ee3bedc624kernel_get_kernel_recordEv
libcudnn_cnn_infer.so.8:_ZN17cask_plugin_cudnn10xmma_cudnn52implicit_gemm_dgrad_e0d199f49fc7a6780d8d6a208320627024kernel_get_kernel_recordEv
libcudnn_cnn_infer.so.8:_ZN17cask_plugin_cudnn10xmma_cudnn52implicit_gemm_dgrad_e0e537797eb58a09a039793cf79767d424kernel_get_kernel_recordEv
libcudnn_cnn_infer.so.8:_ZN17cask_plugin_cudnn10xmma_cudnn52implicit_gemm_dgrad_e12cbc068b67577fc2567e9b7429a46624kernel_get_kernel_recordEv
libcudnn_cnn_infer.so.8:_ZN17cask_plugin_cudnn10xmma_cudnn52implicit_gemm_dgrad_e130bc722c31bcaef18e67e952b14b7524kernel_get_kernel_recordEv
libcudnn_cnn_infer.so.8:_ZN17cask_plugin_cudnn10xmma_cudnn52implicit_gemm_dgrad_e16914a28a5385d31665ce913cd8254024kernel_get_kernel_recordEv
libcudnn_cnn_infer.so.8:_ZN17cask_plugin_cudnn10xmma_cudnn52implicit_gemm_dgrad_e18486c189ac68436e5e5125cb928e6e24kernel_get_kernel_recordEv
libcudnn_cnn_infer.so.8:_ZN17cask_plugin_cudnn10xmma_cudnn52implicit_gemm_dgrad_e18df2a90fe45a805dfeaea14b23af5924kernel_get_kernel_recordEv
libcudnn_cnn_infer.so.8:_ZN17cask_plugin_cudnn10xmma_cudnn52implicit_gemm_dgrad_e1bad294e4c053e4cfd6827d095db3b024kernel_get_kernel_recordEv
libcudnn_cnn_infer.so.8:_ZN17cask_plugin_cudnn10xmma_cudnn52implicit_gemm_dgrad_e1e96e01ed06a42c83dfc31c6d62a1d724kernel_get_kernel_recordEv
libcudnn_cnn_infer.so.8:_ZN17cask_plugin_cudnn10xmma_cudnn52implicit_gemm_dgrad_e208dab3aa42f221451d117c386e8a9024kernel_get_kernel_recordEv
libcudnn_cnn_infer.so.8:_ZN17cask_plugin_cudnn10xmma_cudnn52implicit_gemm_dgrad_e23443abf91db4505ba7aa4087d9203824kernel_get_kernel_recordEv
libcudnn_cnn_infer.so.8:_ZN17cask_plugin_cudnn10xmma_cudnn52implicit_gemm_dgrad_e23b866cefce06388a3bac4de29058da24kernel_get_kernel_recordEv
libcudnn_cnn_infer.so.8:_ZN17cask_plugin_cudnn10xmma_cudnn52implicit_gemm_dgrad_e25b8fbf1429287deeffb5e6c541d28d24kernel_get_kernel_recordEv
libcudnn_cnn_infer.so.8:_ZN17cask_plugin_cudnn10xmma_cudnn52implicit_gemm_dgrad_e29aad8130383d74bbf2f82b45f4496e24kernel_get_kernel_recordEv
libcudnn_cnn_infer.so.8:_ZN17cask_plugin_cudnn10xmma_cudnn52implicit_gemm_dgrad_e2af5d01c09b4d64c9ca97af82f65cee24kernel_get_kernel_recordEv
libcudnn_cnn_infer.so.8:_ZN17cask_plugin_cudnn10xmma_cudnn52implicit_gemm_dgrad_e2d7d74bc28efed73c0de56d79e37be224kernel_get_kernel_recordEv
libcudnn_cnn_infer.so.8:_ZN17cask_plugin_cudnn10xmma_cudnn52implicit_gemm_dgrad_e2f4dff6a72a28b0e80512a4364eb36f24kernel_get_kernel_recordEv
libcudnn_cnn_infer.so.8:_ZN17cask_plugin_cudnn10xmma_cudnn52implicit_gemm_dgrad_e322bf4078091792c8fdfafcf99eb69924kernel_get_kernel_recordEv
libcudnn_cnn_infer.so.8:_ZN17cask_plugin_cudnn10xmma_cudnn52implicit_gemm_dgrad_e3a0db0aace23a98371cbf1433e9a95c24kernel_get_kernel_recordEv
libcudnn_cnn_infer.so.8:_ZN17cask_plugin_cudnn10xmma_cudnn52implicit_gemm_dgrad_e3a8179991006b58bd69f26d33f2bc9024kernel_get_kernel_recordEv
libcudnn_cnn_infer.so.8:_ZN17cask_plugin_cudnn10xmma_cudnn52implicit_gemm_dgrad_e3e930074ab9f5bfb3e43e28af830d5724kernel_get_kernel_recordEv
libcudnn_cnn_infer.so.8:_ZN17cask_plugin_cudnn10xmma_cudnn52implicit_gemm_dgrad_e3ee3467238ec7c4c193ee2d6533223e24kernel_get_kernel_recordEv
libcudnn_cnn_infer.so.8:_ZN17cask_plugin_cudnn10xmma_cudnn52implicit_gemm_dgrad_e3ef0a79274f7bc0ba78f00edb5bde4c24kernel_get_kernel_recordEv
libcudnn_cnn_infer.so.8:_ZN17cask_plugin_cudnn10xmma_cudnn52implicit_gemm_dgrad_e423c978aa82b2f62f25117585d8921d24kernel_get_kernel_recordEv
libcudnn_cnn_infer.so.8:_ZN17cask_plugin_cudnn10xmma_cudnn52implicit_gemm_dgrad_e44e860ab312acba65cad8df400c74bc24kernel_get_kernel_recordEv
libcudnn_cnn_infer.so.8:_ZN17cask_plugin_cudnn10xmma_cudnn52implicit_gemm_dgrad_e45f52dfaefa917589cb866cdfe571ac24kernel_get_kernel_recordEv
libcudnn_cnn_infer.so.8:_ZN17cask_plugin_cudnn10xmma_cudnn52implicit_gemm_dgrad_e49759312c782690e49f0bf1446590e724kernel_get_kernel_recordEv
libcudnn_cnn_infer.so.8:_ZN17cask_plugin_cudnn10xmma_cudnn52implicit_gemm_dgrad_e4e4d636eb42c03c7195a3cc4bfe8f0c24kernel_get_kernel_recordEv
libcudnn_cnn_infer.so.8:_ZN17cask_plugin_cudnn10xmma_cudnn52implicit_gemm_dgrad_e5014bc2c7f50f2dec90eecee5c804f124kernel_get_kernel_recordEv
libcudnn_cnn_infer.so.8:_ZN17cask_plugin_cudnn10xmma_cudnn52implicit_gemm_dgrad_e51ee060a8b59132bd14ba9370411c1d24kernel_get_kernel_recordEv
libcudnn_cnn_infer.so.8:_ZN17cask_plugin_cudnn10xmma_cudnn52implicit_gemm_dgrad_e528f426c7baddf0219e4dfeff17bef924kernel_get_kernel_recordEv
libcudnn_cnn_infer.so.8:_ZN17cask_plugin_cudnn10xmma_cudnn52implicit_gemm_dgrad_e55571d761a210d68ee2d19db270bdbe24kernel_get_kernel_recordEv
libcudnn_cnn_infer.so.8:_ZN17cask_plugin_cudnn10xmma_cudnn52implicit_gemm_dgrad_e56557baa66b568306f6bcef06da125224kernel_get_kernel_recordEv
libcudnn_cnn_infer.so.8:_ZN17cask_plugin_cudnn10xmma_cudnn52implicit_gemm_dgrad_e607b020fe8f3072f71c24309e41eeea24kernel_get_kernel_recordEv
libcudnn_cnn_infer.so.8:_ZN17cask_plugin_cudnn10xmma_cudnn52implicit_gemm_dgrad_e6f45178bc3b1c3652137f00dbd4ea6424kernel_get_kernel_recordEv
libcudnn_cnn_infer.so.8:_ZN17cask_plugin_cudnn10xmma_cudnn52implicit_gemm_dgrad_e7078087ad4e91c25cccf4206a7e10ba24kernel_get_kernel_recordEv
libcudnn_cnn_infer.so.8:_ZN17cask_plugin_cudnn10xmma_cudnn52implicit_gemm_dgrad_e709c4e00c35f8c15089c75aeb0ced3624kernel_get_kernel_recordEv
libcudnn_cnn_infer.so.8:_ZN17cask_plugin_cudnn10xmma_cudnn52implicit_gemm_dgrad_e70b2acb8d28dd513d90fe9ec27b321024kernel_get_kernel_recordEv
libcudnn_cnn_infer.so.8:_ZN17cask_plugin_cudnn10xmma_cudnn52implicit_gemm_dgrad_e713a887def655a9fed15236b3f58ba324kernel_get_kernel_recordEv
libcudnn_cnn_infer.so.8:_ZN17cask_plugin_cudnn10xmma_cudnn52implicit_gemm_dgrad_e790f69ea3c309c2def83f7184e87cfc24kernel_get_kernel_recordEv
libcudnn_cnn_infer.so.8:_ZN17cask_plugin_cudnn10xmma_cudnn52implicit_gemm_dgrad_e7daf96edb067e05de537fff818f705f24kernel_get_kernel_recordEv
libcudnn_cnn_infer.so.8:_ZN17cask_plugin_cudnn10xmma_cudnn52implicit_gemm_dgrad_e7f3e37418111c32e8f5e51c8cb98dd024kernel_get_kernel_recordEv
libcudnn_cnn_infer.so.8:_ZN17cask_plugin_cudnn10xmma_cudnn52implicit_gemm_dgrad_e85c3e874f86262eb8de718a7df2b9ee24kernel_get_kernel_recordEv
libcudnn_cnn_infer.so.8:_ZN17cask_plugin_cudnn10xmma_cudnn52implicit_gemm_dgrad_e867f27716266101ccf3b6142c8759b524kernel_get_kernel_recordEv
libcudnn_cnn_infer.so.8:_ZN17cask_plugin_cudnn10xmma_cudnn52implicit_gemm_dgrad_e86822894d828f9d106c18566da5b95024kernel_get_kernel_recordEv
libcudnn_cnn_infer.so.8:_ZN17cask_plugin_cudnn10xmma_cudnn52implicit_gemm_dgrad_e8738a89ad3d3d14718dbaac3629fbe724kernel_get_kernel_recordEv
libcudnn_cnn_infer.so.8:_ZN17cask_plugin_cudnn10xmma_cudnn52implicit_gemm_dgrad_e89ffc73757d6b2e98c6ba9fb1b646cc24kernel_get_kernel_recordEv
libcudnn_cnn_infer.so.8:_ZN17cask_plugin_cudnn10xmma_cudnn52implicit_gemm_dgrad_e8ac0ef766c55945be0699747724e59424kernel_get_kernel_recordEv
libcudnn_cnn_infer.so.8:_ZN17cask_plugin_cudnn10xmma_cudnn52implicit_gemm_dgrad_e8ecd33d1e0e27ca9b94412fc2213ba824kernel_get_kernel_recordEv
libcudnn_cnn_infer.so.8:_ZN17cask_plugin_cudnn10xmma_cudnn52implicit_gemm_dgrad_e8f4dce9b3bd6beee8869560998e1df324kernel_get_kernel_recordEv
libcudnn_cnn_infer.so.8:_ZN17cask_plugin_cudnn10xmma_cudnn52implicit_gemm_dgrad_e90eda50fb01793d598505963bba9f1224kernel_get_kernel_recordEv
libcudnn_cnn_infer.so.8:_ZN17cask_plugin_cudnn10xmma_cudnn52implicit_gemm_dgrad_e9252e379ac5239019847933ad54b15c24kernel_get_kernel_recordEv
libcudnn_cnn_infer.so.8:_ZN17cask_plugin_cudnn10xmma_cudnn52implicit_gemm_dgrad_e94204c245cc5bf86f8f57c1c5b6a87f24kernel_get_kernel_recordEv
libcudnn_cnn_infer.so.8:_ZN17cask_plugin_cudnn10xmma_cudnn52implicit_gemm_dgrad_e96c8aaeb9fe1b1b48e45c65f79fa07324kernel_get_kernel_recordEv
libcudnn_cnn_infer.so.8:_ZN17cask_plugin_cudnn10xmma_cudnn52implicit_gemm_dgrad_e96e2c3e2dba7871195701db9344c36c24kernel_get_kernel_recordEv
libcudnn_cnn_infer.so.8:_ZN17cask_plugin_cudnn10xmma_cudnn52implicit_gemm_dgrad_e96e7902a6d0f5faba7d44e784a5a6cf24kernel_get_kernel_recordEv
libcudnn_cnn_infer.so.8:_ZN17cask_plugin_cudnn10xmma_cudnn52implicit_gemm_dgrad_e97ff267ff42cc8050c7ebf4bf14add824kernel_get_kernel_recordEv
libcudnn_cnn_infer.so.8:_ZN17cask_plugin_cudnn10xmma_cudnn52implicit_gemm_dgrad_e9a2e421d2b281a92a4b370e0e6a8fb324kernel_get_kernel_recordEv
libcudnn_cnn_infer.so.8:_ZN17cask_plugin_cudnn10xmma_cudnn52implicit_gemm_dgrad_e9b2fdc2e46d81833ed96f2ec393ff2a24kernel_get_kernel_recordEv
libcudnn_cnn_infer.so.8:_ZN17cask_plugin_cudnn10xmma_cudnn52implicit_gemm_dgrad_e9e438f16b76b1bd78ecdc2e4bdc389d24kernel_get_kernel_recordEv
libcudnn_cnn_infer.so.8:_ZN17cask_plugin_cudnn10xmma_cudnn52implicit_gemm_dgrad_ea1a3055339e9fcacb70ad9ae6ee2bf024kernel_get_kernel_recordEv
libcudnn_cnn_infer.so.8:_ZN17cask_plugin_cudnn10xmma_cudnn52implicit_gemm_dgrad_ea2524139785b8d2251bb42e88b88f8c24kernel_get_kernel_recordEv
libcudnn_cnn_infer.so.8:_ZN17cask_plugin_cudnn10xmma_cudnn52implicit_gemm_dgrad_ea685dc9f1cc065f4abe7a4b97cd6c5424kernel_get_kernel_recordEv
libcudnn_cnn_infer.so.8:_ZN17cask_plugin_cudnn10xmma_cudnn52implicit_gemm_dgrad_ea7fabd158ce9b792f4d59167cd837f024kernel_get_kernel_recordEv
libcudnn_cnn_infer.so.8:_ZN17cask_plugin_cudnn10xmma_cudnn52implicit_gemm_dgrad_ea85a6280ce5432b1cdf1c3d9ea9c0dd24kernel_get_kernel_recordEv
libcudnn_cnn_infer.so.8:_ZN17cask_plugin_cudnn10xmma_cudnn52implicit_gemm_dgrad_ea8db0cdb5e097bbcbdc27e8577df76124kernel_get_kernel_recordEv
libcudnn_cnn_infer.so.8:_ZN17cask_plugin_cudnn10xmma_cudnn52implicit_gemm_dgrad_eadf561d4c8c1f0fb3913f8604beabcf24kernel_get_kernel_recordEv
libcudnn_cnn_infer.so.8:_ZN17cask_plugin_cudnn10xmma_cudnn52implicit_gemm_dgrad_eafc04819f5aef434387088f9e44b3cc24kernel_get_kernel_recordEv
libcudnn_cnn_infer.so.8:_ZN17cask_plugin_cudnn10xmma_cudnn52implicit_gemm_dgrad_eb20c75d4981c7cc7d6c850b7085d9ae24kernel_get_kernel_recordEv
libcudnn_cnn_infer.so.8:_ZN17cask_plugin_cudnn10xmma_cudnn52implicit_gemm_dgrad_eb51189643067f1c94b2702d440a8f8324kernel_get_kernel_recordEv
libcudnn_cnn_infer.so.8:_ZN17cask_plugin_cudnn10xmma_cudnn52implicit_gemm_dgrad_eb7d454f9d14b785de2502b98e1532ca24kernel_get_kernel_recordEv
libcudnn_cnn_infer.so.8:_ZN17cask_plugin_cudnn10xmma_cudnn52implicit_gemm_dgrad_eb9f8f96749465d8eab9f00436d94e2b24kernel_get_kernel_recordEv
libcudnn_cnn_infer.so.8:_ZN17cask_plugin_cudnn10xmma_cudnn52implicit_gemm_dgrad_ebb57d9194a2bbf03d0f28ef38a1eb3524kernel_get_kernel_recordEv
libcudnn_cnn_infer.so.8:_ZN17cask_plugin_cudnn10xmma_cudnn52implicit_gemm_dgrad_ebe43af7c801f474cf08fb1a3486267024kernel_get_kernel_recordEv
libcudnn_cnn_infer.so.8:_ZN17cask_plugin_cudnn10xmma_cudnn52implicit_gemm_dgrad_ebfa6a9cecd12e7ada807e5c6fbf91b724kernel_get_kernel_recordEv
libcudnn_cnn_infer.so.8:_ZN17cask_plugin_cudnn10xmma_cudnn52implicit_gemm_dgrad_ec0da98d798a3e9a8ddd0ff0ec93f31924kernel_get_kernel_recordEv
libcudnn_cnn_infer.so.8:_ZN17cask_plugin_cudnn10xmma_cudnn52implicit_gemm_dgrad_ec4a22941ee7aae4619001b7a17aa72024kernel_get_kernel_recordEv
libcudnn_cnn_infer.so.8:_ZN17cask_plugin_cudnn10xmma_cudnn52implicit_gemm_dgrad_ec7134276b86cd4baeea766a5f122a5224kernel_get_kernel_recordEv
libcudnn_cnn_infer.so.8:_ZN17cask_plugin_cudnn10xmma_cudnn52implicit_gemm_dgrad_ec9c14cb6d378cef9df4b9d2d11d5a9d24kernel_get_kernel_recordEv
libcudnn_cnn_infer.so.8:_ZN17cask_plugin_cudnn10xmma_cudnn52implicit_gemm_dgrad_ecd175c77b673cdd6ff1d384f35bb5a924kernel_get_kernel_recordEv
libcudnn_cnn_infer.so.8:_ZN17cask_plugin_cudnn10xmma_cudnn52implicit_gemm_dgrad_ed16f6274885cb23bad91b93b5e5798c24kernel_get_kernel_recordEv
libcudnn_cnn_infer.so.8:_ZN17cask_plugin_cudnn10xmma_cudnn52implicit_gemm_dgrad_ed5b8b40ba26f38dba7b2dbb078b332124kernel_get_kernel_recordEv
libcudnn_cnn_infer.so.8:_ZN17cask_plugin_cudnn10xmma_cudnn52implicit_gemm_dgrad_edce94960db338d0663a28c54b50532e24kernel_get_kernel_recordEv
libcudnn_cnn_infer.so.8:_ZN17cask_plugin_cudnn10xmma_cudnn52implicit_gemm_dgrad_edf11b563a0cab93420da992216e089824kernel_get_kernel_recordEv
libcudnn_cnn_infer.so.8:_ZN17cask_plugin_cudnn10xmma_cudnn52implicit_gemm_dgrad_ee052489dda6cc77d89ec0626b61e00224kernel_get_kernel_recordEv
libcudnn_cnn_infer.so.8:_ZN17cask_plugin_cudnn10xmma_cudnn52implicit_gemm_dgrad_ee349e626cb2e536d66d09e200a7b4fb24kernel_get_kernel_recordEv
libcudnn_cnn_infer.so.8:_ZN17cask_plugin_cudnn10xmma_cudnn52implicit_gemm_dgrad_ee3d44968fee027bc8db6ea153ac9eb224kernel_get_kernel_recordEv
libcudnn_cnn_infer.so.8:_ZN17cask_plugin_cudnn10xmma_cudnn52implicit_gemm_dgrad_eeac594a659e4e1dba28b4f1180d8cda24kernel_get_kernel_recordEv
libcudnn_cnn_infer.so.8:_ZN17cask_plugin_cudnn10xmma_cudnn52implicit_gemm_dgrad_eefbca6c7fcd48b5fa2f7c507c49415424kernel_get_kernel_recordEv
libcudnn_cnn_infer.so.8:_ZN17cask_plugin_cudnn10xmma_cudnn52implicit_gemm_dgrad_eefcd730cabe2443fe158277e1d581bf24kernel_get_kernel_recordEv
libcudnn_cnn_infer.so.8:_ZN17cask_plugin_cudnn10xmma_cudnn52implicit_gemm_dgrad_ef1763e2391e376798912c52efc9555624kernel_get_kernel_recordEv
libcudnn_cnn_infer.so.8:_ZN17cask_plugin_cudnn10xmma_cudnn52implicit_gemm_dgrad_ef42b552a5fc06cce679c0bf4d7a634a24kernel_get_kernel_recordEv
libcudnn_cnn_infer.so.8:_ZN17cask_plugin_cudnn10xmma_cudnn52implicit_gemm_dgrad_ef63d62f1ec74400261dbe836693094024kernel_get_kernel_recordEv
libcudnn_cnn_infer.so.8:_ZN17cask_plugin_cudnn10xmma_cudnn52implicit_gemm_dgrad_efa76d03aaf35ad5ead3b4e4db84f06b24kernel_get_kernel_recordEv
libcudnn_cnn_infer.so.8:_ZN17cask_plugin_cudnn10xmma_cudnn52implicit_gemm_dgrad_eff8060b4077abd9c03fe8f3516e136c24kernel_get_kernel_recordEv
libcudnn_cnn_infer.so.8:_ZN17cask_plugin_cudnn10xmma_cudnn52implicit_gemm_dgrad_f004d1f112595147a9daf0d010bbc75824kernel_get_kernel_recordEv
libcudnn_cnn_infer.so.8:_ZN17cask_plugin_cudnn10xmma_cudnn52implicit_gemm_dgrad_f00f292d20b0dbbaf4c18aa67259d21e24kernel_get_kernel_recordEv
libcudnn_cnn_infer.so.8:_ZN17cask_plugin_cudnn10xmma_cudnn52implicit_gemm_dgrad_f01b7f0d2f0653716b05fab6154fec1124kernel_get_kernel_recordEv
libcudnn_cnn_infer.so.8:_ZN17cask_plugin_cudnn10xmma_cudnn52implicit_gemm_dgrad_f03013c3a489c62117522923137a284624kernel_get_kernel_recordEv
libcudnn_cnn_infer.so.8:_ZN17cask_plugin_cudnn10xmma_cudnn52implicit_gemm_dgrad_f03a33c328cb6e55529f47c3ce952d3924kernel_get_kernel_recordEv
libcudnn_cnn_infer.so.8:_ZN17cask_plugin_cudnn10xmma_cudnn52implicit_gemm_dgrad_f0670eef36e137352db273ba6b3d159b24kernel_get_kernel_recordEv
libcudnn_cnn_infer.so.8:_ZN17cask_plugin_cudnn10xmma_cudnn52implicit_gemm_dgrad_f07c2bd406e3488b840e7df027838fb824kernel_get_kernel_recordEv
libcudnn_cnn_infer.so.8:_ZN17cask_plugin_cudnn10xmma_cudnn52implicit_gemm_dgrad_f086833037725d00a78abbf1d586e01724kernel_get_kernel_recordEv
libcudnn_cnn_infer.so.8:_ZN17cask_plugin_cudnn10xmma_cudnn52implicit_gemm_dgrad_f0b3b4a8270a86f64a5c18702088943824kernel_get_kernel_recordEv
libcudnn_cnn_infer.so.8:_ZN17cask_plugin_cudnn10xmma_cudnn52implicit_gemm_dgrad_f0da60f29c5c6e12bee27ce76f6bae5e24kernel_get_kernel_recordEv
libcudnn_cnn_infer.so.8:_ZN17cask_plugin_cudnn10xmma_cudnn52implicit_gemm_dgrad_f0ee8f5e27f930a430a224de514cb2ee24kernel_get_kernel_recordEv
libcudnn_cnn_infer.so.8:_ZN17cask_plugin_cudnn10xmma_cudnn52implicit_gemm_dgrad_f13f372bce4beefaa0c295912913a04024kernel_get_kernel_recordEv
libcudnn_cnn_infer.so.8:_ZN17cask_plugin_cudnn10xmma_cudnn52implicit_gemm_dgrad_f1466adef17d13a96a072cc4095a76f124kernel_get_kernel_recordEv
libcudnn_cnn_infer.so.8:_ZN17cask_plugin_cudnn10xmma_cudnn52implicit_gemm_dgrad_f15f5552a7ccb6f1babbd7ac497b43c924kernel_get_kernel_recordEv
libcudnn_cnn_infer.so.8:_ZN17cask_plugin_cudnn10xmma_cudnn52implicit_gemm_dgrad_f16d27fa0665b875f2f3dc1d48a7a89424kernel_get_kernel_recordEv
libcudnn_cnn_infer.so.8:_ZN17cask_plugin_cudnn10xmma_cudnn52implicit_gemm_dgrad_f16f9cc3c9a9de797517c72ec895b35e24kernel_get_kernel_recordEv
libcudnn_cnn_infer.so.8:_ZN17cask_plugin_cudnn10xmma_cudnn52implicit_gemm_dgrad_f181c7339f855566dae51d0c1c69f95a24kernel_get_kernel_recordEv
libcudnn_cnn_infer.so.8:_ZN17cask_plugin_cudnn10xmma_cudnn52implicit_gemm_dgrad_f189d55e2156c0dd93c68249fd95b4db24kernel_get_kernel_recordEv
libcudnn_cnn_infer.so.8:_ZN17cask_plugin_cudnn10xmma_cudnn52implicit_gemm_dgrad_f1a0877a8570e6a6157727a6eac7bfaa24kernel_get_kernel_recordEv
libcudnn_cnn_infer.so.8:_ZN17cask_plugin_cudnn10xmma_cudnn52implicit_gemm_dgrad_f1bc09b4cb3550b3a342d99b4c80011e24kernel_get_kernel_recordEv
libcudnn_cnn_infer.so.8:_ZN17cask_plugin_cudnn10xmma_cudnn52implicit_gemm_dgrad_f1c2bcc82fa13770e24655d762809fa124kernel_get_kernel_recordEv
libcudnn_cnn_infer.so.8:_ZN17cask_plugin_cudnn10xmma_cudnn52implicit_gemm_dgrad_f1df577cb544eef9fa9c7facf897767d24kernel_get_kernel_recordEv
libcudnn_cnn_infer.so.8:_ZN17cask_plugin_cudnn10xmma_cudnn52implicit_gemm_dgrad_f1efc113177d2b5d511f56494e2a7e5b24kernel_get_kernel_recordEv
libcudnn_cnn_infer.so.8:_ZN17cask_plugin_cudnn10xmma_cudnn52implicit_gemm_dgrad_f2023fdbe2faa09846f301aa8b3c5afc24kernel_get_kernel_recordEv
libcudnn_cnn_infer.so.8:_ZN17cask_plugin_cudnn10xmma_cudnn52implicit_gemm_dgrad_f206de94d9dff3a045b51150315db08c24kernel_get_kernel_recordEv
libcudnn_cnn_infer.so.8:_ZN17cask_plugin_cudnn10xmma_cudnn52implicit_gemm_dgrad_f2110361b24983b3244c5dea4662bbb224kernel_get_kernel_recordEv
libcudnn_cnn_infer.so.8:_ZN17cask_plugin_cudnn10xmma_cudnn52implicit_gemm_dgrad_f23aca2374156a13072d12cdd36b388b24kernel_get_kernel_recordEv
libcudnn_cnn_infer.so.8:_ZN17cask_plugin_cudnn10xmma_cudnn52implicit_gemm_dgrad_f26f7358c22986aa0698a7ec701a69b724kernel_get_kernel_recordEv
libcudnn_cnn_infer.so.8:_ZN17cask_plugin_cudnn10xmma_cudnn52implicit_gemm_dgrad_f2765cad1bed3d382647216ef00f866424kernel_get_kernel_recordEv
libcudnn_cnn_infer.so.8:_ZN17cask_plugin_cudnn10xmma_cudnn52implicit_gemm_dgrad_f288d265289bab0a3bdf64f33675991024kernel_get_kernel_recordEv
libcudnn_cnn_infer.so.8:_ZN17cask_plugin_cudnn10xmma_cudnn52implicit_gemm_dgrad_f29808e52452932ed52d8e29f8f3167624kernel_get_kernel_recordEv
libcudnn_cnn_infer.so.8:_ZN17cask_plugin_cudnn10xmma_cudnn52implicit_gemm_dgrad_f2cd69aa65004a18bc6aef0684c7e92e24kernel_get_kernel_recordEv
libcudnn_cnn_infer.so.8:_ZN17cask_plugin_cudnn10xmma_cudnn52implicit_gemm_dgrad_f2fc1c393bd35a3c7456ba5e5bf4f2c724kernel_get_kernel_recordEv
libcudnn_cnn_infer.so.8:_ZN17cask_plugin_cudnn10xmma_cudnn52implicit_gemm_dgrad_f31bef30438607cabd71c3084989bb6324kernel_get_kernel_recordEv
libcudnn_cnn_infer.so.8:_ZN17cask_plugin_cudnn10xmma_cudnn52implicit_gemm_dgrad_f31eea2dd1965be9de2df296dc6d324224kernel_get_kernel_recordEv
libcudnn_cnn_infer.so.8:_ZN17cask_plugin_cudnn10xmma_cudnn52implicit_gemm_dgrad_f3586bfa5dbaf6ff280287397911a3f024kernel_get_kernel_recordEv
libcudnn_cnn_infer.so.8:_ZN17cask_plugin_cudnn10xmma_cudnn52implicit_gemm_dgrad_f3792e379c5b4338a41c30af7a22af1b24kernel_get_kernel_recordEv
libcudnn_cnn_infer.so.8:_ZN17cask_plugin_cudnn10xmma_cudnn52implicit_gemm_dgrad_f3a45ec0b7433d69c6fbb8ecab077e4024kernel_get_kernel_recordEv
libcudnn_cnn_infer.so.8:_ZN17cask_plugin_cudnn10xmma_cudnn52implicit_gemm_dgrad_f3be66ae68a3e912c6fc95c28db43eca24kernel_get_kernel_recordEv
libcudnn_cnn_infer.so.8:_ZN17cask_plugin_cudnn10xmma_cudnn52implicit_gemm_dgrad_f3c6d4db57ffb7a2e331c1df3d2bd73724kernel_get_kernel_recordEv
libcudnn_cnn_infer.so.8:_ZN17cask_plugin_cudnn10xmma_cudnn52implicit_gemm_dgrad_f3cc0cd2e9f98c91fa34f58132377ea224kernel_get_kernel_recordEv
libcudnn_cnn_infer.so.8:_ZN17cask_plugin_cudnn10xmma_cudnn52implicit_gemm_dgrad_f3d371ca8412dd2983a71dae1f15321624kernel_get_kernel_recordEv
libcudnn_cnn_infer.so.8:_ZN17cask_plugin_cudnn10xmma_cudnn52implicit_gemm_dgrad_f3f612d6eb1d3deb8fffee322d5592d124kernel_get_kernel_recordEv
libcudnn_cnn_infer.so.8:_ZN17cask_plugin_cudnn10xmma_cudnn52implicit_gemm_dgrad_f410631d379428ab0484eadbb59524eb24kernel_get_kernel_recordEv
libcudnn_cnn_infer.so.8:_ZN17cask_plugin_cudnn10xmma_cudnn52implicit_gemm_dgrad_f440348e67458f30795a4db8e9e4e8db24kernel_get_kernel_recordEv
libcudnn_cnn_infer.so.8:_ZN17cask_plugin_cudnn10xmma_cudnn52implicit_gemm_dgrad_f46203798a79daedd9a752adc631e1e924kernel_get_kernel_recordEv
libcudnn_cnn_infer.so.8:_ZN17cask_plugin_cudnn10xmma_cudnn52implicit_gemm_dgrad_f4c1da241e84c523692c96a673b6436e24kernel_get_kernel_recordEv
libcudnn_cnn_infer.so.8:_ZN17cask_plugin_cudnn10xmma_cudnn52implicit_gemm_dgrad_f4cf28d03b4da7aeaa0119384c08542824kernel_get_kernel_recordEv
libcudnn_cnn_infer.so.8:_ZN17cask_plugin_cudnn10xmma_cudnn52implicit_gemm_dgrad_f4dd5ea3b1fc18f2fa6f3a488c52bde524kernel_get_kernel_recordEv
libcudnn_cnn_infer.so.8:_ZN17cask_plugin_cudnn10xmma_cudnn52implicit_gemm_dgrad_f4f7418eaf01c8720124d885693d301c24kernel_get_kernel_recordEv
libcudnn_cnn_infer.so.8:_ZN17cask_plugin_cudnn10xmma_cudnn52implicit_gemm_dgrad_f52cef543741e014dae1bda4d67128d024kernel_get_kernel_recordEv
libcudnn_cnn_infer.so.8:_ZN17cask_plugin_cudnn10xmma_cudnn52implicit_gemm_dgrad_f53bc2140b3585c93abc64f3b3e1c71b24kernel_get_kernel_recordEv
libcudnn_cnn_infer.so.8:_ZN17cask_plugin_cudnn10xmma_cudnn52implicit_gemm_dgrad_f578b48bd33063cc5f4de02f56a581a924kernel_get_kernel_recordEv
libcudnn_cnn_infer.so.8:_ZN17cask_plugin_cudnn10xmma_cudnn52implicit_gemm_dgrad_f57cde9aef447ecb5eb973789f0a352f24kernel_get_kernel_recordEv
libcudnn_cnn_infer.so.8:_ZN17cask_plugin_cudnn10xmma_cudnn52implicit_gemm_dgrad_f582918b1142c45403d3b4961fd92f5e24kernel_get_kernel_recordEv
libcudnn_cnn_infer.so.8:_ZN17cask_plugin_cudnn10xmma_cudnn52implicit_gemm_dgrad_f60b79d91f2b5bec9e2488ae8c23215524kernel_get_kernel_recordEv
libcudnn_cnn_infer.so.8:_ZN17cask_plugin_cudnn10xmma_cudnn52implicit_gemm_dgrad_f64f54b3673eb8d5df87698ab218378c24kernel_get_kernel_recordEv
libcudnn_cnn_infer.so.8:_ZN17cask_plugin_cudnn10xmma_cudnn52implicit_gemm_dgrad_f6ceea8d5ecb44a895edb383e845a23124kernel_get_kernel_recordEv
libcudnn_cnn_infer.so.8:_ZN17cask_plugin_cudnn10xmma_cudnn52implicit_gemm_dgrad_f6eae58a63ad9a34ea9351017cef047724kernel_get_kernel_recordEv
libcudnn_cnn_infer.so.8:_ZN17cask_plugin_cudnn10xmma_cudnn52implicit_gemm_dgrad_f6f4f332137092ceeb371a44b2a08b6f24kernel_get_kernel_recordEv
libcudnn_cnn_infer.so.8:_ZN17cask_plugin_cudnn10xmma_cudnn52implicit_gemm_dgrad_f70db130b97d77f2a10423179c1396ec24kernel_get_kernel_recordEv
libcudnn_cnn_infer.so.8:_ZN17cask_plugin_cudnn10xmma_cudnn52implicit_gemm_dgrad_f75822b09d9ceae5f8f2743536c66ee324kernel_get_kernel_recordEv
libcudnn_cnn_infer.so.8:_ZN17cask_plugin_cudnn10xmma_cudnn52implicit_gemm_dgrad_f75954edefc42c9ecbb8b2dc206fb05524kernel_get_kernel_recordEv
libcudnn_cnn_infer.so.8:_ZN17cask_plugin_cudnn10xmma_cudnn52implicit_gemm_dgrad_f795ae635bbf72152678575ef0ee7f6424kernel_get_kernel_recordEv
libcudnn_cnn_infer.so.8:_ZN17cask_plugin_cudnn10xmma_cudnn52implicit_gemm_dgrad_f7b8dd39b847d94042df4252dfd45b4724kernel_get_kernel_recordEv
libcudnn_cnn_infer.so.8:_ZN17cask_plugin_cudnn10xmma_cudnn52implicit_gemm_dgrad_f853e96763799af8aa73328c2122ee3224kernel_get_kernel_recordEv
libcudnn_cnn_infer.so.8:_ZN17cask_plugin_cudnn10xmma_cudnn52implicit_gemm_dgrad_f8d320452ccaa6d519c8d538e040768f24kernel_get_kernel_recordEv
libcudnn_cnn_infer.so.8:_ZN17cask_plugin_cudnn10xmma_cudnn52implicit_gemm_dgrad_f8e837888bb03af113c396e3039787c424kernel_get_kernel_recordEv
libcudnn_cnn_infer.so.8:_ZN17cask_plugin_cudnn10xmma_cudnn52implicit_gemm_dgrad_f941ffd6e4bffe14effb621f0b34bc5324kernel_get_kernel_recordEv
libcudnn_cnn_infer.so.8:_ZN17cask_plugin_cudnn10xmma_cudnn52implicit_gemm_dgrad_f95eb1c98ebe4ec4fede2d4c8d63989124kernel_get_kernel_recordEv
libcudnn_cnn_infer.so.8:_ZN17cask_plugin_cudnn10xmma_cudnn52implicit_gemm_dgrad_f97cb13fc613a4ede3afeb648e683d3624kernel_get_kernel_recordEv
libcudnn_cnn_infer.so.8:_ZN17cask_plugin_cudnn10xmma_cudnn52implicit_gemm_dgrad_f984b4f41ddd13d3159457e1916fc69d24kernel_get_kernel_recordEv
libcudnn_cnn_infer.so.8:_ZN17cask_plugin_cudnn10xmma_cudnn52implicit_gemm_dgrad_f995fc70d7a713aee7e71a695b6e164624kernel_get_kernel_recordEv
libcudnn_cnn_infer.so.8:_ZN17cask_plugin_cudnn10xmma_cudnn52implicit_gemm_dgrad_f99790854baf422b7ae37ad145340e7c24kernel_get_kernel_recordEv
libcudnn_cnn_infer.so.8:_ZN17cask_plugin_cudnn10xmma_cudnn52implicit_gemm_dgrad_f9b3a4227244dadcedba53283869213a24kernel_get_kernel_recordEv
libcudnn_cnn_infer.so.8:_ZN17cask_plugin_cudnn10xmma_cudnn52implicit_gemm_dgrad_f9d78d1e57db17ea396ce92c0fe9616624kernel_get_kernel_recordEv
libcudnn_cnn_infer.so.8:_ZN17cask_plugin_cudnn10xmma_cudnn52implicit_gemm_dgrad_f9e8bd5c52f0fd085880fb608a04255a24kernel_get_kernel_recordEv
libcudnn_cnn_infer.so.8:_ZN17cask_plugin_cudnn10xmma_cudnn52implicit_gemm_dgrad_fa1bbe6541f21561a1e8fc55daf2ebfc24kernel_get_kernel_recordEv
libcudnn_cnn_infer.so.8:_ZN17cask_plugin_cudnn10xmma_cudnn52implicit_gemm_dgrad_fa27823c41e29c97f6d24b37fe87d2d324kernel_get_kernel_recordEv
libcudnn_cnn_infer.so.8:_ZN17cask_plugin_cudnn10xmma_cudnn52implicit_gemm_dgrad_fa384286c83a9d8252d528ccf061684f24kernel_get_kernel_recordEv
libcudnn_cnn_infer.so.8:_ZN17cask_plugin_cudnn10xmma_cudnn52implicit_gemm_dgrad_fa3c4fc3d517e77019de07a84e116b3d24kernel_get_kernel_recordEv
libcudnn_cnn_infer.so.8:_ZN17cask_plugin_cudnn10xmma_cudnn52implicit_gemm_dgrad_fa5d88e78c87813e874a730d5e1ad61824kernel_get_kernel_recordEv
libcudnn_cnn_infer.so.8:_ZN17cask_plugin_cudnn10xmma_cudnn52implicit_gemm_dgrad_fa65578208f8c80804b60512912ebac624kernel_get_kernel_recordEv
libcudnn_cnn_infer.so.8:_ZN17cask_plugin_cudnn10xmma_cudnn52implicit_gemm_dgrad_fa6c47ea0cc908553d2cc35aaf4a268824kernel_get_kernel_recordEv
libcudnn_cnn_infer.so.8:_ZN17cask_plugin_cudnn10xmma_cudnn52implicit_gemm_dgrad_fa759cfdfa61fafb07e8b9075f5eb65724kernel_get_kernel_recordEv
libcudnn_cnn_infer.so.8:_ZN17cask_plugin_cudnn10xmma_cudnn52implicit_gemm_dgrad_fa76965943aa4ad2ae743cae10cffdc024kernel_get_kernel_recordEv
libcudnn_cnn_infer.so.8:_ZN17cask_plugin_cudnn10xmma_cudnn52implicit_gemm_dgrad_facb99c616f747f632fa6954cf71054724kernel_get_kernel_recordEv
libcudnn_cnn_infer.so.8:_ZN17cask_plugin_cudnn10xmma_cudnn52implicit_gemm_dgrad_facdd598e0ba754b89d4898738f35d8024kernel_get_kernel_recordEv
libcudnn_cnn_infer.so.8:_ZN17cask_plugin_cudnn10xmma_cudnn52implicit_gemm_dgrad_fb4faea34247e10e7d6ceaaea8ee1dec24kernel_get_kernel_recordEv
libcudnn_cnn_infer.so.8:_ZN17cask_plugin_cudnn10xmma_cudnn52implicit_gemm_dgrad_fb91b8daeb1f17c1229a54d43430e53424kernel_get_kernel_recordEv
libcudnn_cnn_infer.so.8:_ZN17cask_plugin_cudnn10xmma_cudnn52implicit_gemm_dgrad_fbbf0a3f62223065a75b057229f9678924kernel_get_kernel_recordEv
libcudnn_cnn_infer.so.8:_ZN17cask_plugin_cudnn10xmma_cudnn52implicit_gemm_dgrad_fbd58802f70d2db0dd53cf9a7ec6aa6f24kernel_get_kernel_recordEv
libcudnn_cnn_infer.so.8:_ZN17cask_plugin_cudnn10xmma_cudnn52implicit_gemm_dgrad_fbd9cf64fc529fe5e9148a180c332ad824kernel_get_kernel_recordEv
libcudnn_cnn_infer.so.8:_ZN17cask_plugin_cudnn10xmma_cudnn52implicit_gemm_dgrad_fbeb2ce480598fb948ce4f73f71728f524kernel_get_kernel_recordEv
libcudnn_cnn_infer.so.8:_ZN17cask_plugin_cudnn10xmma_cudnn52implicit_gemm_dgrad_fbecbdbd6502e5ce0ba07942b9b0fb0c24kernel_get_kernel_recordEv
libcudnn_cnn_infer.so.8:_ZN17cask_plugin_cudnn10xmma_cudnn52implicit_gemm_dgrad_fc0c7d9ea4494995569dd9e9e55cf1e124kernel_get_kernel_recordEv
libcudnn_cnn_infer.so.8:_ZN17cask_plugin_cudnn10xmma_cudnn52implicit_gemm_dgrad_fc0e279367b2b8af95255368d77f0a2024kernel_get_kernel_recordEv
libcudnn_cnn_infer.so.8:_ZN17cask_plugin_cudnn10xmma_cudnn52implicit_gemm_dgrad_fc0e9f93bfa37876ba1df211ace5755124kernel_get_kernel_recordEv
libcudnn_cnn_infer.so.8:_ZN17cask_plugin_cudnn10xmma_cudnn52implicit_gemm_dgrad_fc224946eff16b89510844f81cddc27224kernel_get_kernel_recordEv
libcudnn_cnn_infer.so.8:_ZN17cask_plugin_cudnn10xmma_cudnn52implicit_gemm_dgrad_fc7652eac3705b27639648979aaf967124kernel_get_kernel_recordEv
libcudnn_cnn_infer.so.8:_ZN17cask_plugin_cudnn10xmma_cudnn52implicit_gemm_dgrad_fccee0eae42fe19eaf6e307c10f0d3d624kernel_get_kernel_recordEv
libcudnn_cnn_infer.so.8:_ZN17cask_plugin_cudnn10xmma_cudnn52implicit_gemm_dgrad_fce95ca82f3e33b1e681c8596139fa8824kernel_get_kernel_recordEv
libcudnn_cnn_infer.so.8:_ZN17cask_plugin_cudnn10xmma_cudnn52implicit_gemm_dgrad_fcfba079264f6f6033615d90e1e9ec0724kernel_get_kernel_recordEv
libcudnn_cnn_infer.so.8:_ZN17cask_plugin_cudnn10xmma_cudnn52implicit_gemm_dgrad_fd0cdb0d0a38befa0231082cfd59d3cc24kernel_get_kernel_recordEv
libcudnn_cnn_infer.so.8:_ZN17cask_plugin_cudnn10xmma_cudnn52implicit_gemm_dgrad_fd1db52987b92bf4c7ee724e940147e024kernel_get_kernel_recordEv
libcudnn_cnn_infer.so.8:_ZN17cask_plugin_cudnn10xmma_cudnn52implicit_gemm_dgrad_fd1e827c3585361295b101f4d1f2060324kernel_get_kernel_recordEv
libcudnn_cnn_infer.so.8:_ZN17cask_plugin_cudnn10xmma_cudnn52implicit_gemm_dgrad_fd3c183c64251911b68032af3c001ea424kernel_get_kernel_recordEv
libcudnn_cnn_infer.so.8:_ZN17cask_plugin_cudnn10xmma_cudnn52implicit_gemm_dgrad_fd437358c2b0937684614d3dc0ab7c5324kernel_get_kernel_recordEv
libcudnn_cnn_infer.so.8:_ZN17cask_plugin_cudnn10xmma_cudnn52implicit_gemm_dgrad_fd4a89190a818af056704982c09a11db24kernel_get_kernel_recordEv
libcudnn_cnn_infer.so.8:_ZN17cask_plugin_cudnn10xmma_cudnn52implicit_gemm_dgrad_fd52a460223bd4f5eb25e9c3aefb16ab24kernel_get_kernel_recordEv
libcudnn_cnn_infer.so.8:_ZN17cask_plugin_cudnn10xmma_cudnn52implicit_gemm_dgrad_fdcf3aa94dfc566acd1a4d789ca1d60624kernel_get_kernel_recordEv
libcudnn_cnn_infer.so.8:_ZN17cask_plugin_cudnn10xmma_cudnn52implicit_gemm_dgrad_fdf4e9720e2dbd36fa0e9722caeaadf424kernel_get_kernel_recordEv
libcudnn_cnn_infer.so.8:_ZN17cask_plugin_cudnn10xmma_cudnn52implicit_gemm_dgrad_fe049bfba2d745976b9f51c735cc5e4d24kernel_get_kernel_recordEv
libcudnn_cnn_infer.so.8:_ZN17cask_plugin_cudnn10xmma_cudnn52implicit_gemm_dgrad_fe2c7d30b8a323599a813448772a50df24kernel_get_kernel_recordEv
libcudnn_cnn_infer.so.8:_ZN17cask_plugin_cudnn10xmma_cudnn52implicit_gemm_dgrad_feb9f7fda6305aa2decd08e3e5ed3ba824kernel_get_kernel_recordEv
libcudnn_cnn_infer.so.8:_ZN17cask_plugin_cudnn10xmma_cudnn52implicit_gemm_dgrad_fedb54c608d4b09789727fd19ec2e05a24kernel_get_kernel_recordEv
libcudnn_cnn_infer.so.8:_ZN17cask_plugin_cudnn10xmma_cudnn52implicit_gemm_dgrad_ff3e5fb2eda3775827f5e0c70afa8b4824kernel_get_kernel_recordEv
libcudnn_cnn_infer.so.8:_ZN17cask_plugin_cudnn10xmma_cudnn52implicit_gemm_dgrad_ff6ac6476c382aa11fe1ada67073c30424kernel_get_kernel_recordEv
libcudnn_cnn_infer.so.8:_ZN17cask_plugin_cudnn10xmma_cudnn52implicit_gemm_dgrad_ff7f52aa25dac10fbab4cbd9e742941f24kernel_get_kernel_recordEv
libcudnn_cnn_infer.so.8:_ZN17cask_plugin_cudnn10xmma_cudnn52implicit_gemm_dgrad_ffaa816948e68e1e30075958f05f3ceb24kernel_get_kernel_recordEv
libcudnn_cnn_infer.so.8:_ZN17cask_plugin_cudnn10xmma_cudnn52implicit_gemm_dgrad_ffe7abf73bb2aef80c1dc8a2f5fa466624kernel_get_kernel_recordEv
libcudnn_cnn_infer.so.8:_ZN17cask_plugin_cudnn10xmma_cudnn52implicit_gemm_fprop_000fd21e97cf7594ba262f6f599a3d6c24kernel_get_kernel_recordEv
libcudnn_cnn_infer.so.8:_ZN17cask_plugin_cudnn10xmma_cudnn52implicit_gemm_fprop_004bc1bb87a812f87263624e8010eb4b24kernel_get_kernel_recordEv
libcudnn_cnn_infer.so.8:_ZN17cask_plugin_cudnn10xmma_cudnn52implicit_gemm_fprop_0076f5202ced4bbedc900558616f7e2424kernel_get_kernel_recordEv
libcudnn_cnn_infer.so.8:_ZN17cask_plugin_cudnn10xmma_cudnn52implicit_gemm_fprop_00b17fab625c13294e98a6e6fb0086f924kernel_get_kernel_recordEv
libcudnn_cnn_infer.so.8:_ZN17cask_plugin_cudnn10xmma_cudnn52implicit_gemm_fprop_00cec3e3b9d32c9089bddfe03244625e24kernel_get_kernel_recordEv
libcudnn_cnn_infer.so.8:_ZN17cask_plugin_cudnn10xmma_cudnn52implicit_gemm_fprop_012a361dbb5918c5dc40bfcf5dda640824kernel_get_kernel_recordEv
libcudnn_cnn_infer.so.8:_ZN17cask_plugin_cudnn10xmma_cudnn52implicit_gemm_fprop_01521c5767c33f193378a30c98a34a8124kernel_get_kernel_recordEv
libcudnn_cnn_infer.so.8:_ZN17cask_plugin_cudnn10xmma_cudnn52implicit_gemm_fprop_016ec8deff86053b06d5ca95dc7df7b224kernel_get_kernel_recordEv
libcudnn_cnn_infer.so.8:_ZN17cask_plugin_cudnn10xmma_cudnn52implicit_gemm_fprop_01ae0674b2e0787d47867bc1a028b13524kernel_get_kernel_recordEv
libcudnn_cnn_infer.so.8:_ZN17cask_plugin_cudnn10xmma_cudnn52implicit_gemm_fprop_020bd88374da59f7859f8ead2ac3a3dc24kernel_get_kernel_recordEv
libcudnn_cnn_infer.so.8:_ZN17cask_plugin_cudnn10xmma_cudnn52implicit_gemm_fprop_02302c494db16e09d293756c3c1460cb24kernel_get_kernel_recordEv
libcudnn_cnn_infer.so.8:_ZN17cask_plugin_cudnn10xmma_cudnn52implicit_gemm_fprop_0257978b39bbe0f5eed3a3386ca2554d24kernel_get_kernel_recordEv
libcudnn_cnn_infer.so.8:_ZN17cask_plugin_cudnn10xmma_cudnn52implicit_gemm_fprop_027d4cff3746e53331c1b759ba31f78c24kernel_get_kernel_recordEv
libcudnn_cnn_infer.so.8:_ZN17cask_plugin_cudnn10xmma_cudnn52implicit_gemm_fprop_029129557dcc01f5ecd8bd2cbaa41b6a24kernel_get_kernel_recordEv
libcudnn_cnn_infer.so.8:_ZN17cask_plugin_cudnn10xmma_cudnn52implicit_gemm_fprop_02c1e44bf19e4c3934c5f57dc1e6236f24kernel_get_kernel_recordEv
libcudnn_cnn_infer.so.8:_ZN17cask_plugin_cudnn10xmma_cudnn52implicit_gemm_fprop_02d31e51389333492971daad4095f50924kernel_get_kernel_recordEv
libcudnn_cnn_infer.so.8:_ZN17cask_plugin_cudnn10xmma_cudnn52implicit_gemm_fprop_036edf8e8bbfbe5f5ad126752b4e229024kernel_get_kernel_recordEv
libcudnn_cnn_infer.so.8:_ZN17cask_plugin_cudnn10xmma_cudnn52implicit_gemm_fprop_03c93f0613ab9b7279505e95223e227c24kernel_get_kernel_recordEv
libcudnn_cnn_infer.so.8:_ZN17cask_plugin_cudnn10xmma_cudnn52implicit_gemm_fprop_03d0a754fff956e7574ffd899625fe8b24kernel_get_kernel_recordEv
libcudnn_cnn_infer.so.8:_ZN17cask_plugin_cudnn10xmma_cudnn52implicit_gemm_fprop_03ed36596a5cd842434d37fbbbf3334524kernel_get_kernel_recordEv
libcudnn_cnn_infer.so.8:_ZN17cask_plugin_cudnn10xmma_cudnn52implicit_gemm_fprop_03edf76e2c043ea351e648ea6e47fbf524kernel_get_kernel_recordEv
libcudnn_cnn_infer.so.8:_ZN17cask_plugin_cudnn10xmma_cudnn52implicit_gemm_fprop_04035c1b3c7cf649492260c262c890b124kernel_get_kernel_recordEv
libcudnn_cnn_infer.so.8:_ZN17cask_plugin_cudnn10xmma_cudnn52implicit_gemm_fprop_045328bf750f5b7718ba21d644ce4b4724kernel_get_kernel_recordEv
libcudnn_cnn_infer.so.8:_ZN17cask_plugin_cudnn10xmma_cudnn52implicit_gemm_fprop_04647dfd6986af89b870995b1042eeb824kernel_get_kernel_recordEv
libcudnn_cnn_infer.so.8:_ZN17cask_plugin_cudnn10xmma_cudnn52implicit_gemm_fprop_047b058968c754fc4cc474639543a50024kernel_get_kernel_recordEv
libcudnn_cnn_infer.so.8:_ZN17cask_plugin_cudnn10xmma_cudnn52implicit_gemm_fprop_048e3a12c9daeab43332e0b847a0f7bd24kernel_get_kernel_recordEv
libcudnn_cnn_infer.so.8:_ZN17cask_plugin_cudnn10xmma_cudnn52implicit_gemm_fprop_04a30e7c9caf1dba210baca188307d8d24kernel_get_kernel_recordEv
libcudnn_cnn_infer.so.8:_ZN17cask_plugin_cudnn10xmma_cudnn52implicit_gemm_fprop_04effe808f61961c894d7d9f9f3d011824kernel_get_kernel_recordEv
libcudnn_cnn_infer.so.8:_ZN17cask_plugin_cudnn10xmma_cudnn52implicit_gemm_fprop_04f83265f294444cc0df39a7482637c224kernel_get_kernel_recordEv
libcudnn_cnn_infer.so.8:_ZN17cask_plugin_cudnn10xmma_cudnn52implicit_gemm_fprop_050bbefc8302a73a315804dba37b7c0524kernel_get_kernel_recordEv
libcudnn_cnn_infer.so.8:_ZN17cask_plugin_cudnn10xmma_cudnn52implicit_gemm_fprop_053ed93a6d305dcd9ad9a9aad18103c624kernel_get_kernel_recordEv
libcudnn_cnn_infer.so.8:_ZN17cask_plugin_cudnn10xmma_cudnn52implicit_gemm_fprop_059599ac7ae367456e8587c9d0fc5c7324kernel_get_kernel_recordEv
libcudnn_cnn_infer.so.8:_ZN17cask_plugin_cudnn10xmma_cudnn52implicit_gemm_fprop_05969ed5087a85d5a77ba86cb2972ff324kernel_get_kernel_recordEv
libcudnn_cnn_infer.so.8:_ZN17cask_plugin_cudnn10xmma_cudnn52implicit_gemm_fprop_059cb9131781178619506860f1561a4124kernel_get_kernel_recordEv
libcudnn_cnn_infer.so.8:_ZN17cask_plugin_cudnn10xmma_cudnn52implicit_gemm_fprop_05caf33b6e1a8f51b15b6560a5c1492c24kernel_get_kernel_recordEv
libcudnn_cnn_infer.so.8:_ZN17cask_plugin_cudnn10xmma_cudnn52implicit_gemm_fprop_05dd9b8cd44d5751e4ae2f6dd84f39ab24kernel_get_kernel_recordEv
libcudnn_cnn_infer.so.8:_ZN17cask_plugin_cudnn10xmma_cudnn52implicit_gemm_fprop_05fdd1a39db91686c91304140d607e3b24kernel_get_kernel_recordEv
libcudnn_cnn_infer.so.8:_ZN17cask_plugin_cudnn10xmma_cudnn52implicit_gemm_fprop_06133e4c7991fe1458ad76658d3acff624kernel_get_kernel_recordEv
libcudnn_cnn_infer.so.8:_ZN17cask_plugin_cudnn10xmma_cudnn52implicit_gemm_fprop_0629d01ef82b9ffbc161a1b0553d4cb624kernel_get_kernel_recordEv
libcudnn_cnn_infer.so.8:_ZN17cask_plugin_cudnn10xmma_cudnn52implicit_gemm_fprop_069debe728bfc596448358092987f41b24kernel_get_kernel_recordEv
libcudnn_cnn_infer.so.8:_ZN17cask_plugin_cudnn10xmma_cudnn52implicit_gemm_fprop_06abec75d1f540392cc421988993a05e24kernel_get_kernel_recordEv
libcudnn_cnn_infer.so.8:_ZN17cask_plugin_cudnn10xmma_cudnn52implicit_gemm_fprop_06ad91be0d97bbfc664c1fce2d1077bc24kernel_get_kernel_recordEv
libcudnn_cnn_infer.so.8:_ZN17cask_plugin_cudnn10xmma_cudnn52implicit_gemm_fprop_06ce7ad9ee1358c3195fd2930af3c6ba24kernel_get_kernel_recordEv
libcudnn_cnn_infer.so.8:_ZN17cask_plugin_cudnn10xmma_cudnn52implicit_gemm_fprop_06d803aa1419c2e408185362ad0adb0624kernel_get_kernel_recordEv
libcudnn_cnn_infer.so.8:_ZN17cask_plugin_cudnn10xmma_cudnn52implicit_gemm_fprop_070aa88dda2aeda0e1811df41e23086424kernel_get_kernel_recordEv
libcudnn_cnn_infer.so.8:_ZN17cask_plugin_cudnn10xmma_cudnn52implicit_gemm_fprop_07249015004f78be1877c940aea88d7a24kernel_get_kernel_recordEv
libcudnn_cnn_infer.so.8:_ZN17cask_plugin_cudnn10xmma_cudnn52implicit_gemm_fprop_0743fb5c3367a18f4d99b3a370cfcccf24kernel_get_kernel_recordEv
libcudnn_cnn_infer.so.8:_ZN17cask_plugin_cudnn10xmma_cudnn52implicit_gemm_fprop_079ebeab423625e538284449dfe84b7724kernel_get_kernel_recordEv
libcudnn_cnn_infer.so.8:_ZN17cask_plugin_cudnn10xmma_cudnn52implicit_gemm_fprop_07e3bea722aba37c5006e7847e8f9c6624kernel_get_kernel_recordEv
libcudnn_cnn_infer.so.8:_ZN17cask_plugin_cudnn10xmma_cudnn52implicit_gemm_fprop_07f2da6684f9f62eb677fc24933cf55d24kernel_get_kernel_recordEv
libcudnn_cnn_infer.so.8:_ZN17cask_plugin_cudnn10xmma_cudnn52implicit_gemm_fprop_07f60255c87a9cdb9d0385247a6eb91124kernel_get_kernel_recordEv
libcudnn_cnn_infer.so.8:_ZN17cask_plugin_cudnn10xmma_cudnn52implicit_gemm_fprop_080848d12de34825c588b2343fcbf78224kernel_get_kernel_recordEv
libcudnn_cnn_infer.so.8:_ZN17cask_plugin_cudnn10xmma_cudnn52implicit_gemm_fprop_08775a5d8f126e9393ea89595050d4b024kernel_get_kernel_recordEv
libcudnn_cnn_infer.so.8:_ZN17cask_plugin_cudnn10xmma_cudnn52implicit_gemm_fprop_08a704254d0ed3f5e49ce976a4e5fae324kernel_get_kernel_recordEv
libcudnn_cnn_infer.so.8:_ZN17cask_plugin_cudnn10xmma_cudnn52implicit_gemm_fprop_08b970d886b70be8f41262a3d2b31b0624kernel_get_kernel_recordEv
libcudnn_cnn_infer.so.8:_ZN17cask_plugin_cudnn10xmma_cudnn52implicit_gemm_fprop_08da3cdd8bc85685e64d8886b26dd08724kernel_get_kernel_recordEv
libcudnn_cnn_infer.so.8:_ZN17cask_plugin_cudnn10xmma_cudnn52implicit_gemm_fprop_08ddebb3cdbbd78bc65364af183be92824kernel_get_kernel_recordEv
libcudnn_cnn_infer.so.8:_ZN17cask_plugin_cudnn10xmma_cudnn52implicit_gemm_fprop_0917b41507c69ca0df076e17e5c81c1d24kernel_get_kernel_recordEv
libcudnn_cnn_infer.so.8:_ZN17cask_plugin_cudnn10xmma_cudnn52implicit_gemm_fprop_09452016b992e48b84378633388946a524kernel_get_kernel_recordEv
libcudnn_cnn_infer.so.8:_ZN17cask_plugin_cudnn10xmma_cudnn52implicit_gemm_fprop_097e6a80ff51c80df254b3f8e88f36ca24kernel_get_kernel_recordEv
libcudnn_cnn_infer.so.8:_ZN17cask_plugin_cudnn10xmma_cudnn52implicit_gemm_fprop_0997cf94ea55477ce270c9a800ba372924kernel_get_kernel_recordEv
libcudnn_cnn_infer.so.8:_ZN17cask_plugin_cudnn10xmma_cudnn52implicit_gemm_fprop_09cfb20d18acf46e7ffa56d6a33d027e24kernel_get_kernel_recordEv
libcudnn_cnn_infer.so.8:_ZN17cask_plugin_cudnn10xmma_cudnn52implicit_gemm_fprop_09df14cd8cc7cd86323238d3a259abf524kernel_get_kernel_recordEv
libcudnn_cnn_infer.so.8:_ZN17cask_plugin_cudnn10xmma_cudnn52implicit_gemm_fprop_09fba4ccb78800e9553bba71f80dcd0c24kernel_get_kernel_recordEv
libcudnn_cnn_infer.so.8:_ZN17cask_plugin_cudnn10xmma_cudnn52implicit_gemm_fprop_0a042eb58d9406608a5796184d0d187b24kernel_get_kernel_recordEv
libcudnn_cnn_infer.so.8:_ZN17cask_plugin_cudnn10xmma_cudnn52implicit_gemm_fprop_0a220064aa565dcd6d4a7e528dd6571f24kernel_get_kernel_recordEv
libcudnn_cnn_infer.so.8:_ZN17cask_plugin_cudnn10xmma_cudnn52implicit_gemm_fprop_0a24a0043ac22ab14dd7303084ba2d6224kernel_get_kernel_recordEv
libcudnn_cnn_infer.so.8:_ZN17cask_plugin_cudnn10xmma_cudnn52implicit_gemm_fprop_0a50fc4a00aeeadb9aebb289ebe9812824kernel_get_kernel_recordEv
libcudnn_cnn_infer.so.8:_ZN17cask_plugin_cudnn10xmma_cudnn52implicit_gemm_fprop_0a5c9d91e7ae4020d2e8f2b1b8a8e3fe24kernel_get_kernel_recordEv
libcudnn_cnn_infer.so.8:_ZN17cask_plugin_cudnn10xmma_cudnn52implicit_gemm_fprop_0a65cb5af7e602900a99ec0a48bec16b24kernel_get_kernel_recordEv
libcudnn_cnn_infer.so.8:_ZN17cask_plugin_cudnn10xmma_cudnn52implicit_gemm_fprop_0a6aa016271c99b90e1f97280213226a24kernel_get_kernel_recordEv
libcudnn_cnn_infer.so.8:_ZN17cask_plugin_cudnn10xmma_cudnn52implicit_gemm_fprop_0a87ca0007932ad3c59e0aa1fb0b3a7324kernel_get_kernel_recordEv
libcudnn_cnn_infer.so.8:_ZN17cask_plugin_cudnn10xmma_cudnn52implicit_gemm_fprop_0ab0f07ff7d94a6df022f1080fd765c024kernel_get_kernel_recordEv
libcudnn_cnn_infer.so.8:_ZN17cask_plugin_cudnn10xmma_cudnn52implicit_gemm_fprop_0b6a1617fcb6fbce211339d4f76301a724kernel_get_kernel_recordEv
libcudnn_cnn_infer.so.8:_ZN17cask_plugin_cudnn10xmma_cudnn52implicit_gemm_fprop_0ba23b05b2fde354da919ca8895b681224kernel_get_kernel_recordEv
libcudnn_cnn_infer.so.8:_ZN17cask_plugin_cudnn10xmma_cudnn52implicit_gemm_fprop_0c7a3cc5337f348afc2660d1bd7e56e224kernel_get_kernel_recordEv
libcudnn_cnn_infer.so.8:_ZN17cask_plugin_cudnn10xmma_cudnn52implicit_gemm_fprop_0c81422a8475db94f95f356e79213adc24kernel_get_kernel_recordEv
libcudnn_cnn_infer.so.8:_ZN17cask_plugin_cudnn10xmma_cudnn52implicit_gemm_fprop_0c9c253c5eb8c012efa0b810fdcd100f24kernel_get_kernel_recordEv
libcudnn_cnn_infer.so.8:_ZN17cask_plugin_cudnn10xmma_cudnn52implicit_gemm_fprop_0cae01f47f0cfde56ab17590104bbe7924kernel_get_kernel_recordEv
libcudnn_cnn_infer.so.8:_ZN17cask_plugin_cudnn10xmma_cudnn52implicit_gemm_fprop_0cbdfe247ad8b9fc1ec3ace1add859c124kernel_get_kernel_recordEv
libcudnn_cnn_infer.so.8:_ZN17cask_plugin_cudnn10xmma_cudnn52implicit_gemm_fprop_0d26d03d7682775c9339fa3c5618f83a24kernel_get_kernel_recordEv
libcudnn_cnn_infer.so.8:_ZN17cask_plugin_cudnn10xmma_cudnn52implicit_gemm_fprop_0d4d4fac01aa51ca86b7843c1c02f02424kernel_get_kernel_recordEv
libcudnn_cnn_infer.so.8:_ZN17cask_plugin_cudnn10xmma_cudnn52implicit_gemm_fprop_0d4dc4b70e2ba54f80001dfaa60b86e224kernel_get_kernel_recordEv
libcudnn_cnn_infer.so.8:_ZN17cask_plugin_cudnn10xmma_cudnn52implicit_gemm_fprop_0d9ca18f4de3c697f9606904354ce17424kernel_get_kernel_recordEv
libcudnn_cnn_infer.so.8:_ZN17cask_plugin_cudnn10xmma_cudnn52implicit_gemm_fprop_0db139272279240a404db64c9476a26324kernel_get_kernel_recordEv
libcudnn_cnn_infer.so.8:_ZN17cask_plugin_cudnn10xmma_cudnn52implicit_gemm_fprop_0dc8c49a5befec3a9a2935781477deb824kernel_get_kernel_recordEv
libcudnn_cnn_infer.so.8:_ZN17cask_plugin_cudnn10xmma_cudnn52implicit_gemm_fprop_0dd4b8b6af0d796f9c7984893714ea0f24kernel_get_kernel_recordEv
libcudnn_cnn_infer.so.8:_ZN17cask_plugin_cudnn10xmma_cudnn52implicit_gemm_fprop_0dfc94c515105bbade2f64a2fe67fbf924kernel_get_kernel_recordEv
libcudnn_cnn_infer.so.8:_ZN17cask_plugin_cudnn10xmma_cudnn52implicit_gemm_fprop_0e1de894e6491540cb1b59f750d4520924kernel_get_kernel_recordEv
libcudnn_cnn_infer.so.8:_ZN17cask_plugin_cudnn10xmma_cudnn52implicit_gemm_fprop_0e23204b5a519382d58cd2dc76a9acfa24kernel_get_kernel_recordEv
libcudnn_cnn_infer.so.8:_ZN17cask_plugin_cudnn10xmma_cudnn52implicit_gemm_fprop_0e91700e8d33d6278e80322fc40e224b24kernel_get_kernel_recordEv
libcudnn_cnn_infer.so.8:_ZN17cask_plugin_cudnn10xmma_cudnn52implicit_gemm_fprop_0e97c918e5e046c2a36bd8c91e29d9f124kernel_get_kernel_recordEv
libcudnn_cnn_infer.so.8:_ZN17cask_plugin_cudnn10xmma_cudnn52implicit_gemm_fprop_0eddb5df00cc9fb1ae8dd06fa7eb254524kernel_get_kernel_recordEv
libcudnn_cnn_infer.so.8:_ZN17cask_plugin_cudnn10xmma_cudnn52implicit_gemm_fprop_0edea403d817b7a3bab46bab10aca0fb24kernel_get_kernel_recordEv
libcudnn_cnn_infer.so.8:_ZN17cask_plugin_cudnn10xmma_cudnn52implicit_gemm_fprop_0f45243f667e655cb921823241bb276724kernel_get_kernel_recordEv
libcudnn_cnn_infer.so.8:_ZN17cask_plugin_cudnn10xmma_cudnn52implicit_gemm_fprop_0f68f31271186bf20b1659968d4a87d824kernel_get_kernel_recordEv
libcudnn_cnn_infer.so.8:_ZN17cask_plugin_cudnn10xmma_cudnn52implicit_gemm_fprop_0f9691d5f395e9bec946755799db0cf424kernel_get_kernel_recordEv
libcudnn_cnn_infer.so.8:_ZN17cask_plugin_cudnn10xmma_cudnn52implicit_gemm_fprop_0fa149081615b4cafcae6dabf6a8767524kernel_get_kernel_recordEv
libcudnn_cnn_infer.so.8:_ZN17cask_plugin_cudnn10xmma_cudnn52implicit_gemm_fprop_1041c2343abf45e4f169820960a54e7624kernel_get_kernel_recordEv
libcudnn_cnn_infer.so.8:_ZN17cask_plugin_cudnn10xmma_cudnn52implicit_gemm_fprop_10431d64188a201f544cb740e588d3fa24kernel_get_kernel_recordEv
libcudnn_cnn_infer.so.8:_ZN17cask_plugin_cudnn10xmma_cudnn52implicit_gemm_fprop_105e83f8f37cdd17116c23765f7670e224kernel_get_kernel_recordEv
libcudnn_cnn_infer.so.8:_ZN17cask_plugin_cudnn10xmma_cudnn52implicit_gemm_fprop_108d66544505031f000dfdbd49c8a47724kernel_get_kernel_recordEv
libcudnn_cnn_infer.so.8:_ZN17cask_plugin_cudnn10xmma_cudnn52implicit_gemm_fprop_1097d8b73d4daee8eb66d38b56f60d2e24kernel_get_kernel_recordEv
libcudnn_cnn_infer.so.8:_ZN17cask_plugin_cudnn10xmma_cudnn52implicit_gemm_fprop_10a72854a77b3eef4606615ff3e26b9324kernel_get_kernel_recordEv
libcudnn_cnn_infer.so.8:_ZN17cask_plugin_cudnn10xmma_cudnn52implicit_gemm_fprop_117a6b2e1cba449e77138d82959b573024kernel_get_kernel_recordEv
libcudnn_cnn_infer.so.8:_ZN17cask_plugin_cudnn10xmma_cudnn52implicit_gemm_fprop_11a716606700769a3c94d2a9e4826f4a24kernel_get_kernel_recordEv
libcudnn_cnn_infer.so.8:_ZN17cask_plugin_cudnn10xmma_cudnn52implicit_gemm_fprop_11c77f640712c4efa2b97ad7a02fff3624kernel_get_kernel_recordEv
libcudnn_cnn_infer.so.8:_ZN17cask_plugin_cudnn10xmma_cudnn52implicit_gemm_fprop_11d768efc45f46403c9eead4416d417624kernel_get_kernel_recordEv
libcudnn_cnn_infer.so.8:_ZN17cask_plugin_cudnn10xmma_cudnn52implicit_gemm_fprop_11f659342ffd06ec9a33016767013a5324kernel_get_kernel_recordEv
libcudnn_cnn_infer.so.8:_ZN17cask_plugin_cudnn10xmma_cudnn52implicit_gemm_fprop_124f8939563df988af616187c931268e24kernel_get_kernel_recordEv
libcudnn_cnn_infer.so.8:_ZN17cask_plugin_cudnn10xmma_cudnn52implicit_gemm_fprop_12707d7c5bf102f16989d777591dfa4324kernel_get_kernel_recordEv
libcudnn_cnn_infer.so.8:_ZN17cask_plugin_cudnn10xmma_cudnn52implicit_gemm_fprop_1295fed4166572fd7482201607013e3724kernel_get_kernel_recordEv
libcudnn_cnn_infer.so.8:_ZN17cask_plugin_cudnn10xmma_cudnn52implicit_gemm_fprop_12c10d5913e9f7a254c2e00c8aaeef3324kernel_get_kernel_recordEv
libcudnn_cnn_infer.so.8:_ZN17cask_plugin_cudnn10xmma_cudnn52implicit_gemm_fprop_12e28238f16779e7558558f2f76bc6a124kernel_get_kernel_recordEv
libcudnn_cnn_infer.so.8:_ZN17cask_plugin_cudnn10xmma_cudnn52implicit_gemm_fprop_1345991f3a67435bc16a0dc3ef75afa024kernel_get_kernel_recordEv
libcudnn_cnn_infer.so.8:_ZN17cask_plugin_cudnn10xmma_cudnn52implicit_gemm_fprop_1362595f9e3bdebaeaf92c2777ac28fb24kernel_get_kernel_recordEv
libcudnn_cnn_infer.so.8:_ZN17cask_plugin_cudnn10xmma_cudnn52implicit_gemm_fprop_136aa5acc7fb7a4f40283e767de1bed124kernel_get_kernel_recordEv
libcudnn_cnn_infer.so.8:_ZN17cask_plugin_cudnn10xmma_cudnn52implicit_gemm_fprop_13afab8806145c9892502ca44f775f4c24kernel_get_kernel_recordEv
libcudnn_cnn_infer.so.8:_ZN17cask_plugin_cudnn10xmma_cudnn52implicit_gemm_fprop_13ba8929b406f87be5973cb64ed7b5f624kernel_get_kernel_recordEv
libcudnn_cnn_infer.so.8:_ZN17cask_plugin_cudnn10xmma_cudnn52implicit_gemm_fprop_13be9ec0be3ed0624f5811884b54746424kernel_get_kernel_recordEv
libcudnn_cnn_infer.so.8:_ZN17cask_plugin_cudnn10xmma_cudnn52implicit_gemm_fprop_13c9f8550af5f4acf02e6618b5fb568224kernel_get_kernel_recordEv
libcudnn_cnn_infer.so.8:_ZN17cask_plugin_cudnn10xmma_cudnn52implicit_gemm_fprop_13e47339835bac938df3db3aee2d4a3524kernel_get_kernel_recordEv
libcudnn_cnn_infer.so.8:_ZN17cask_plugin_cudnn10xmma_cudnn52implicit_gemm_fprop_145db877763e4ae470cf4e77ee517a7424kernel_get_kernel_recordEv
libcudnn_cnn_infer.so.8:_ZN17cask_plugin_cudnn10xmma_cudnn52implicit_gemm_fprop_146c976a4c9f444d8c4f2f9b89b73d5424kernel_get_kernel_recordEv
libcudnn_cnn_infer.so.8:_ZN17cask_plugin_cudnn10xmma_cudnn52implicit_gemm_fprop_1483f18270a04dec3843e7617ea1842c24kernel_get_kernel_recordEv
libcudnn_cnn_infer.so.8:_ZN17cask_plugin_cudnn10xmma_cudnn52implicit_gemm_fprop_152cef48749a49362773a692c69d2d8824kernel_get_kernel_recordEv
libcudnn_cnn_infer.so.8:_ZN17cask_plugin_cudnn10xmma_cudnn52implicit_gemm_fprop_15378bc23d971b138fd203f12845628b24kernel_get_kernel_recordEv
libcudnn_cnn_infer.so.8:_ZN17cask_plugin_cudnn10xmma_cudnn52implicit_gemm_fprop_15553761ef3ee4fe718081a1f61deba724kernel_get_kernel_recordEv
libcudnn_cnn_infer.so.8:_ZN17cask_plugin_cudnn10xmma_cudnn52implicit_gemm_fprop_1558392da11cda05da732c49d33ba9ba24kernel_get_kernel_recordEv
libcudnn_cnn_infer.so.8:_ZN17cask_plugin_cudnn10xmma_cudnn52implicit_gemm_fprop_1596e8dcbbdec5b5b9e9ed10f77058c624kernel_get_kernel_recordEv
libcudnn_cnn_infer.so.8:_ZN17cask_plugin_cudnn10xmma_cudnn52implicit_gemm_fprop_15bb77e2fa2ed58b8f345b41c51ddbbb24kernel_get_kernel_recordEv
libcudnn_cnn_infer.so.8:_ZN17cask_plugin_cudnn10xmma_cudnn52implicit_gemm_fprop_15c2f235f9d6383082bfa4b7636e3e0224kernel_get_kernel_recordEv
libcudnn_cnn_infer.so.8:_ZN17cask_plugin_cudnn10xmma_cudnn52implicit_gemm_fprop_15de5d0165a7b28ac9bdcf132a2df0f324kernel_get_kernel_recordEv
libcudnn_cnn_infer.so.8:_ZN17cask_plugin_cudnn10xmma_cudnn52implicit_gemm_fprop_160927ca66cf5f873fddc2782bfdc35624kernel_get_kernel_recordEv
libcudnn_cnn_infer.so.8:_ZN17cask_plugin_cudnn10xmma_cudnn52implicit_gemm_fprop_1648079c86474b82abf3a071b941355424kernel_get_kernel_recordEv
libcudnn_cnn_infer.so.8:_ZN17cask_plugin_cudnn10xmma_cudnn52implicit_gemm_fprop_166bf75bdec7a9abe03a3ee6255e9ad124kernel_get_kernel_recordEv
libcudnn_cnn_infer.so.8:_ZN17cask_plugin_cudnn10xmma_cudnn52implicit_gemm_fprop_167bbc2d89155365f1f3da02511835e624kernel_get_kernel_recordEv
libcudnn_cnn_infer.so.8:_ZN17cask_plugin_cudnn10xmma_cudnn52implicit_gemm_fprop_16e50852da0f6fb3ee9dcd2af283234924kernel_get_kernel_recordEv
libcudnn_cnn_infer.so.8:_ZN17cask_plugin_cudnn10xmma_cudnn52implicit_gemm_fprop_1700ed06d6834db898f6461db80c654124kernel_get_kernel_recordEv
libcudnn_cnn_infer.so.8:_ZN17cask_plugin_cudnn10xmma_cudnn52implicit_gemm_fprop_170889478657b4e9e78520fb3859273724kernel_get_kernel_recordEv
libcudnn_cnn_infer.so.8:_ZN17cask_plugin_cudnn10xmma_cudnn52implicit_gemm_fprop_171390fb149c9ea32b4eab05672242a424kernel_get_kernel_recordEv
libcudnn_cnn_infer.so.8:_ZN17cask_plugin_cudnn10xmma_cudnn52implicit_gemm_fprop_171452f9f6a8b07c3d852c6a8b6ca86d24kernel_get_kernel_recordEv
libcudnn_cnn_infer.so.8:_ZN17cask_plugin_cudnn10xmma_cudnn52implicit_gemm_fprop_17312747e349f6a4e14793cf7943005924kernel_get_kernel_recordEv
libcudnn_cnn_infer.so.8:_ZN17cask_plugin_cudnn10xmma_cudnn52implicit_gemm_fprop_17662b3913ffc0b6fb259e4e59dce4a924kernel_get_kernel_recordEv
libcudnn_cnn_infer.so.8:_ZN17cask_plugin_cudnn10xmma_cudnn52implicit_gemm_fprop_17784bfc0914b5e15a3b07b1e032c1f224kernel_get_kernel_recordEv
libcudnn_cnn_infer.so.8:_ZN17cask_plugin_cudnn10xmma_cudnn52implicit_gemm_fprop_17aa5b0a875a2ea18ab0c6168f5eb9df24kernel_get_kernel_recordEv
libcudnn_cnn_infer.so.8:_ZN17cask_plugin_cudnn10xmma_cudnn52implicit_gemm_fprop_17c5127e9514a4d02e27e8c828492cfc24kernel_get_kernel_recordEv
libcudnn_cnn_infer.so.8:_ZN17cask_plugin_cudnn10xmma_cudnn52implicit_gemm_fprop_17de89927387b2048f9801265818c80a24kernel_get_kernel_recordEv
libcudnn_cnn_infer.so.8:_ZN17cask_plugin_cudnn10xmma_cudnn52implicit_gemm_fprop_17f319483ff387f3570dc700b647048924kernel_get_kernel_recordEv
libcudnn_cnn_infer.so.8:_ZN17cask_plugin_cudnn10xmma_cudnn52implicit_gemm_fprop_17f72b1798b590d89e3c6c36cd08402024kernel_get_kernel_recordEv
libcudnn_cnn_infer.so.8:_ZN17cask_plugin_cudnn10xmma_cudnn52implicit_gemm_fprop_182c6ad5cce631690f676f400488e0d824kernel_get_kernel_recordEv
libcudnn_cnn_infer.so.8:_ZN17cask_plugin_cudnn10xmma_cudnn52implicit_gemm_fprop_1848b868e2b772bf970847ae5ae4de9b24kernel_get_kernel_recordEv
libcudnn_cnn_infer.so.8:_ZN17cask_plugin_cudnn10xmma_cudnn52implicit_gemm_fprop_18657531fe95bd4c42b949d22caead3424kernel_get_kernel_recordEv
libcudnn_cnn_infer.so.8:_ZN17cask_plugin_cudnn10xmma_cudnn52implicit_gemm_fprop_187b0bf10cd95d274b699192de5394e524kernel_get_kernel_recordEv
libcudnn_cnn_infer.so.8:_ZN17cask_plugin_cudnn10xmma_cudnn52implicit_gemm_fprop_18a766f8636457bd3f2b0560592907c524kernel_get_kernel_recordEv
libcudnn_cnn_infer.so.8:_ZN17cask_plugin_cudnn10xmma_cudnn52implicit_gemm_fprop_18aa08b7a0a9772a2e8ed2590350998224kernel_get_kernel_recordEv
libcudnn_cnn_infer.so.8:_ZN17cask_plugin_cudnn10xmma_cudnn52implicit_gemm_fprop_19102ed8678d6f801157a5917ecf67eb24kernel_get_kernel_recordEv
libcudnn_cnn_infer.so.8:_ZN17cask_plugin_cudnn10xmma_cudnn52implicit_gemm_fprop_191921f5518fb7fbd41ab3c164ed738424kernel_get_kernel_recordEv
libcudnn_cnn_infer.so.8:_ZN17cask_plugin_cudnn10xmma_cudnn52implicit_gemm_fprop_191fb425d1b6f47b9f3acf78c5d8d37024kernel_get_kernel_recordEv
libcudnn_cnn_infer.so.8:_ZN17cask_plugin_cudnn10xmma_cudnn52implicit_gemm_fprop_1936471bd351c22ba1b247365cc106ce24kernel_get_kernel_recordEv
libcudnn_cnn_infer.so.8:_ZN17cask_plugin_cudnn10xmma_cudnn52implicit_gemm_fprop_193c0db6a9f761d4d1bc07c9b3fb4de924kernel_get_kernel_recordEv
libcudnn_cnn_infer.so.8:_ZN17cask_plugin_cudnn10xmma_cudnn52implicit_gemm_fprop_195133c825173d62a82c62ae4548997e24kernel_get_kernel_recordEv
libcudnn_cnn_infer.so.8:_ZN17cask_plugin_cudnn10xmma_cudnn52implicit_gemm_fprop_1991108ca3a3a3e217684ce07c7abb2924kernel_get_kernel_recordEv
libcudnn_cnn_infer.so.8:_ZN17cask_plugin_cudnn10xmma_cudnn52implicit_gemm_fprop_19f3616f513f9cc13acb5b31b52a163324kernel_get_kernel_recordEv
libcudnn_cnn_infer.so.8:_ZN17cask_plugin_cudnn10xmma_cudnn52implicit_gemm_fprop_1a32b3f1a4c48d8166f4405a1612ac6b24kernel_get_kernel_recordEv
libcudnn_cnn_infer.so.8:_ZN17cask_plugin_cudnn10xmma_cudnn52implicit_gemm_fprop_1a6c29e7e20fa35c3594d519f5b2c99024kernel_get_kernel_recordEv
libcudnn_cnn_infer.so.8:_ZN17cask_plugin_cudnn10xmma_cudnn52implicit_gemm_fprop_1a8a58b03fbc05e9f9d6daa9a0e3506b24kernel_get_kernel_recordEv
libcudnn_cnn_infer.so.8:_ZN17cask_plugin_cudnn10xmma_cudnn52implicit_gemm_fprop_1ac02554633083600a75ae7f1e55daf524kernel_get_kernel_recordEv
libcudnn_cnn_infer.so.8:_ZN17cask_plugin_cudnn10xmma_cudnn52implicit_gemm_fprop_1af827e9a2fb0660836d63328d68df2324kernel_get_kernel_recordEv
libcudnn_cnn_infer.so.8:_ZN17cask_plugin_cudnn10xmma_cudnn52implicit_gemm_fprop_1b33c21854503b906306c4bc2256628224kernel_get_kernel_recordEv
libcudnn_cnn_infer.so.8:_ZN17cask_plugin_cudnn10xmma_cudnn52implicit_gemm_fprop_1c16d1c2df17fb804eb722c03881fad224kernel_get_kernel_recordEv
libcudnn_cnn_infer.so.8:_ZN17cask_plugin_cudnn10xmma_cudnn52implicit_gemm_fprop_1c6ef513c038c3106d4ba95e1103993824kernel_get_kernel_recordEv
libcudnn_cnn_infer.so.8:_ZN17cask_plugin_cudnn10xmma_cudnn52implicit_gemm_fprop_1c8704c9e38600be97aa734691f2eac424kernel_get_kernel_recordEv
libcudnn_cnn_infer.so.8:_ZN17cask_plugin_cudnn10xmma_cudnn52implicit_gemm_fprop_1cc5714874e0525ba21a7c9feb055b5524kernel_get_kernel_recordEv
libcudnn_cnn_infer.so.8:_ZN17cask_plugin_cudnn10xmma_cudnn52implicit_gemm_fprop_1cf5a055b23bda8c0e15c0a0969b54be24kernel_get_kernel_recordEv
libcudnn_cnn_infer.so.8:_ZN17cask_plugin_cudnn10xmma_cudnn52implicit_gemm_fprop_1d1e0a1b1c90209e3b4a4623418abde224kernel_get_kernel_recordEv
libcudnn_cnn_infer.so.8:_ZN17cask_plugin_cudnn10xmma_cudnn52implicit_gemm_fprop_1d849c3937a03c84e89147f36a43482424kernel_get_kernel_recordEv
libcudnn_cnn_infer.so.8:_ZN17cask_plugin_cudnn10xmma_cudnn52implicit_gemm_fprop_1d92272ee7eb192033692f0ec2f1ea6224kernel_get_kernel_recordEv
libcudnn_cnn_infer.so.8:_ZN17cask_plugin_cudnn10xmma_cudnn52implicit_gemm_fprop_1da727bc05c8a39731104ba1f67dd0a524kernel_get_kernel_recordEv
libcudnn_cnn_infer.so.8:_ZN17cask_plugin_cudnn10xmma_cudnn52implicit_gemm_fprop_1da99ce51c641b59aafe37afebd2df4c24kernel_get_kernel_recordEv
libcudnn_cnn_infer.so.8:_ZN17cask_plugin_cudnn10xmma_cudnn52implicit_gemm_fprop_1dce12be67e5d0c65a0180b561ec9d6824kernel_get_kernel_recordEv
libcudnn_cnn_infer.so.8:_ZN17cask_plugin_cudnn10xmma_cudnn52implicit_gemm_fprop_1e0e451260b2a13d783b320295943bc824kernel_get_kernel_recordEv
libcudnn_cnn_infer.so.8:_ZN17cask_plugin_cudnn10xmma_cudnn52implicit_gemm_fprop_1e4b0b3ae67bad615c06f4c0ef72cfab24kernel_get_kernel_recordEv
libcudnn_cnn_infer.so.8:_ZN17cask_plugin_cudnn10xmma_cudnn52implicit_gemm_fprop_1e514b6aab09ab671d5a94f16035e69124kernel_get_kernel_recordEv
libcudnn_cnn_infer.so.8:_ZN17cask_plugin_cudnn10xmma_cudnn52implicit_gemm_fprop_1ea6c44ec2a8cfc432dc82f6ab72bd8b24kernel_get_kernel_recordEv
libcudnn_cnn_infer.so.8:_ZN17cask_plugin_cudnn10xmma_cudnn52implicit_gemm_fprop_1ef1505a3ddfad2ffcae11f49e18715524kernel_get_kernel_recordEv
libcudnn_cnn_infer.so.8:_ZN17cask_plugin_cudnn10xmma_cudnn52implicit_gemm_fprop_1f1d0f2c193f8cf930782f0cab7a13ef24kernel_get_kernel_recordEv
libcudnn_cnn_infer.so.8:_ZN17cask_plugin_cudnn10xmma_cudnn52implicit_gemm_fprop_1f51b109ae892685cc723cc8334b30a924kernel_get_kernel_recordEv
libcudnn_cnn_infer.so.8:_ZN17cask_plugin_cudnn10xmma_cudnn52implicit_gemm_fprop_1f59e5e5025cfd71f01adbddae7068e124kernel_get_kernel_recordEv
libcudnn_cnn_infer.so.8:_ZN17cask_plugin_cudnn10xmma_cudnn52implicit_gemm_fprop_1f681a369be9414830b5078ba947bbf024kernel_get_kernel_recordEv
libcudnn_cnn_infer.so.8:_ZN17cask_plugin_cudnn10xmma_cudnn52implicit_gemm_fprop_1fd9e2aca3cc8d36f86962f6d88584b324kernel_get_kernel_recordEv
libcudnn_cnn_infer.so.8:_ZN17cask_plugin_cudnn10xmma_cudnn52implicit_gemm_fprop_1fde603fc39f7895f3f75ad82329a35924kernel_get_kernel_recordEv
libcudnn_cnn_infer.so.8:_ZN17cask_plugin_cudnn10xmma_cudnn52implicit_gemm_fprop_2032e45a9084dd62326f486cd77b27d624kernel_get_kernel_recordEv
libcudnn_cnn_infer.so.8:_ZN17cask_plugin_cudnn10xmma_cudnn52implicit_gemm_fprop_2078eed6096eec6bf5e8308f0e17e82624kernel_get_kernel_recordEv
libcudnn_cnn_infer.so.8:_ZN17cask_plugin_cudnn10xmma_cudnn52implicit_gemm_fprop_20ae68ddedb91b736558a31053bcbf2324kernel_get_kernel_recordEv
libcudnn_cnn_infer.so.8:_ZN17cask_plugin_cudnn10xmma_cudnn52implicit_gemm_fprop_20afd055b96ab9e6db4c2f9721f0c9be24kernel_get_kernel_recordEv
libcudnn_cnn_infer.so.8:_ZN17cask_plugin_cudnn10xmma_cudnn52implicit_gemm_fprop_20b70f41ed09d84a2152f808f01de71324kernel_get_kernel_recordEv
libcudnn_cnn_infer.so.8:_ZN17cask_plugin_cudnn10xmma_cudnn52implicit_gemm_fprop_20bffd7a014c3f1fc09108fa6df26cdb24kernel_get_kernel_recordEv
libcudnn_cnn_infer.so.8:_ZN17cask_plugin_cudnn10xmma_cudnn52implicit_gemm_fprop_20ede3238c1c7630107146a1b490a59024kernel_get_kernel_recordEv
libcudnn_cnn_infer.so.8:_ZN17cask_plugin_cudnn10xmma_cudnn52implicit_gemm_fprop_2145b400952458c81ee9e19d1355aaee24kernel_get_kernel_recordEv
libcudnn_cnn_infer.so.8:_ZN17cask_plugin_cudnn10xmma_cudnn52implicit_gemm_fprop_215844c1fd07748ecaf6f68b7490b49624kernel_get_kernel_recordEv
libcudnn_cnn_infer.so.8:_ZN17cask_plugin_cudnn10xmma_cudnn52implicit_gemm_fprop_2179aa13b88c3dfb6ed4dfab4010830d24kernel_get_kernel_recordEv
libcudnn_cnn_infer.so.8:_ZN17cask_plugin_cudnn10xmma_cudnn52implicit_gemm_fprop_21b6a70a51f271e522298f7ff24ec2e524kernel_get_kernel_recordEv
libcudnn_cnn_infer.so.8:_ZN17cask_plugin_cudnn10xmma_cudnn52implicit_gemm_fprop_21c8ab55fdadc2db958c4ad84241f28924kernel_get_kernel_recordEv
libcudnn_cnn_infer.so.8:_ZN17cask_plugin_cudnn10xmma_cudnn52implicit_gemm_fprop_21d4491ea790c80e657345d8ae5b278f24kernel_get_kernel_recordEv
libcudnn_cnn_infer.so.8:_ZN17cask_plugin_cudnn10xmma_cudnn52implicit_gemm_fprop_21d5a5e20dcfbb211a72c1b32555db2124kernel_get_kernel_recordEv
libcudnn_cnn_infer.so.8:_ZN17cask_plugin_cudnn10xmma_cudnn52implicit_gemm_fprop_21dba2c4c33976efcde911ead16cc83324kernel_get_kernel_recordEv
libcudnn_cnn_infer.so.8:_ZN17cask_plugin_cudnn10xmma_cudnn52implicit_gemm_fprop_221577d8e52259bb25f47052df4c68bf24kernel_get_kernel_recordEv
libcudnn_cnn_infer.so.8:_ZN17cask_plugin_cudnn10xmma_cudnn52implicit_gemm_fprop_221e52b5308d41b824c07c3d6502ca4d24kernel_get_kernel_recordEv
libcudnn_cnn_infer.so.8:_ZN17cask_plugin_cudnn10xmma_cudnn52implicit_gemm_fprop_2221f4c104b234d7f8a70f2758cf1b3c24kernel_get_kernel_recordEv
libcudnn_cnn_infer.so.8:_ZN17cask_plugin_cudnn10xmma_cudnn52implicit_gemm_fprop_2230f1aacbf13a14c9394208133f036024kernel_get_kernel_recordEv
libcudnn_cnn_infer.so.8:_ZN17cask_plugin_cudnn10xmma_cudnn52implicit_gemm_fprop_224cc2b5a822b54ecb6713ae551c16b124kernel_get_kernel_recordEv
libcudnn_cnn_infer.so.8:_ZN17cask_plugin_cudnn10xmma_cudnn52implicit_gemm_fprop_225a8e46fd2c04d2919c2b4e5b9d247f24kernel_get_kernel_recordEv
libcudnn_cnn_infer.so.8:_ZN17cask_plugin_cudnn10xmma_cudnn52implicit_gemm_fprop_225b2bc754e7c30f400fdfca0c6b644224kernel_get_kernel_recordEv
libcudnn_cnn_infer.so.8:_ZN17cask_plugin_cudnn10xmma_cudnn52implicit_gemm_fprop_2276dd0ba04dc8eb7ff92af5220513bd24kernel_get_kernel_recordEv
libcudnn_cnn_infer.so.8:_ZN17cask_plugin_cudnn10xmma_cudnn52implicit_gemm_fprop_22903b09ed3b2529029191593d63cf6024kernel_get_kernel_recordEv
libcudnn_cnn_infer.so.8:_ZN17cask_plugin_cudnn10xmma_cudnn52implicit_gemm_fprop_22bc8a04ca72beed1c575468bd0f84ca24kernel_get_kernel_recordEv
libcudnn_cnn_infer.so.8:_ZN17cask_plugin_cudnn10xmma_cudnn52implicit_gemm_fprop_22e11a3500646f58d47df980a8be96fd24kernel_get_kernel_recordEv
libcudnn_cnn_infer.so.8:_ZN17cask_plugin_cudnn10xmma_cudnn52implicit_gemm_fprop_23042f67e80a65cf61649b11080eba4524kernel_get_kernel_recordEv
libcudnn_cnn_infer.so.8:_ZN17cask_plugin_cudnn10xmma_cudnn52implicit_gemm_fprop_23085833841f1a44e6d7599d4df3428224kernel_get_kernel_recordEv
libcudnn_cnn_infer.so.8:_ZN17cask_plugin_cudnn10xmma_cudnn52implicit_gemm_fprop_234e9161cdb75ed21ca864252403131d24kernel_get_kernel_recordEv
libcudnn_cnn_infer.so.8:_ZN17cask_plugin_cudnn10xmma_cudnn52implicit_gemm_fprop_2391b188a8e6cf8d99a78c756079b27424kernel_get_kernel_recordEv
libcudnn_cnn_infer.so.8:_ZN17cask_plugin_cudnn10xmma_cudnn52implicit_gemm_fprop_23c37a51925f581da561ee7bd63fe9e524kernel_get_kernel_recordEv
libcudnn_cnn_infer.so.8:_ZN17cask_plugin_cudnn10xmma_cudnn52implicit_gemm_fprop_23e13d5d11761299803229fff74e467d24kernel_get_kernel_recordEv
libcudnn_cnn_infer.so.8:_ZN17cask_plugin_cudnn10xmma_cudnn52implicit_gemm_fprop_241f29f54ef25988d63b4e592229610024kernel_get_kernel_recordEv
libcudnn_cnn_infer.so.8:_ZN17cask_plugin_cudnn10xmma_cudnn52implicit_gemm_fprop_24a9cbbb8747d9ab98da9ac9a59d193a24kernel_get_kernel_recordEv
libcudnn_cnn_infer.so.8:_ZN17cask_plugin_cudnn10xmma_cudnn52implicit_gemm_fprop_24b8552273b50f681816ca759144fc9324kernel_get_kernel_recordEv
libcudnn_cnn_infer.so.8:_ZN17cask_plugin_cudnn10xmma_cudnn52implicit_gemm_fprop_24e7dd9abedcd0cba38f84bafa244b6c24kernel_get_kernel_recordEv
libcudnn_cnn_infer.so.8:_ZN17cask_plugin_cudnn10xmma_cudnn52implicit_gemm_fprop_24fc3bcadb86c7f021af25a304954bba24kernel_get_kernel_recordEv
libcudnn_cnn_infer.so.8:_ZN17cask_plugin_cudnn10xmma_cudnn52implicit_gemm_fprop_254ecc46de01960e8e4d9edb5586248d24kernel_get_kernel_recordEv
libcudnn_cnn_infer.so.8:_ZN17cask_plugin_cudnn10xmma_cudnn52implicit_gemm_fprop_25545eeef0b9f1d53d01823b609ee82c24kernel_get_kernel_recordEv
libcudnn_cnn_infer.so.8:_ZN17cask_plugin_cudnn10xmma_cudnn52implicit_gemm_fprop_255e4d3a9f4189786298895f6f40b3cf24kernel_get_kernel_recordEv
libcudnn_cnn_infer.so.8:_ZN17cask_plugin_cudnn10xmma_cudnn52implicit_gemm_fprop_256746faa8efef761a33edb5c3336b0324kernel_get_kernel_recordEv
libcudnn_cnn_infer.so.8:_ZN17cask_plugin_cudnn10xmma_cudnn52implicit_gemm_fprop_2574e9e324e87c1b20903c9a675315fa24kernel_get_kernel_recordEv
libcudnn_cnn_infer.so.8:_ZN17cask_plugin_cudnn10xmma_cudnn52implicit_gemm_fprop_2595d96c69c68484df11d127324027aa24kernel_get_kernel_recordEv
libcudnn_cnn_infer.so.8:_ZN17cask_plugin_cudnn10xmma_cudnn52implicit_gemm_fprop_25b3591a22cb6d611e25b78db73bd72224kernel_get_kernel_recordEv
libcudnn_cnn_infer.so.8:_ZN17cask_plugin_cudnn10xmma_cudnn52implicit_gemm_fprop_25c05dd1c4c42803dac8949a16f3e9a524kernel_get_kernel_recordEv
libcudnn_cnn_infer.so.8:_ZN17cask_plugin_cudnn10xmma_cudnn52implicit_gemm_fprop_260056a7c6d81d0d29d3897239c42d6724kernel_get_kernel_recordEv
libcudnn_cnn_infer.so.8:_ZN17cask_plugin_cudnn10xmma_cudnn52implicit_gemm_fprop_2625cbe788b938d70e76008b1246e7bd24kernel_get_kernel_recordEv
libcudnn_cnn_infer.so.8:_ZN17cask_plugin_cudnn10xmma_cudnn52implicit_gemm_fprop_262d37932dfeb9a48efd1187e7ff168924kernel_get_kernel_recordEv
libcudnn_cnn_infer.so.8:_ZN17cask_plugin_cudnn10xmma_cudnn52implicit_gemm_fprop_26c6b174cae3b5d85caa882ddba7ea8724kernel_get_kernel_recordEv
libcudnn_cnn_infer.so.8:_ZN17cask_plugin_cudnn10xmma_cudnn52implicit_gemm_fprop_26ddc8f72fa2e9e8e54f7ad7e1a0229424kernel_get_kernel_recordEv
libcudnn_cnn_infer.so.8:_ZN17cask_plugin_cudnn10xmma_cudnn52implicit_gemm_fprop_273003f7169671bde384a7906fa4ab2324kernel_get_kernel_recordEv
libcudnn_cnn_infer.so.8:_ZN17cask_plugin_cudnn10xmma_cudnn52implicit_gemm_fprop_27616941f159ff5be0f82b538d55999424kernel_get_kernel_recordEv
libcudnn_cnn_infer.so.8:_ZN17cask_plugin_cudnn10xmma_cudnn52implicit_gemm_fprop_27781fb62d206d72911a4d2b4e122bbc24kernel_get_kernel_recordEv
libcudnn_cnn_infer.so.8:_ZN17cask_plugin_cudnn10xmma_cudnn52implicit_gemm_fprop_27f4c0e1978c46a6a13d98a5f019440024kernel_get_kernel_recordEv
libcudnn_cnn_infer.so.8:_ZN17cask_plugin_cudnn10xmma_cudnn52implicit_gemm_fprop_27f678fa7258697222a126edf959a9ae24kernel_get_kernel_recordEv
libcudnn_cnn_infer.so.8:_ZN17cask_plugin_cudnn10xmma_cudnn52implicit_gemm_fprop_285613361990c5b28450fe8c421c0bca24kernel_get_kernel_recordEv
libcudnn_cnn_infer.so.8:_ZN17cask_plugin_cudnn10xmma_cudnn52implicit_gemm_fprop_286286f01e53bd6b7f3102f0e130e80824kernel_get_kernel_recordEv
libcudnn_cnn_infer.so.8:_ZN17cask_plugin_cudnn10xmma_cudnn52implicit_gemm_fprop_2865a792fc8e69556baef94eb9f0372724kernel_get_kernel_recordEv
libcudnn_cnn_infer.so.8:_ZN17cask_plugin_cudnn10xmma_cudnn52implicit_gemm_fprop_286b00ce1913ea90e1b6eab31d179b3f24kernel_get_kernel_recordEv
libcudnn_cnn_infer.so.8:_ZN17cask_plugin_cudnn10xmma_cudnn52implicit_gemm_fprop_287cab71dec23be05a279116b21aa86924kernel_get_kernel_recordEv
libcudnn_cnn_infer.so.8:_ZN17cask_plugin_cudnn10xmma_cudnn52implicit_gemm_fprop_28d45049f777941cf2a7b0e1116dab0724kernel_get_kernel_recordEv
libcudnn_cnn_infer.so.8:_ZN17cask_plugin_cudnn10xmma_cudnn52implicit_gemm_fprop_28f85f2e4efa384d6717161ff3b94ccf24kernel_get_kernel_recordEv
libcudnn_cnn_infer.so.8:_ZN17cask_plugin_cudnn10xmma_cudnn52implicit_gemm_fprop_2946df14ae20026f1149a5d5b9111e5024kernel_get_kernel_recordEv
libcudnn_cnn_infer.so.8:_ZN17cask_plugin_cudnn10xmma_cudnn52implicit_gemm_fprop_2949aaa65762f1fa500ce2a4b7f34b9924kernel_get_kernel_recordEv
libcudnn_cnn_infer.so.8:_ZN17cask_plugin_cudnn10xmma_cudnn52implicit_gemm_fprop_29531c64df185150bb132126f1f9e67124kernel_get_kernel_recordEv
libcudnn_cnn_infer.so.8:_ZN17cask_plugin_cudnn10xmma_cudnn52implicit_gemm_fprop_29756ea37b063458978c5d03efb6ce1824kernel_get_kernel_recordEv
libcudnn_cnn_infer.so.8:_ZN17cask_plugin_cudnn10xmma_cudnn52implicit_gemm_fprop_297bcaa30d861e27afb410d2fee6c5af24kernel_get_kernel_recordEv
libcudnn_cnn_infer.so.8:_ZN17cask_plugin_cudnn10xmma_cudnn52implicit_gemm_fprop_29c0895912d1c6b8cf62d8b8f6dbc0db24kernel_get_kernel_recordEv
libcudnn_cnn_infer.so.8:_ZN17cask_plugin_cudnn10xmma_cudnn52implicit_gemm_fprop_2a0f302875647ff4416e9ba12c31f06424kernel_get_kernel_recordEv
libcudnn_cnn_infer.so.8:_ZN17cask_plugin_cudnn10xmma_cudnn52implicit_gemm_fprop_2a7665e370de4e29302003e0313d460424kernel_get_kernel_recordEv
libcudnn_cnn_infer.so.8:_ZN17cask_plugin_cudnn10xmma_cudnn52implicit_gemm_fprop_2b04dd9ba4b62e093e5690d463e20bc024kernel_get_kernel_recordEv
libcudnn_cnn_infer.so.8:_ZN17cask_plugin_cudnn10xmma_cudnn52implicit_gemm_fprop_2b1ea1f84d6da3ec69fe3da52ffba79f24kernel_get_kernel_recordEv
libcudnn_cnn_infer.so.8:_ZN17cask_plugin_cudnn10xmma_cudnn52implicit_gemm_fprop_2b249c8e474253e5c4bd101ae6afcfe124kernel_get_kernel_recordEv
libcudnn_cnn_infer.so.8:_ZN17cask_plugin_cudnn10xmma_cudnn52implicit_gemm_fprop_2b5a097c3af9e2c5d596840cf2aa067d24kernel_get_kernel_recordEv
libcudnn_cnn_infer.so.8:_ZN17cask_plugin_cudnn10xmma_cudnn52implicit_gemm_fprop_2b9d45fc885d6efa7aa28bece884c71324kernel_get_kernel_recordEv
libcudnn_cnn_infer.so.8:_ZN17cask_plugin_cudnn10xmma_cudnn52implicit_gemm_fprop_2ba37bd95dd1f8c81ac19138a387fb6424kernel_get_kernel_recordEv
libcudnn_cnn_infer.so.8:_ZN17cask_plugin_cudnn10xmma_cudnn52implicit_gemm_fprop_2bc74d576eaeac8311476711e27b4aed24kernel_get_kernel_recordEv
libcudnn_cnn_infer.so.8:_ZN17cask_plugin_cudnn10xmma_cudnn52implicit_gemm_fprop_2bdf38562c1eb9be6abcc264cfc5688624kernel_get_kernel_recordEv
libcudnn_cnn_infer.so.8:_ZN17cask_plugin_cudnn10xmma_cudnn52implicit_gemm_fprop_2c0fa1270473322d36f5ef845b80dc1324kernel_get_kernel_recordEv
libcudnn_cnn_infer.so.8:_ZN17cask_plugin_cudnn10xmma_cudnn52implicit_gemm_fprop_2c255ca4fdfa9ee7722034ec4cddf48e24kernel_get_kernel_recordEv
libcudnn_cnn_infer.so.8:_ZN17cask_plugin_cudnn10xmma_cudnn52implicit_gemm_fprop_2c25f76495bb1202f0f61543d5ba82ee24kernel_get_kernel_recordEv
libcudnn_cnn_infer.so.8:_ZN17cask_plugin_cudnn10xmma_cudnn52implicit_gemm_fprop_2c3707a649098b372a9ce5ac8991688024kernel_get_kernel_recordEv
libcudnn_cnn_infer.so.8:_ZN17cask_plugin_cudnn10xmma_cudnn52implicit_gemm_fprop_2c499a7a43b9671c90bb67c46ab2376224kernel_get_kernel_recordEv
libcudnn_cnn_infer.so.8:_ZN17cask_plugin_cudnn10xmma_cudnn52implicit_gemm_fprop_2c88ef263ef6785b17c57fa15b9e161f24kernel_get_kernel_recordEv
libcudnn_cnn_infer.so.8:_ZN17cask_plugin_cudnn10xmma_cudnn52implicit_gemm_fprop_2ca717b287633b55cee7852962f82f2924kernel_get_kernel_recordEv
libcudnn_cnn_infer.so.8:_ZN17cask_plugin_cudnn10xmma_cudnn52implicit_gemm_fprop_2d27d8825286eb6d66e9445611ef635324kernel_get_kernel_recordEv
libcudnn_cnn_infer.so.8:_ZN17cask_plugin_cudnn10xmma_cudnn52implicit_gemm_fprop_2d5e5c843ff25081c4331eef34473e7824kernel_get_kernel_recordEv
libcudnn_cnn_infer.so.8:_ZN17cask_plugin_cudnn10xmma_cudnn52implicit_gemm_fprop_2d639cb65e8e112dde0099e38df214a524kernel_get_kernel_recordEv
libcudnn_cnn_infer.so.8:_ZN17cask_plugin_cudnn10xmma_cudnn52implicit_gemm_fprop_2d661e0be0c5483cb3545b279ab5375324kernel_get_kernel_recordEv
libcudnn_cnn_infer.so.8:_ZN17cask_plugin_cudnn10xmma_cudnn52implicit_gemm_fprop_2d756a54f5ae5eb2059ab6621c635e3324kernel_get_kernel_recordEv
libcudnn_cnn_infer.so.8:_ZN17cask_plugin_cudnn10xmma_cudnn52implicit_gemm_fprop_2d92c09ad827b1201956576d8246096124kernel_get_kernel_recordEv
libcudnn_cnn_infer.so.8:_ZN17cask_plugin_cudnn10xmma_cudnn52implicit_gemm_fprop_2d9add5c06ade50efb52f637902326a024kernel_get_kernel_recordEv
libcudnn_cnn_infer.so.8:_ZN17cask_plugin_cudnn10xmma_cudnn52implicit_gemm_fprop_2dc46fa3b32846d681a5e10d4f1311e824kernel_get_kernel_recordEv
libcudnn_cnn_infer.so.8:_ZN17cask_plugin_cudnn10xmma_cudnn52implicit_gemm_fprop_2e44b1aa1126d38bee98cecb0d39179124kernel_get_kernel_recordEv
libcudnn_cnn_infer.so.8:_ZN17cask_plugin_cudnn10xmma_cudnn52implicit_gemm_fprop_2e9eda1c4adb2d4812fa1559e40051a824kernel_get_kernel_recordEv
libcudnn_cnn_infer.so.8:_ZN17cask_plugin_cudnn10xmma_cudnn52implicit_gemm_fprop_2eaba4fd4a4b75bf1d58d6d609211b7124kernel_get_kernel_recordEv
libcudnn_cnn_infer.so.8:_ZN17cask_plugin_cudnn10xmma_cudnn52implicit_gemm_fprop_2ec717ddaee6dd80e1931c9381f0ffe224kernel_get_kernel_recordEv
libcudnn_cnn_infer.so.8:_ZN17cask_plugin_cudnn10xmma_cudnn52implicit_gemm_fprop_2f08dddbab1938154c6537a96fc38b6a24kernel_get_kernel_recordEv
libcudnn_cnn_infer.so.8:_ZN17cask_plugin_cudnn10xmma_cudnn52implicit_gemm_fprop_2f5eafe2dd2ce1bd0cfc24ca0e3e293724kernel_get_kernel_recordEv
libcudnn_cnn_infer.so.8:_ZN17cask_plugin_cudnn10xmma_cudnn52implicit_gemm_fprop_2faabb0578b092dab61b1b5d4e80dafa24kernel_get_kernel_recordEv
libcudnn_cnn_infer.so.8:_ZN17cask_plugin_cudnn10xmma_cudnn52implicit_gemm_fprop_2fc4af16a107e0e0ca34d4f9eff09a2624kernel_get_kernel_recordEv
libcudnn_cnn_infer.so.8:_ZN17cask_plugin_cudnn10xmma_cudnn52implicit_gemm_fprop_2fc93d3ef845c261b468a5e4fbce352c24kernel_get_kernel_recordEv
libcudnn_cnn_infer.so.8:_ZN17cask_plugin_cudnn10xmma_cudnn52implicit_gemm_fprop_2fdda0d586f3987ce4ec4db07a00894524kernel_get_kernel_recordEv
libcudnn_cnn_infer.so.8:_ZN17cask_plugin_cudnn10xmma_cudnn52implicit_gemm_fprop_2ff9502d394b003350dd5142908f012624kernel_get_kernel_recordEv
libcudnn_cnn_infer.so.8:_ZN17cask_plugin_cudnn10xmma_cudnn52implicit_gemm_fprop_3008ddee50257267a8ee5c6371aa2f2924kernel_get_kernel_recordEv
libcudnn_cnn_infer.so.8:_ZN17cask_plugin_cudnn10xmma_cudnn52implicit_gemm_fprop_300dc375fc248248f0b17bf9806478b924kernel_get_kernel_recordEv
libcudnn_cnn_infer.so.8:_ZN17cask_plugin_cudnn10xmma_cudnn52implicit_gemm_fprop_301b095b79e73161bcf800c5b06b10aa24kernel_get_kernel_recordEv
libcudnn_cnn_infer.so.8:_ZN17cask_plugin_cudnn10xmma_cudnn52implicit_gemm_fprop_30249bbbef4e99cd9c69b17df4382fa024kernel_get_kernel_recordEv
libcudnn_cnn_infer.so.8:_ZN17cask_plugin_cudnn10xmma_cudnn52implicit_gemm_fprop_30326837c1951937d38dcaa2f1d3bbac24kernel_get_kernel_recordEv
libcudnn_cnn_infer.so.8:_ZN17cask_plugin_cudnn10xmma_cudnn52implicit_gemm_fprop_3038438ef0fe77eeb8e71175ca73760824kernel_get_kernel_recordEv
libcudnn_cnn_infer.so.8:_ZN17cask_plugin_cudnn10xmma_cudnn52implicit_gemm_fprop_30b4de5b8fecc83c643446f4fdbda1e124kernel_get_kernel_recordEv
libcudnn_cnn_infer.so.8:_ZN17cask_plugin_cudnn10xmma_cudnn52implicit_gemm_fprop_30fe0e9b9333dc75900e502cc0e0b92524kernel_get_kernel_recordEv
libcudnn_cnn_infer.so.8:_ZN17cask_plugin_cudnn10xmma_cudnn52implicit_gemm_fprop_310e955979165c79c3ec71f495ff660e24kernel_get_kernel_recordEv
libcudnn_cnn_infer.so.8:_ZN17cask_plugin_cudnn10xmma_cudnn52implicit_gemm_fprop_31247a392c348ee494b089ec7eed8fb724kernel_get_kernel_recordEv
libcudnn_cnn_infer.so.8:_ZN17cask_plugin_cudnn10xmma_cudnn52implicit_gemm_fprop_3159f64ea1dff2ad5af1bc3bdbc31dcd24kernel_get_kernel_recordEv
libcudnn_cnn_infer.so.8:_ZN17cask_plugin_cudnn10xmma_cudnn52implicit_gemm_fprop_319001ed9901546df5f23e2117811ba324kernel_get_kernel_recordEv
libcudnn_cnn_infer.so.8:_ZN17cask_plugin_cudnn10xmma_cudnn52implicit_gemm_fprop_31a14e7ef42f26963164e59af1164eac24kernel_get_kernel_recordEv
libcudnn_cnn_infer.so.8:_ZN17cask_plugin_cudnn10xmma_cudnn52implicit_gemm_fprop_31f84444f93832f46ff4245bd114d77d24kernel_get_kernel_recordEv
libcudnn_cnn_infer.so.8:_ZN17cask_plugin_cudnn10xmma_cudnn52implicit_gemm_fprop_32075b6245e140e3cae7f3be83c8a70224kernel_get_kernel_recordEv
libcudnn_cnn_infer.so.8:_ZN17cask_plugin_cudnn10xmma_cudnn52implicit_gemm_fprop_325bc22654fc387e5514baf5c1f54d4824kernel_get_kernel_recordEv
libcudnn_cnn_infer.so.8:_ZN17cask_plugin_cudnn10xmma_cudnn52implicit_gemm_fprop_327212efd0781744879bc15a5d534bd524kernel_get_kernel_recordEv
libcudnn_cnn_infer.so.8:_ZN17cask_plugin_cudnn10xmma_cudnn52implicit_gemm_fprop_3279946c906c9a6ebfa290a41ceb677824kernel_get_kernel_recordEv
libcudnn_cnn_infer.so.8:_ZN17cask_plugin_cudnn10xmma_cudnn52implicit_gemm_fprop_32b840050f999192667986fbe321036224kernel_get_kernel_recordEv
libcudnn_cnn_infer.so.8:_ZN17cask_plugin_cudnn10xmma_cudnn52implicit_gemm_fprop_32bbb54985fc4ec016dc79230f3e1ca724kernel_get_kernel_recordEv
libcudnn_cnn_infer.so.8:_ZN17cask_plugin_cudnn10xmma_cudnn52implicit_gemm_fprop_32c08144be55ea045a907150a9d61b0a24kernel_get_kernel_recordEv
libcudnn_cnn_infer.so.8:_ZN17cask_plugin_cudnn10xmma_cudnn52implicit_gemm_fprop_330de03795dc97df2665bd1cdbb9bf6c24kernel_get_kernel_recordEv
libcudnn_cnn_infer.so.8:_ZN17cask_plugin_cudnn10xmma_cudnn52implicit_gemm_fprop_3313732cd2dbf9c095d76df996629cbf24kernel_get_kernel_recordEv
libcudnn_cnn_infer.so.8:_ZN17cask_plugin_cudnn10xmma_cudnn52implicit_gemm_fprop_335c11bc581884e15298be0c39dac3f624kernel_get_kernel_recordEv
libcudnn_cnn_infer.so.8:_ZN17cask_plugin_cudnn10xmma_cudnn52implicit_gemm_fprop_33d5661d09e1e30b5310bdae8ad0fca624kernel_get_kernel_recordEv
libcudnn_cnn_infer.so.8:_ZN17cask_plugin_cudnn10xmma_cudnn52implicit_gemm_fprop_33d8fbad658de85431d683a2d000e53024kernel_get_kernel_recordEv
libcudnn_cnn_infer.so.8:_ZN17cask_plugin_cudnn10xmma_cudnn52implicit_gemm_fprop_33f25819a5d1b2001bc5f4e10f3fab1e24kernel_get_kernel_recordEv
libcudnn_cnn_infer.so.8:_ZN17cask_plugin_cudnn10xmma_cudnn52implicit_gemm_fprop_33fdbdd55a7f6d03d530325cfa94bb4724kernel_get_kernel_recordEv
libcudnn_cnn_infer.so.8:_ZN17cask_plugin_cudnn10xmma_cudnn52implicit_gemm_fprop_341d1426a93d8190e27526da3e60b35f24kernel_get_kernel_recordEv
libcudnn_cnn_infer.so.8:_ZN17cask_plugin_cudnn10xmma_cudnn52implicit_gemm_fprop_3426968cbe601a18cb06c15bf751c18824kernel_get_kernel_recordEv
libcudnn_cnn_infer.so.8:_ZN17cask_plugin_cudnn10xmma_cudnn52implicit_gemm_fprop_34293bd0e2192d8fc614d638f0652df424kernel_get_kernel_recordEv
libcudnn_cnn_infer.so.8:_ZN17cask_plugin_cudnn10xmma_cudnn52implicit_gemm_fprop_34295d26d2fd12ef2f28797019fea0ab24kernel_get_kernel_recordEv
libcudnn_cnn_infer.so.8:_ZN17cask_plugin_cudnn10xmma_cudnn52implicit_gemm_fprop_342ea6465b26cd2481f6d2dcf4bc200824kernel_get_kernel_recordEv
libcudnn_cnn_infer.so.8:_ZN17cask_plugin_cudnn10xmma_cudnn52implicit_gemm_fprop_3470b7028f31107efe5f59d0f768376124kernel_get_kernel_recordEv
libcudnn_cnn_infer.so.8:_ZN17cask_plugin_cudnn10xmma_cudnn52implicit_gemm_fprop_348e91b365611087a8a7b201b544cfa424kernel_get_kernel_recordEv
libcudnn_cnn_infer.so.8:_ZN17cask_plugin_cudnn10xmma_cudnn52implicit_gemm_fprop_34d6625e721ed4b0ab10861f8b38d74e24kernel_get_kernel_recordEv
libcudnn_cnn_infer.so.8:_ZN17cask_plugin_cudnn10xmma_cudnn52implicit_gemm_fprop_34de59f3090a6306bc8d8509bc96536724kernel_get_kernel_recordEv
libcudnn_cnn_infer.so.8:_ZN17cask_plugin_cudnn10xmma_cudnn52implicit_gemm_fprop_34f0eb6924c5974909886d95ef8f036324kernel_get_kernel_recordEv
libcudnn_cnn_infer.so.8:_ZN17cask_plugin_cudnn10xmma_cudnn52implicit_gemm_fprop_351a97dee2cd86369a68d72432f68cf324kernel_get_kernel_recordEv
libcudnn_cnn_infer.so.8:_ZN17cask_plugin_cudnn10xmma_cudnn52implicit_gemm_fprop_359d738a15c876cde6c9019ff625d76424kernel_get_kernel_recordEv
libcudnn_cnn_infer.so.8:_ZN17cask_plugin_cudnn10xmma_cudnn52implicit_gemm_fprop_35f5faafc27f539714574a465c76442024kernel_get_kernel_recordEv
libcudnn_cnn_infer.so.8:_ZN17cask_plugin_cudnn10xmma_cudnn52implicit_gemm_fprop_35fe75253ff47898819dbe7ff047fdc524kernel_get_kernel_recordEv
libcudnn_cnn_infer.so.8:_ZN17cask_plugin_cudnn10xmma_cudnn52implicit_gemm_fprop_35ffe16241eb0e321cebe1a49561209f24kernel_get_kernel_recordEv
libcudnn_cnn_infer.so.8:_ZN17cask_plugin_cudnn10xmma_cudnn52implicit_gemm_fprop_3616c575e4af02d7e7774750ea425e6424kernel_get_kernel_recordEv
libcudnn_cnn_infer.so.8:_ZN17cask_plugin_cudnn10xmma_cudnn52implicit_gemm_fprop_362069204d221da167feb28581da4eb924kernel_get_kernel_recordEv
libcudnn_cnn_infer.so.8:_ZN17cask_plugin_cudnn10xmma_cudnn52implicit_gemm_fprop_362fdd97ea2d4aef98dd2b6144c2be7724kernel_get_kernel_recordEv
libcudnn_cnn_infer.so.8:_ZN17cask_plugin_cudnn10xmma_cudnn52implicit_gemm_fprop_364ad46ef8dc78ff004f12f64c159cec24kernel_get_kernel_recordEv
libcudnn_cnn_infer.so.8:_ZN17cask_plugin_cudnn10xmma_cudnn52implicit_gemm_fprop_3652b016aa9b6cdbab58f3b8711b0c1024kernel_get_kernel_recordEv
libcudnn_cnn_infer.so.8:_ZN17cask_plugin_cudnn10xmma_cudnn52implicit_gemm_fprop_36928d02882c3b88473ffcb3ac7cf8f024kernel_get_kernel_recordEv
libcudnn_cnn_infer.so.8:_ZN17cask_plugin_cudnn10xmma_cudnn52implicit_gemm_fprop_36acf2b95f6a185b71f4a6e57b9aa16224kernel_get_kernel_recordEv
libcudnn_cnn_infer.so.8:_ZN17cask_plugin_cudnn10xmma_cudnn52implicit_gemm_fprop_36b2612def38c3dbe558e1b966fecc7924kernel_get_kernel_recordEv
libcudnn_cnn_infer.so.8:_ZN17cask_plugin_cudnn10xmma_cudnn52implicit_gemm_fprop_36ced74f72bf03a19c10f054afbeb6c424kernel_get_kernel_recordEv
libcudnn_cnn_infer.so.8:_ZN17cask_plugin_cudnn10xmma_cudnn52implicit_gemm_fprop_36d136745da82d47c328d0eca814359224kernel_get_kernel_recordEv
libcudnn_cnn_infer.so.8:_ZN17cask_plugin_cudnn10xmma_cudnn52implicit_gemm_fprop_36d49576acb3835a8e26946ac173e16524kernel_get_kernel_recordEv
libcudnn_cnn_infer.so.8:_ZN17cask_plugin_cudnn10xmma_cudnn52implicit_gemm_fprop_36e4e69904b57d35019f435b50dba61624kernel_get_kernel_recordEv
libcudnn_cnn_infer.so.8:_ZN17cask_plugin_cudnn10xmma_cudnn52implicit_gemm_fprop_3714fc2bb676b2e991bd19a8e4efce1d24kernel_get_kernel_recordEv
libcudnn_cnn_infer.so.8:_ZN17cask_plugin_cudnn10xmma_cudnn52implicit_gemm_fprop_373df4e41ee8303592bec17762e4f3c624kernel_get_kernel_recordEv
libcudnn_cnn_infer.so.8:_ZN17cask_plugin_cudnn10xmma_cudnn52implicit_gemm_fprop_37588c57d6f29bacac27b7ab67705cbd24kernel_get_kernel_recordEv
libcudnn_cnn_infer.so.8:_ZN17cask_plugin_cudnn10xmma_cudnn52implicit_gemm_fprop_375f6f16cb42b9e26721cc08e4cd01a924kernel_get_kernel_recordEv
libcudnn_cnn_infer.so.8:_ZN17cask_plugin_cudnn10xmma_cudnn52implicit_gemm_fprop_3778b2fda0b3df6a96c7aad3d556a12824kernel_get_kernel_recordEv
libcudnn_cnn_infer.so.8:_ZN17cask_plugin_cudnn10xmma_cudnn52implicit_gemm_fprop_377b7aae8535daf08412ba37f9345cec24kernel_get_kernel_recordEv
libcudnn_cnn_infer.so.8:_ZN17cask_plugin_cudnn10xmma_cudnn52implicit_gemm_fprop_37ae38c6fe9d9af9b9dc41f7bdaccbb424kernel_get_kernel_recordEv
libcudnn_cnn_infer.so.8:_ZN17cask_plugin_cudnn10xmma_cudnn52implicit_gemm_fprop_37b04e4ddfafb13850458a53c30e960724kernel_get_kernel_recordEv
libcudnn_cnn_infer.so.8:_ZN17cask_plugin_cudnn10xmma_cudnn52implicit_gemm_fprop_37d2594f5023605ea39456e14bd43b7124kernel_get_kernel_recordEv
libcudnn_cnn_infer.so.8:_ZN17cask_plugin_cudnn10xmma_cudnn52implicit_gemm_fprop_37dfa562bb24a4bf5df4de5615a9aadc24kernel_get_kernel_recordEv
libcudnn_cnn_infer.so.8:_ZN17cask_plugin_cudnn10xmma_cudnn52implicit_gemm_fprop_37ea3b36e4980747ff674e132692e42224kernel_get_kernel_recordEv
libcudnn_cnn_infer.so.8:_ZN17cask_plugin_cudnn10xmma_cudnn52implicit_gemm_fprop_383067f0f72af8b7bae7cdc961d1383124kernel_get_kernel_recordEv
libcudnn_cnn_infer.so.8:_ZN17cask_plugin_cudnn10xmma_cudnn52implicit_gemm_fprop_3831b8e62b7a34c37b760f2bf27ec18924kernel_get_kernel_recordEv
libcudnn_cnn_infer.so.8:_ZN17cask_plugin_cudnn10xmma_cudnn52implicit_gemm_fprop_3847b321299ed35554e10f7ed074d46e24kernel_get_kernel_recordEv
libcudnn_cnn_infer.so.8:_ZN17cask_plugin_cudnn10xmma_cudnn52implicit_gemm_fprop_3866287beea5010f9b680b6f78d4175924kernel_get_kernel_recordEv
libcudnn_cnn_infer.so.8:_ZN17cask_plugin_cudnn10xmma_cudnn52implicit_gemm_fprop_386e3996674fcf286eff2957cc03eceb24kernel_get_kernel_recordEv
libcudnn_cnn_infer.so.8:_ZN17cask_plugin_cudnn10xmma_cudnn52implicit_gemm_fprop_38dbbf10ed314c4bdaa43bc9a58b704924kernel_get_kernel_recordEv
libcudnn_cnn_infer.so.8:_ZN17cask_plugin_cudnn10xmma_cudnn52implicit_gemm_fprop_39685400fbd83d44b1dd950d67d3d05024kernel_get_kernel_recordEv
libcudnn_cnn_infer.so.8:_ZN17cask_plugin_cudnn10xmma_cudnn52implicit_gemm_fprop_39a06789672d48fd6cc70a753f1f2c9b24kernel_get_kernel_recordEv
libcudnn_cnn_infer.so.8:_ZN17cask_plugin_cudnn10xmma_cudnn52implicit_gemm_fprop_39ab3cfa0eeeee081816b379476a763d24kernel_get_kernel_recordEv
libcudnn_cnn_infer.so.8:_ZN17cask_plugin_cudnn10xmma_cudnn52implicit_gemm_fprop_39b21b22c110e55ed8ca4b4fc068c19c24kernel_get_kernel_recordEv
libcudnn_cnn_infer.so.8:_ZN17cask_plugin_cudnn10xmma_cudnn52implicit_gemm_fprop_39b95e8f09b38b161b1563b8cf19253324kernel_get_kernel_recordEv
libcudnn_cnn_infer.so.8:_ZN17cask_plugin_cudnn10xmma_cudnn52implicit_gemm_fprop_39c33020f41eb3fe42591fee893500c524kernel_get_kernel_recordEv
libcudnn_cnn_infer.so.8:_ZN17cask_plugin_cudnn10xmma_cudnn52implicit_gemm_fprop_39ee368aef35998174c6ee68b1be627624kernel_get_kernel_recordEv
libcudnn_cnn_infer.so.8:_ZN17cask_plugin_cudnn10xmma_cudnn52implicit_gemm_fprop_3a4d39b00f86116f8231f5edd2fed4bb24kernel_get_kernel_recordEv
libcudnn_cnn_infer.so.8:_ZN17cask_plugin_cudnn10xmma_cudnn52implicit_gemm_fprop_3a5911c2ab2cac197baea07a10cb8b3924kernel_get_kernel_recordEv
libcudnn_cnn_infer.so.8:_ZN17cask_plugin_cudnn10xmma_cudnn52implicit_gemm_fprop_3a70fb38c56446a99114492d523e668124kernel_get_kernel_recordEv
libcudnn_cnn_infer.so.8:_ZN17cask_plugin_cudnn10xmma_cudnn52implicit_gemm_fprop_3a87c391fea72c92a310b4143904d13024kernel_get_kernel_recordEv
libcudnn_cnn_infer.so.8:_ZN17cask_plugin_cudnn10xmma_cudnn52implicit_gemm_fprop_3ada2fe2464349b73e3e673e26cdf85724kernel_get_kernel_recordEv
libcudnn_cnn_infer.so.8:_ZN17cask_plugin_cudnn10xmma_cudnn52implicit_gemm_fprop_3adaaa34369e3420744115ca7b2ac65c24kernel_get_kernel_recordEv
libcudnn_cnn_infer.so.8:_ZN17cask_plugin_cudnn10xmma_cudnn52implicit_gemm_fprop_3ae1b299ce1bb229719c213eb0a5f29724kernel_get_kernel_recordEv
libcudnn_cnn_infer.so.8:_ZN17cask_plugin_cudnn10xmma_cudnn52implicit_gemm_fprop_3b1902b5472f77fc801b9885832dda0024kernel_get_kernel_recordEv
libcudnn_cnn_infer.so.8:_ZN17cask_plugin_cudnn10xmma_cudnn52implicit_gemm_fprop_3b1d8b3efcf594b8d3f44780b4f4e2dd24kernel_get_kernel_recordEv
libcudnn_cnn_infer.so.8:_ZN17cask_plugin_cudnn10xmma_cudnn52implicit_gemm_fprop_3b25081fe09df68a099045d5afaa686624kernel_get_kernel_recordEv
libcudnn_cnn_infer.so.8:_ZN17cask_plugin_cudnn10xmma_cudnn52implicit_gemm_fprop_3b3a9ca9dbcb245f9a6dd84b62eaab4824kernel_get_kernel_recordEv
libcudnn_cnn_infer.so.8:_ZN17cask_plugin_cudnn10xmma_cudnn52implicit_gemm_fprop_3b6ae37b4ff990e4ff755cbf6c63219224kernel_get_kernel_recordEv
libcudnn_cnn_infer.so.8:_ZN17cask_plugin_cudnn10xmma_cudnn52implicit_gemm_fprop_3bab854efa917a6ac5c4ed889acfb50724kernel_get_kernel_recordEv
libcudnn_cnn_infer.so.8:_ZN17cask_plugin_cudnn10xmma_cudnn52implicit_gemm_fprop_3bdc22464da225879b1d28f88832c00a24kernel_get_kernel_recordEv
libcudnn_cnn_infer.so.8:_ZN17cask_plugin_cudnn10xmma_cudnn52implicit_gemm_fprop_3c40b3acddec21be4b8c5bac6dcb77fe24kernel_get_kernel_recordEv
libcudnn_cnn_infer.so.8:_ZN17cask_plugin_cudnn10xmma_cudnn52implicit_gemm_fprop_3c41af37f20d72f2a4ea2278dc96012324kernel_get_kernel_recordEv
libcudnn_cnn_infer.so.8:_ZN17cask_plugin_cudnn10xmma_cudnn52implicit_gemm_fprop_3c6ec2695d424f82d2887292da18ec7c24kernel_get_kernel_recordEv
libcudnn_cnn_infer.so.8:_ZN17cask_plugin_cudnn10xmma_cudnn52implicit_gemm_fprop_3c81fce52b6fb426f0200e6d7d6da0ed24kernel_get_kernel_recordEv
libcudnn_cnn_infer.so.8:_ZN17cask_plugin_cudnn10xmma_cudnn52implicit_gemm_fprop_3c9247c1c909135798c261777755053624kernel_get_kernel_recordEv
libcudnn_cnn_infer.so.8:_ZN17cask_plugin_cudnn10xmma_cudnn52implicit_gemm_fprop_3cdf7f37c5a4b483019d83da5efb663624kernel_get_kernel_recordEv
libcudnn_cnn_infer.so.8:_ZN17cask_plugin_cudnn10xmma_cudnn52implicit_gemm_fprop_3d29544c69dff9d6cb10e239903b62ee24kernel_get_kernel_recordEv
libcudnn_cnn_infer.so.8:_ZN17cask_plugin_cudnn10xmma_cudnn52implicit_gemm_fprop_3d576526406c25c1c697632fafde746224kernel_get_kernel_recordEv
libcudnn_cnn_infer.so.8:_ZN17cask_plugin_cudnn10xmma_cudnn52implicit_gemm_fprop_3d7a3a7b65de8c901d27627d56d30bff24kernel_get_kernel_recordEv
libcudnn_cnn_infer.so.8:_ZN17cask_plugin_cudnn10xmma_cudnn52implicit_gemm_fprop_3d89f416880a4c522e1163af066eedbf24kernel_get_kernel_recordEv
libcudnn_cnn_infer.so.8:_ZN17cask_plugin_cudnn10xmma_cudnn52implicit_gemm_fprop_3d91a1bf9746b2dd08953ce1a47bd5f824kernel_get_kernel_recordEv
libcudnn_cnn_infer.so.8:_ZN17cask_plugin_cudnn10xmma_cudnn52implicit_gemm_fprop_3dc6c25abcfe838b89e4e682de5188de24kernel_get_kernel_recordEv
libcudnn_cnn_infer.so.8:_ZN17cask_plugin_cudnn10xmma_cudnn52implicit_gemm_fprop_3e156c8acd96eabcbd52b1a3bc60373f24kernel_get_kernel_recordEv
libcudnn_cnn_infer.so.8:_ZN17cask_plugin_cudnn10xmma_cudnn52implicit_gemm_fprop_3e1a813f9a2ef84acd6520a297d6232a24kernel_get_kernel_recordEv
libcudnn_cnn_infer.so.8:_ZN17cask_plugin_cudnn10xmma_cudnn52implicit_gemm_fprop_3e354c9d74cabf87cfa04e80657d596324kernel_get_kernel_recordEv
libcudnn_cnn_infer.so.8:_ZN17cask_plugin_cudnn10xmma_cudnn52implicit_gemm_fprop_3e77c404382655c1efaa7132fdc3eb0724kernel_get_kernel_recordEv
libcudnn_cnn_infer.so.8:_ZN17cask_plugin_cudnn10xmma_cudnn52implicit_gemm_fprop_3e8beefa7d303eb494f866c2645906d424kernel_get_kernel_recordEv
libcudnn_cnn_infer.so.8:_ZN17cask_plugin_cudnn10xmma_cudnn52implicit_gemm_fprop_3e90f617778c9b2e910331b552ee7db824kernel_get_kernel_recordEv
libcudnn_cnn_infer.so.8:_ZN17cask_plugin_cudnn10xmma_cudnn52implicit_gemm_fprop_3e956059a8951a5e0b75e324498f29dd24kernel_get_kernel_recordEv
libcudnn_cnn_infer.so.8:_ZN17cask_plugin_cudnn10xmma_cudnn52implicit_gemm_fprop_3e9cb0f99ddad9c5a4cc3662203f908024kernel_get_kernel_recordEv
libcudnn_cnn_infer.so.8:_ZN17cask_plugin_cudnn10xmma_cudnn52implicit_gemm_fprop_3e9f6ad7e63c167d8404e9a8723c348b24kernel_get_kernel_recordEv
libcudnn_cnn_infer.so.8:_ZN17cask_plugin_cudnn10xmma_cudnn52implicit_gemm_fprop_3eafdb3299df4f048b10085bc2062e6324kernel_get_kernel_recordEv
libcudnn_cnn_infer.so.8:_ZN17cask_plugin_cudnn10xmma_cudnn52implicit_gemm_fprop_3edf714ed5990fab52bc392efc1269c324kernel_get_kernel_recordEv
libcudnn_cnn_infer.so.8:_ZN17cask_plugin_cudnn10xmma_cudnn52implicit_gemm_fprop_3ee0fc97108005ccd0560b4cf140a0ad24kernel_get_kernel_recordEv
libcudnn_cnn_infer.so.8:_ZN17cask_plugin_cudnn10xmma_cudnn52implicit_gemm_fprop_3eef34ed9e03da5cbdc630e98c9a540a24kernel_get_kernel_recordEv
libcudnn_cnn_infer.so.8:_ZN17cask_plugin_cudnn10xmma_cudnn52implicit_gemm_fprop_3f0959938f311741da27c880447625aa24kernel_get_kernel_recordEv
libcudnn_cnn_infer.so.8:_ZN17cask_plugin_cudnn10xmma_cudnn52implicit_gemm_fprop_3f2e0fbc156b7c8022b1d10a3ac0667424kernel_get_kernel_recordEv
libcudnn_cnn_infer.so.8:_ZN17cask_plugin_cudnn10xmma_cudnn52implicit_gemm_fprop_3f6797b6c76fc3996fe555fd0e9280cc24kernel_get_kernel_recordEv
libcudnn_cnn_infer.so.8:_ZN17cask_plugin_cudnn10xmma_cudnn52implicit_gemm_fprop_3f7a71db8dd7df6ae1a49e9b66b5ff5324kernel_get_kernel_recordEv
libcudnn_cnn_infer.so.8:_ZN17cask_plugin_cudnn10xmma_cudnn52implicit_gemm_fprop_3f962cce17aac8bfa402a4cb0f94adfa24kernel_get_kernel_recordEv
libcudnn_cnn_infer.so.8:_ZN17cask_plugin_cudnn10xmma_cudnn52implicit_gemm_fprop_3fe663b261404dfc6c8506a197fcade424kernel_get_kernel_recordEv
libcudnn_cnn_infer.so.8:_ZN17cask_plugin_cudnn10xmma_cudnn52implicit_gemm_fprop_3ff7a0879dc5f06d6c9e7f74ae33742524kernel_get_kernel_recordEv
libcudnn_cnn_infer.so.8:_ZN17cask_plugin_cudnn10xmma_cudnn52implicit_gemm_fprop_40254eb52d1e7b8072dcff7360a8afee24kernel_get_kernel_recordEv
libcudnn_cnn_infer.so.8:_ZN17cask_plugin_cudnn10xmma_cudnn52implicit_gemm_fprop_403dde2280d235567a711dd2cc593b1924kernel_get_kernel_recordEv
libcudnn_cnn_infer.so.8:_ZN17cask_plugin_cudnn10xmma_cudnn52implicit_gemm_fprop_4097e67a304b352f7eb5416bc7916b0624kernel_get_kernel_recordEv
libcudnn_cnn_infer.so.8:_ZN17cask_plugin_cudnn10xmma_cudnn52implicit_gemm_fprop_40a08543d81a305af472dd061a1a87df24kernel_get_kernel_recordEv
libcudnn_cnn_infer.so.8:_ZN17cask_plugin_cudnn10xmma_cudnn52implicit_gemm_fprop_40a9c68a56b89bf14df9622dbed7298624kernel_get_kernel_recordEv
libcudnn_cnn_infer.so.8:_ZN17cask_plugin_cudnn10xmma_cudnn52implicit_gemm_fprop_40ac13c245a15aa4c5dc12109148cd6e24kernel_get_kernel_recordEv
libcudnn_cnn_infer.so.8:_ZN17cask_plugin_cudnn10xmma_cudnn52implicit_gemm_fprop_40d374e8b78ff19edee597ece5202e6d24kernel_get_kernel_recordEv
libcudnn_cnn_infer.so.8:_ZN17cask_plugin_cudnn10xmma_cudnn52implicit_gemm_fprop_40fb6260069262da47e1bfce1ee4568224kernel_get_kernel_recordEv
libcudnn_cnn_infer.so.8:_ZN17cask_plugin_cudnn10xmma_cudnn52implicit_gemm_fprop_40fdb0132e8429f77450f78336faeef324kernel_get_kernel_recordEv
libcudnn_cnn_infer.so.8:_ZN17cask_plugin_cudnn10xmma_cudnn52implicit_gemm_fprop_41023ef9a0643327390df6087fb39e1224kernel_get_kernel_recordEv
libcudnn_cnn_infer.so.8:_ZN17cask_plugin_cudnn10xmma_cudnn52implicit_gemm_fprop_411865ff7992e75cead2b1be308ae8b124kernel_get_kernel_recordEv
libcudnn_cnn_infer.so.8:_ZN17cask_plugin_cudnn10xmma_cudnn52implicit_gemm_fprop_41280cfac68624d6a74e2062683c5ec724kernel_get_kernel_recordEv
libcudnn_cnn_infer.so.8:_ZN17cask_plugin_cudnn10xmma_cudnn52implicit_gemm_fprop_412e3a23bebc58a222bdd82bf91cc15624kernel_get_kernel_recordEv
libcudnn_cnn_infer.so.8:_ZN17cask_plugin_cudnn10xmma_cudnn52implicit_gemm_fprop_41580376b5512592260e0cffb22e2f0c24kernel_get_kernel_recordEv
libcudnn_cnn_infer.so.8:_ZN17cask_plugin_cudnn10xmma_cudnn52implicit_gemm_fprop_417a72a7b6140265456dc24805269b4b24kernel_get_kernel_recordEv
libcudnn_cnn_infer.so.8:_ZN17cask_plugin_cudnn10xmma_cudnn52implicit_gemm_fprop_418f8ad6c3ec52562b843fec8ff5666e24kernel_get_kernel_recordEv
libcudnn_cnn_infer.so.8:_ZN17cask_plugin_cudnn10xmma_cudnn52implicit_gemm_fprop_41a667f6a217b814b7e752f1d273eaf724kernel_get_kernel_recordEv
libcudnn_cnn_infer.so.8:_ZN17cask_plugin_cudnn10xmma_cudnn52implicit_gemm_fprop_41bfae4b516e11a21385e881e352e05a24kernel_get_kernel_recordEv
libcudnn_cnn_infer.so.8:_ZN17cask_plugin_cudnn10xmma_cudnn52implicit_gemm_fprop_424f9964cd40d9e7eb4c9bcbb71eb7bd24kernel_get_kernel_recordEv
libcudnn_cnn_infer.so.8:_ZN17cask_plugin_cudnn10xmma_cudnn52implicit_gemm_fprop_42ad1873bc474a7b3f0fc1509eab7da724kernel_get_kernel_recordEv
libcudnn_cnn_infer.so.8:_ZN17cask_plugin_cudnn10xmma_cudnn52implicit_gemm_fprop_4322fd0d9d61e5167d1b8df4019dae4724kernel_get_kernel_recordEv
libcudnn_cnn_infer.so.8:_ZN17cask_plugin_cudnn10xmma_cudnn52implicit_gemm_fprop_433b2900df00cbd63d95f14ea6d5c96f24kernel_get_kernel_recordEv
libcudnn_cnn_infer.so.8:_ZN17cask_plugin_cudnn10xmma_cudnn52implicit_gemm_fprop_4351e8275f0d8de1bdacf996daf7c03424kernel_get_kernel_recordEv
libcudnn_cnn_infer.so.8:_ZN17cask_plugin_cudnn10xmma_cudnn52implicit_gemm_fprop_436381a77d5366600a98bf7b6d8af2fb24kernel_get_kernel_recordEv
libcudnn_cnn_infer.so.8:_ZN17cask_plugin_cudnn10xmma_cudnn52implicit_gemm_fprop_4365b7fa7db4201ed18f5aee8f0b693b24kernel_get_kernel_recordEv
libcudnn_cnn_infer.so.8:_ZN17cask_plugin_cudnn10xmma_cudnn52implicit_gemm_fprop_4396058150eac34a0bf7f056d7fbd7f924kernel_get_kernel_recordEv
libcudnn_cnn_infer.so.8:_ZN17cask_plugin_cudnn10xmma_cudnn52implicit_gemm_fprop_43c82933fda409d8b11b8a18e85120a324kernel_get_kernel_recordEv
libcudnn_cnn_infer.so.8:_ZN17cask_plugin_cudnn10xmma_cudnn52implicit_gemm_fprop_43ce280ee80880b9f11111e96baad29524kernel_get_kernel_recordEv
libcudnn_cnn_infer.so.8:_ZN17cask_plugin_cudnn10xmma_cudnn52implicit_gemm_fprop_43eb037251a49db3480efe46b526495a24kernel_get_kernel_recordEv
libcudnn_cnn_infer.so.8:_ZN17cask_plugin_cudnn10xmma_cudnn52implicit_gemm_fprop_43f110cff5a6a442e1b47dda3a529dbf24kernel_get_kernel_recordEv
libcudnn_cnn_infer.so.8:_ZN17cask_plugin_cudnn10xmma_cudnn52implicit_gemm_fprop_43f46c41e0534b086dfa8215ff08c49024kernel_get_kernel_recordEv
libcudnn_cnn_infer.so.8:_ZN17cask_plugin_cudnn10xmma_cudnn52implicit_gemm_fprop_43f53dac6114e3eccffa7c8ca0b5f12624kernel_get_kernel_recordEv
libcudnn_cnn_infer.so.8:_ZN17cask_plugin_cudnn10xmma_cudnn52implicit_gemm_fprop_4409a51199ae0017c126c0f6713db42624kernel_get_kernel_recordEv
libcudnn_cnn_infer.so.8:_ZN17cask_plugin_cudnn10xmma_cudnn52implicit_gemm_fprop_4495a7f901921387d317749bb31d2a1724kernel_get_kernel_recordEv
libcudnn_cnn_infer.so.8:_ZN17cask_plugin_cudnn10xmma_cudnn52implicit_gemm_fprop_449b6d59f80a23496232a5377517b42324kernel_get_kernel_recordEv
libcudnn_cnn_infer.so.8:_ZN17cask_plugin_cudnn10xmma_cudnn52implicit_gemm_fprop_44a7eb835b1ca9d1ceac95f0af83d13524kernel_get_kernel_recordEv
libcudnn_cnn_infer.so.8:_ZN17cask_plugin_cudnn10xmma_cudnn52implicit_gemm_fprop_44d953ad0c1a4a20eb79c8cb6ad26dbc24kernel_get_kernel_recordEv
libcudnn_cnn_infer.so.8:_ZN17cask_plugin_cudnn10xmma_cudnn52implicit_gemm_fprop_4522436a94c52b59893934d6d46f293224kernel_get_kernel_recordEv
libcudnn_cnn_infer.so.8:_ZN17cask_plugin_cudnn10xmma_cudnn52implicit_gemm_fprop_456ad0f3c1efe48ba447068003b314c624kernel_get_kernel_recordEv
libcudnn_cnn_infer.so.8:_ZN17cask_plugin_cudnn10xmma_cudnn52implicit_gemm_fprop_45810d323e0caa5fbfd3d5ac17754d2524kernel_get_kernel_recordEv
libcudnn_cnn_infer.so.8:_ZN17cask_plugin_cudnn10xmma_cudnn52implicit_gemm_fprop_45d0c3f2c8665d9336bcdf88aef404fd24kernel_get_kernel_recordEv
libcudnn_cnn_infer.so.8:_ZN17cask_plugin_cudnn10xmma_cudnn52implicit_gemm_fprop_45d508aa18218e6fc8cf2627c067c13824kernel_get_kernel_recordEv
libcudnn_cnn_infer.so.8:_ZN17cask_plugin_cudnn10xmma_cudnn52implicit_gemm_fprop_45dc521dce610cecbb58facd0fc9ca7224kernel_get_kernel_recordEv
libcudnn_cnn_infer.so.8:_ZN17cask_plugin_cudnn10xmma_cudnn52implicit_gemm_fprop_45efe82d70ef5382d32ee22cb82982c524kernel_get_kernel_recordEv
libcudnn_cnn_infer.so.8:_ZN17cask_plugin_cudnn10xmma_cudnn52implicit_gemm_fprop_4679b8d9d3d83e02103a17817112ed0624kernel_get_kernel_recordEv
libcudnn_cnn_infer.so.8:_ZN17cask_plugin_cudnn10xmma_cudnn52implicit_gemm_fprop_46902c8858355cc4341cf4edbc9233b224kernel_get_kernel_recordEv
libcudnn_cnn_infer.so.8:_ZN17cask_plugin_cudnn10xmma_cudnn52implicit_gemm_fprop_469c7c9393ca514eb63b8520ed50290024kernel_get_kernel_recordEv
libcudnn_cnn_infer.so.8:_ZN17cask_plugin_cudnn10xmma_cudnn52implicit_gemm_fprop_469e1e2bca88f1509cb3cea73e00bd9724kernel_get_kernel_recordEv
libcudnn_cnn_infer.so.8:_ZN17cask_plugin_cudnn10xmma_cudnn52implicit_gemm_fprop_46ce05d4b43d02d448610c25f7489d5324kernel_get_kernel_recordEv
libcudnn_cnn_infer.so.8:_ZN17cask_plugin_cudnn10xmma_cudnn52implicit_gemm_fprop_4766ff8e2e09f09af53b85314cc86c9224kernel_get_kernel_recordEv
libcudnn_cnn_infer.so.8:_ZN17cask_plugin_cudnn10xmma_cudnn52implicit_gemm_fprop_477fde304b3b7e0e9f34e0698f6c9c5624kernel_get_kernel_recordEv
libcudnn_cnn_infer.so.8:_ZN17cask_plugin_cudnn10xmma_cudnn52implicit_gemm_fprop_479ef90fcbf5d8f0bd3a1c74f4310c8224kernel_get_kernel_recordEv
libcudnn_cnn_infer.so.8:_ZN17cask_plugin_cudnn10xmma_cudnn52implicit_gemm_fprop_47bb8a2b96745068771fca023799293a24kernel_get_kernel_recordEv
libcudnn_cnn_infer.so.8:_ZN17cask_plugin_cudnn10xmma_cudnn52implicit_gemm_fprop_47f865dd8f2b9a59be180d6f9ffb1dd924kernel_get_kernel_recordEv
libcudnn_cnn_infer.so.8:_ZN17cask_plugin_cudnn10xmma_cudnn52implicit_gemm_fprop_48134c5cc7835a23739164838e6ef30e24kernel_get_kernel_recordEv
libcudnn_cnn_infer.so.8:_ZN17cask_plugin_cudnn10xmma_cudnn52implicit_gemm_fprop_481d6dda5135fde877aa7abb7b6cf23e24kernel_get_kernel_recordEv
libcudnn_cnn_infer.so.8:_ZN17cask_plugin_cudnn10xmma_cudnn52implicit_gemm_fprop_485ab3fff3d740d3c5880dc796612f3124kernel_get_kernel_recordEv
libcudnn_cnn_infer.so.8:_ZN17cask_plugin_cudnn10xmma_cudnn52implicit_gemm_fprop_48611e8c6185ee7f46d72e768da8bf1224kernel_get_kernel_recordEv
libcudnn_cnn_infer.so.8:_ZN17cask_plugin_cudnn10xmma_cudnn52implicit_gemm_fprop_4881a1123075c40b790dd839f741f2b124kernel_get_kernel_recordEv
libcudnn_cnn_infer.so.8:_ZN17cask_plugin_cudnn10xmma_cudnn52implicit_gemm_fprop_48b2ea5d98d33a99decd4b3002b3faa424kernel_get_kernel_recordEv
libcudnn_cnn_infer.so.8:_ZN17cask_plugin_cudnn10xmma_cudnn52implicit_gemm_fprop_48ce747edba8a76c499946bf1cca14d924kernel_get_kernel_recordEv
libcudnn_cnn_infer.so.8:_ZN17cask_plugin_cudnn10xmma_cudnn52implicit_gemm_fprop_48e70785ebf69e06ababfc274a7d76f824kernel_get_kernel_recordEv
libcudnn_cnn_infer.so.8:_ZN17cask_plugin_cudnn10xmma_cudnn52implicit_gemm_fprop_48f02d3198eef7d70af3c1f742fc442624kernel_get_kernel_recordEv
libcudnn_cnn_infer.so.8:_ZN17cask_plugin_cudnn10xmma_cudnn52implicit_gemm_fprop_4944a72e3b3f59ec9b919b5fd373522524kernel_get_kernel_recordEv
libcudnn_cnn_infer.so.8:_ZN17cask_plugin_cudnn10xmma_cudnn52implicit_gemm_fprop_495e1953396b61ff736eadc264ac46dd24kernel_get_kernel_recordEv
libcudnn_cnn_infer.so.8:_ZN17cask_plugin_cudnn10xmma_cudnn52implicit_gemm_fprop_49b2a1bceb71667fd90825898d1d0fe224kernel_get_kernel_recordEv
libcudnn_cnn_infer.so.8:_ZN17cask_plugin_cudnn10xmma_cudnn52implicit_gemm_fprop_49fb92fc391b3a0529135f4d9249edc324kernel_get_kernel_recordEv
libcudnn_cnn_infer.so.8:_ZN17cask_plugin_cudnn10xmma_cudnn52implicit_gemm_fprop_4a29529e0efdcf0e3327fcd18490fd0c24kernel_get_kernel_recordEv
libcudnn_cnn_infer.so.8:_ZN17cask_plugin_cudnn10xmma_cudnn52implicit_gemm_fprop_4a43843c0ed1dc90265511fc6677ef1124kernel_get_kernel_recordEv
libcudnn_cnn_infer.so.8:_ZN17cask_plugin_cudnn10xmma_cudnn52implicit_gemm_fprop_4a828aa3f795146efb9c2227110d166d24kernel_get_kernel_recordEv
libcudnn_cnn_infer.so.8:_ZN17cask_plugin_cudnn10xmma_cudnn52implicit_gemm_fprop_4a8b7a744eb0f63f56cc184e3ff9864724kernel_get_kernel_recordEv
libcudnn_cnn_infer.so.8:_ZN17cask_plugin_cudnn10xmma_cudnn52implicit_gemm_fprop_4a8c7c5ae54402bc7e5067287856bb7c24kernel_get_kernel_recordEv
libcudnn_cnn_infer.so.8:_ZN17cask_plugin_cudnn10xmma_cudnn52implicit_gemm_fprop_4a938991e61414241370c7b2c7feb50324kernel_get_kernel_recordEv
libcudnn_cnn_infer.so.8:_ZN17cask_plugin_cudnn10xmma_cudnn52implicit_gemm_fprop_4ab4b0899445b2cc9db7735f8c8f463024kernel_get_kernel_recordEv
libcudnn_cnn_infer.so.8:_ZN17cask_plugin_cudnn10xmma_cudnn52implicit_gemm_fprop_4af1b4e9d11eaf7f43ade1a664a9947324kernel_get_kernel_recordEv
libcudnn_cnn_infer.so.8:_ZN17cask_plugin_cudnn10xmma_cudnn52implicit_gemm_fprop_4b0300fce22570eaf9973d576cd44d3724kernel_get_kernel_recordEv
libcudnn_cnn_infer.so.8:_ZN17cask_plugin_cudnn10xmma_cudnn52implicit_gemm_fprop_4b33ee989b1c99cf29d95ab049b7914f24kernel_get_kernel_recordEv
libcudnn_cnn_infer.so.8:_ZN17cask_plugin_cudnn10xmma_cudnn52implicit_gemm_fprop_4b3d2be00ffdcf803336ff5e4b05532824kernel_get_kernel_recordEv
libcudnn_cnn_infer.so.8:_ZN17cask_plugin_cudnn10xmma_cudnn52implicit_gemm_fprop_4b580a3f231582abf39ec6ebaa70d6da24kernel_get_kernel_recordEv
libcudnn_cnn_infer.so.8:_ZN17cask_plugin_cudnn10xmma_cudnn52implicit_gemm_fprop_4b6c01faf5114793668e698a4dd7f3b124kernel_get_kernel_recordEv
libcudnn_cnn_infer.so.8:_ZN17cask_plugin_cudnn10xmma_cudnn52implicit_gemm_fprop_4b8610556f2d1ccb4bd10f81e5833f5a24kernel_get_kernel_recordEv
libcudnn_cnn_infer.so.8:_ZN17cask_plugin_cudnn10xmma_cudnn52implicit_gemm_fprop_4bb3c36b4bea3f16831328690c506f9224kernel_get_kernel_recordEv
libcudnn_cnn_infer.so.8:_ZN17cask_plugin_cudnn10xmma_cudnn52implicit_gemm_fprop_4bbe1edff41c3c39de83cdb47ba8035724kernel_get_kernel_recordEv
libcudnn_cnn_infer.so.8:_ZN17cask_plugin_cudnn10xmma_cudnn52implicit_gemm_fprop_4bc642064df807cd3b2f5a53d4f2b4c224kernel_get_kernel_recordEv
libcudnn_cnn_infer.so.8:_ZN17cask_plugin_cudnn10xmma_cudnn52implicit_gemm_fprop_4c375756610c688eb1e6bf937463589f24kernel_get_kernel_recordEv
libcudnn_cnn_infer.so.8:_ZN17cask_plugin_cudnn10xmma_cudnn52implicit_gemm_fprop_4c3cbbdab73a5b6cabc7db3a9d1b30f624kernel_get_kernel_recordEv
libcudnn_cnn_infer.so.8:_ZN17cask_plugin_cudnn10xmma_cudnn52implicit_gemm_fprop_4c409957c2bdc80406c22478acbd3cd624kernel_get_kernel_recordEv
libcudnn_cnn_infer.so.8:_ZN17cask_plugin_cudnn10xmma_cudnn52implicit_gemm_fprop_4c6c9c36a0e2412512eef929093be2cb24kernel_get_kernel_recordEv
libcudnn_cnn_infer.so.8:_ZN17cask_plugin_cudnn10xmma_cudnn52implicit_gemm_fprop_4c76f9fbbf788a53765c758d402fa4fd24kernel_get_kernel_recordEv
libcudnn_cnn_infer.so.8:_ZN17cask_plugin_cudnn10xmma_cudnn52implicit_gemm_fprop_4cc590d0a90770348189813e38af412324kernel_get_kernel_recordEv
libcudnn_cnn_infer.so.8:_ZN17cask_plugin_cudnn10xmma_cudnn52implicit_gemm_fprop_4cc737253f902b2844eb4cc84af0663824kernel_get_kernel_recordEv
libcudnn_cnn_infer.so.8:_ZN17cask_plugin_cudnn10xmma_cudnn52implicit_gemm_fprop_4cc90a0d8704e7796bbd92b2afe6dfed24kernel_get_kernel_recordEv
libcudnn_cnn_infer.so.8:_ZN17cask_plugin_cudnn10xmma_cudnn52implicit_gemm_fprop_4cfc7ddd034a2f695101120b76f34c4a24kernel_get_kernel_recordEv
libcudnn_cnn_infer.so.8:_ZN17cask_plugin_cudnn10xmma_cudnn52implicit_gemm_fprop_4d65451f5efbc0709f82e3f569f232ac24kernel_get_kernel_recordEv
libcudnn_cnn_infer.so.8:_ZN17cask_plugin_cudnn10xmma_cudnn52implicit_gemm_fprop_4d70906b1568dfeff9c33a85aecc3cdb24kernel_get_kernel_recordEv
libcudnn_cnn_infer.so.8:_ZN17cask_plugin_cudnn10xmma_cudnn52implicit_gemm_fprop_4d99188beff2c622ccc46ef34af6896624kernel_get_kernel_recordEv
libcudnn_cnn_infer.so.8:_ZN17cask_plugin_cudnn10xmma_cudnn52implicit_gemm_fprop_4daa1e21b60c7885685fa3c2b460fa7a24kernel_get_kernel_recordEv
libcudnn_cnn_infer.so.8:_ZN17cask_plugin_cudnn10xmma_cudnn52implicit_gemm_fprop_4dfca7d75e0d503ccb4a577004812dd724kernel_get_kernel_recordEv
libcudnn_cnn_infer.so.8:_ZN17cask_plugin_cudnn10xmma_cudnn52implicit_gemm_fprop_4e05dbad062fdab4c87a736d130f3e1c24kernel_get_kernel_recordEv
libcudnn_cnn_infer.so.8:_ZN17cask_plugin_cudnn10xmma_cudnn52implicit_gemm_fprop_4e0d31051b6fcd0d3ead291345eb756024kernel_get_kernel_recordEv
libcudnn_cnn_infer.so.8:_ZN17cask_plugin_cudnn10xmma_cudnn52implicit_gemm_fprop_4e1aa715dac2a27b28e8b19e993d2e9224kernel_get_kernel_recordEv
libcudnn_cnn_infer.so.8:_ZN17cask_plugin_cudnn10xmma_cudnn52implicit_gemm_fprop_4e31e189a02f9d00c72de8fd379048b624kernel_get_kernel_recordEv
libcudnn_cnn_infer.so.8:_ZN17cask_plugin_cudnn10xmma_cudnn52implicit_gemm_fprop_4e4293e9d5a5ae989d47a05b281c6c6824kernel_get_kernel_recordEv
libcudnn_cnn_infer.so.8:_ZN17cask_plugin_cudnn10xmma_cudnn52implicit_gemm_fprop_4e80fe5c525938aca3101b08897c3f6024kernel_get_kernel_recordEv
libcudnn_cnn_infer.so.8:_ZN17cask_plugin_cudnn10xmma_cudnn52implicit_gemm_fprop_4e9c88bcc2daa67885abdf68f005b2e424kernel_get_kernel_recordEv
libcudnn_cnn_infer.so.8:_ZN17cask_plugin_cudnn10xmma_cudnn52implicit_gemm_fprop_4eacbd18366042604124acfbe99b360724kernel_get_kernel_recordEv
libcudnn_cnn_infer.so.8:_ZN17cask_plugin_cudnn10xmma_cudnn52implicit_gemm_fprop_4eb811214cd657946de8944aefdedf7a24kernel_get_kernel_recordEv
libcudnn_cnn_infer.so.8:_ZN17cask_plugin_cudnn10xmma_cudnn52implicit_gemm_fprop_4ed74f0c44abd469ba0f17367bb2cdda24kernel_get_kernel_recordEv
libcudnn_cnn_infer.so.8:_ZN17cask_plugin_cudnn10xmma_cudnn52implicit_gemm_fprop_4ee1c3278fc49a5acc3a5a9895d57dc724kernel_get_kernel_recordEv
libcudnn_cnn_infer.so.8:_ZN17cask_plugin_cudnn10xmma_cudnn52implicit_gemm_fprop_4f98469dc5e374d73d766021b21ac9ac24kernel_get_kernel_recordEv
libcudnn_cnn_infer.so.8:_ZN17cask_plugin_cudnn10xmma_cudnn52implicit_gemm_fprop_4faf815eea6743fe420498e798201bc924kernel_get_kernel_recordEv
libcudnn_cnn_infer.so.8:_ZN17cask_plugin_cudnn10xmma_cudnn52implicit_gemm_fprop_4fc09566f8e9191a7318d18a613efd5624kernel_get_kernel_recordEv
libcudnn_cnn_infer.so.8:_ZN17cask_plugin_cudnn10xmma_cudnn52implicit_gemm_fprop_501046ff94f96d670691857b32e25fe524kernel_get_kernel_recordEv
libcudnn_cnn_infer.so.8:_ZN17cask_plugin_cudnn10xmma_cudnn52implicit_gemm_fprop_5026b3e0c6fef06395b563acb54003fc24kernel_get_kernel_recordEv
libcudnn_cnn_infer.so.8:_ZN17cask_plugin_cudnn10xmma_cudnn52implicit_gemm_fprop_5031e93b190fbb48ae0f21a2cee6740324kernel_get_kernel_recordEv
libcudnn_cnn_infer.so.8:_ZN17cask_plugin_cudnn10xmma_cudnn52implicit_gemm_fprop_509aab0de1fa9fbf41ffb3012945a07d24kernel_get_kernel_recordEv
libcudnn_cnn_infer.so.8:_ZN17cask_plugin_cudnn10xmma_cudnn52implicit_gemm_fprop_50d61923b2e6064ea8c1458f4714475a24kernel_get_kernel_recordEv
libcudnn_cnn_infer.so.8:_ZN17cask_plugin_cudnn10xmma_cudnn52implicit_gemm_fprop_513d787da671b78a0e38a3c4d1ea14dd24kernel_get_kernel_recordEv
libcudnn_cnn_infer.so.8:_ZN17cask_plugin_cudnn10xmma_cudnn52implicit_gemm_fprop_5141e5042b20fc05744671295364f02724kernel_get_kernel_recordEv
libcudnn_cnn_infer.so.8:_ZN17cask_plugin_cudnn10xmma_cudnn52implicit_gemm_fprop_51cedb2cab6520db1e9fe8b7cca1b12e24kernel_get_kernel_recordEv
libcudnn_cnn_infer.so.8:_ZN17cask_plugin_cudnn10xmma_cudnn52implicit_gemm_fprop_51f3e85173c1c6eca7236f3097f6591f24kernel_get_kernel_recordEv
libcudnn_cnn_infer.so.8:_ZN17cask_plugin_cudnn10xmma_cudnn52implicit_gemm_fprop_522af03abb6f63a5250be34da544ff4824kernel_get_kernel_recordEv
libcudnn_cnn_infer.so.8:_ZN17cask_plugin_cudnn10xmma_cudnn52implicit_gemm_fprop_523b2c7c831ab9f3be462a5bbb4ccf8324kernel_get_kernel_recordEv
libcudnn_cnn_infer.so.8:_ZN17cask_plugin_cudnn10xmma_cudnn52implicit_gemm_fprop_528b66995a4ce8786a3e4fbc90105de724kernel_get_kernel_recordEv
libcudnn_cnn_infer.so.8:_ZN17cask_plugin_cudnn10xmma_cudnn52implicit_gemm_fprop_52be7a030c35127d57cf7bd8f85ce20024kernel_get_kernel_recordEv
libcudnn_cnn_infer.so.8:_ZN17cask_plugin_cudnn10xmma_cudnn52implicit_gemm_fprop_52e092da48b857c6d560bae4ffe9050b24kernel_get_kernel_recordEv
libcudnn_cnn_infer.so.8:_ZN17cask_plugin_cudnn10xmma_cudnn52implicit_gemm_fprop_52f3c5b9fee6268753523ee3a8f12ac124kernel_get_kernel_recordEv
libcudnn_cnn_infer.so.8:_ZN17cask_plugin_cudnn10xmma_cudnn52implicit_gemm_fprop_53040049c94379ce142aeb5dc96d751024kernel_get_kernel_recordEv
libcudnn_cnn_infer.so.8:_ZN17cask_plugin_cudnn10xmma_cudnn52implicit_gemm_fprop_5309288e08fe336195411f28a37df67f24kernel_get_kernel_recordEv
libcudnn_cnn_infer.so.8:_ZN17cask_plugin_cudnn10xmma_cudnn52implicit_gemm_fprop_530b317ff02998d4062e574149e96bfa24kernel_get_kernel_recordEv
libcudnn_cnn_infer.so.8:_ZN17cask_plugin_cudnn10xmma_cudnn52implicit_gemm_fprop_533dd0a98159be83af69a80cfdb9b6e324kernel_get_kernel_recordEv
libcudnn_cnn_infer.so.8:_ZN17cask_plugin_cudnn10xmma_cudnn52implicit_gemm_fprop_5347aecac13c4b83af50565a82fa61d724kernel_get_kernel_recordEv
libcudnn_cnn_infer.so.8:_ZN17cask_plugin_cudnn10xmma_cudnn52implicit_gemm_fprop_538be56d264ce4bd41028427ea38e39724kernel_get_kernel_recordEv
libcudnn_cnn_infer.so.8:_ZN17cask_plugin_cudnn10xmma_cudnn52implicit_gemm_fprop_538e70a61ed85a35d1f38c1f8b6ad18124kernel_get_kernel_recordEv
libcudnn_cnn_infer.so.8:_ZN17cask_plugin_cudnn10xmma_cudnn52implicit_gemm_fprop_539b4da3ab48992c51d5686d123df43624kernel_get_kernel_recordEv
libcudnn_cnn_infer.so.8:_ZN17cask_plugin_cudnn10xmma_cudnn52implicit_gemm_fprop_53ca7960cc7e71b37eb8b67423e4189f24kernel_get_kernel_recordEv
libcudnn_cnn_infer.so.8:_ZN17cask_plugin_cudnn10xmma_cudnn52implicit_gemm_fprop_53ebfbdb1d04946f26513f8fa2272cc724kernel_get_kernel_recordEv
libcudnn_cnn_infer.so.8:_ZN17cask_plugin_cudnn10xmma_cudnn52implicit_gemm_fprop_542888dbe2462694902daa28b8bd7bd424kernel_get_kernel_recordEv
libcudnn_cnn_infer.so.8:_ZN17cask_plugin_cudnn10xmma_cudnn52implicit_gemm_fprop_547e1a46cc3d1215febdb252bff25e3424kernel_get_kernel_recordEv
libcudnn_cnn_infer.so.8:_ZN17cask_plugin_cudnn10xmma_cudnn52implicit_gemm_fprop_548302ad5574de44611920c96837d84024kernel_get_kernel_recordEv
libcudnn_cnn_infer.so.8:_ZN17cask_plugin_cudnn10xmma_cudnn52implicit_gemm_fprop_549c46a6aadc8a8981b3f0e0072a7c6d24kernel_get_kernel_recordEv
libcudnn_cnn_infer.so.8:_ZN17cask_plugin_cudnn10xmma_cudnn52implicit_gemm_fprop_550d9ce1f4729e2b40b5b8fc28a39d1824kernel_get_kernel_recordEv
libcudnn_cnn_infer.so.8:_ZN17cask_plugin_cudnn10xmma_cudnn52implicit_gemm_fprop_55186948447eb9b0c0679a36d37e959824kernel_get_kernel_recordEv
libcudnn_cnn_infer.so.8:_ZN17cask_plugin_cudnn10xmma_cudnn52implicit_gemm_fprop_555078f8affa051b5c4dd77fd7300eea24kernel_get_kernel_recordEv
libcudnn_cnn_infer.so.8:_ZN17cask_plugin_cudnn10xmma_cudnn52implicit_gemm_fprop_55b94ea7585bdf9eefa7107274a010dc24kernel_get_kernel_recordEv
libcudnn_cnn_infer.so.8:_ZN17cask_plugin_cudnn10xmma_cudnn52implicit_gemm_fprop_5610b83623ad1307e116f683ba20c7f024kernel_get_kernel_recordEv
libcudnn_cnn_infer.so.8:_ZN17cask_plugin_cudnn10xmma_cudnn52implicit_gemm_fprop_56bebec9e2481d04a4f24ec34f6597e924kernel_get_kernel_recordEv
libcudnn_cnn_infer.so.8:_ZN17cask_plugin_cudnn10xmma_cudnn52implicit_gemm_fprop_56febee66f8d624089810b2bb286aaa324kernel_get_kernel_recordEv
libcudnn_cnn_infer.so.8:_ZN17cask_plugin_cudnn10xmma_cudnn52implicit_gemm_fprop_572a1292e815e11791b2beba0b94883424kernel_get_kernel_recordEv
libcudnn_cnn_infer.so.8:_ZN17cask_plugin_cudnn10xmma_cudnn52implicit_gemm_fprop_5741f2f9f511032775584237fca484bf24kernel_get_kernel_recordEv
libcudnn_cnn_infer.so.8:_ZN17cask_plugin_cudnn10xmma_cudnn52implicit_gemm_fprop_5745137906d79d2b6247055facb88a0024kernel_get_kernel_recordEv
libcudnn_cnn_infer.so.8:_ZN17cask_plugin_cudnn10xmma_cudnn52implicit_gemm_fprop_5761920d2bc778fec57d01b4b104f8d224kernel_get_kernel_recordEv
libcudnn_cnn_infer.so.8:_ZN17cask_plugin_cudnn10xmma_cudnn52implicit_gemm_fprop_57a03148db844e1ac9df3d4043989b7d24kernel_get_kernel_recordEv
libcudnn_cnn_infer.so.8:_ZN17cask_plugin_cudnn10xmma_cudnn52implicit_gemm_fprop_57b815632c2ac1875d62b26aebf414ab24kernel_get_kernel_recordEv
libcudnn_cnn_infer.so.8:_ZN17cask_plugin_cudnn10xmma_cudnn52implicit_gemm_fprop_57ba0ce561380a3d7c5c85248b1a820624kernel_get_kernel_recordEv
libcudnn_cnn_infer.so.8:_ZN17cask_plugin_cudnn10xmma_cudnn52implicit_gemm_fprop_57bdc82ff418fb84e8565eb7ba57e29424kernel_get_kernel_recordEv
libcudnn_cnn_infer.so.8:_ZN17cask_plugin_cudnn10xmma_cudnn52implicit_gemm_fprop_57e851966b457ddbe99454f3b5762cfe24kernel_get_kernel_recordEv
libcudnn_cnn_infer.so.8:_ZN17cask_plugin_cudnn10xmma_cudnn52implicit_gemm_fprop_57e8d6c9f2a60a1d954ee4cdffdef6dc24kernel_get_kernel_recordEv
libcudnn_cnn_infer.so.8:_ZN17cask_plugin_cudnn10xmma_cudnn52implicit_gemm_fprop_57fe052538bb244c92d6cc8c59a79b6924kernel_get_kernel_recordEv
libcudnn_cnn_infer.so.8:_ZN17cask_plugin_cudnn10xmma_cudnn52implicit_gemm_fprop_58158bf7a542802f13de05e2092568b724kernel_get_kernel_recordEv
libcudnn_cnn_infer.so.8:_ZN17cask_plugin_cudnn10xmma_cudnn52implicit_gemm_fprop_581f5d67a2f41be2e561e33ca4f3d36c24kernel_get_kernel_recordEv
libcudnn_cnn_infer.so.8:_ZN17cask_plugin_cudnn10xmma_cudnn52implicit_gemm_fprop_58f28a768eea7ba010f3837f9fd29e4824kernel_get_kernel_recordEv
libcudnn_cnn_infer.so.8:_ZN17cask_plugin_cudnn10xmma_cudnn52implicit_gemm_fprop_597a7224b9436cf068335f0877c392e124kernel_get_kernel_recordEv
libcudnn_cnn_infer.so.8:_ZN17cask_plugin_cudnn10xmma_cudnn52implicit_gemm_fprop_598433fe2427848cb39d7e2faaecfa8524kernel_get_kernel_recordEv
libcudnn_cnn_infer.so.8:_ZN17cask_plugin_cudnn10xmma_cudnn52implicit_gemm_fprop_59bdca53ce39c27e6424ca83065b85e124kernel_get_kernel_recordEv
libcudnn_cnn_infer.so.8:_ZN17cask_plugin_cudnn10xmma_cudnn52implicit_gemm_fprop_59ee231fc93d4abd9cff99589c96eb9424kernel_get_kernel_recordEv
libcudnn_cnn_infer.so.8:_ZN17cask_plugin_cudnn10xmma_cudnn52implicit_gemm_fprop_5a04655dfff555533741c4f3d559289024kernel_get_kernel_recordEv
libcudnn_cnn_infer.so.8:_ZN17cask_plugin_cudnn10xmma_cudnn52implicit_gemm_fprop_5a0b5e2781765311d6147f8c48f01b7824kernel_get_kernel_recordEv
libcudnn_cnn_infer.so.8:_ZN17cask_plugin_cudnn10xmma_cudnn52implicit_gemm_fprop_5a893c3bc362eb54e2489a3dd2e14f4124kernel_get_kernel_recordEv
libcudnn_cnn_infer.so.8:_ZN17cask_plugin_cudnn10xmma_cudnn52implicit_gemm_fprop_5af853269deb540d8baaefaa90e19dd724kernel_get_kernel_recordEv
libcudnn_cnn_infer.so.8:_ZN17cask_plugin_cudnn10xmma_cudnn52implicit_gemm_fprop_5b256c6ff32638be10f47aa7698910c924kernel_get_kernel_recordEv
libcudnn_cnn_infer.so.8:_ZN17cask_plugin_cudnn10xmma_cudnn52implicit_gemm_fprop_5b32d29418b7cec294bd46fdd571b36c24kernel_get_kernel_recordEv
libcudnn_cnn_infer.so.8:_ZN17cask_plugin_cudnn10xmma_cudnn52implicit_gemm_fprop_5b3a7598f03480f5f4f718d3a380b51324kernel_get_kernel_recordEv
libcudnn_cnn_infer.so.8:_ZN17cask_plugin_cudnn10xmma_cudnn52implicit_gemm_fprop_5b76eb41384ab76d89c0aca9849468a324kernel_get_kernel_recordEv
libcudnn_cnn_infer.so.8:_ZN17cask_plugin_cudnn10xmma_cudnn52implicit_gemm_fprop_5b88d2d9bf8900926cc762e6f1c50c1f24kernel_get_kernel_recordEv
libcudnn_cnn_infer.so.8:_ZN17cask_plugin_cudnn10xmma_cudnn52implicit_gemm_fprop_5ba97b4a23781bcd9ca7cb20700bdac324kernel_get_kernel_recordEv
libcudnn_cnn_infer.so.8:_ZN17cask_plugin_cudnn10xmma_cudnn52implicit_gemm_fprop_5ba9d4879c8d75045069576b7e6e008a24kernel_get_kernel_recordEv
libcudnn_cnn_infer.so.8:_ZN17cask_plugin_cudnn10xmma_cudnn52implicit_gemm_fprop_5bcf204f87bd98f4f8a14a05194710bd24kernel_get_kernel_recordEv
libcudnn_cnn_infer.so.8:_ZN17cask_plugin_cudnn10xmma_cudnn52implicit_gemm_fprop_5c19d88bef1a12a17172b6776a4b3a1b24kernel_get_kernel_recordEv
libcudnn_cnn_infer.so.8:_ZN17cask_plugin_cudnn10xmma_cudnn52implicit_gemm_fprop_5c396596b9ec028d0cbd3c8f077d885e24kernel_get_kernel_recordEv
libcudnn_cnn_infer.so.8:_ZN17cask_plugin_cudnn10xmma_cudnn52implicit_gemm_fprop_5c4ba55c0e8bf857b45e65e1864e446824kernel_get_kernel_recordEv
libcudnn_cnn_infer.so.8:_ZN17cask_plugin_cudnn10xmma_cudnn52implicit_gemm_fprop_5c583e64329bb9de6ffc64722268356224kernel_get_kernel_recordEv
libcudnn_cnn_infer.so.8:_ZN17cask_plugin_cudnn10xmma_cudnn52implicit_gemm_fprop_5c5ddaa7cf21b07e5df58c422543f62924kernel_get_kernel_recordEv
libcudnn_cnn_infer.so.8:_ZN17cask_plugin_cudnn10xmma_cudnn52implicit_gemm_fprop_5c9fcb8d699a8c62cdb7ef4c73b8b84024kernel_get_kernel_recordEv
libcudnn_cnn_infer.so.8:_ZN17cask_plugin_cudnn10xmma_cudnn52implicit_gemm_fprop_5cac7074e36dc1ae23b125358675e92e24kernel_get_kernel_recordEv
libcudnn_cnn_infer.so.8:_ZN17cask_plugin_cudnn10xmma_cudnn52implicit_gemm_fprop_5cc616e18681040b7764c9109195fd6d24kernel_get_kernel_recordEv
libcudnn_cnn_infer.so.8:_ZN17cask_plugin_cudnn10xmma_cudnn52implicit_gemm_fprop_5cea94f22c56e8c37af811dfbc125b9a24kernel_get_kernel_recordEv
libcudnn_cnn_infer.so.8:_ZN17cask_plugin_cudnn10xmma_cudnn52implicit_gemm_fprop_5cec0b0a017237d00ee1dcdf9f97331c24kernel_get_kernel_recordEv
libcudnn_cnn_infer.so.8:_ZN17cask_plugin_cudnn10xmma_cudnn52implicit_gemm_fprop_5d01a6b35bad05c473cb211e1f34aebc24kernel_get_kernel_recordEv
libcudnn_cnn_infer.so.8:_ZN17cask_plugin_cudnn10xmma_cudnn52implicit_gemm_fprop_5d1e97320a12b1c888ce034569de95c024kernel_get_kernel_recordEv
libcudnn_cnn_infer.so.8:_ZN17cask_plugin_cudnn10xmma_cudnn52implicit_gemm_fprop_5d36f1841a28b542315ce9fff0bc504f24kernel_get_kernel_recordEv
libcudnn_cnn_infer.so.8:_ZN17cask_plugin_cudnn10xmma_cudnn52implicit_gemm_fprop_5d5a4a81f812c22dd838b7559098f3a724kernel_get_kernel_recordEv
libcudnn_cnn_infer.so.8:_ZN17cask_plugin_cudnn10xmma_cudnn52implicit_gemm_fprop_5d5eef60ee349fd3eca220b0619ffde024kernel_get_kernel_recordEv
libcudnn_cnn_infer.so.8:_ZN17cask_plugin_cudnn10xmma_cudnn52implicit_gemm_fprop_5d783c3d28d135f80f78d616b3bdbdb524kernel_get_kernel_recordEv
libcudnn_cnn_infer.so.8:_ZN17cask_plugin_cudnn10xmma_cudnn52implicit_gemm_fprop_5d78700718624bb21320462aee9acbb624kernel_get_kernel_recordEv
libcudnn_cnn_infer.so.8:_ZN17cask_plugin_cudnn10xmma_cudnn52implicit_gemm_fprop_5d8901e6f2e9b70351f28ea40e1882b324kernel_get_kernel_recordEv
libcudnn_cnn_infer.so.8:_ZN17cask_plugin_cudnn10xmma_cudnn52implicit_gemm_fprop_5d8e6f1c0be02dae4156da846f75172624kernel_get_kernel_recordEv
libcudnn_cnn_infer.so.8:_ZN17cask_plugin_cudnn10xmma_cudnn52implicit_gemm_fprop_5d9f155870eeff6d14afc6913dbe8b9924kernel_get_kernel_recordEv
libcudnn_cnn_infer.so.8:_ZN17cask_plugin_cudnn10xmma_cudnn52implicit_gemm_fprop_5e1145189ca07b045e06ff3e43c2a34024kernel_get_kernel_recordEv
libcudnn_cnn_infer.so.8:_ZN17cask_plugin_cudnn10xmma_cudnn52implicit_gemm_fprop_5e3cb9f64280c76725ba7b1b23da79d324kernel_get_kernel_recordEv
libcudnn_cnn_infer.so.8:_ZN17cask_plugin_cudnn10xmma_cudnn52implicit_gemm_fprop_5e508effd1c810435ff06ce5884aca9c24kernel_get_kernel_recordEv
libcudnn_cnn_infer.so.8:_ZN17cask_plugin_cudnn10xmma_cudnn52implicit_gemm_fprop_5e5bff53d4c98eefef3769ca70f8471b24kernel_get_kernel_recordEv
libcudnn_cnn_infer.so.8:_ZN17cask_plugin_cudnn10xmma_cudnn52implicit_gemm_fprop_5e6219a1a3c3f43108cc2152f3794ff624kernel_get_kernel_recordEv
libcudnn_cnn_infer.so.8:_ZN17cask_plugin_cudnn10xmma_cudnn52implicit_gemm_fprop_5e7b10d7ab8b94dee26000e73e24831c24kernel_get_kernel_recordEv
libcudnn_cnn_infer.so.8:_ZN17cask_plugin_cudnn10xmma_cudnn52implicit_gemm_fprop_5eb06e9549b208811bbf62f998e7fb4424kernel_get_kernel_recordEv
libcudnn_cnn_infer.so.8:_ZN17cask_plugin_cudnn10xmma_cudnn52implicit_gemm_fprop_5ee583160020f405d5cc321921219eca24kernel_get_kernel_recordEv
libcudnn_cnn_infer.so.8:_ZN17cask_plugin_cudnn10xmma_cudnn52implicit_gemm_fprop_5eef51d0a9d6c7f76709aba3a2b9a31724kernel_get_kernel_recordEv
libcudnn_cnn_infer.so.8:_ZN17cask_plugin_cudnn10xmma_cudnn52implicit_gemm_fprop_5f028595b18f617274d679c94ff57a0e24kernel_get_kernel_recordEv
libcudnn_cnn_infer.so.8:_ZN17cask_plugin_cudnn10xmma_cudnn52implicit_gemm_fprop_5f07ed5cc65d071c986c5968c0ee813f24kernel_get_kernel_recordEv
libcudnn_cnn_infer.so.8:_ZN17cask_plugin_cudnn10xmma_cudnn52implicit_gemm_fprop_5f69720da0f274ec9200423f1d590ce324kernel_get_kernel_recordEv
libcudnn_cnn_infer.so.8:_ZN17cask_plugin_cudnn10xmma_cudnn52implicit_gemm_fprop_5f7c19f43345201bdd6f93381b311e4324kernel_get_kernel_recordEv
libcudnn_cnn_infer.so.8:_ZN17cask_plugin_cudnn10xmma_cudnn52implicit_gemm_fprop_5f8e067b16a3bcc28c500d226ce21fa424kernel_get_kernel_recordEv
libcudnn_cnn_infer.so.8:_ZN17cask_plugin_cudnn10xmma_cudnn52implicit_gemm_fprop_5f9e33b0a086e9628a190ad98bc3a1db24kernel_get_kernel_recordEv
libcudnn_cnn_infer.so.8:_ZN17cask_plugin_cudnn10xmma_cudnn52implicit_gemm_fprop_5fc35e32d1ab5c0178bd38c5d511ffa024kernel_get_kernel_recordEv
libcudnn_cnn_infer.so.8:_ZN17cask_plugin_cudnn10xmma_cudnn52implicit_gemm_fprop_5feb7793904642349449b9ba9d0e994c24kernel_get_kernel_recordEv
libcudnn_cnn_infer.so.8:_ZN17cask_plugin_cudnn10xmma_cudnn52implicit_gemm_fprop_5ff1d0698204a84ecad5a15fcc24d99b24kernel_get_kernel_recordEv
libcudnn_cnn_infer.so.8:_ZN17cask_plugin_cudnn10xmma_cudnn52implicit_gemm_fprop_5ff43bd3905666110365693655486ffe24kernel_get_kernel_recordEv
libcudnn_cnn_infer.so.8:_ZN17cask_plugin_cudnn10xmma_cudnn52implicit_gemm_fprop_60075d23a3f50347d0fa5053c6d0971024kernel_get_kernel_recordEv
libcudnn_cnn_infer.so.8:_ZN17cask_plugin_cudnn10xmma_cudnn52implicit_gemm_fprop_602a7a645be1ea72e2fe25f401468b4824kernel_get_kernel_recordEv
libcudnn_cnn_infer.so.8:_ZN17cask_plugin_cudnn10xmma_cudnn52implicit_gemm_fprop_603824276776fecc4e685ffd940896c024kernel_get_kernel_recordEv
libcudnn_cnn_infer.so.8:_ZN17cask_plugin_cudnn10xmma_cudnn52implicit_gemm_fprop_6079d1ed575dc1083a3e528201558b0924kernel_get_kernel_recordEv
libcudnn_cnn_infer.so.8:_ZN17cask_plugin_cudnn10xmma_cudnn52implicit_gemm_fprop_60dad8957fbe284b9d6f2741c4d829d824kernel_get_kernel_recordEv
libcudnn_cnn_infer.so.8:_ZN17cask_plugin_cudnn10xmma_cudnn52implicit_gemm_fprop_60e5eb9682ca2b29b02c6f320c70468924kernel_get_kernel_recordEv
libcudnn_cnn_infer.so.8:_ZN17cask_plugin_cudnn10xmma_cudnn52implicit_gemm_fprop_60efe5404ed7f11568c4e360a615482d24kernel_get_kernel_recordEv
libcudnn_cnn_infer.so.8:_ZN17cask_plugin_cudnn10xmma_cudnn52implicit_gemm_fprop_6165b897035b8842e01cf4ceb738ae5124kernel_get_kernel_recordEv
libcudnn_cnn_infer.so.8:_ZN17cask_plugin_cudnn10xmma_cudnn52implicit_gemm_fprop_61d2f4305d638fe19a2981449acaea5224kernel_get_kernel_recordEv
libcudnn_cnn_infer.so.8:_ZN17cask_plugin_cudnn10xmma_cudnn52implicit_gemm_fprop_620d0195707c322760c434d0f8cee4e924kernel_get_kernel_recordEv
libcudnn_cnn_infer.so.8:_ZN17cask_plugin_cudnn10xmma_cudnn52implicit_gemm_fprop_62d41ad81a32025b698dd24b8d64e3ad24kernel_get_kernel_recordEv
libcudnn_cnn_infer.so.8:_ZN17cask_plugin_cudnn10xmma_cudnn52implicit_gemm_fprop_62f00546b37dec3c8dcd1f959dc142cc24kernel_get_kernel_recordEv
libcudnn_cnn_infer.so.8:_ZN17cask_plugin_cudnn10xmma_cudnn52implicit_gemm_fprop_631ad2d73c5da3c9d17333763908d13924kernel_get_kernel_recordEv
libcudnn_cnn_infer.so.8:_ZN17cask_plugin_cudnn10xmma_cudnn52implicit_gemm_fprop_632fdda4b1c949069ceb60711e3d57f524kernel_get_kernel_recordEv
libcudnn_cnn_infer.so.8:_ZN17cask_plugin_cudnn10xmma_cudnn52implicit_gemm_fprop_633cda4092683a4b33aa3c4ce90bc71f24kernel_get_kernel_recordEv
libcudnn_cnn_infer.so.8:_ZN17cask_plugin_cudnn10xmma_cudnn52implicit_gemm_fprop_633d8fae1d9c0853a53a23d4f4e5fa6724kernel_get_kernel_recordEv
libcudnn_cnn_infer.so.8:_ZN17cask_plugin_cudnn10xmma_cudnn52implicit_gemm_fprop_6350cdc4b90cb645e7a5b92cc3e8ccc524kernel_get_kernel_recordEv
libcudnn_cnn_infer.so.8:_ZN17cask_plugin_cudnn10xmma_cudnn52implicit_gemm_fprop_63dc24b0b4535a1b1b5b4a40ef9ff5ef24kernel_get_kernel_recordEv
libcudnn_cnn_infer.so.8:_ZN17cask_plugin_cudnn10xmma_cudnn52implicit_gemm_fprop_6409ab3157df3b0ddb3a1b8a1a77686024kernel_get_kernel_recordEv
libcudnn_cnn_infer.so.8:_ZN17cask_plugin_cudnn10xmma_cudnn52implicit_gemm_fprop_64471dfd4545078fa4045386e19a14b724kernel_get_kernel_recordEv
libcudnn_cnn_infer.so.8:_ZN17cask_plugin_cudnn10xmma_cudnn52implicit_gemm_fprop_645a5b8a60fa91e6ef3b35542b6ba7da24kernel_get_kernel_recordEv
libcudnn_cnn_infer.so.8:_ZN17cask_plugin_cudnn10xmma_cudnn52implicit_gemm_fprop_64a96784f80b28a4e3a3fe3f5e11374524kernel_get_kernel_recordEv
libcudnn_cnn_infer.so.8:_ZN17cask_plugin_cudnn10xmma_cudnn52implicit_gemm_fprop_64b413800c81a779124e0131d77cad3f24kernel_get_kernel_recordEv
libcudnn_cnn_infer.so.8:_ZN17cask_plugin_cudnn10xmma_cudnn52implicit_gemm_fprop_64c14bb4b2cbbac05aa31d4fc313981a24kernel_get_kernel_recordEv
libcudnn_cnn_infer.so.8:_ZN17cask_plugin_cudnn10xmma_cudnn52implicit_gemm_fprop_64e7fbbbb9b801b319a7a63d99acd5cb24kernel_get_kernel_recordEv
libcudnn_cnn_infer.so.8:_ZN17cask_plugin_cudnn10xmma_cudnn52implicit_gemm_fprop_65150b22f2d61ec09ea3fb4d7bb0acdc24kernel_get_kernel_recordEv
libcudnn_cnn_infer.so.8:_ZN17cask_plugin_cudnn10xmma_cudnn52implicit_gemm_fprop_6524651cb29225d880e52e017151dd3a24kernel_get_kernel_recordEv
libcudnn_cnn_infer.so.8:_ZN17cask_plugin_cudnn10xmma_cudnn52implicit_gemm_fprop_6529ab45e6da36a8f340d32d66aa3abb24kernel_get_kernel_recordEv
libcudnn_cnn_infer.so.8:_ZN17cask_plugin_cudnn10xmma_cudnn52implicit_gemm_fprop_653a2f6a7b439f08102ef4f61576101724kernel_get_kernel_recordEv
libcudnn_cnn_infer.so.8:_ZN17cask_plugin_cudnn10xmma_cudnn52implicit_gemm_fprop_6548cac9d4d7ad45bcf3d82d4c4fc7d624kernel_get_kernel_recordEv
libcudnn_cnn_infer.so.8:_ZN17cask_plugin_cudnn10xmma_cudnn52implicit_gemm_fprop_655871bdf2a19f08aa779e8d03c786a024kernel_get_kernel_recordEv
libcudnn_cnn_infer.so.8:_ZN17cask_plugin_cudnn10xmma_cudnn52implicit_gemm_fprop_6579cc5b3af6bdbe50573b12e6c827cb24kernel_get_kernel_recordEv
libcudnn_cnn_infer.so.8:_ZN17cask_plugin_cudnn10xmma_cudnn52implicit_gemm_fprop_65833b74fe3dc2fb36b759049162aac124kernel_get_kernel_recordEv
libcudnn_cnn_infer.so.8:_ZN17cask_plugin_cudnn10xmma_cudnn52implicit_gemm_fprop_658474788ebf3bdc918744356caba07b24kernel_get_kernel_recordEv
libcudnn_cnn_infer.so.8:_ZN17cask_plugin_cudnn10xmma_cudnn52implicit_gemm_fprop_65d4027cccc12238119b8189121f740324kernel_get_kernel_recordEv
libcudnn_cnn_infer.so.8:_ZN17cask_plugin_cudnn10xmma_cudnn52implicit_gemm_fprop_65d86a3db7ee45fa6cec66a49d630bea24kernel_get_kernel_recordEv
libcudnn_cnn_infer.so.8:_ZN17cask_plugin_cudnn10xmma_cudnn52implicit_gemm_fprop_65df14ed57b0e9b88b81c7697fb4cc0724kernel_get_kernel_recordEv
libcudnn_cnn_infer.so.8:_ZN17cask_plugin_cudnn10xmma_cudnn52implicit_gemm_fprop_65ebbd36c8042f51c000eb22f432706d24kernel_get_kernel_recordEv
libcudnn_cnn_infer.so.8:_ZN17cask_plugin_cudnn10xmma_cudnn52implicit_gemm_fprop_6659e6178b9e2afc32674f91bebb21bb24kernel_get_kernel_recordEv
libcudnn_cnn_infer.so.8:_ZN17cask_plugin_cudnn10xmma_cudnn52implicit_gemm_fprop_66977d9390d2c71bbd3615fa1c34a85024kernel_get_kernel_recordEv
libcudnn_cnn_infer.so.8:_ZN17cask_plugin_cudnn10xmma_cudnn52implicit_gemm_fprop_66c9d7c5313ba26cf9a64ca2cd1e925024kernel_get_kernel_recordEv
libcudnn_cnn_infer.so.8:_ZN17cask_plugin_cudnn10xmma_cudnn52implicit_gemm_fprop_66d505933145cb5545eeca5c16d3cbda24kernel_get_kernel_recordEv
libcudnn_cnn_infer.so.8:_ZN17cask_plugin_cudnn10xmma_cudnn52implicit_gemm_fprop_671d45f414c5d5add2db6166196db93424kernel_get_kernel_recordEv
libcudnn_cnn_infer.so.8:_ZN17cask_plugin_cudnn10xmma_cudnn52implicit_gemm_fprop_672f8d9520e8a5131f17385fe211e5e124kernel_get_kernel_recordEv
libcudnn_cnn_infer.so.8:_ZN17cask_plugin_cudnn10xmma_cudnn52implicit_gemm_fprop_674c91fab7f71db1ca4f98a22ef9ea4824kernel_get_kernel_recordEv
libcudnn_cnn_infer.so.8:_ZN17cask_plugin_cudnn10xmma_cudnn52implicit_gemm_fprop_6751f3bd0d40c7263638d93ed354519724kernel_get_kernel_recordEv
libcudnn_cnn_infer.so.8:_ZN17cask_plugin_cudnn10xmma_cudnn52implicit_gemm_fprop_67e598af3525d8f5ebd2dbb4d6eb9b2824kernel_get_kernel_recordEv
libcudnn_cnn_infer.so.8:_ZN17cask_plugin_cudnn10xmma_cudnn52implicit_gemm_fprop_67ee737e2182a8716746ea007a5a434124kernel_get_kernel_recordEv
libcudnn_cnn_infer.so.8:_ZN17cask_plugin_cudnn10xmma_cudnn52implicit_gemm_fprop_681820734982e1933b95985e40fd16b924kernel_get_kernel_recordEv
libcudnn_cnn_infer.so.8:_ZN17cask_plugin_cudnn10xmma_cudnn52implicit_gemm_fprop_6842cc67032c2c557e4758aa7c1e7a9424kernel_get_kernel_recordEv
libcudnn_cnn_infer.so.8:_ZN17cask_plugin_cudnn10xmma_cudnn52implicit_gemm_fprop_687299b50f77a78e8621f9ee247a74ce24kernel_get_kernel_recordEv
libcudnn_cnn_infer.so.8:_ZN17cask_plugin_cudnn10xmma_cudnn52implicit_gemm_fprop_6874fc7f91d4badac264c2673f5590cf24kernel_get_kernel_recordEv
libcudnn_cnn_infer.so.8:_ZN17cask_plugin_cudnn10xmma_cudnn52implicit_gemm_fprop_68eaaeca91cc77ff94d15455af475eab24kernel_get_kernel_recordEv
libcudnn_cnn_infer.so.8:_ZN17cask_plugin_cudnn10xmma_cudnn52implicit_gemm_fprop_68f4278d9b4002899a6c12ba896c363824kernel_get_kernel_recordEv
libcudnn_cnn_infer.so.8:_ZN17cask_plugin_cudnn10xmma_cudnn52implicit_gemm_fprop_69017dc36b6fa3fdf8439a8a85bfee8824kernel_get_kernel_recordEv
libcudnn_cnn_infer.so.8:_ZN17cask_plugin_cudnn10xmma_cudnn52implicit_gemm_fprop_6913761b88a370d1d583a31851c224b324kernel_get_kernel_recordEv
libcudnn_cnn_infer.so.8:_ZN17cask_plugin_cudnn10xmma_cudnn52implicit_gemm_fprop_6923126b6ccff4dd042ce6005c379b0e24kernel_get_kernel_recordEv
libcudnn_cnn_infer.so.8:_ZN17cask_plugin_cudnn10xmma_cudnn52implicit_gemm_fprop_692d1503367cec0c7d127fba20f894f924kernel_get_kernel_recordEv
libcudnn_cnn_infer.so.8:_ZN17cask_plugin_cudnn10xmma_cudnn52implicit_gemm_fprop_693f973a4436181a8c321a8ba627410524kernel_get_kernel_recordEv
libcudnn_cnn_infer.so.8:_ZN17cask_plugin_cudnn10xmma_cudnn52implicit_gemm_fprop_6982f5f3b20c6de256f638c7a7026b6624kernel_get_kernel_recordEv
libcudnn_cnn_infer.so.8:_ZN17cask_plugin_cudnn10xmma_cudnn52implicit_gemm_fprop_69acc23d116b0ac395fa444a0778ec1324kernel_get_kernel_recordEv
libcudnn_cnn_infer.so.8:_ZN17cask_plugin_cudnn10xmma_cudnn52implicit_gemm_fprop_69cd3520902495d3485b805a5b34ea9424kernel_get_kernel_recordEv
libcudnn_cnn_infer.so.8:_ZN17cask_plugin_cudnn10xmma_cudnn52implicit_gemm_fprop_69fe39e8051de6af5a5710579598f02b24kernel_get_kernel_recordEv
libcudnn_cnn_infer.so.8:_ZN17cask_plugin_cudnn10xmma_cudnn52implicit_gemm_fprop_6a1444411801e3635200dd8f2bba997724kernel_get_kernel_recordEv
libcudnn_cnn_infer.so.8:_ZN17cask_plugin_cudnn10xmma_cudnn52implicit_gemm_fprop_6a3601719557446492561f311571baee24kernel_get_kernel_recordEv
libcudnn_cnn_infer.so.8:_ZN17cask_plugin_cudnn10xmma_cudnn52implicit_gemm_fprop_6a397dd4d1b6342c6b178d83305e07fe24kernel_get_kernel_recordEv
libcudnn_cnn_infer.so.8:_ZN17cask_plugin_cudnn10xmma_cudnn52implicit_gemm_fprop_6a8e34f883fd1d71e35ecb3f33857ca424kernel_get_kernel_recordEv
libcudnn_cnn_infer.so.8:_ZN17cask_plugin_cudnn10xmma_cudnn52implicit_gemm_fprop_6a99c746d3065e670155bff04404d31e24kernel_get_kernel_recordEv
libcudnn_cnn_infer.so.8:_ZN17cask_plugin_cudnn10xmma_cudnn52implicit_gemm_fprop_6b201d57e84c390f8fc715580b1c347c24kernel_get_kernel_recordEv
libcudnn_cnn_infer.so.8:_ZN17cask_plugin_cudnn10xmma_cudnn52implicit_gemm_fprop_6b24ffa26605db03a9f350d8d1f7a8b324kernel_get_kernel_recordEv
libcudnn_cnn_infer.so.8:_ZN17cask_plugin_cudnn10xmma_cudnn52implicit_gemm_fprop_6b28065b2e23691f095cc257a00626fd24kernel_get_kernel_recordEv
libcudnn_cnn_infer.so.8:_ZN17cask_plugin_cudnn10xmma_cudnn52implicit_gemm_fprop_6b3550e85d5789104ca5b8cea47b659c24kernel_get_kernel_recordEv
libcudnn_cnn_infer.so.8:_ZN17cask_plugin_cudnn10xmma_cudnn52implicit_gemm_fprop_6b7ddbdd403c17955fa86cdd6ee1280b24kernel_get_kernel_recordEv
libcudnn_cnn_infer.so.8:_ZN17cask_plugin_cudnn10xmma_cudnn52implicit_gemm_fprop_6b81b2b3a331c3942659e341f87ddf6924kernel_get_kernel_recordEv
libcudnn_cnn_infer.so.8:_ZN17cask_plugin_cudnn10xmma_cudnn52implicit_gemm_fprop_6bf2c2daf4bf175e20e92a044028f64d24kernel_get_kernel_recordEv
libcudnn_cnn_infer.so.8:_ZN17cask_plugin_cudnn10xmma_cudnn52implicit_gemm_fprop_6c06c21281445bc6c747d2ed66e8687f24kernel_get_kernel_recordEv
libcudnn_cnn_infer.so.8:_ZN17cask_plugin_cudnn10xmma_cudnn52implicit_gemm_fprop_6c2211daea817c2ba45cd9167c06f67e24kernel_get_kernel_recordEv
libcudnn_cnn_infer.so.8:_ZN17cask_plugin_cudnn10xmma_cudnn52implicit_gemm_fprop_6c3bc04e6033c7ba3b1d1e886482dc2124kernel_get_kernel_recordEv
libcudnn_cnn_infer.so.8:_ZN17cask_plugin_cudnn10xmma_cudnn52implicit_gemm_fprop_6c5b834fafe87ca2b705d58e7c20eec524kernel_get_kernel_recordEv
libcudnn_cnn_infer.so.8:_ZN17cask_plugin_cudnn10xmma_cudnn52implicit_gemm_fprop_6c82be961d3afe85e68c39888b1c6e3824kernel_get_kernel_recordEv
libcudnn_cnn_infer.so.8:_ZN17cask_plugin_cudnn10xmma_cudnn52implicit_gemm_fprop_6d96479d2478a6c0e68fe2ada048a32524kernel_get_kernel_recordEv
libcudnn_cnn_infer.so.8:_ZN17cask_plugin_cudnn10xmma_cudnn52implicit_gemm_fprop_6e1d464a496af40e567a02b083a55d5024kernel_get_kernel_recordEv
libcudnn_cnn_infer.so.8:_ZN17cask_plugin_cudnn10xmma_cudnn52implicit_gemm_fprop_6e4fa2baa5c3b230c07f3b9c863e6ca824kernel_get_kernel_recordEv
libcudnn_cnn_infer.so.8:_ZN17cask_plugin_cudnn10xmma_cudnn52implicit_gemm_fprop_6e80826aa28fa7ef28f6ec125125ff8524kernel_get_kernel_recordEv
libcudnn_cnn_infer.so.8:_ZN17cask_plugin_cudnn10xmma_cudnn52implicit_gemm_fprop_6e86f511fc0515a4450d2f6696972b7524kernel_get_kernel_recordEv
libcudnn_cnn_infer.so.8:_ZN17cask_plugin_cudnn10xmma_cudnn52implicit_gemm_fprop_6ea5af7bbae8e36189c19967e9cb6a2224kernel_get_kernel_recordEv
libcudnn_cnn_infer.so.8:_ZN17cask_plugin_cudnn10xmma_cudnn52implicit_gemm_fprop_6eadc37cd470a6a6f669634965a34cd524kernel_get_kernel_recordEv
libcudnn_cnn_infer.so.8:_ZN17cask_plugin_cudnn10xmma_cudnn52implicit_gemm_fprop_6ec646d3cf2f4df7888e49efdf2b567224kernel_get_kernel_recordEv
libcudnn_cnn_infer.so.8:_ZN17cask_plugin_cudnn10xmma_cudnn52implicit_gemm_fprop_6f19be1cd68220be02c5538f53f4935224kernel_get_kernel_recordEv
libcudnn_cnn_infer.so.8:_ZN17cask_plugin_cudnn10xmma_cudnn52implicit_gemm_fprop_6f3d5b5478a5529baee6c904f53231f324kernel_get_kernel_recordEv
libcudnn_cnn_infer.so.8:_ZN17cask_plugin_cudnn10xmma_cudnn52implicit_gemm_fprop_6f431fcbb6b28ea05655c52aba8d614424kernel_get_kernel_recordEv
libcudnn_cnn_infer.so.8:_ZN17cask_plugin_cudnn10xmma_cudnn52implicit_gemm_fprop_6f700378d70cbd8801d8839e5a7679ba24kernel_get_kernel_recordEv
libcudnn_cnn_infer.so.8:_ZN17cask_plugin_cudnn10xmma_cudnn52implicit_gemm_fprop_6f83194eb216311f6f2b4a1d14eb3bf124kernel_get_kernel_recordEv
libcudnn_cnn_infer.so.8:_ZN17cask_plugin_cudnn10xmma_cudnn52implicit_gemm_fprop_6f8e477442dd3d59b7db7edebbc0bcdc24kernel_get_kernel_recordEv
libcudnn_cnn_infer.so.8:_ZN17cask_plugin_cudnn10xmma_cudnn52implicit_gemm_fprop_6fca8d056cb2446f43e1998adc19500924kernel_get_kernel_recordEv
libcudnn_cnn_infer.so.8:_ZN17cask_plugin_cudnn10xmma_cudnn52implicit_gemm_fprop_6fd1446d6d512fa7d24f663b211e304f24kernel_get_kernel_recordEv
libcudnn_cnn_infer.so.8:_ZN17cask_plugin_cudnn10xmma_cudnn52implicit_gemm_fprop_6fd48d742551d316a228f9ab1033bc0724kernel_get_kernel_recordEv
libcudnn_cnn_infer.so.8:_ZN17cask_plugin_cudnn10xmma_cudnn52implicit_gemm_fprop_6fd8609e928f39c0b28473d2a2d8f77724kernel_get_kernel_recordEv
libcudnn_cnn_infer.so.8:_ZN17cask_plugin_cudnn10xmma_cudnn52implicit_gemm_fprop_6fef83e6ce38faec846368db71b04d3524kernel_get_kernel_recordEv
libcudnn_cnn_infer.so.8:_ZN17cask_plugin_cudnn10xmma_cudnn52implicit_gemm_fprop_7001d9ca9defa77dad453aa06412bba624kernel_get_kernel_recordEv
libcudnn_cnn_infer.so.8:_ZN17cask_plugin_cudnn10xmma_cudnn52implicit_gemm_fprop_70023ce96dac178083482042fcedfdf524kernel_get_kernel_recordEv
libcudnn_cnn_infer.so.8:_ZN17cask_plugin_cudnn10xmma_cudnn52implicit_gemm_fprop_700469a319e4881570d08e48c4c0d42624kernel_get_kernel_recordEv
libcudnn_cnn_infer.so.8:_ZN17cask_plugin_cudnn10xmma_cudnn52implicit_gemm_fprop_703543aa9dfdc7c746539adb66c8eb8924kernel_get_kernel_recordEv
libcudnn_cnn_infer.so.8:_ZN17cask_plugin_cudnn10xmma_cudnn52implicit_gemm_fprop_70b683a92bde597812328614f0b0b8d924kernel_get_kernel_recordEv
libcudnn_cnn_infer.so.8:_ZN17cask_plugin_cudnn10xmma_cudnn52implicit_gemm_fprop_70ecffcda6028581842f2397202d450d24kernel_get_kernel_recordEv
libcudnn_cnn_infer.so.8:_ZN17cask_plugin_cudnn10xmma_cudnn52implicit_gemm_fprop_713f5030bca7bb86520c7fa12e0a89ee24kernel_get_kernel_recordEv
libcudnn_cnn_infer.so.8:_ZN17cask_plugin_cudnn10xmma_cudnn52implicit_gemm_fprop_7146d24bdab670a138a5d463e993e1b724kernel_get_kernel_recordEv
libcudnn_cnn_infer.so.8:_ZN17cask_plugin_cudnn10xmma_cudnn52implicit_gemm_fprop_7176462206b33c997a3b715308d0c1b924kernel_get_kernel_recordEv
libcudnn_cnn_infer.so.8:_ZN17cask_plugin_cudnn10xmma_cudnn52implicit_gemm_fprop_71a763a77ebb6374ef2f4d908f90ed2a24kernel_get_kernel_recordEv
libcudnn_cnn_infer.so.8:_ZN17cask_plugin_cudnn10xmma_cudnn52implicit_gemm_fprop_71e05caac3b16b5e9a9a0184f626a06c24kernel_get_kernel_recordEv
libcudnn_cnn_infer.so.8:_ZN17cask_plugin_cudnn10xmma_cudnn52implicit_gemm_fprop_72221fbf5d0964a1b5b879db66a84a9324kernel_get_kernel_recordEv
libcudnn_cnn_infer.so.8:_ZN17cask_plugin_cudnn10xmma_cudnn52implicit_gemm_fprop_7239c1e7c205ad76e9089d48f9c2c46f24kernel_get_kernel_recordEv
libcudnn_cnn_infer.so.8:_ZN17cask_plugin_cudnn10xmma_cudnn52implicit_gemm_fprop_7250599eb0d4ef23b15fbeb692e3abf124kernel_get_kernel_recordEv
libcudnn_cnn_infer.so.8:_ZN17cask_plugin_cudnn10xmma_cudnn52implicit_gemm_fprop_7255588e6329de6b49ac09db7a87fbd324kernel_get_kernel_recordEv
libcudnn_cnn_infer.so.8:_ZN17cask_plugin_cudnn10xmma_cudnn52implicit_gemm_fprop_7353c5789369fa7d74f1bf226b6857dd24kernel_get_kernel_recordEv
libcudnn_cnn_infer.so.8:_ZN17cask_plugin_cudnn10xmma_cudnn52implicit_gemm_fprop_73877428fb5807937058f9a254fce6db24kernel_get_kernel_recordEv
libcudnn_cnn_infer.so.8:_ZN17cask_plugin_cudnn10xmma_cudnn52implicit_gemm_fprop_7393a0bda04faa1183ca4a68a18b686724kernel_get_kernel_recordEv
libcudnn_cnn_infer.so.8:_ZN17cask_plugin_cudnn10xmma_cudnn52implicit_gemm_fprop_74009950d032fb0a2f66271891fea94d24kernel_get_kernel_recordEv
libcudnn_cnn_infer.so.8:_ZN17cask_plugin_cudnn10xmma_cudnn52implicit_gemm_fprop_74112d988aee3ca4f57b7e8896c1dcd524kernel_get_kernel_recordEv
libcudnn_cnn_infer.so.8:_ZN17cask_plugin_cudnn10xmma_cudnn52implicit_gemm_fprop_7444ce4690dfd046eaa3937200e4fd8924kernel_get_kernel_recordEv
libcudnn_cnn_infer.so.8:_ZN17cask_plugin_cudnn10xmma_cudnn52implicit_gemm_fprop_7463067cc5574abb1f2173aeb6f200d124kernel_get_kernel_recordEv
libcudnn_cnn_infer.so.8:_ZN17cask_plugin_cudnn10xmma_cudnn52implicit_gemm_fprop_748ce3c2f24fe6eb745e223abdd4cdb624kernel_get_kernel_recordEv
libcudnn_cnn_infer.so.8:_ZN17cask_plugin_cudnn10xmma_cudnn52implicit_gemm_fprop_7494cfd5bfac03600d680223e609259b24kernel_get_kernel_recordEv
libcudnn_cnn_infer.so.8:_ZN17cask_plugin_cudnn10xmma_cudnn52implicit_gemm_fprop_74cb0c25f19d9a6db7a89034871b353b24kernel_get_kernel_recordEv
libcudnn_cnn_infer.so.8:_ZN17cask_plugin_cudnn10xmma_cudnn52implicit_gemm_fprop_750299bef72d88cb924b175a53c88cd524kernel_get_kernel_recordEv
libcudnn_cnn_infer.so.8:_ZN17cask_plugin_cudnn10xmma_cudnn52implicit_gemm_fprop_7568e0d265da9245c7478395b7dfd08d24kernel_get_kernel_recordEv
libcudnn_cnn_infer.so.8:_ZN17cask_plugin_cudnn10xmma_cudnn52implicit_gemm_fprop_75e44666047f68a0ef01eaab2e89e64124kernel_get_kernel_recordEv
libcudnn_cnn_infer.so.8:_ZN17cask_plugin_cudnn10xmma_cudnn52implicit_gemm_fprop_764555b8b4a40bb50e7af22ee584b9d624kernel_get_kernel_recordEv
libcudnn_cnn_infer.so.8:_ZN17cask_plugin_cudnn10xmma_cudnn52implicit_gemm_fprop_767175c3f9842ae7535fcd7abb04d6b624kernel_get_kernel_recordEv
libcudnn_cnn_infer.so.8:_ZN17cask_plugin_cudnn10xmma_cudnn52implicit_gemm_fprop_76798186ab4f46c0ae1dd1a743d5e80024kernel_get_kernel_recordEv
libcudnn_cnn_infer.so.8:_ZN17cask_plugin_cudnn10xmma_cudnn52implicit_gemm_fprop_767c139e9960bb72bb0dfef8b114ab2224kernel_get_kernel_recordEv
libcudnn_cnn_infer.so.8:_ZN17cask_plugin_cudnn10xmma_cudnn52implicit_gemm_fprop_7747cf2d4ec04471f1965853ebe588da24kernel_get_kernel_recordEv
libcudnn_cnn_infer.so.8:_ZN17cask_plugin_cudnn10xmma_cudnn52implicit_gemm_fprop_775044063cecfc1cdf565849082485dc24kernel_get_kernel_recordEv
libcudnn_cnn_infer.so.8:_ZN17cask_plugin_cudnn10xmma_cudnn52implicit_gemm_fprop_77634b1e9913cbb7f8cd3085d09f955624kernel_get_kernel_recordEv
libcudnn_cnn_infer.so.8:_ZN17cask_plugin_cudnn10xmma_cudnn52implicit_gemm_fprop_77c4b8c51ed6419ea5b318172649526524kernel_get_kernel_recordEv
libcudnn_cnn_infer.so.8:_ZN17cask_plugin_cudnn10xmma_cudnn52implicit_gemm_fprop_77cbcb9afb5afc44332cae4fe22501b224kernel_get_kernel_recordEv
libcudnn_cnn_infer.so.8:_ZN17cask_plugin_cudnn10xmma_cudnn52implicit_gemm_fprop_77ce395cac751d18bfc0323f6dd6778b24kernel_get_kernel_recordEv
libcudnn_cnn_infer.so.8:_ZN17cask_plugin_cudnn10xmma_cudnn52implicit_gemm_fprop_77e62671ec9195903c16eb1eed506bbe24kernel_get_kernel_recordEv
libcudnn_cnn_infer.so.8:_ZN17cask_plugin_cudnn10xmma_cudnn52implicit_gemm_fprop_78409c637f02bfd9d37f014fee49527624kernel_get_kernel_recordEv
libcudnn_cnn_infer.so.8:_ZN17cask_plugin_cudnn10xmma_cudnn52implicit_gemm_fprop_7846adacdaaa7f6b912ee77e554f5fdd24kernel_get_kernel_recordEv
libcudnn_cnn_infer.so.8:_ZN17cask_plugin_cudnn10xmma_cudnn52implicit_gemm_fprop_785de8712731350df5ee34f97a3b6c5224kernel_get_kernel_recordEv
libcudnn_cnn_infer.so.8:_ZN17cask_plugin_cudnn10xmma_cudnn52implicit_gemm_fprop_78764e16f529506aa112d2e454c01c4124kernel_get_kernel_recordEv
libcudnn_cnn_infer.so.8:_ZN17cask_plugin_cudnn10xmma_cudnn52implicit_gemm_fprop_787ce5adfd65f759c44158f3afa18c9d24kernel_get_kernel_recordEv
libcudnn_cnn_infer.so.8:_ZN17cask_plugin_cudnn10xmma_cudnn52implicit_gemm_fprop_787db4e67a55eef40bbf2863bc26e41124kernel_get_kernel_recordEv
libcudnn_cnn_infer.so.8:_ZN17cask_plugin_cudnn10xmma_cudnn52implicit_gemm_fprop_78bb1955d9060644813823d6ae72e31924kernel_get_kernel_recordEv
libcudnn_cnn_infer.so.8:_ZN17cask_plugin_cudnn10xmma_cudnn52implicit_gemm_fprop_793c7fd06966737c9373a469439a5c1324kernel_get_kernel_recordEv
libcudnn_cnn_infer.so.8:_ZN17cask_plugin_cudnn10xmma_cudnn52implicit_gemm_fprop_794fd78443c4be7510e98bfdfdaea7f224kernel_get_kernel_recordEv
libcudnn_cnn_infer.so.8:_ZN17cask_plugin_cudnn10xmma_cudnn52implicit_gemm_fprop_79664a1e5fd8891ea51d7862f24ac3f024kernel_get_kernel_recordEv
libcudnn_cnn_infer.so.8:_ZN17cask_plugin_cudnn10xmma_cudnn52implicit_gemm_fprop_796f75567b3cdf7f4b30a74c165f8c4924kernel_get_kernel_recordEv
libcudnn_cnn_infer.so.8:_ZN17cask_plugin_cudnn10xmma_cudnn52implicit_gemm_fprop_799755de94f07c6849e46e9c85db0e2c24kernel_get_kernel_recordEv
libcudnn_cnn_infer.so.8:_ZN17cask_plugin_cudnn10xmma_cudnn52implicit_gemm_fprop_79979c05eb6482472e30d66162dea0bb24kernel_get_kernel_recordEv
libcudnn_cnn_infer.so.8:_ZN17cask_plugin_cudnn10xmma_cudnn52implicit_gemm_fprop_7998dbc70d6d966c3ea2b1347ab0f7be24kernel_get_kernel_recordEv
libcudnn_cnn_infer.so.8:_ZN17cask_plugin_cudnn10xmma_cudnn52implicit_gemm_fprop_79a1d6dfc1ce73b3eb9ec264f43ff30c24kernel_get_kernel_recordEv
libcudnn_cnn_infer.so.8:_ZN17cask_plugin_cudnn10xmma_cudnn52implicit_gemm_fprop_79b9cd1246505e8ef4c59d873da8677624kernel_get_kernel_recordEv
libcudnn_cnn_infer.so.8:_ZN17cask_plugin_cudnn10xmma_cudnn52implicit_gemm_fprop_79c75125b42de7dbc43dd50af66832df24kernel_get_kernel_recordEv
libcudnn_cnn_infer.so.8:_ZN17cask_plugin_cudnn10xmma_cudnn52implicit_gemm_fprop_79e589fc82a7bece3021007be06c6ab824kernel_get_kernel_recordEv
libcudnn_cnn_infer.so.8:_ZN17cask_plugin_cudnn10xmma_cudnn52implicit_gemm_fprop_7a539b1b6444b536427911cc7101605a24kernel_get_kernel_recordEv
libcudnn_cnn_infer.so.8:_ZN17cask_plugin_cudnn10xmma_cudnn52implicit_gemm_fprop_7acaf8b688b347c6ba543be1754e320924kernel_get_kernel_recordEv
libcudnn_cnn_infer.so.8:_ZN17cask_plugin_cudnn10xmma_cudnn52implicit_gemm_fprop_7ad3deb4427fba6b6a8bb852084df68f24kernel_get_kernel_recordEv
libcudnn_cnn_infer.so.8:_ZN17cask_plugin_cudnn10xmma_cudnn52implicit_gemm_fprop_7aecd792085a653d43ea4dae72084eb024kernel_get_kernel_recordEv
libcudnn_cnn_infer.so.8:_ZN17cask_plugin_cudnn10xmma_cudnn52implicit_gemm_fprop_7ba6cbf4d5aec0fc9559b05f4201406124kernel_get_kernel_recordEv
libcudnn_cnn_infer.so.8:_ZN17cask_plugin_cudnn10xmma_cudnn52implicit_gemm_fprop_7c047b12e6fbfd91b29e2cf4e89572db24kernel_get_kernel_recordEv
libcudnn_cnn_infer.so.8:_ZN17cask_plugin_cudnn10xmma_cudnn52implicit_gemm_fprop_7c48d421a927c90535d9ce98b4b6eec624kernel_get_kernel_recordEv
libcudnn_cnn_infer.so.8:_ZN17cask_plugin_cudnn10xmma_cudnn52implicit_gemm_fprop_7c6c050a7b2eeaab2dadf1ec643b6c2424kernel_get_kernel_recordEv
libcudnn_cnn_infer.so.8:_ZN17cask_plugin_cudnn10xmma_cudnn52implicit_gemm_fprop_7c8aa1b998ff6ff0d13753a06fc58f2d24kernel_get_kernel_recordEv
libcudnn_cnn_infer.so.8:_ZN17cask_plugin_cudnn10xmma_cudnn52implicit_gemm_fprop_7cd5ad50a902e1d3e11b0056b5bd88fa24kernel_get_kernel_recordEv
libcudnn_cnn_infer.so.8:_ZN17cask_plugin_cudnn10xmma_cudnn52implicit_gemm_fprop_7d05b6afb485918e8c31051a7bb65d7824kernel_get_kernel_recordEv
libcudnn_cnn_infer.so.8:_ZN17cask_plugin_cudnn10xmma_cudnn52implicit_gemm_fprop_7d10aad3ff19aba77164ee75dabf73cf24kernel_get_kernel_recordEv
libcudnn_cnn_infer.so.8:_ZN17cask_plugin_cudnn10xmma_cudnn52implicit_gemm_fprop_7d282118e9d34ae49b8f88ec0225a68724kernel_get_kernel_recordEv
libcudnn_cnn_infer.so.8:_ZN17cask_plugin_cudnn10xmma_cudnn52implicit_gemm_fprop_7d55ef47723c552bc9f091a81a3e16d524kernel_get_kernel_recordEv
libcudnn_cnn_infer.so.8:_ZN17cask_plugin_cudnn10xmma_cudnn52implicit_gemm_fprop_7d5c2b1286e9786d9a7f38bdf95cf4f224kernel_get_kernel_recordEv
libcudnn_cnn_infer.so.8:_ZN17cask_plugin_cudnn10xmma_cudnn52implicit_gemm_fprop_7d5c93590a5484e135a581be470fd5bb24kernel_get_kernel_recordEv
libcudnn_cnn_infer.so.8:_ZN17cask_plugin_cudnn10xmma_cudnn52implicit_gemm_fprop_7d6534234572e2ead43ff554ff0e42a024kernel_get_kernel_recordEv
libcudnn_cnn_infer.so.8:_ZN17cask_plugin_cudnn10xmma_cudnn52implicit_gemm_fprop_7e0565e08f5e72abc0085c74e6bee3c324kernel_get_kernel_recordEv
libcudnn_cnn_infer.so.8:_ZN17cask_plugin_cudnn10xmma_cudnn52implicit_gemm_fprop_7e0a31df666349bfe8770ec008c8e00b24kernel_get_kernel_recordEv
libcudnn_cnn_infer.so.8:_ZN17cask_plugin_cudnn10xmma_cudnn52implicit_gemm_fprop_7e4ee538a6619bf9c9919095b25d085e24kernel_get_kernel_recordEv
libcudnn_cnn_infer.so.8:_ZN17cask_plugin_cudnn10xmma_cudnn52implicit_gemm_fprop_7e6ce49c8fa4913fc664f827353a894824kernel_get_kernel_recordEv
libcudnn_cnn_infer.so.8:_ZN17cask_plugin_cudnn10xmma_cudnn52implicit_gemm_fprop_7ea2df823061688d5f9ba0ed45804c0724kernel_get_kernel_recordEv
libcudnn_cnn_infer.so.8:_ZN17cask_plugin_cudnn10xmma_cudnn52implicit_gemm_fprop_7eca152eb695928d3d4b003aec5a5dc324kernel_get_kernel_recordEv
libcudnn_cnn_infer.so.8:_ZN17cask_plugin_cudnn10xmma_cudnn52implicit_gemm_fprop_7edd2e98bf6b8b5e50e2c32d878f6f0d24kernel_get_kernel_recordEv
libcudnn_cnn_infer.so.8:_ZN17cask_plugin_cudnn10xmma_cudnn52implicit_gemm_fprop_7f25b6f45823fba964508560372d7a0624kernel_get_kernel_recordEv
libcudnn_cnn_infer.so.8:_ZN17cask_plugin_cudnn10xmma_cudnn52implicit_gemm_fprop_7f288a60039e5896abbd0a8e81e5fbee24kernel_get_kernel_recordEv
libcudnn_cnn_infer.so.8:_ZN17cask_plugin_cudnn10xmma_cudnn52implicit_gemm_fprop_7f6408313aa2dd5e16fc844a10c6796d24kernel_get_kernel_recordEv
libcudnn_cnn_infer.so.8:_ZN17cask_plugin_cudnn10xmma_cudnn52implicit_gemm_fprop_7f98a1696a326b882b7a38b29e0b4b9d24kernel_get_kernel_recordEv
libcudnn_cnn_infer.so.8:_ZN17cask_plugin_cudnn10xmma_cudnn52implicit_gemm_fprop_7fa3332f7090fd051b8de4ee34d282c624kernel_get_kernel_recordEv
libcudnn_cnn_infer.so.8:_ZN17cask_plugin_cudnn10xmma_cudnn52implicit_gemm_fprop_7fa8cf6fa219bc9c06ea636fd06062b824kernel_get_kernel_recordEv
libcudnn_cnn_infer.so.8:_ZN17cask_plugin_cudnn10xmma_cudnn52implicit_gemm_fprop_7fbb451c6e163b97cfe48e43f408519424kernel_get_kernel_recordEv
libcudnn_cnn_infer.so.8:_ZN17cask_plugin_cudnn10xmma_cudnn52implicit_gemm_fprop_7fd46065bb05d2ccfc9d0a081d4e1f7a24kernel_get_kernel_recordEv
libcudnn_cnn_infer.so.8:_ZN17cask_plugin_cudnn10xmma_cudnn52implicit_gemm_fprop_804dd8c93f37df10945a36a3417d8df824kernel_get_kernel_recordEv
libcudnn_cnn_infer.so.8:_ZN17cask_plugin_cudnn10xmma_cudnn52implicit_gemm_fprop_8096568c3fd651ae21d4f7bb0ee0fc5324kernel_get_kernel_recordEv
libcudnn_cnn_infer.so.8:_ZN17cask_plugin_cudnn10xmma_cudnn52implicit_gemm_fprop_8099362ba211a075848eeb9fe6b18ba824kernel_get_kernel_recordEv
libcudnn_cnn_infer.so.8:_ZN17cask_plugin_cudnn10xmma_cudnn52implicit_gemm_fprop_80a211333118fbd0d7891a5443d1aad224kernel_get_kernel_recordEv
libcudnn_cnn_infer.so.8:_ZN17cask_plugin_cudnn10xmma_cudnn52implicit_gemm_fprop_80ab82b01c5f92d27168285d2ba67d4c24kernel_get_kernel_recordEv
libcudnn_cnn_infer.so.8:_ZN17cask_plugin_cudnn10xmma_cudnn52implicit_gemm_fprop_80fc17acb73dc366c6f36a50f44d489024kernel_get_kernel_recordEv
libcudnn_cnn_infer.so.8:_ZN17cask_plugin_cudnn10xmma_cudnn52implicit_gemm_fprop_8133a312fd8e771d44ef9607f91bb51a24kernel_get_kernel_recordEv
libcudnn_cnn_infer.so.8:_ZN17cask_plugin_cudnn10xmma_cudnn52implicit_gemm_fprop_81397656195f446ff1b9c835f3b6bb5924kernel_get_kernel_recordEv
libcudnn_cnn_infer.so.8:_ZN17cask_plugin_cudnn10xmma_cudnn52implicit_gemm_fprop_816a201ba9219da9d4674dff852f663024kernel_get_kernel_recordEv
libcudnn_cnn_infer.so.8:_ZN17cask_plugin_cudnn10xmma_cudnn52implicit_gemm_fprop_81a7baea83b8b5b2aec6c8d07a66036a24kernel_get_kernel_recordEv
libcudnn_cnn_infer.so.8:_ZN17cask_plugin_cudnn10xmma_cudnn52implicit_gemm_fprop_81acab766f9e95a8d33982faacbad1fd24kernel_get_kernel_recordEv
libcudnn_cnn_infer.so.8:_ZN17cask_plugin_cudnn10xmma_cudnn52implicit_gemm_fprop_81d93395d392805c852e71e57eed224f24kernel_get_kernel_recordEv
libcudnn_cnn_infer.so.8:_ZN17cask_plugin_cudnn10xmma_cudnn52implicit_gemm_fprop_822d225340afaf25d033553de07e2b8f24kernel_get_kernel_recordEv
libcudnn_cnn_infer.so.8:_ZN17cask_plugin_cudnn10xmma_cudnn52implicit_gemm_fprop_82592d24c61d9c6366132d699b8338f224kernel_get_kernel_recordEv
libcudnn_cnn_infer.so.8:_ZN17cask_plugin_cudnn10xmma_cudnn52implicit_gemm_fprop_825ead8430c20419fcb8a81e6410936124kernel_get_kernel_recordEv
libcudnn_cnn_infer.so.8:_ZN17cask_plugin_cudnn10xmma_cudnn52implicit_gemm_fprop_829d957196e8fb93b2d61af8534cef8724kernel_get_kernel_recordEv
libcudnn_cnn_infer.so.8:_ZN17cask_plugin_cudnn10xmma_cudnn52implicit_gemm_fprop_82ab06cb36228bafdb9bdd5d0d3146d124kernel_get_kernel_recordEv
libcudnn_cnn_infer.so.8:_ZN17cask_plugin_cudnn10xmma_cudnn52implicit_gemm_fprop_838b343b0af068ea835c210f14e1bd0724kernel_get_kernel_recordEv
libcudnn_cnn_infer.so.8:_ZN17cask_plugin_cudnn10xmma_cudnn52implicit_gemm_fprop_83c28024edc6aaccb285e4b876729b8e24kernel_get_kernel_recordEv
libcudnn_cnn_infer.so.8:_ZN17cask_plugin_cudnn10xmma_cudnn52implicit_gemm_fprop_83d68bd447d161f909b5be33cec8fac624kernel_get_kernel_recordEv
libcudnn_cnn_infer.so.8:_ZN17cask_plugin_cudnn10xmma_cudnn52implicit_gemm_fprop_8418e0992c450213d20dab3090a55d0424kernel_get_kernel_recordEv
libcudnn_cnn_infer.so.8:_ZN17cask_plugin_cudnn10xmma_cudnn52implicit_gemm_fprop_8420ac53a66901d451a6a256ce2c9f6924kernel_get_kernel_recordEv
libcudnn_cnn_infer.so.8:_ZN17cask_plugin_cudnn10xmma_cudnn52implicit_gemm_fprop_844d27c7ebc10be7e4b649dc48e1f6f824kernel_get_kernel_recordEv
libcudnn_cnn_infer.so.8:_ZN17cask_plugin_cudnn10xmma_cudnn52implicit_gemm_fprop_846a954fdfeac8a75149d554463fdb5724kernel_get_kernel_recordEv
libcudnn_cnn_infer.so.8:_ZN17cask_plugin_cudnn10xmma_cudnn52implicit_gemm_fprop_84729e853da1ccbc8cbfad8c71bcbb5c24kernel_get_kernel_recordEv
libcudnn_cnn_infer.so.8:_ZN17cask_plugin_cudnn10xmma_cudnn52implicit_gemm_fprop_84ecbb6e36dc77b5afc8e813170cecbd24kernel_get_kernel_recordEv
libcudnn_cnn_infer.so.8:_ZN17cask_plugin_cudnn10xmma_cudnn52implicit_gemm_fprop_850df4075b3a6ae89b51b0063c814c6924kernel_get_kernel_recordEv
libcudnn_cnn_infer.so.8:_ZN17cask_plugin_cudnn10xmma_cudnn52implicit_gemm_fprop_852ac8066ae45d864f35886b09136ec224kernel_get_kernel_recordEv
libcudnn_cnn_infer.so.8:_ZN17cask_plugin_cudnn10xmma_cudnn52implicit_gemm_fprop_858a9409fa8901bd8e953957681881c124kernel_get_kernel_recordEv
libcudnn_cnn_infer.so.8:_ZN17cask_plugin_cudnn10xmma_cudnn52implicit_gemm_fprop_859f2b4e458c7796228a2f3fd4e8fb4924kernel_get_kernel_recordEv
libcudnn_cnn_infer.so.8:_ZN17cask_plugin_cudnn10xmma_cudnn52implicit_gemm_fprop_85dd3759575ef6bf30b5910538fcb63224kernel_get_kernel_recordEv
libcudnn_cnn_infer.so.8:_ZN17cask_plugin_cudnn10xmma_cudnn52implicit_gemm_fprop_86498c89f52bb41386880e756eda5c8824kernel_get_kernel_recordEv
libcudnn_cnn_infer.so.8:_ZN17cask_plugin_cudnn10xmma_cudnn52implicit_gemm_fprop_869d3a5ac787bceaedc3ae59805cd6c724kernel_get_kernel_recordEv
libcudnn_cnn_infer.so.8:_ZN17cask_plugin_cudnn10xmma_cudnn52implicit_gemm_fprop_86ba640b5758896e7dbbedf32e2c2d6f24kernel_get_kernel_recordEv
libcudnn_cnn_infer.so.8:_ZN17cask_plugin_cudnn10xmma_cudnn52implicit_gemm_fprop_86d56865f54afa46e9d14ae97ce0082a24kernel_get_kernel_recordEv
libcudnn_cnn_infer.so.8:_ZN17cask_plugin_cudnn10xmma_cudnn52implicit_gemm_fprop_86f19bcf776c6a19570a86852204642724kernel_get_kernel_recordEv
libcudnn_cnn_infer.so.8:_ZN17cask_plugin_cudnn10xmma_cudnn52implicit_gemm_fprop_8715db86e0093527992f2278764aa34e24kernel_get_kernel_recordEv
libcudnn_cnn_infer.so.8:_ZN17cask_plugin_cudnn10xmma_cudnn52implicit_gemm_fprop_87c10990b532cb2b2d6e018326de2abf24kernel_get_kernel_recordEv
libcudnn_cnn_infer.so.8:_ZN17cask_plugin_cudnn10xmma_cudnn52implicit_gemm_fprop_87d474e5bce2b0cf2806c726f9fa2ebe24kernel_get_kernel_recordEv
libcudnn_cnn_infer.so.8:_ZN17cask_plugin_cudnn10xmma_cudnn52implicit_gemm_fprop_88037172cb98d8dfe8597e3892a3d1ce24kernel_get_kernel_recordEv
libcudnn_cnn_infer.so.8:_ZN17cask_plugin_cudnn10xmma_cudnn52implicit_gemm_fprop_8859bbd02fa0fd69ed61b6c163b8c14c24kernel_get_kernel_recordEv
libcudnn_cnn_infer.so.8:_ZN17cask_plugin_cudnn10xmma_cudnn52implicit_gemm_fprop_886c8c8df142533133a17bb1973cde4f24kernel_get_kernel_recordEv
libcudnn_cnn_infer.so.8:_ZN17cask_plugin_cudnn10xmma_cudnn52implicit_gemm_fprop_88eab3fdf40a013fd501307a70a8617624kernel_get_kernel_recordEv
libcudnn_cnn_infer.so.8:_ZN17cask_plugin_cudnn10xmma_cudnn52implicit_gemm_fprop_88f4ed1f885bfefd607fd7741dbf877a24kernel_get_kernel_recordEv
libcudnn_cnn_infer.so.8:_ZN17cask_plugin_cudnn10xmma_cudnn52implicit_gemm_fprop_890260fba08b9a0d1e676f556ff9cf8324kernel_get_kernel_recordEv
libcudnn_cnn_infer.so.8:_ZN17cask_plugin_cudnn10xmma_cudnn52implicit_gemm_fprop_8911be8fa158aa6441717de4b26e1e7824kernel_get_kernel_recordEv
libcudnn_cnn_infer.so.8:_ZN17cask_plugin_cudnn10xmma_cudnn52implicit_gemm_fprop_892418ec1822cfc048be431d874d983e24kernel_get_kernel_recordEv
libcudnn_cnn_infer.so.8:_ZN17cask_plugin_cudnn10xmma_cudnn52implicit_gemm_fprop_8983f8ab0ccaa542b719e501b9e4715c24kernel_get_kernel_recordEv
libcudnn_cnn_infer.so.8:_ZN17cask_plugin_cudnn10xmma_cudnn52implicit_gemm_fprop_89d0a08288f85ddf5261e78d51fc3ece24kernel_get_kernel_recordEv
libcudnn_cnn_infer.so.8:_ZN17cask_plugin_cudnn10xmma_cudnn52implicit_gemm_fprop_89d463f92f1aa58acdb4c23804ae7e4924kernel_get_kernel_recordEv
libcudnn_cnn_infer.so.8:_ZN17cask_plugin_cudnn10xmma_cudnn52implicit_gemm_fprop_8a51e52b8189619edffae5d3e46aba6924kernel_get_kernel_recordEv
libcudnn_cnn_infer.so.8:_ZN17cask_plugin_cudnn10xmma_cudnn52implicit_gemm_fprop_8a6074be595a25625fef276cbc97ec8e24kernel_get_kernel_recordEv
libcudnn_cnn_infer.so.8:_ZN17cask_plugin_cudnn10xmma_cudnn52implicit_gemm_fprop_8b09109893934aa2f88e1a470ca9615724kernel_get_kernel_recordEv
libcudnn_cnn_infer.so.8:_ZN17cask_plugin_cudnn10xmma_cudnn52implicit_gemm_fprop_8b1b7a0858acb72767da086eaeaf531f24kernel_get_kernel_recordEv
libcudnn_cnn_infer.so.8:_ZN17cask_plugin_cudnn10xmma_cudnn52implicit_gemm_fprop_8b5d5f128b0272843ff1726c43c1c43924kernel_get_kernel_recordEv
libcudnn_cnn_infer.so.8:_ZN17cask_plugin_cudnn10xmma_cudnn52implicit_gemm_fprop_8b7ceaa4de0ac6628311ed7ea1f0adbc24kernel_get_kernel_recordEv
libcudnn_cnn_infer.so.8:_ZN17cask_plugin_cudnn10xmma_cudnn52implicit_gemm_fprop_8b85e988dfb82177804790c7af3b1f8624kernel_get_kernel_recordEv
libcudnn_cnn_infer.so.8:_ZN17cask_plugin_cudnn10xmma_cudnn52implicit_gemm_fprop_8ba4df2e23dc919b2c60eb564e80d97724kernel_get_kernel_recordEv
libcudnn_cnn_infer.so.8:_ZN17cask_plugin_cudnn10xmma_cudnn52implicit_gemm_fprop_8bc184377b73883e0578811c30be603024kernel_get_kernel_recordEv
libcudnn_cnn_infer.so.8:_ZN17cask_plugin_cudnn10xmma_cudnn52implicit_gemm_fprop_8c00f31bc9f6cfa966c2bb33c1e04ace24kernel_get_kernel_recordEv
libcudnn_cnn_infer.so.8:_ZN17cask_plugin_cudnn10xmma_cudnn52implicit_gemm_fprop_8c01d78dd94bce4672938d471459863024kernel_get_kernel_recordEv
libcudnn_cnn_infer.so.8:_ZN17cask_plugin_cudnn10xmma_cudnn52implicit_gemm_fprop_8c637d1692489466974a286bf5c4992224kernel_get_kernel_recordEv
libcudnn_cnn_infer.so.8:_ZN17cask_plugin_cudnn10xmma_cudnn52implicit_gemm_fprop_8c643e2bf4a11839d059ab8b8fff722124kernel_get_kernel_recordEv
libcudnn_cnn_infer.so.8:_ZN17cask_plugin_cudnn10xmma_cudnn52implicit_gemm_fprop_8c6ace28acc8c47abaaff2df65142d9b24kernel_get_kernel_recordEv
libcudnn_cnn_infer.so.8:_ZN17cask_plugin_cudnn10xmma_cudnn52implicit_gemm_fprop_8c6b012ef93ee2a345579e575ed4cdaf24kernel_get_kernel_recordEv
libcudnn_cnn_infer.so.8:_ZN17cask_plugin_cudnn10xmma_cudnn52implicit_gemm_fprop_8cb0db924ebed1fe4fefcb62c4bedb2d24kernel_get_kernel_recordEv
libcudnn_cnn_infer.so.8:_ZN17cask_plugin_cudnn10xmma_cudnn52implicit_gemm_fprop_8ce66dca91afac6f9381f70c50a5d07324kernel_get_kernel_recordEv
libcudnn_cnn_infer.so.8:_ZN17cask_plugin_cudnn10xmma_cudnn52implicit_gemm_fprop_8ce8227541eef666ebf4caf6bae0802b24kernel_get_kernel_recordEv
libcudnn_cnn_infer.so.8:_ZN17cask_plugin_cudnn10xmma_cudnn52implicit_gemm_fprop_8d29b8025a9162b5946ec91566e0b90024kernel_get_kernel_recordEv
libcudnn_cnn_infer.so.8:_ZN17cask_plugin_cudnn10xmma_cudnn52implicit_gemm_fprop_8d5283ccdf441e5129a2ede840b0c61724kernel_get_kernel_recordEv
libcudnn_cnn_infer.so.8:_ZN17cask_plugin_cudnn10xmma_cudnn52implicit_gemm_fprop_8d6362a5948eeb6f24d8aa29f4e6165324kernel_get_kernel_recordEv
libcudnn_cnn_infer.so.8:_ZN17cask_plugin_cudnn10xmma_cudnn52implicit_gemm_fprop_8d6ff9f321750d37b755b130fb65211124kernel_get_kernel_recordEv
libcudnn_cnn_infer.so.8:_ZN17cask_plugin_cudnn10xmma_cudnn52implicit_gemm_fprop_8d7a1e92e752e4d6b9bf9f89375e26fc24kernel_get_kernel_recordEv
libcudnn_cnn_infer.so.8:_ZN17cask_plugin_cudnn10xmma_cudnn52implicit_gemm_fprop_8d822541caca92167c38e42005ab2f2224kernel_get_kernel_recordEv
libcudnn_cnn_infer.so.8:_ZN17cask_plugin_cudnn10xmma_cudnn52implicit_gemm_fprop_8db05d80249ea060bde51bf6b23007dc24kernel_get_kernel_recordEv
libcudnn_cnn_infer.so.8:_ZN17cask_plugin_cudnn10xmma_cudnn52implicit_gemm_fprop_8dca89d14c281a848280e114197fc64824kernel_get_kernel_recordEv
libcudnn_cnn_infer.so.8:_ZN17cask_plugin_cudnn10xmma_cudnn52implicit_gemm_fprop_8deabd36bba2c81fd7377a04f474063524kernel_get_kernel_recordEv
libcudnn_cnn_infer.so.8:_ZN17cask_plugin_cudnn10xmma_cudnn52implicit_gemm_fprop_8df637e9ab69ef4fffea50051712d96024kernel_get_kernel_recordEv
libcudnn_cnn_infer.so.8:_ZN17cask_plugin_cudnn10xmma_cudnn52implicit_gemm_fprop_8e0b807fd6b1a6b340787086ab53974f24kernel_get_kernel_recordEv
libcudnn_cnn_infer.so.8:_ZN17cask_plugin_cudnn10xmma_cudnn52implicit_gemm_fprop_8e39746a5ec6e45b399943922b22d89524kernel_get_kernel_recordEv
libcudnn_cnn_infer.so.8:_ZN17cask_plugin_cudnn10xmma_cudnn52implicit_gemm_fprop_8e416953270d7a82e074ac02a4aa801a24kernel_get_kernel_recordEv
libcudnn_cnn_infer.so.8:_ZN17cask_plugin_cudnn10xmma_cudnn52implicit_gemm_fprop_8e7331058ea4d9732b49d121a90c357524kernel_get_kernel_recordEv
libcudnn_cnn_infer.so.8:_ZN17cask_plugin_cudnn10xmma_cudnn52implicit_gemm_fprop_8f04251c2ff4005930270233d3332ce324kernel_get_kernel_recordEv
libcudnn_cnn_infer.so.8:_ZN17cask_plugin_cudnn10xmma_cudnn52implicit_gemm_fprop_8f0cb4d558e14e2b3e1d001af7ae3eaa24kernel_get_kernel_recordEv
libcudnn_cnn_infer.so.8:_ZN17cask_plugin_cudnn10xmma_cudnn52implicit_gemm_fprop_8f36a896270de1290b933712cfc1d6c724kernel_get_kernel_recordEv
libcudnn_cnn_infer.so.8:_ZN17cask_plugin_cudnn10xmma_cudnn52implicit_gemm_fprop_8f54ea36ffb3037c7ff0c39efe27a55724kernel_get_kernel_recordEv
libcudnn_cnn_infer.so.8:_ZN17cask_plugin_cudnn10xmma_cudnn52implicit_gemm_fprop_8f9e71591d5de4759d1c94d1e6838f0224kernel_get_kernel_recordEv
libcudnn_cnn_infer.so.8:_ZN17cask_plugin_cudnn10xmma_cudnn52implicit_gemm_fprop_8fde4fb0df2abb27059bf7aba409c99a24kernel_get_kernel_recordEv
libcudnn_cnn_infer.so.8:_ZN17cask_plugin_cudnn10xmma_cudnn52implicit_gemm_fprop_90231e30d20299d9b18d91450a6eb68b24kernel_get_kernel_recordEv
libcudnn_cnn_infer.so.8:_ZN17cask_plugin_cudnn10xmma_cudnn52implicit_gemm_fprop_90713387cb5ddf1ad66b5a550c37e04a24kernel_get_kernel_recordEv
libcudnn_cnn_infer.so.8:_ZN17cask_plugin_cudnn10xmma_cudnn52implicit_gemm_fprop_90d6f455acc214502b41b4eef77f3b4224kernel_get_kernel_recordEv
libcudnn_cnn_infer.so.8:_ZN17cask_plugin_cudnn10xmma_cudnn52implicit_gemm_fprop_90fa68a3eb2ea6e678368e503b63b53724kernel_get_kernel_recordEv
libcudnn_cnn_infer.so.8:_ZN17cask_plugin_cudnn10xmma_cudnn52implicit_gemm_fprop_910516f46ac439ca5f02ec8165e68cb524kernel_get_kernel_recordEv
libcudnn_cnn_infer.so.8:_ZN17cask_plugin_cudnn10xmma_cudnn52implicit_gemm_fprop_9110bb2c5038c55bbd709e4768a5290324kernel_get_kernel_recordEv
libcudnn_cnn_infer.so.8:_ZN17cask_plugin_cudnn10xmma_cudnn52implicit_gemm_fprop_911e67facc609d5bc7d951b36734943024kernel_get_kernel_recordEv
libcudnn_cnn_infer.so.8:_ZN17cask_plugin_cudnn10xmma_cudnn52implicit_gemm_fprop_9129ebed246ff65096157a06ca58624824kernel_get_kernel_recordEv
libcudnn_cnn_infer.so.8:_ZN17cask_plugin_cudnn10xmma_cudnn52implicit_gemm_fprop_916eafb6fad2df003f12cc3952a0c04724kernel_get_kernel_recordEv
libcudnn_cnn_infer.so.8:_ZN17cask_plugin_cudnn10xmma_cudnn52implicit_gemm_fprop_918e578c3e0dbe3307d1cc04622578bb24kernel_get_kernel_recordEv
libcudnn_cnn_infer.so.8:_ZN17cask_plugin_cudnn10xmma_cudnn52implicit_gemm_fprop_91ddc88abccaa4bca705f85db9c0ce8d24kernel_get_kernel_recordEv
libcudnn_cnn_infer.so.8:_ZN17cask_plugin_cudnn10xmma_cudnn52implicit_gemm_fprop_91f567e52fdbbf406cc7d29db4e071af24kernel_get_kernel_recordEv
libcudnn_cnn_infer.so.8:_ZN17cask_plugin_cudnn10xmma_cudnn52implicit_gemm_fprop_92251da3955de4dacd66e606a7caeefe24kernel_get_kernel_recordEv
libcudnn_cnn_infer.so.8:_ZN17cask_plugin_cudnn10xmma_cudnn52implicit_gemm_fprop_924d299da772da0c4b68e6f05e97700024kernel_get_kernel_recordEv
libcudnn_cnn_infer.so.8:_ZN17cask_plugin_cudnn10xmma_cudnn52implicit_gemm_fprop_9313947ff8667cf4bff03cc3c19d946024kernel_get_kernel_recordEv
libcudnn_cnn_infer.so.8:_ZN17cask_plugin_cudnn10xmma_cudnn52implicit_gemm_fprop_9313ff40f2de9658d34c9b376d8229a124kernel_get_kernel_recordEv
libcudnn_cnn_infer.so.8:_ZN17cask_plugin_cudnn10xmma_cudnn52implicit_gemm_fprop_9348df1cf625d13778ea9489896d51a224kernel_get_kernel_recordEv
libcudnn_cnn_infer.so.8:_ZN17cask_plugin_cudnn10xmma_cudnn52implicit_gemm_fprop_93b388596c995deac09983ceb7f7c60b24kernel_get_kernel_recordEv
libcudnn_cnn_infer.so.8:_ZN17cask_plugin_cudnn10xmma_cudnn52implicit_gemm_fprop_93c22cc1a7020ea518ed26a27b1a0e3324kernel_get_kernel_recordEv
libcudnn_cnn_infer.so.8:_ZN17cask_plugin_cudnn10xmma_cudnn52implicit_gemm_fprop_93c3ddaf6a4d1412e99bdef15887e28f24kernel_get_kernel_recordEv
libcudnn_cnn_infer.so.8:_ZN17cask_plugin_cudnn10xmma_cudnn52implicit_gemm_fprop_9447ddc359ca3573be96d4d8502e47db24kernel_get_kernel_recordEv
libcudnn_cnn_infer.so.8:_ZN17cask_plugin_cudnn10xmma_cudnn52implicit_gemm_fprop_94a4478330bc6c5447df4a03a8b1d7f924kernel_get_kernel_recordEv
libcudnn_cnn_infer.so.8:_ZN17cask_plugin_cudnn10xmma_cudnn52implicit_gemm_fprop_94c8ae5d49a5c50c52cfcb290cd5f67524kernel_get_kernel_recordEv
libcudnn_cnn_infer.so.8:_ZN17cask_plugin_cudnn10xmma_cudnn52implicit_gemm_fprop_94d623da9a6ba47fd38a2bc93a6f842124kernel_get_kernel_recordEv
libcudnn_cnn_infer.so.8:_ZN17cask_plugin_cudnn10xmma_cudnn52implicit_gemm_fprop_94db107dffeb92713b80166f5c7d514e24kernel_get_kernel_recordEv
libcudnn_cnn_infer.so.8:_ZN17cask_plugin_cudnn10xmma_cudnn52implicit_gemm_fprop_94ff5c32eebeb4646facf7cc7006172324kernel_get_kernel_recordEv
libcudnn_cnn_infer.so.8:_ZN17cask_plugin_cudnn10xmma_cudnn52implicit_gemm_fprop_952882cb797d637277c5173b90e567f024kernel_get_kernel_recordEv
libcudnn_cnn_infer.so.8:_ZN17cask_plugin_cudnn10xmma_cudnn52implicit_gemm_fprop_9539f2eaa1e90dda14de7143500c7cad24kernel_get_kernel_recordEv
libcudnn_cnn_infer.so.8:_ZN17cask_plugin_cudnn10xmma_cudnn52implicit_gemm_fprop_954978616b05cc1867460a04e6354ec724kernel_get_kernel_recordEv
libcudnn_cnn_infer.so.8:_ZN17cask_plugin_cudnn10xmma_cudnn52implicit_gemm_fprop_95b64224fc16eb1a3f7c70d2c3cd769f24kernel_get_kernel_recordEv
libcudnn_cnn_infer.so.8:_ZN17cask_plugin_cudnn10xmma_cudnn52implicit_gemm_fprop_9608566fce42d5107ecc9ef846f73a3824kernel_get_kernel_recordEv
libcudnn_cnn_infer.so.8:_ZN17cask_plugin_cudnn10xmma_cudnn52implicit_gemm_fprop_963a6ad7a168c473b4591698aba559ba24kernel_get_kernel_recordEv
libcudnn_cnn_infer.so.8:_ZN17cask_plugin_cudnn10xmma_cudnn52implicit_gemm_fprop_9659c75b2f1dc74e5e7d5c23e24cb39b24kernel_get_kernel_recordEv
libcudnn_cnn_infer.so.8:_ZN17cask_plugin_cudnn10xmma_cudnn52implicit_gemm_fprop_96be2f8e26c49750533f4bae634782fe24kernel_get_kernel_recordEv
libcudnn_cnn_infer.so.8:_ZN17cask_plugin_cudnn10xmma_cudnn52implicit_gemm_fprop_96e4ae39b9e2cf6022c8b699582b467924kernel_get_kernel_recordEv
libcudnn_cnn_infer.so.8:_ZN17cask_plugin_cudnn10xmma_cudnn52implicit_gemm_fprop_96ebfeecbe27b5264185e0f192450a7924kernel_get_kernel_recordEv
libcudnn_cnn_infer.so.8:_ZN17cask_plugin_cudnn10xmma_cudnn52implicit_gemm_fprop_9705704b79a4462b0f19d5e15a2318e924kernel_get_kernel_recordEv
libcudnn_cnn_infer.so.8:_ZN17cask_plugin_cudnn10xmma_cudnn52implicit_gemm_fprop_97183e6dbcf2ce38cb12f6f88106bcdf24kernel_get_kernel_recordEv
libcudnn_cnn_infer.so.8:_ZN17cask_plugin_cudnn10xmma_cudnn52implicit_gemm_fprop_9735be62e69de12c37286570949c108e24kernel_get_kernel_recordEv
libcudnn_cnn_infer.so.8:_ZN17cask_plugin_cudnn10xmma_cudnn52implicit_gemm_fprop_9749fb5bb6848a774756cd02c116d07a24kernel_get_kernel_recordEv
libcudnn_cnn_infer.so.8:_ZN17cask_plugin_cudnn10xmma_cudnn52implicit_gemm_fprop_9759743924f29c1f156a1f53487df05c24kernel_get_kernel_recordEv
libcudnn_cnn_infer.so.8:_ZN17cask_plugin_cudnn10xmma_cudnn52implicit_gemm_fprop_975baf192f23f46c312d4a8f4fd49fa524kernel_get_kernel_recordEv
libcudnn_cnn_infer.so.8:_ZN17cask_plugin_cudnn10xmma_cudnn52implicit_gemm_fprop_97902dd841cf76b92103dd1b04fe19da24kernel_get_kernel_recordEv
libcudnn_cnn_infer.so.8:_ZN17cask_plugin_cudnn10xmma_cudnn52implicit_gemm_fprop_97bf3e9e6e657456c76f23421f1fd6fb24kernel_get_kernel_recordEv
libcudnn_cnn_infer.so.8:_ZN17cask_plugin_cudnn10xmma_cudnn52implicit_gemm_fprop_9856d1694582d3d766ddfcebe087f30e24kernel_get_kernel_recordEv
libcudnn_cnn_infer.so.8:_ZN17cask_plugin_cudnn10xmma_cudnn52implicit_gemm_fprop_9890115b0b92118bfefca8f0d9d29fac24kernel_get_kernel_recordEv
libcudnn_cnn_infer.so.8:_ZN17cask_plugin_cudnn10xmma_cudnn52implicit_gemm_fprop_98d952a2738377f26174df6893bc6bdb24kernel_get_kernel_recordEv
libcudnn_cnn_infer.so.8:_ZN17cask_plugin_cudnn10xmma_cudnn52implicit_gemm_fprop_98da582204169655c653d01db29e034d24kernel_get_kernel_recordEv
libcudnn_cnn_infer.so.8:_ZN17cask_plugin_cudnn10xmma_cudnn52implicit_gemm_fprop_98e5f050dec627d56f8a72f921646b3424kernel_get_kernel_recordEv
libcudnn_cnn_infer.so.8:_ZN17cask_plugin_cudnn10xmma_cudnn52implicit_gemm_fprop_992d8c925a90e74b74fdb34cd464df8924kernel_get_kernel_recordEv
libcudnn_cnn_infer.so.8:_ZN17cask_plugin_cudnn10xmma_cudnn52implicit_gemm_fprop_99adfe8d2a8689fb0832b85dab100c8f24kernel_get_kernel_recordEv
libcudnn_cnn_infer.so.8:_ZN17cask_plugin_cudnn10xmma_cudnn52implicit_gemm_fprop_99d8a3f6e8c6a7e677de0111ae7dc92d24kernel_get_kernel_recordEv
libcudnn_cnn_infer.so.8:_ZN17cask_plugin_cudnn10xmma_cudnn52implicit_gemm_fprop_99e501a8d45333f3d0864a2a29e23ebc24kernel_get_kernel_recordEv
libcudnn_cnn_infer.so.8:_ZN17cask_plugin_cudnn10xmma_cudnn52implicit_gemm_fprop_99eb39f79eed60d427fd7f94fba6fc3824kernel_get_kernel_recordEv
libcudnn_cnn_infer.so.8:_ZN17cask_plugin_cudnn10xmma_cudnn52implicit_gemm_fprop_9a233e2aefb1a69a41ba885bf6b777cc24kernel_get_kernel_recordEv
libcudnn_cnn_infer.so.8:_ZN17cask_plugin_cudnn10xmma_cudnn52implicit_gemm_fprop_9a93774700707b2ba7c201a1c30c6fd524kernel_get_kernel_recordEv
libcudnn_cnn_infer.so.8:_ZN17cask_plugin_cudnn10xmma_cudnn52implicit_gemm_fprop_9aa87ca391cc5ad47f47c16f958da54c24kernel_get_kernel_recordEv
libcudnn_cnn_infer.so.8:_ZN17cask_plugin_cudnn10xmma_cudnn52implicit_gemm_fprop_9b4e4dfd06aaf47618ee3dcb66420c9d24kernel_get_kernel_recordEv
libcudnn_cnn_infer.so.8:_ZN17cask_plugin_cudnn10xmma_cudnn52implicit_gemm_fprop_9b932949eb06dea0bf19fafe48475bd424kernel_get_kernel_recordEv
libcudnn_cnn_infer.so.8:_ZN17cask_plugin_cudnn10xmma_cudnn52implicit_gemm_fprop_9b990b1ef6c211960b85e9f553b9582224kernel_get_kernel_recordEv
libcudnn_cnn_infer.so.8:_ZN17cask_plugin_cudnn10xmma_cudnn52implicit_gemm_fprop_9c3072ba9ce8ffabd261bbc60ea90aa924kernel_get_kernel_recordEv
libcudnn_cnn_infer.so.8:_ZN17cask_plugin_cudnn10xmma_cudnn52implicit_gemm_fprop_9c3753111238a202164602460886e34124kernel_get_kernel_recordEv
libcudnn_cnn_infer.so.8:_ZN17cask_plugin_cudnn10xmma_cudnn52implicit_gemm_fprop_9c5e7e6ff72138c260ba2a2aa9e64a3f24kernel_get_kernel_recordEv
libcudnn_cnn_infer.so.8:_ZN17cask_plugin_cudnn10xmma_cudnn52implicit_gemm_fprop_9cad367d8489c2581efc090f5d2b3d3724kernel_get_kernel_recordEv
libcudnn_cnn_infer.so.8:_ZN17cask_plugin_cudnn10xmma_cudnn52implicit_gemm_fprop_9cb05e4a85a8548a3a5a371d368fb6a624kernel_get_kernel_recordEv
libcudnn_cnn_infer.so.8:_ZN17cask_plugin_cudnn10xmma_cudnn52implicit_gemm_fprop_9d1c13706b7c7cc44d3771ec6e26536024kernel_get_kernel_recordEv
libcudnn_cnn_infer.so.8:_ZN17cask_plugin_cudnn10xmma_cudnn52implicit_gemm_fprop_9d2267e6ff8be404686631084ba28cde24kernel_get_kernel_recordEv
libcudnn_cnn_infer.so.8:_ZN17cask_plugin_cudnn10xmma_cudnn52implicit_gemm_fprop_9d550f1f62712ce1b8868cdda4f4df7c24kernel_get_kernel_recordEv
libcudnn_cnn_infer.so.8:_ZN17cask_plugin_cudnn10xmma_cudnn52implicit_gemm_fprop_9d8a45088e7023fd0fc93e28a5694c9b24kernel_get_kernel_recordEv
libcudnn_cnn_infer.so.8:_ZN17cask_plugin_cudnn10xmma_cudnn52implicit_gemm_fprop_9dab5415565b8a763698799f890548a524kernel_get_kernel_recordEv
libcudnn_cnn_infer.so.8:_ZN17cask_plugin_cudnn10xmma_cudnn52implicit_gemm_fprop_9db767714a8fb271d34db744ed6fa33f24kernel_get_kernel_recordEv
libcudnn_cnn_infer.so.8:_ZN17cask_plugin_cudnn10xmma_cudnn52implicit_gemm_fprop_9db8ea61ef340946614714317472a57a24kernel_get_kernel_recordEv
libcudnn_cnn_infer.so.8:_ZN17cask_plugin_cudnn10xmma_cudnn52implicit_gemm_fprop_9dbbc95bac7f7d93705cc1806520833724kernel_get_kernel_recordEv
libcudnn_cnn_infer.so.8:_ZN17cask_plugin_cudnn10xmma_cudnn52implicit_gemm_fprop_9dce7883a77fe329d29fe075b819d16624kernel_get_kernel_recordEv
libcudnn_cnn_infer.so.8:_ZN17cask_plugin_cudnn10xmma_cudnn52implicit_gemm_fprop_9de41016e6511bd1a4d29ab59506236224kernel_get_kernel_recordEv
libcudnn_cnn_infer.so.8:_ZN17cask_plugin_cudnn10xmma_cudnn52implicit_gemm_fprop_9e22d9eb3e5a19fef00b133e4ff9782b24kernel_get_kernel_recordEv
libcudnn_cnn_infer.so.8:_ZN17cask_plugin_cudnn10xmma_cudnn52implicit_gemm_fprop_9e4457d5d74b5b87b822ca41980620c724kernel_get_kernel_recordEv
libcudnn_cnn_infer.so.8:_ZN17cask_plugin_cudnn10xmma_cudnn52implicit_gemm_fprop_9e4e28086d4a0ed0bb9fa7dda72bbbe024kernel_get_kernel_recordEv
libcudnn_cnn_infer.so.8:_ZN17cask_plugin_cudnn10xmma_cudnn52implicit_gemm_fprop_9e88b59ce0110cf4a3b7f54b27069df024kernel_get_kernel_recordEv
libcudnn_cnn_infer.so.8:_ZN17cask_plugin_cudnn10xmma_cudnn52implicit_gemm_fprop_9eb55ecc125b2a9b5d0e7c821d2e0ea224kernel_get_kernel_recordEv
libcudnn_cnn_infer.so.8:_ZN17cask_plugin_cudnn10xmma_cudnn52implicit_gemm_fprop_9ec1638ee160ef48d38b108d8c74cdc824kernel_get_kernel_recordEv
libcudnn_cnn_infer.so.8:_ZN17cask_plugin_cudnn10xmma_cudnn52implicit_gemm_fprop_9ed6333b65645ea8ee173baee173f8b624kernel_get_kernel_recordEv
libcudnn_cnn_infer.so.8:_ZN17cask_plugin_cudnn10xmma_cudnn52implicit_gemm_fprop_9f18d7b7dc5d0452f99c4a9ee448415524kernel_get_kernel_recordEv
libcudnn_cnn_infer.so.8:_ZN17cask_plugin_cudnn10xmma_cudnn52implicit_gemm_fprop_9f3fb1a9ffe9ab31335b69708fc5fb7c24kernel_get_kernel_recordEv
libcudnn_cnn_infer.so.8:_ZN17cask_plugin_cudnn10xmma_cudnn52implicit_gemm_fprop_9f8e43d55b326f3024c96c3d60a0a71424kernel_get_kernel_recordEv
libcudnn_cnn_infer.so.8:_ZN17cask_plugin_cudnn10xmma_cudnn52implicit_gemm_fprop_9fa6d109717f09a4be028ea7b26a6f4c24kernel_get_kernel_recordEv
libcudnn_cnn_infer.so.8:_ZN17cask_plugin_cudnn10xmma_cudnn52implicit_gemm_fprop_9fb0ec7b16c2cdd18d61f2063bbfaea424kernel_get_kernel_recordEv
libcudnn_cnn_infer.so.8:_ZN17cask_plugin_cudnn10xmma_cudnn52implicit_gemm_fprop_9fd2673a7c0f6f6d27c3013e43283d6a24kernel_get_kernel_recordEv
libcudnn_cnn_infer.so.8:_ZN17cask_plugin_cudnn10xmma_cudnn52implicit_gemm_fprop_9fde70e2fa95efd9038995fbf22aa5cf24kernel_get_kernel_recordEv
libcudnn_cnn_infer.so.8:_ZN17cask_plugin_cudnn10xmma_cudnn52implicit_gemm_fprop_9fe03939f1f7a4abdfd7bd42415c838624kernel_get_kernel_recordEv
libcudnn_cnn_infer.so.8:_ZN17cask_plugin_cudnn10xmma_cudnn52implicit_gemm_fprop_a011f0b7a5ddac5cf82e926f2073f05224kernel_get_kernel_recordEv
