libcaffe2.so:_Z14getKernelShapeSt3mapINSt7__cxx1112basic_stringIcSt11char_traitsIcESaIcEEEN6caffe28ArgumentESt4lessIS5_ESaISt4pairIKS5_S7_EEE
libcaffe2.so:_Z24getArgumentsFromOperatorB5cxx11N6caffe211OperatorDefE
libcaffe2.so:_Z9getLayoutSt3mapINSt7__cxx1112basic_stringIcSt11char_traitsIcESaIcEEEN6caffe28ArgumentESt4lessIS5_ESaISt4pairIKS5_S7_EEE
libcaffe2.so:_ZN33protobuf_onnx_5fonnx_5fc2_2eproto14AddDescriptorsEv
libcaffe2.so:_ZN33protobuf_onnx_5fonnx_5fc2_2eproto18AddDescriptorsImplEv
libcaffe2.so:_ZN33protobuf_onnx_5fonnx_5fc2_2eproto21InitDefaultsTypeProtoEv
libcaffe2.so:_ZN33protobuf_onnx_5fonnx_5fc2_2eproto22InitDefaultsModelProtoEv
libcaffe2.so:_ZN33protobuf_onnx_5fonnx_5fc2_2eproto22protobuf_RegisterTypesERKNSt7__cxx1112basic_stringIcSt11char_traitsIcESaIcEEE
libcaffe2.so:_ZN33protobuf_onnx_5fonnx_5fc2_2eproto23InitDefaultsTensorProtoEv
libcaffe2.so:_ZN33protobuf_onnx_5fonnx_5fc2_2eproto25InitDefaultsTypeProtoImplEv
libcaffe2.so:_ZN33protobuf_onnx_5fonnx_5fc2_2eproto26InitDefaultsAttributeProtoEv
libcaffe2.so:_ZN33protobuf_onnx_5fonnx_5fc2_2eproto26InitDefaultsModelProtoImplEv
libcaffe2.so:_ZN33protobuf_onnx_5fonnx_5fc2_2eproto26InitDefaultsValueInfoProtoEv
libcaffe2.so:_ZN33protobuf_onnx_5fonnx_5fc2_2eproto26protobuf_AssignDescriptorsEv
libcaffe2.so:_ZN33protobuf_onnx_5fonnx_5fc2_2eproto27InitDefaultsTensorProtoImplEv
libcaffe2.so:_ZN33protobuf_onnx_5fonnx_5fc2_2eproto28InitDefaultsTensorShapeProtoEv
libcaffe2.so:_ZN33protobuf_onnx_5fonnx_5fc2_2eproto28InitDefaultsTypeProto_TensorEv
libcaffe2.so:_ZN33protobuf_onnx_5fonnx_5fc2_2eproto30InitDefaultsAttributeProtoImplEv
libcaffe2.so:_ZN33protobuf_onnx_5fonnx_5fc2_2eproto30InitDefaultsOperatorSetIdProtoEv
libcaffe2.so:_ZN33protobuf_onnx_5fonnx_5fc2_2eproto30InitDefaultsValueInfoProtoImplEv
libcaffe2.so:_ZN33protobuf_onnx_5fonnx_5fc2_2eproto30protobuf_AssignDescriptorsOnceEv
libcaffe2.so:_ZN33protobuf_onnx_5fonnx_5fc2_2eproto31InitDefaultsTensorProto_SegmentEv
libcaffe2.so:_ZN33protobuf_onnx_5fonnx_5fc2_2eproto32InitDefaultsTensorShapeProtoImplEv
libcaffe2.so:_ZN33protobuf_onnx_5fonnx_5fc2_2eproto32InitDefaultsTypeProto_TensorImplEv
libcaffe2.so:_ZN33protobuf_onnx_5fonnx_5fc2_2eproto34InitDefaultsOperatorSetIdProtoImplEv
libcaffe2.so:_ZN33protobuf_onnx_5fonnx_5fc2_2eproto34InitDefaultsStringStringEntryProtoEv
libcaffe2.so:_ZN33protobuf_onnx_5fonnx_5fc2_2eproto35InitDefaultsTensorProto_SegmentImplEv
libcaffe2.so:_ZN33protobuf_onnx_5fonnx_5fc2_2eproto38InitDefaultsStringStringEntryProtoImplEv
libcaffe2.so:_ZN33protobuf_onnx_5fonnx_5fc2_2eproto38InitDefaultsTensorShapeProto_DimensionEv
libcaffe2.so:_ZN33protobuf_onnx_5fonnx_5fc2_2eproto42InitDefaultsTensorShapeProto_DimensionImplEv
libcaffe2.so:_ZN37protobuf_caffe2_2fproto_2fhsm_2eproto14AddDescriptorsEv
libcaffe2.so:_ZN37protobuf_caffe2_2fproto_2fhsm_2eproto18AddDescriptorsImplEv
libcaffe2.so:_ZN37protobuf_caffe2_2fproto_2fhsm_2eproto21InitDefaultsNodeProtoEv
libcaffe2.so:_ZN37protobuf_caffe2_2fproto_2fhsm_2eproto21InitDefaultsPathProtoEv
libcaffe2.so:_ZN37protobuf_caffe2_2fproto_2fhsm_2eproto21InitDefaultsTreeProtoEv
libcaffe2.so:_ZN37protobuf_caffe2_2fproto_2fhsm_2eproto22protobuf_RegisterTypesERKNSt7__cxx1112basic_stringIcSt11char_traitsIcESaIcEEE
libcaffe2.so:_ZN37protobuf_caffe2_2fproto_2fhsm_2eproto25InitDefaultsNodeProtoImplEv
libcaffe2.so:_ZN37protobuf_caffe2_2fproto_2fhsm_2eproto25InitDefaultsPathNodeProtoEv
libcaffe2.so:_ZN37protobuf_caffe2_2fproto_2fhsm_2eproto25InitDefaultsPathProtoImplEv
libcaffe2.so:_ZN37protobuf_caffe2_2fproto_2fhsm_2eproto25InitDefaultsTreeProtoImplEv
libcaffe2.so:_ZN37protobuf_caffe2_2fproto_2fhsm_2eproto26InitDefaultsHierarchyProtoEv
libcaffe2.so:_ZN37protobuf_caffe2_2fproto_2fhsm_2eproto26protobuf_AssignDescriptorsEv
libcaffe2.so:_ZN37protobuf_caffe2_2fproto_2fhsm_2eproto29InitDefaultsPathNodeProtoImplEv
libcaffe2.so:_ZN37protobuf_caffe2_2fproto_2fhsm_2eproto30InitDefaultsHierarchyProtoImplEv
libcaffe2.so:_ZN37protobuf_caffe2_2fproto_2fhsm_2eproto30protobuf_AssignDescriptorsOnceEv
libcaffe2.so:_ZN38protobuf_caffe_2fproto_2fcaffe_2eproto14AddDescriptorsEv
libcaffe2.so:_ZN38protobuf_caffe_2fproto_2fcaffe_2eproto17InitDefaultsDatumEv
libcaffe2.so:_ZN38protobuf_caffe_2fproto_2fcaffe_2eproto18AddDescriptorsImplEv
libcaffe2.so:_ZN38protobuf_caffe_2fproto_2fcaffe_2eproto20InitDefaultsNetStateEv
libcaffe2.so:_ZN38protobuf_caffe_2fproto_2fcaffe_2eproto21InitDefaultsBlobProtoEv
libcaffe2.so:_ZN38protobuf_caffe_2fproto_2fcaffe_2eproto21InitDefaultsBlobShapeEv
libcaffe2.so:_ZN38protobuf_caffe_2fproto_2fcaffe_2eproto21InitDefaultsDatumImplEv
libcaffe2.so:_ZN38protobuf_caffe_2fproto_2fcaffe_2eproto21InitDefaultsParamSpecEv
libcaffe2.so:_ZN38protobuf_caffe_2fproto_2fcaffe_2eproto22protobuf_RegisterTypesERKNSt7__cxx1112basic_stringIcSt11char_traitsIcESaIcEEE
libcaffe2.so:_ZN38protobuf_caffe_2fproto_2fcaffe_2eproto23InitDefaultsSolverStateEv
libcaffe2.so:_ZN38protobuf_caffe_2fproto_2fcaffe_2eproto24InitDefaultsELUParameterEv
libcaffe2.so:_ZN38protobuf_caffe_2fproto_2fcaffe_2eproto24InitDefaultsExpParameterEv
libcaffe2.so:_ZN38protobuf_caffe_2fproto_2fcaffe_2eproto24InitDefaultsLRNParameterEv
libcaffe2.so:_ZN38protobuf_caffe_2fproto_2fcaffe_2eproto24InitDefaultsLogParameterEv
libcaffe2.so:_ZN38protobuf_caffe_2fproto_2fcaffe_2eproto24InitDefaultsMVNParameterEv
libcaffe2.so:_ZN38protobuf_caffe_2fproto_2fcaffe_2eproto24InitDefaultsNetParameterEv
libcaffe2.so:_ZN38protobuf_caffe_2fproto_2fcaffe_2eproto24InitDefaultsNetStateImplEv
libcaffe2.so:_ZN38protobuf_caffe_2fproto_2fcaffe_2eproto24InitDefaultsNetStateRuleEv
libcaffe2.so:_ZN38protobuf_caffe_2fproto_2fcaffe_2eproto24InitDefaultsSPPParameterEv
libcaffe2.so:_ZN38protobuf_caffe_2fproto_2fcaffe_2eproto25InitDefaultsBiasParameterEv
libcaffe2.so:_ZN38protobuf_caffe_2fproto_2fcaffe_2eproto25InitDefaultsBlobProtoImplEv
libcaffe2.so:_ZN38protobuf_caffe_2fproto_2fcaffe_2eproto25InitDefaultsBlobShapeImplEv
libcaffe2.so:_ZN38protobuf_caffe_2fproto_2fcaffe_2eproto25InitDefaultsCropParameterEv
libcaffe2.so:_ZN38protobuf_caffe_2fproto_2fcaffe_2eproto25InitDefaultsDataParameterEv
libcaffe2.so:_ZN38protobuf_caffe_2fproto_2fcaffe_2eproto25InitDefaultsLossParameterEv
libcaffe2.so:_ZN38protobuf_caffe_2fproto_2fcaffe_2eproto25InitDefaultsParamSpecImplEv
libcaffe2.so:_ZN38protobuf_caffe_2fproto_2fcaffe_2eproto25InitDefaultsReLUParameterEv
libcaffe2.so:_ZN38protobuf_caffe_2fproto_2fcaffe_2eproto25InitDefaultsTanHParameterEv
libcaffe2.so:_ZN38protobuf_caffe_2fproto_2fcaffe_2eproto25InitDefaultsTileParameterEv
libcaffe2.so:_ZN38protobuf_caffe_2fproto_2fcaffe_2eproto26InitDefaultsEmbedParameterEv
libcaffe2.so:_ZN38protobuf_caffe_2fproto_2fcaffe_2eproto26InitDefaultsInputParameterEv
libcaffe2.so:_ZN38protobuf_caffe_2fproto_2fcaffe_2eproto26InitDefaultsLayerParameterEv
libcaffe2.so:_ZN38protobuf_caffe_2fproto_2fcaffe_2eproto26InitDefaultsPReLUParameterEv
libcaffe2.so:_ZN38protobuf_caffe_2fproto_2fcaffe_2eproto26InitDefaultsPowerParameterEv
libcaffe2.so:_ZN38protobuf_caffe_2fproto_2fcaffe_2eproto26InitDefaultsScaleParameterEv
libcaffe2.so:_ZN38protobuf_caffe_2fproto_2fcaffe_2eproto26InitDefaultsSliceParameterEv
libcaffe2.so:_ZN38protobuf_caffe_2fproto_2fcaffe_2eproto26protobuf_AssignDescriptorsEv
libcaffe2.so:_ZN38protobuf_caffe_2fproto_2fcaffe_2eproto27InitDefaultsArgMaxParameterEv
libcaffe2.so:_ZN38protobuf_caffe_2fproto_2fcaffe_2eproto27InitDefaultsBlobProtoVectorEv
libcaffe2.so:_ZN38protobuf_caffe_2fproto_2fcaffe_2eproto27InitDefaultsConcatParameterEv
libcaffe2.so:_ZN38protobuf_caffe_2fproto_2fcaffe_2eproto27InitDefaultsFillerParameterEv
libcaffe2.so:_ZN38protobuf_caffe_2fproto_2fcaffe_2eproto27InitDefaultsPythonParameterEv
libcaffe2.so:_ZN38protobuf_caffe_2fproto_2fcaffe_2eproto27InitDefaultsSolverParameterEv
libcaffe2.so:_ZN38protobuf_caffe_2fproto_2fcaffe_2eproto27InitDefaultsSolverStateImplEv
libcaffe2.so:_ZN38protobuf_caffe_2fproto_2fcaffe_2eproto28InitDefaultsDropoutParameterEv
libcaffe2.so:_ZN38protobuf_caffe_2fproto_2fcaffe_2eproto28InitDefaultsELUParameterImplEv
libcaffe2.so:_ZN38protobuf_caffe_2fproto_2fcaffe_2eproto28InitDefaultsEltwiseParameterEv
libcaffe2.so:_ZN38protobuf_caffe_2fproto_2fcaffe_2eproto28InitDefaultsExpParameterImplEv
libcaffe2.so:_ZN38protobuf_caffe_2fproto_2fcaffe_2eproto28InitDefaultsFlattenParameterEv
libcaffe2.so:_ZN38protobuf_caffe_2fproto_2fcaffe_2eproto28InitDefaultsLRNParameterImplEv
libcaffe2.so:_ZN38protobuf_caffe_2fproto_2fcaffe_2eproto28InitDefaultsLogParameterImplEv
libcaffe2.so:_ZN38protobuf_caffe_2fproto_2fcaffe_2eproto28InitDefaultsMVNParameterImplEv
libcaffe2.so:_ZN38protobuf_caffe_2fproto_2fcaffe_2eproto28InitDefaultsNetParameterImplEv
libcaffe2.so:_ZN38protobuf_caffe_2fproto_2fcaffe_2eproto28InitDefaultsNetStateRuleImplEv
libcaffe2.so:_ZN38protobuf_caffe_2fproto_2fcaffe_2eproto28InitDefaultsPoolingParameterEv
libcaffe2.so:_ZN38protobuf_caffe_2fproto_2fcaffe_2eproto28InitDefaultsReshapeParameterEv
libcaffe2.so:_ZN38protobuf_caffe_2fproto_2fcaffe_2eproto28InitDefaultsSPPParameterImplEv
libcaffe2.so:_ZN38protobuf_caffe_2fproto_2fcaffe_2eproto28InitDefaultsSigmoidParameterEv
libcaffe2.so:_ZN38protobuf_caffe_2fproto_2fcaffe_2eproto28InitDefaultsSoftmaxParameterEv
libcaffe2.so:_ZN38protobuf_caffe_2fproto_2fcaffe_2eproto28InitDefaultsV0LayerParameterEv
libcaffe2.so:_ZN38protobuf_caffe_2fproto_2fcaffe_2eproto28InitDefaultsV1LayerParameterEv
libcaffe2.so:_ZN38protobuf_caffe_2fproto_2fcaffe_2eproto29InitDefaultsAccuracyParameterEv
libcaffe2.so:_ZN38protobuf_caffe_2fproto_2fcaffe_2eproto29InitDefaultsBiasParameterImplEv
libcaffe2.so:_ZN38protobuf_caffe_2fproto_2fcaffe_2eproto29InitDefaultsCropParameterImplEv
libcaffe2.so:_ZN38protobuf_caffe_2fproto_2fcaffe_2eproto29InitDefaultsDataParameterImplEv
libcaffe2.so:_ZN38protobuf_caffe_2fproto_2fcaffe_2eproto29InitDefaultsHDF5DataParameterEv
libcaffe2.so:_ZN38protobuf_caffe_2fproto_2fcaffe_2eproto29InitDefaultsLossParameterImplEv
libcaffe2.so:_ZN38protobuf_caffe_2fproto_2fcaffe_2eproto29InitDefaultsReLUParameterImplEv
libcaffe2.so:_ZN38protobuf_caffe_2fproto_2fcaffe_2eproto29InitDefaultsTanHParameterImplEv
libcaffe2.so:_ZN38protobuf_caffe_2fproto_2fcaffe_2eproto29InitDefaultsTileParameterImplEv
libcaffe2.so:_ZN38protobuf_caffe_2fproto_2fcaffe_2eproto30InitDefaultsBatchNormParameterEv
libcaffe2.so:_ZN38protobuf_caffe_2fproto_2fcaffe_2eproto30InitDefaultsDummyDataParameterEv
libcaffe2.so:_ZN38protobuf_caffe_2fproto_2fcaffe_2eproto30InitDefaultsEmbedParameterImplEv
libcaffe2.so:_ZN38protobuf_caffe_2fproto_2fcaffe_2eproto30InitDefaultsHingeLossParameterEv
libcaffe2.so:_ZN38protobuf_caffe_2fproto_2fcaffe_2eproto30InitDefaultsImageDataParameterEv
libcaffe2.so:_ZN38protobuf_caffe_2fproto_2fcaffe_2eproto30InitDefaultsInputParameterImplEv
libcaffe2.so:_ZN38protobuf_caffe_2fproto_2fcaffe_2eproto30InitDefaultsLayerParameterImplEv
libcaffe2.so:_ZN38protobuf_caffe_2fproto_2fcaffe_2eproto30InitDefaultsPReLUParameterImplEv
libcaffe2.so:_ZN38protobuf_caffe_2fproto_2fcaffe_2eproto30InitDefaultsParameterParameterEv
libcaffe2.so:_ZN38protobuf_caffe_2fproto_2fcaffe_2eproto30InitDefaultsPowerParameterImplEv
libcaffe2.so:_ZN38protobuf_caffe_2fproto_2fcaffe_2eproto30InitDefaultsRecurrentParameterEv
libcaffe2.so:_ZN38protobuf_caffe_2fproto_2fcaffe_2eproto30InitDefaultsReductionParameterEv
libcaffe2.so:_ZN38protobuf_caffe_2fproto_2fcaffe_2eproto30InitDefaultsScaleParameterImplEv
libcaffe2.so:_ZN38protobuf_caffe_2fproto_2fcaffe_2eproto30InitDefaultsSliceParameterImplEv
libcaffe2.so:_ZN38protobuf_caffe_2fproto_2fcaffe_2eproto30InitDefaultsThresholdParameterEv
libcaffe2.so:_ZN38protobuf_caffe_2fproto_2fcaffe_2eproto30protobuf_AssignDescriptorsOnceEv
libcaffe2.so:_ZN38protobuf_caffe_2fproto_2fcaffe_2eproto31InitDefaultsArgMaxParameterImplEv
libcaffe2.so:_ZN38protobuf_caffe_2fproto_2fcaffe_2eproto31InitDefaultsBlobProtoVectorImplEv
libcaffe2.so:_ZN38protobuf_caffe_2fproto_2fcaffe_2eproto31InitDefaultsConcatParameterImplEv
libcaffe2.so:_ZN38protobuf_caffe_2fproto_2fcaffe_2eproto31InitDefaultsFillerParameterImplEv
libcaffe2.so:_ZN38protobuf_caffe_2fproto_2fcaffe_2eproto31InitDefaultsHDF5OutputParameterEv
libcaffe2.so:_ZN38protobuf_caffe_2fproto_2fcaffe_2eproto31InitDefaultsMemoryDataParameterEv
libcaffe2.so:_ZN38protobuf_caffe_2fproto_2fcaffe_2eproto31InitDefaultsPythonParameterImplEv
libcaffe2.so:_ZN38protobuf_caffe_2fproto_2fcaffe_2eproto31InitDefaultsSolverParameterImplEv
libcaffe2.so:_ZN38protobuf_caffe_2fproto_2fcaffe_2eproto31InitDefaultsWindowDataParameterEv
libcaffe2.so:_ZN38protobuf_caffe_2fproto_2fcaffe_2eproto32InitDefaultsConvolutionParameterEv
libcaffe2.so:_ZN38protobuf_caffe_2fproto_2fcaffe_2eproto32InitDefaultsDropoutParameterImplEv
libcaffe2.so:_ZN38protobuf_caffe_2fproto_2fcaffe_2eproto32InitDefaultsEltwiseParameterImplEv
libcaffe2.so:_ZN38protobuf_caffe_2fproto_2fcaffe_2eproto32InitDefaultsFlattenParameterImplEv
libcaffe2.so:_ZN38protobuf_caffe_2fproto_2fcaffe_2eproto32InitDefaultsPoolingParameterImplEv
libcaffe2.so:_ZN38protobuf_caffe_2fproto_2fcaffe_2eproto32InitDefaultsReshapeParameterImplEv
libcaffe2.so:_ZN38protobuf_caffe_2fproto_2fcaffe_2eproto32InitDefaultsSigmoidParameterImplEv
libcaffe2.so:_ZN38protobuf_caffe_2fproto_2fcaffe_2eproto32InitDefaultsSoftmaxParameterImplEv
libcaffe2.so:_ZN38protobuf_caffe_2fproto_2fcaffe_2eproto32InitDefaultsV0LayerParameterImplEv
libcaffe2.so:_ZN38protobuf_caffe_2fproto_2fcaffe_2eproto32InitDefaultsV1LayerParameterImplEv
libcaffe2.so:_ZN38protobuf_caffe_2fproto_2fcaffe_2eproto33InitDefaultsAccuracyParameterImplEv
libcaffe2.so:_ZN38protobuf_caffe_2fproto_2fcaffe_2eproto33InitDefaultsHDF5DataParameterImplEv
libcaffe2.so:_ZN38protobuf_caffe_2fproto_2fcaffe_2eproto33InitDefaultsInfogainLossParameterEv
libcaffe2.so:_ZN38protobuf_caffe_2fproto_2fcaffe_2eproto33InitDefaultsInnerProductParameterEv
libcaffe2.so:_ZN38protobuf_caffe_2fproto_2fcaffe_2eproto34InitDefaultsBatchNormParameterImplEv
libcaffe2.so:_ZN38protobuf_caffe_2fproto_2fcaffe_2eproto34InitDefaultsDummyDataParameterImplEv
libcaffe2.so:_ZN38protobuf_caffe_2fproto_2fcaffe_2eproto34InitDefaultsHingeLossParameterImplEv
libcaffe2.so:_ZN38protobuf_caffe_2fproto_2fcaffe_2eproto34InitDefaultsImageDataParameterImplEv
libcaffe2.so:_ZN38protobuf_caffe_2fproto_2fcaffe_2eproto34InitDefaultsParameterParameterImplEv
libcaffe2.so:_ZN38protobuf_caffe_2fproto_2fcaffe_2eproto34InitDefaultsRecurrentParameterImplEv
libcaffe2.so:_ZN38protobuf_caffe_2fproto_2fcaffe_2eproto34InitDefaultsReductionParameterImplEv
libcaffe2.so:_ZN38protobuf_caffe_2fproto_2fcaffe_2eproto34InitDefaultsThresholdParameterImplEv
libcaffe2.so:_ZN38protobuf_caffe_2fproto_2fcaffe_2eproto35InitDefaultsHDF5OutputParameterImplEv
libcaffe2.so:_ZN38protobuf_caffe_2fproto_2fcaffe_2eproto35InitDefaultsMemoryDataParameterImplEv
libcaffe2.so:_ZN38protobuf_caffe_2fproto_2fcaffe_2eproto35InitDefaultsTransformationParameterEv
libcaffe2.so:_ZN38protobuf_caffe_2fproto_2fcaffe_2eproto35InitDefaultsWindowDataParameterImplEv
libcaffe2.so:_ZN38protobuf_caffe_2fproto_2fcaffe_2eproto36InitDefaultsContrastiveLossParameterEv
libcaffe2.so:_ZN38protobuf_caffe_2fproto_2fcaffe_2eproto36InitDefaultsConvolutionParameterImplEv
libcaffe2.so:_ZN38protobuf_caffe_2fproto_2fcaffe_2eproto37InitDefaultsInfogainLossParameterImplEv
libcaffe2.so:_ZN38protobuf_caffe_2fproto_2fcaffe_2eproto37InitDefaultsInnerProductParameterImplEv
libcaffe2.so:_ZN38protobuf_caffe_2fproto_2fcaffe_2eproto39InitDefaultsTransformationParameterImplEv
libcaffe2.so:_ZN38protobuf_caffe_2fproto_2fcaffe_2eproto40InitDefaultsContrastiveLossParameterImplEv
libcaffe2.so:_ZN3nom10converters15convertOperatorEN6caffe211OperatorDefE
libcaffe2.so:_ZN3nom10converters15convertOperatorEPNS_4NodeISt10unique_ptrINS_4repr5ValueESt14default_deleteIS4_EEiEE
libcaffe2.so:_ZN3nom10converters20convertToCaffe2ProtoERNS_4repr8NNModuleE
libcaffe2.so:_ZN3nom10converters22convertFromCaffe2ProtoERKN6caffe26NetDefEPSt13unordered_mapINSt7__cxx1112basic_stringIcSt11char_traitsIcESaIcEEEPNS_4NodeISt10unique_ptrINS_4repr5ValueESt14default_deleteISF_EEiEESt4hashISB_ESt8equal_toISB_ESaISt4pairIKSB_SK_EEE
libcaffe2.so:_ZN3nom4repr13NeuralNetDataD0Ev
libcaffe2.so:_ZN3nom4repr13NeuralNetDataD1Ev
libcaffe2.so:_ZN3nom4repr13NeuralNetDataD2Ev
libcaffe2.so:_ZN3nom4repr17NeuralNetOperatorD0Ev
libcaffe2.so:_ZN3nom4repr17NeuralNetOperatorD1Ev
libcaffe2.so:_ZN3nom4repr17NeuralNetOperatorD2Ev
libcaffe2.so:_ZN3nom4repr2nn10getOutputsEPNS_4NodeISt10unique_ptrINS0_5ValueESt14default_deleteIS4_EEiEE
libcaffe2.so:_ZN3nom4repr2nn11getProducerEPNS_4NodeISt10unique_ptrINS0_5ValueESt14default_deleteIS4_EEiEE
libcaffe2.so:_ZN3nom4repr2nn11hasConsumerEPNS_4NodeISt10unique_ptrINS0_5ValueESt14default_deleteIS4_EEiEE
libcaffe2.so:_ZN3nom4repr2nn11hasProducerEPNS_4NodeISt10unique_ptrINS0_5ValueESt14default_deleteIS4_EEiEE
libcaffe2.so:_ZN3nom4repr2nn12getConsumersEPNS_4NodeISt10unique_ptrINS0_5ValueESt14default_deleteIS4_EEiEE
libcaffe2.so:_ZN3nom4repr2nn15getTrackedNodesERNS0_16ControlFlowGraphINS_5GraphISt10unique_ptrINS0_5ValueESt14default_deleteIS5_EEiEEEE
libcaffe2.so:_ZN3nom4repr2nn32coalesceInsertedDataDependenciesEPNS0_8NNModuleE
libcaffe2.so:_ZN3nom4repr2nn38coalesceInsertedDataDependenciesHelperEPNS0_8NNModuleE
libcaffe2.so:_ZN3nom4repr2nn9getInputsEPNS_4NodeISt10unique_ptrINS0_5ValueESt14default_deleteIS4_EEiEE
libcaffe2.so:_ZN3nom4repr2nn9hasInputsEPNS_4NodeISt10unique_ptrINS0_5ValueESt14default_deleteIS4_EEiEE
libcaffe2.so:_ZN40protobuf_caffe2_2fproto_2fcaffe2_2eproto14AddDescriptorsEv
libcaffe2.so:_ZN40protobuf_caffe2_2fproto_2fcaffe2_2eproto18AddDescriptorsImplEv
libcaffe2.so:_ZN40protobuf_caffe2_2fproto_2fcaffe2_2eproto19InitDefaultsPlanDefEv
libcaffe2.so:_ZN40protobuf_caffe2_2fproto_2fcaffe2_2eproto20InitDefaultsArgumentEv
libcaffe2.so:_ZN40protobuf_caffe2_2fproto_2fcaffe2_2eproto21InitDefaultsBlobProtoEv
libcaffe2.so:_ZN40protobuf_caffe2_2fproto_2fcaffe2_2eproto22protobuf_RegisterTypesERKNSt7__cxx1112basic_stringIcSt11char_traitsIcESaIcEEE
libcaffe2.so:_ZN40protobuf_caffe2_2fproto_2fcaffe2_2eproto23InitDefaultsPlanDefImplEv
libcaffe2.so:_ZN40protobuf_caffe2_2fproto_2fcaffe2_2eproto23InitDefaultsTensorProtoEv
libcaffe2.so:_ZN40protobuf_caffe2_2fproto_2fcaffe2_2eproto23InitDefaultsTensorShapeEv
libcaffe2.so:_ZN40protobuf_caffe2_2fproto_2fcaffe2_2eproto24InitDefaultsArgumentImplEv
libcaffe2.so:_ZN40protobuf_caffe2_2fproto_2fcaffe2_2eproto24InitDefaultsDeviceOptionEv
libcaffe2.so:_ZN40protobuf_caffe2_2fproto_2fcaffe2_2eproto24InitDefaultsQTensorProtoEv
libcaffe2.so:_ZN40protobuf_caffe2_2fproto_2fcaffe2_2eproto24InitDefaultsTensorProtosEv
libcaffe2.so:_ZN40protobuf_caffe2_2fproto_2fcaffe2_2eproto24InitDefaultsTensorShapesEv
libcaffe2.so:_ZN40protobuf_caffe2_2fproto_2fcaffe2_2eproto25InitDefaultsBlobProtoImplEv
libcaffe2.so:_ZN40protobuf_caffe2_2fproto_2fcaffe2_2eproto25InitDefaultsDBReaderProtoEv
libcaffe2.so:_ZN40protobuf_caffe2_2fproto_2fcaffe2_2eproto25InitDefaultsExecutionStepEv
libcaffe2.so:_ZN40protobuf_caffe2_2fproto_2fcaffe2_2eproto26protobuf_AssignDescriptorsEv
libcaffe2.so:_ZN40protobuf_caffe2_2fproto_2fcaffe2_2eproto27InitDefaultsTensorProtoImplEv
libcaffe2.so:_ZN40protobuf_caffe2_2fproto_2fcaffe2_2eproto27InitDefaultsTensorShapeImplEv
libcaffe2.so:_ZN40protobuf_caffe2_2fproto_2fcaffe2_2eproto28InitDefaultsDeviceOptionImplEv
libcaffe2.so:_ZN40protobuf_caffe2_2fproto_2fcaffe2_2eproto28InitDefaultsQTensorProtoImplEv
libcaffe2.so:_ZN40protobuf_caffe2_2fproto_2fcaffe2_2eproto28InitDefaultsTensorProtosImplEv
libcaffe2.so:_ZN40protobuf_caffe2_2fproto_2fcaffe2_2eproto28InitDefaultsTensorShapesImplEv
libcaffe2.so:_ZN40protobuf_caffe2_2fproto_2fcaffe2_2eproto29InitDefaultsDBReaderProtoImplEv
libcaffe2.so:_ZN40protobuf_caffe2_2fproto_2fcaffe2_2eproto29InitDefaultsExecutionStepImplEv
libcaffe2.so:_ZN40protobuf_caffe2_2fproto_2fcaffe2_2eproto30protobuf_AssignDescriptorsOnceEv
libcaffe2.so:_ZN40protobuf_caffe2_2fproto_2fcaffe2_2eproto31InitDefaultsTensorProto_SegmentEv
libcaffe2.so:_ZN40protobuf_caffe2_2fproto_2fcaffe2_2eproto35InitDefaultsTensorProto_SegmentImplEv
libcaffe2.so:_ZN41protobuf_caffe2_2fproto_2fmetanet_2eproto14AddDescriptorsEv
libcaffe2.so:_ZN41protobuf_caffe2_2fproto_2fmetanet_2eproto18AddDescriptorsImplEv
libcaffe2.so:_ZN41protobuf_caffe2_2fproto_2fmetanet_2eproto19InitDefaultsNetsMapEv
libcaffe2.so:_ZN41protobuf_caffe2_2fproto_2fmetanet_2eproto20InitDefaultsBlobsMapEv
libcaffe2.so:_ZN41protobuf_caffe2_2fproto_2fmetanet_2eproto20InitDefaultsPlansMapEv
libcaffe2.so:_ZN41protobuf_caffe2_2fproto_2fmetanet_2eproto21InitDefaultsModelInfoEv
libcaffe2.so:_ZN41protobuf_caffe2_2fproto_2fmetanet_2eproto21InitDefaultsStringMapEv
libcaffe2.so:_ZN41protobuf_caffe2_2fproto_2fmetanet_2eproto22InitDefaultsMetaNetDefEv
libcaffe2.so:_ZN41protobuf_caffe2_2fproto_2fmetanet_2eproto22protobuf_RegisterTypesERKNSt7__cxx1112basic_stringIcSt11char_traitsIcESaIcEEE
libcaffe2.so:_ZN41protobuf_caffe2_2fproto_2fmetanet_2eproto23InitDefaultsNetsMapImplEv
libcaffe2.so:_ZN41protobuf_caffe2_2fproto_2fmetanet_2eproto24InitDefaultsBlobsMapImplEv
libcaffe2.so:_ZN41protobuf_caffe2_2fproto_2fmetanet_2eproto24InitDefaultsPlansMapImplEv
libcaffe2.so:_ZN41protobuf_caffe2_2fproto_2fmetanet_2eproto25InitDefaultsModelInfoImplEv
libcaffe2.so:_ZN41protobuf_caffe2_2fproto_2fmetanet_2eproto25InitDefaultsStringMapImplEv
libcaffe2.so:_ZN41protobuf_caffe2_2fproto_2fmetanet_2eproto26InitDefaultsMetaNetDefImplEv
libcaffe2.so:_ZN41protobuf_caffe2_2fproto_2fmetanet_2eproto26protobuf_AssignDescriptorsEv
libcaffe2.so:_ZN41protobuf_caffe2_2fproto_2fmetanet_2eproto30protobuf_AssignDescriptorsOnceEv
libcaffe2.so:_ZN44protobuf_caffe2_2fproto_2fprof_5fdag_2eproto14AddDescriptorsEv
libcaffe2.so:_ZN44protobuf_caffe2_2fproto_2fprof_5fdag_2eproto18AddDescriptorsImplEv
libcaffe2.so:_ZN44protobuf_caffe2_2fproto_2fprof_5fdag_2eproto22protobuf_RegisterTypesERKNSt7__cxx1112basic_stringIcSt11char_traitsIcESaIcEEE
libcaffe2.so:_ZN44protobuf_caffe2_2fproto_2fprof_5fdag_2eproto24InitDefaultsProfDAGProtoEv
libcaffe2.so:_ZN44protobuf_caffe2_2fproto_2fprof_5fdag_2eproto25InitDefaultsProfDAGProtosEv
libcaffe2.so:_ZN44protobuf_caffe2_2fproto_2fprof_5fdag_2eproto26protobuf_AssignDescriptorsEv
libcaffe2.so:_ZN44protobuf_caffe2_2fproto_2fprof_5fdag_2eproto28InitDefaultsProfDAGProtoImplEv
libcaffe2.so:_ZN44protobuf_caffe2_2fproto_2fprof_5fdag_2eproto29InitDefaultsProfDAGProtosImplEv
libcaffe2.so:_ZN44protobuf_caffe2_2fproto_2fprof_5fdag_2eproto30protobuf_AssignDescriptorsOnceEv
libcaffe2.so:_ZN49protobuf_caffe2_2fproto_2fcaffe2_5flegacy_2eproto14AddDescriptorsEv
libcaffe2.so:_ZN49protobuf_caffe2_2fproto_2fcaffe2_5flegacy_2eproto18AddDescriptorsImplEv
libcaffe2.so:_ZN49protobuf_caffe2_2fproto_2fcaffe2_5flegacy_2eproto22protobuf_RegisterTypesERKNSt7__cxx1112basic_stringIcSt11char_traitsIcESaIcEEE
libcaffe2.so:_ZN49protobuf_caffe2_2fproto_2fcaffe2_5flegacy_2eproto26protobuf_AssignDescriptorsEv
libcaffe2.so:_ZN49protobuf_caffe2_2fproto_2fcaffe2_5flegacy_2eproto30protobuf_AssignDescriptorsOnceEv
libcaffe2.so:_ZN4gloo10pciDevicesB5cxx11ENS_13PCIClassMatchE
libcaffe2.so:_ZN4gloo10rendezvous11PrefixStore3getERKNSt7__cxx1112basic_stringIcSt11char_traitsIcESaIcEEE
libcaffe2.so:_ZN4gloo10rendezvous11PrefixStore3setERKNSt7__cxx1112basic_stringIcSt11char_traitsIcESaIcEEERKSt6vectorIcS6_E
libcaffe2.so:_ZN4gloo10rendezvous11PrefixStore4waitERKSt6vectorINSt7__cxx1112basic_stringIcSt11char_traitsIcESaIcEEESaIS8_EERKNSt6chrono8durationIlSt5ratioILl1ELl1000EEEE
libcaffe2.so:_ZN4gloo10rendezvous11PrefixStore7joinKeyERKNSt7__cxx1112basic_stringIcSt11char_traitsIcESaIcEEE
libcaffe2.so:_ZN4gloo10rendezvous11PrefixStoreC1ERKNSt7__cxx1112basic_stringIcSt11char_traitsIcESaIcEEERNS0_5StoreE
libcaffe2.so:_ZN4gloo10rendezvous11PrefixStoreC2ERKNSt7__cxx1112basic_stringIcSt11char_traitsIcESaIcEEERNS0_5StoreE
libcaffe2.so:_ZN4gloo10rendezvous14ContextFactory11makeContextERSt10shared_ptrINS_9transport6DeviceEE
libcaffe2.so:_ZN4gloo10rendezvous14ContextFactoryC1ESt10shared_ptrINS_7ContextEE
libcaffe2.so:_ZN4gloo10rendezvous14ContextFactoryC2ESt10shared_ptrINS_7ContextEE
libcaffe2.so:_ZN4gloo10rendezvous5StoreD0Ev
libcaffe2.so:_ZN4gloo10rendezvous5StoreD1Ev
libcaffe2.so:_ZN4gloo10rendezvous5StoreD2Ev
libcaffe2.so:_ZN4gloo10rendezvous7Context14extractAddressERSt6vectorIcSaIcEEi
libcaffe2.so:_ZN4gloo10rendezvous7Context15connectFullMeshERNS0_5StoreERSt10shared_ptrINS_9transport6DeviceEE
libcaffe2.so:_ZN4gloo10rendezvous7ContextC1Eiii
libcaffe2.so:_ZN4gloo10rendezvous7ContextC2Eiii
libcaffe2.so:_ZN4gloo10rendezvous7ContextD0Ev
libcaffe2.so:_ZN4gloo10rendezvous7ContextD1Ev
libcaffe2.so:_ZN4gloo10rendezvous7ContextD2Ev
libcaffe2.so:_ZN4gloo11pciDistanceERKNSt7__cxx1112basic_stringIcSt11char_traitsIcESaIcEEES7_
libcaffe2.so:_ZN4gloo13EnforceNotMetC1EPKciS2_RKNSt7__cxx1112basic_stringIcSt11char_traitsIcESaIcEEE
libcaffe2.so:_ZN4gloo13EnforceNotMetC2EPKciS2_RKNSt7__cxx1112basic_stringIcSt11char_traitsIcESaIcEEE
libcaffe2.so:_ZN4gloo13kernelModulesB5cxx11Ev
libcaffe2.so:_ZN4gloo16interfaceToBusIDERKNSt7__cxx1112basic_stringIcSt11char_traitsIcESaIcEEE
libcaffe2.so:_ZN4gloo17infinibandToBusIDERKNSt7__cxx1112basic_stringIcSt11char_traitsIcESaIcEEE
libcaffe2.so:_ZN4gloo23getInterfaceSpeedByNameERKNSt7__cxx1112basic_stringIcSt11char_traitsIcESaIcEEE
libcaffe2.so:_ZN4gloo3mpi7Context13createManagedEv
libcaffe2.so:_ZN4gloo3mpi7Context15connectFullMeshERSt10shared_ptrINS_9transport6DeviceEE
libcaffe2.so:_ZN4gloo3mpi7ContextC1ERKP19ompi_communicator_t
libcaffe2.so:_ZN4gloo3mpi7ContextC2ERKP19ompi_communicator_t
libcaffe2.so:_ZN4gloo3mpi7ContextD0Ev
libcaffe2.so:_ZN4gloo3mpi7ContextD1Ev
libcaffe2.so:_ZN4gloo3mpi7ContextD2Ev
libcaffe2.so:_ZN4gloo3mpi8MPIScopeC1Ev
libcaffe2.so:_ZN4gloo3mpi8MPIScopeC2Ev
libcaffe2.so:_ZN4gloo3mpi8MPIScopeD1Ev
libcaffe2.so:_ZN4gloo3mpi8MPIScopeD2Ev
libcaffe2.so:_ZN4gloo7Context10setTimeoutENSt6chrono8durationIlSt5ratioILl1ELl1000EEEE
libcaffe2.so:_ZN4gloo7Context16closeConnectionsEv
libcaffe2.so:_ZN4gloo7Context7getPairEi
libcaffe2.so:_ZN4gloo7Context8nextSlotEi
libcaffe2.so:_ZN4gloo7Context9getDeviceEv
libcaffe2.so:_ZN4gloo7ContextC1Eiii
libcaffe2.so:_ZN4gloo7ContextC2Eiii
libcaffe2.so:_ZN4gloo7ContextD0Ev
libcaffe2.so:_ZN4gloo7ContextD1Ev
libcaffe2.so:_ZN4gloo7ContextD2Ev
libcaffe2.so:_ZN4gloo9Algorithm11getLeftPairEv
libcaffe2.so:_ZN4gloo9Algorithm12getRightPairEv
libcaffe2.so:_ZN4gloo9Algorithm7getPairEi
libcaffe2.so:_ZN4gloo9AlgorithmC1ERKSt10shared_ptrINS_7ContextEE
libcaffe2.so:_ZN4gloo9AlgorithmC2ERKSt10shared_ptrINS_7ContextEE
libcaffe2.so:_ZN4gloo9AlgorithmD0Ev
libcaffe2.so:_ZN4gloo9AlgorithmD1Ev
libcaffe2.so:_ZN4gloo9AlgorithmD2Ev
libcaffe2.so:_ZN4gloo9transport3tcp12CreateDeviceERKNS1_4attrE
libcaffe2.so:_ZN4gloo9transport3tcp15isLocalhostAddrEPK8sockaddr
libcaffe2.so:_ZN4gloo9transport3tcp23sockaddrToInterfaceNameB5cxx11ERKNS1_4attrE
libcaffe2.so:_ZN4gloo9transport3tcp4Pair11changeStateENS2_5stateE
libcaffe2.so:_ZN4gloo9transport3tcp4Pair12handleEventsEi
libcaffe2.so:_ZN4gloo9transport3tcp4Pair14registerBufferEPNS1_6BufferE
libcaffe2.so:_ZN4gloo9transport3tcp4Pair15checkErrorStateEv
libcaffe2.so:_ZN4gloo9transport3tcp4Pair15handleConnectedEv
libcaffe2.so:_ZN4gloo9transport3tcp4Pair15handleListeningEv
libcaffe2.so:_ZN4gloo9transport3tcp4Pair15signalIoFailureERKNSt7__cxx1112basic_stringIcSt11char_traitsIcESaIcEEE
libcaffe2.so:_ZN4gloo9transport3tcp4Pair15verifyConnectedEv
libcaffe2.so:_ZN4gloo9transport3tcp4Pair16createRecvBufferEiPvm
libcaffe2.so:_ZN4gloo9transport3tcp4Pair16createSendBufferEiPvm
libcaffe2.so:_ZN4gloo9transport3tcp4Pair16handleConnectingEv
libcaffe2.so:_ZN4gloo9transport3tcp4Pair16unregisterBufferEPNS1_6BufferE
libcaffe2.so:_ZN4gloo9transport3tcp4Pair18waitUntilConnectedERSt11unique_lockISt5mutexEb
libcaffe2.so:_ZN4gloo9transport3tcp4Pair23signalIoFailureExternalERKNSt7__cxx1112basic_stringIcSt11char_traitsIcESaIcEEE
libcaffe2.so:_ZN4gloo9transport3tcp4Pair4readERNS1_2OpE
libcaffe2.so:_ZN4gloo9transport3tcp4Pair4recvEv
libcaffe2.so:_ZN4gloo9transport3tcp4Pair4sendERNS1_2OpE
libcaffe2.so:_ZN4gloo9transport3tcp4Pair5closeEv
libcaffe2.so:_ZN4gloo9transport3tcp4Pair5writeERNS1_2OpE
libcaffe2.so:_ZN4gloo9transport3tcp4Pair6listenEv
libcaffe2.so:_ZN4gloo9transport3tcp4Pair7connectERKNS1_7AddressE
libcaffe2.so:_ZN4gloo9transport3tcp4Pair7connectERKSt6vectorIcSaIcEE
libcaffe2.so:_ZN4gloo9transport3tcp4Pair7setSyncEbb
libcaffe2.so:_ZN4gloo9transport3tcp4Pair9getBufferEi
libcaffe2.so:_ZN4gloo9transport3tcp4PairC1ERKSt10shared_ptrINS1_6DeviceEENSt6chrono8durationIlSt5ratioILl1ELl1000EEEE
libcaffe2.so:_ZN4gloo9transport3tcp4PairC2ERKSt10shared_ptrINS1_6DeviceEENSt6chrono8durationIlSt5ratioILl1ELl1000EEEE
libcaffe2.so:_ZN4gloo9transport3tcp4PairD0Ev
libcaffe2.so:_ZN4gloo9transport3tcp4PairD1Ev
libcaffe2.so:_ZN4gloo9transport3tcp4PairD2Ev
libcaffe2.so:_ZN4gloo9transport3tcp6Buffer11signalErrorERKNSt15__exception_ptr13exception_ptrE
libcaffe2.so:_ZN4gloo9transport3tcp6Buffer15checkErrorStateEv
libcaffe2.so:_ZN4gloo9transport3tcp6Buffer20handleRecvCompletionEv
libcaffe2.so:_ZN4gloo9transport3tcp6Buffer20handleSendCompletionEv
libcaffe2.so:_ZN4gloo9transport3tcp6Buffer4sendEmmm
libcaffe2.so:_ZN4gloo9transport3tcp6Buffer8waitRecvEv
libcaffe2.so:_ZN4gloo9transport3tcp6Buffer8waitSendEv
libcaffe2.so:_ZN4gloo9transport3tcp6BufferC1EPNS1_4PairEiPvm
libcaffe2.so:_ZN4gloo9transport3tcp6BufferC2EPNS1_4PairEiPvm
libcaffe2.so:_ZN4gloo9transport3tcp6BufferD0Ev
libcaffe2.so:_ZN4gloo9transport3tcp6BufferD1Ev
libcaffe2.so:_ZN4gloo9transport3tcp6BufferD2Ev
libcaffe2.so:_ZN4gloo9transport3tcp6Device10createPairENSt6chrono8durationIlSt5ratioILl1ELl1000EEEE
libcaffe2.so:_ZN4gloo9transport3tcp6Device18registerDescriptorEiiPNS1_4PairE
libcaffe2.so:_ZN4gloo9transport3tcp6Device20unregisterDescriptorEi
libcaffe2.so:_ZN4gloo9transport3tcp6Device4loopEv
libcaffe2.so:_ZN4gloo9transport3tcp6DeviceC1ERKNS1_4attrE
libcaffe2.so:_ZN4gloo9transport3tcp6DeviceC2ERKNS1_4attrE
libcaffe2.so:_ZN4gloo9transport3tcp6DeviceD0Ev
libcaffe2.so:_ZN4gloo9transport3tcp6DeviceD1Ev
libcaffe2.so:_ZN4gloo9transport3tcp6DeviceD2Ev
libcaffe2.so:_ZN4gloo9transport3tcp7Address12fromPeerNameEi
libcaffe2.so:_ZN4gloo9transport3tcp7Address12fromSockNameEi
libcaffe2.so:_ZN4gloo9transport3tcp7AddressC1EPK8sockaddrm
libcaffe2.so:_ZN4gloo9transport3tcp7AddressC1ERK16sockaddr_storage
libcaffe2.so:_ZN4gloo9transport3tcp7AddressC1ERKSt6vectorIcSaIcEE
libcaffe2.so:_ZN4gloo9transport3tcp7AddressC2EPK8sockaddrm
libcaffe2.so:_ZN4gloo9transport3tcp7AddressC2ERK16sockaddr_storage
libcaffe2.so:_ZN4gloo9transport3tcp7AddressC2ERKSt6vectorIcSaIcEE
libcaffe2.so:_ZN4gloo9transport4PairD0Ev
libcaffe2.so:_ZN4gloo9transport4PairD1Ev
libcaffe2.so:_ZN4gloo9transport4PairD2Ev
libcaffe2.so:_ZN4gloo9transport6BufferD0Ev
libcaffe2.so:_ZN4gloo9transport6BufferD1Ev
libcaffe2.so:_ZN4gloo9transport6BufferD2Ev
libcaffe2.so:_ZN4gloo9transport6DeviceD0Ev
libcaffe2.so:_ZN4gloo9transport6DeviceD1Ev
libcaffe2.so:_ZN4gloo9transport6DeviceD2Ev
libcaffe2.so:_ZN4gloo9transport7AddressD0Ev
libcaffe2.so:_ZN4gloo9transport7AddressD1Ev
libcaffe2.so:_ZN4gloo9transport7AddressD2Ev
libcaffe2.so:_ZN52protobuf_caffe2_2fproto_2fpredictor_5fconsts_2eproto14AddDescriptorsEv
libcaffe2.so:_ZN52protobuf_caffe2_2fproto_2fpredictor_5fconsts_2eproto18AddDescriptorsImplEv
libcaffe2.so:_ZN52protobuf_caffe2_2fproto_2fpredictor_5fconsts_2eproto22protobuf_RegisterTypesERKNSt7__cxx1112basic_stringIcSt11char_traitsIcESaIcEEE
libcaffe2.so:_ZN52protobuf_caffe2_2fproto_2fpredictor_5fconsts_2eproto26protobuf_AssignDescriptorsEv
libcaffe2.so:_ZN52protobuf_caffe2_2fproto_2fpredictor_5fconsts_2eproto27InitDefaultsPredictorConstsEv
libcaffe2.so:_ZN52protobuf_caffe2_2fproto_2fpredictor_5fconsts_2eproto30protobuf_AssignDescriptorsOnceEv
libcaffe2.so:_ZN52protobuf_caffe2_2fproto_2fpredictor_5fconsts_2eproto31InitDefaultsPredictorConstsImplEv
libcaffe2.so:_ZN5caffe11SolverState10SharedCtorEv
libcaffe2.so:_ZN5caffe11SolverState10SharedDtorEv
libcaffe2.so:_ZN5caffe11SolverState10descriptorEv
libcaffe2.so:_ZN5caffe11SolverState12InternalSwapEPS0_
libcaffe2.so:_ZN5caffe11SolverState16default_instanceEv
libcaffe2.so:_ZN5caffe11SolverState21InitAsDefaultInstanceEv
libcaffe2.so:_ZN5caffe11SolverState27MergePartialFromCodedStreamEPN6google8protobuf2io16CodedInputStreamE
libcaffe2.so:_ZN5caffe11SolverState4SwapEPS0_
libcaffe2.so:_ZN5caffe11SolverState5ClearEv
libcaffe2.so:_ZN5caffe11SolverState8CopyFromERKN6google8protobuf7MessageE
libcaffe2.so:_ZN5caffe11SolverState8CopyFromERKS0_
libcaffe2.so:_ZN5caffe11SolverState9MergeFromERKN6google8protobuf7MessageE
libcaffe2.so:_ZN5caffe11SolverState9MergeFromERKS0_
libcaffe2.so:_ZN5caffe11SolverStateC1ERKS0_
libcaffe2.so:_ZN5caffe11SolverStateC1Ev
libcaffe2.so:_ZN5caffe11SolverStateC2ERKS0_
libcaffe2.so:_ZN5caffe11SolverStateC2Ev
libcaffe2.so:_ZN5caffe11SolverStateD0Ev
libcaffe2.so:_ZN5caffe11SolverStateD1Ev
libcaffe2.so:_ZN5caffe11SolverStateD2Ev
libcaffe2.so:_ZN5caffe12ELUParameter10SharedCtorEv
libcaffe2.so:_ZN5caffe12ELUParameter10SharedDtorEv
libcaffe2.so:_ZN5caffe12ELUParameter10descriptorEv
libcaffe2.so:_ZN5caffe12ELUParameter12InternalSwapEPS0_
libcaffe2.so:_ZN5caffe12ELUParameter16default_instanceEv
libcaffe2.so:_ZN5caffe12ELUParameter21InitAsDefaultInstanceEv
libcaffe2.so:_ZN5caffe12ELUParameter27MergePartialFromCodedStreamEPN6google8protobuf2io16CodedInputStreamE
libcaffe2.so:_ZN5caffe12ELUParameter4SwapEPS0_
libcaffe2.so:_ZN5caffe12ELUParameter5ClearEv
libcaffe2.so:_ZN5caffe12ELUParameter8CopyFromERKN6google8protobuf7MessageE
libcaffe2.so:_ZN5caffe12ELUParameter8CopyFromERKS0_
libcaffe2.so:_ZN5caffe12ELUParameter9MergeFromERKN6google8protobuf7MessageE
libcaffe2.so:_ZN5caffe12ELUParameter9MergeFromERKS0_
libcaffe2.so:_ZN5caffe12ELUParameterC1ERKS0_
libcaffe2.so:_ZN5caffe12ELUParameterC1Ev
libcaffe2.so:_ZN5caffe12ELUParameterC2ERKS0_
libcaffe2.so:_ZN5caffe12ELUParameterC2Ev
libcaffe2.so:_ZN5caffe12ELUParameterD0Ev
libcaffe2.so:_ZN5caffe12ELUParameterD1Ev
libcaffe2.so:_ZN5caffe12ELUParameterD2Ev
libcaffe2.so:_ZN5caffe12ExpParameter10SharedCtorEv
libcaffe2.so:_ZN5caffe12ExpParameter10SharedDtorEv
libcaffe2.so:_ZN5caffe12ExpParameter10descriptorEv
libcaffe2.so:_ZN5caffe12ExpParameter12InternalSwapEPS0_
libcaffe2.so:_ZN5caffe12ExpParameter16default_instanceEv
libcaffe2.so:_ZN5caffe12ExpParameter21InitAsDefaultInstanceEv
libcaffe2.so:_ZN5caffe12ExpParameter27MergePartialFromCodedStreamEPN6google8protobuf2io16CodedInputStreamE
libcaffe2.so:_ZN5caffe12ExpParameter4SwapEPS0_
libcaffe2.so:_ZN5caffe12ExpParameter5ClearEv
libcaffe2.so:_ZN5caffe12ExpParameter8CopyFromERKN6google8protobuf7MessageE
libcaffe2.so:_ZN5caffe12ExpParameter8CopyFromERKS0_
libcaffe2.so:_ZN5caffe12ExpParameter9MergeFromERKN6google8protobuf7MessageE
libcaffe2.so:_ZN5caffe12ExpParameter9MergeFromERKS0_
libcaffe2.so:_ZN5caffe12ExpParameterC1ERKS0_
libcaffe2.so:_ZN5caffe12ExpParameterC1Ev
libcaffe2.so:_ZN5caffe12ExpParameterC2ERKS0_
libcaffe2.so:_ZN5caffe12ExpParameterC2Ev
libcaffe2.so:_ZN5caffe12ExpParameterD0Ev
libcaffe2.so:_ZN5caffe12ExpParameterD1Ev
libcaffe2.so:_ZN5caffe12ExpParameterD2Ev
libcaffe2.so:_ZN5caffe12LRNParameter10SharedCtorEv
libcaffe2.so:_ZN5caffe12LRNParameter10SharedDtorEv
libcaffe2.so:_ZN5caffe12LRNParameter10descriptorEv
libcaffe2.so:_ZN5caffe12LRNParameter12InternalSwapEPS0_
libcaffe2.so:_ZN5caffe12LRNParameter16default_instanceEv
libcaffe2.so:_ZN5caffe12LRNParameter21InitAsDefaultInstanceEv
libcaffe2.so:_ZN5caffe12LRNParameter27MergePartialFromCodedStreamEPN6google8protobuf2io16CodedInputStreamE
libcaffe2.so:_ZN5caffe12LRNParameter4SwapEPS0_
libcaffe2.so:_ZN5caffe12LRNParameter5ClearEv
libcaffe2.so:_ZN5caffe12LRNParameter8CopyFromERKN6google8protobuf7MessageE
libcaffe2.so:_ZN5caffe12LRNParameter8CopyFromERKS0_
libcaffe2.so:_ZN5caffe12LRNParameter9MergeFromERKN6google8protobuf7MessageE
libcaffe2.so:_ZN5caffe12LRNParameter9MergeFromERKS0_
libcaffe2.so:_ZN5caffe12LRNParameterC1ERKS0_
libcaffe2.so:_ZN5caffe12LRNParameterC1Ev
libcaffe2.so:_ZN5caffe12LRNParameterC2ERKS0_
libcaffe2.so:_ZN5caffe12LRNParameterC2Ev
libcaffe2.so:_ZN5caffe12LRNParameterD0Ev
libcaffe2.so:_ZN5caffe12LRNParameterD1Ev
libcaffe2.so:_ZN5caffe12LRNParameterD2Ev
libcaffe2.so:_ZN5caffe12LogParameter10SharedCtorEv
libcaffe2.so:_ZN5caffe12LogParameter10SharedDtorEv
libcaffe2.so:_ZN5caffe12LogParameter10descriptorEv
libcaffe2.so:_ZN5caffe12LogParameter12InternalSwapEPS0_
libcaffe2.so:_ZN5caffe12LogParameter16default_instanceEv
libcaffe2.so:_ZN5caffe12LogParameter21InitAsDefaultInstanceEv
libcaffe2.so:_ZN5caffe12LogParameter27MergePartialFromCodedStreamEPN6google8protobuf2io16CodedInputStreamE
libcaffe2.so:_ZN5caffe12LogParameter4SwapEPS0_
libcaffe2.so:_ZN5caffe12LogParameter5ClearEv
libcaffe2.so:_ZN5caffe12LogParameter8CopyFromERKN6google8protobuf7MessageE
libcaffe2.so:_ZN5caffe12LogParameter8CopyFromERKS0_
libcaffe2.so:_ZN5caffe12LogParameter9MergeFromERKN6google8protobuf7MessageE
libcaffe2.so:_ZN5caffe12LogParameter9MergeFromERKS0_
libcaffe2.so:_ZN5caffe12LogParameterC1ERKS0_
libcaffe2.so:_ZN5caffe12LogParameterC1Ev
libcaffe2.so:_ZN5caffe12LogParameterC2ERKS0_
libcaffe2.so:_ZN5caffe12LogParameterC2Ev
libcaffe2.so:_ZN5caffe12LogParameterD0Ev
libcaffe2.so:_ZN5caffe12LogParameterD1Ev
libcaffe2.so:_ZN5caffe12LogParameterD2Ev
libcaffe2.so:_ZN5caffe12MVNParameter10SharedCtorEv
libcaffe2.so:_ZN5caffe12MVNParameter10SharedDtorEv
libcaffe2.so:_ZN5caffe12MVNParameter10descriptorEv
libcaffe2.so:_ZN5caffe12MVNParameter12InternalSwapEPS0_
libcaffe2.so:_ZN5caffe12MVNParameter16default_instanceEv
libcaffe2.so:_ZN5caffe12MVNParameter21InitAsDefaultInstanceEv
libcaffe2.so:_ZN5caffe12MVNParameter27MergePartialFromCodedStreamEPN6google8protobuf2io16CodedInputStreamE
libcaffe2.so:_ZN5caffe12MVNParameter4SwapEPS0_
libcaffe2.so:_ZN5caffe12MVNParameter5ClearEv
libcaffe2.so:_ZN5caffe12MVNParameter8CopyFromERKN6google8protobuf7MessageE
libcaffe2.so:_ZN5caffe12MVNParameter8CopyFromERKS0_
libcaffe2.so:_ZN5caffe12MVNParameter9MergeFromERKN6google8protobuf7MessageE
libcaffe2.so:_ZN5caffe12MVNParameter9MergeFromERKS0_
libcaffe2.so:_ZN5caffe12MVNParameterC1ERKS0_
libcaffe2.so:_ZN5caffe12MVNParameterC1Ev
libcaffe2.so:_ZN5caffe12MVNParameterC2ERKS0_
libcaffe2.so:_ZN5caffe12MVNParameterC2Ev
libcaffe2.so:_ZN5caffe12MVNParameterD0Ev
libcaffe2.so:_ZN5caffe12MVNParameterD1Ev
libcaffe2.so:_ZN5caffe12MVNParameterD2Ev
libcaffe2.so:_ZN5caffe12NetParameter10SharedCtorEv
libcaffe2.so:_ZN5caffe12NetParameter10SharedDtorEv
libcaffe2.so:_ZN5caffe12NetParameter10descriptorEv
libcaffe2.so:_ZN5caffe12NetParameter12InternalSwapEPS0_
libcaffe2.so:_ZN5caffe12NetParameter16default_instanceEv
libcaffe2.so:_ZN5caffe12NetParameter21InitAsDefaultInstanceEv
libcaffe2.so:_ZN5caffe12NetParameter27MergePartialFromCodedStreamEPN6google8protobuf2io16CodedInputStreamE
libcaffe2.so:_ZN5caffe12NetParameter4SwapEPS0_
libcaffe2.so:_ZN5caffe12NetParameter5ClearEv
libcaffe2.so:_ZN5caffe12NetParameter8CopyFromERKN6google8protobuf7MessageE
libcaffe2.so:_ZN5caffe12NetParameter8CopyFromERKS0_
libcaffe2.so:_ZN5caffe12NetParameter9MergeFromERKN6google8protobuf7MessageE
libcaffe2.so:_ZN5caffe12NetParameter9MergeFromERKS0_
libcaffe2.so:_ZN5caffe12NetParameterC1ERKS0_
libcaffe2.so:_ZN5caffe12NetParameterC1Ev
libcaffe2.so:_ZN5caffe12NetParameterC2ERKS0_
libcaffe2.so:_ZN5caffe12NetParameterC2Ev
libcaffe2.so:_ZN5caffe12NetParameterD0Ev
libcaffe2.so:_ZN5caffe12NetParameterD1Ev
libcaffe2.so:_ZN5caffe12NetParameterD2Ev
libcaffe2.so:_ZN5caffe12NetStateRule10SharedCtorEv
libcaffe2.so:_ZN5caffe12NetStateRule10SharedDtorEv
libcaffe2.so:_ZN5caffe12NetStateRule10descriptorEv
libcaffe2.so:_ZN5caffe12NetStateRule12InternalSwapEPS0_
libcaffe2.so:_ZN5caffe12NetStateRule16default_instanceEv
libcaffe2.so:_ZN5caffe12NetStateRule21InitAsDefaultInstanceEv
libcaffe2.so:_ZN5caffe12NetStateRule27MergePartialFromCodedStreamEPN6google8protobuf2io16CodedInputStreamE
libcaffe2.so:_ZN5caffe12NetStateRule4SwapEPS0_
libcaffe2.so:_ZN5caffe12NetStateRule5ClearEv
libcaffe2.so:_ZN5caffe12NetStateRule8CopyFromERKN6google8protobuf7MessageE
libcaffe2.so:_ZN5caffe12NetStateRule8CopyFromERKS0_
libcaffe2.so:_ZN5caffe12NetStateRule9MergeFromERKN6google8protobuf7MessageE
libcaffe2.so:_ZN5caffe12NetStateRule9MergeFromERKS0_
libcaffe2.so:_ZN5caffe12NetStateRuleC1ERKS0_
libcaffe2.so:_ZN5caffe12NetStateRuleC1Ev
libcaffe2.so:_ZN5caffe12NetStateRuleC2ERKS0_
libcaffe2.so:_ZN5caffe12NetStateRuleC2Ev
libcaffe2.so:_ZN5caffe12NetStateRuleD0Ev
libcaffe2.so:_ZN5caffe12NetStateRuleD1Ev
libcaffe2.so:_ZN5caffe12NetStateRuleD2Ev
libcaffe2.so:_ZN5caffe12SPPParameter10SharedCtorEv
libcaffe2.so:_ZN5caffe12SPPParameter10SharedDtorEv
libcaffe2.so:_ZN5caffe12SPPParameter10descriptorEv
libcaffe2.so:_ZN5caffe12SPPParameter12InternalSwapEPS0_
libcaffe2.so:_ZN5caffe12SPPParameter16default_instanceEv
libcaffe2.so:_ZN5caffe12SPPParameter21InitAsDefaultInstanceEv
libcaffe2.so:_ZN5caffe12SPPParameter27MergePartialFromCodedStreamEPN6google8protobuf2io16CodedInputStreamE
libcaffe2.so:_ZN5caffe12SPPParameter4SwapEPS0_
libcaffe2.so:_ZN5caffe12SPPParameter5ClearEv
libcaffe2.so:_ZN5caffe12SPPParameter8CopyFromERKN6google8protobuf7MessageE
libcaffe2.so:_ZN5caffe12SPPParameter8CopyFromERKS0_
libcaffe2.so:_ZN5caffe12SPPParameter9MergeFromERKN6google8protobuf7MessageE
libcaffe2.so:_ZN5caffe12SPPParameter9MergeFromERKS0_
libcaffe2.so:_ZN5caffe12SPPParameterC1ERKS0_
libcaffe2.so:_ZN5caffe12SPPParameterC1Ev
libcaffe2.so:_ZN5caffe12SPPParameterC2ERKS0_
libcaffe2.so:_ZN5caffe12SPPParameterC2Ev
libcaffe2.so:_ZN5caffe12SPPParameterD0Ev
libcaffe2.so:_ZN5caffe12SPPParameterD1Ev
libcaffe2.so:_ZN5caffe12SPPParameterD2Ev
libcaffe2.so:_ZN5caffe13BiasParameter10SharedCtorEv
libcaffe2.so:_ZN5caffe13BiasParameter10SharedDtorEv
libcaffe2.so:_ZN5caffe13BiasParameter10descriptorEv
libcaffe2.so:_ZN5caffe13BiasParameter12InternalSwapEPS0_
libcaffe2.so:_ZN5caffe13BiasParameter16default_instanceEv
libcaffe2.so:_ZN5caffe13BiasParameter21InitAsDefaultInstanceEv
libcaffe2.so:_ZN5caffe13BiasParameter27MergePartialFromCodedStreamEPN6google8protobuf2io16CodedInputStreamE
libcaffe2.so:_ZN5caffe13BiasParameter4SwapEPS0_
libcaffe2.so:_ZN5caffe13BiasParameter5ClearEv
libcaffe2.so:_ZN5caffe13BiasParameter8CopyFromERKN6google8protobuf7MessageE
libcaffe2.so:_ZN5caffe13BiasParameter8CopyFromERKS0_
libcaffe2.so:_ZN5caffe13BiasParameter9MergeFromERKN6google8protobuf7MessageE
libcaffe2.so:_ZN5caffe13BiasParameter9MergeFromERKS0_
libcaffe2.so:_ZN5caffe13BiasParameterC1ERKS0_
libcaffe2.so:_ZN5caffe13BiasParameterC1Ev
libcaffe2.so:_ZN5caffe13BiasParameterC2ERKS0_
libcaffe2.so:_ZN5caffe13BiasParameterC2Ev
libcaffe2.so:_ZN5caffe13BiasParameterD0Ev
libcaffe2.so:_ZN5caffe13BiasParameterD1Ev
libcaffe2.so:_ZN5caffe13BiasParameterD2Ev
libcaffe2.so:_ZN5caffe13CropParameter10SharedCtorEv
libcaffe2.so:_ZN5caffe13CropParameter10SharedDtorEv
libcaffe2.so:_ZN5caffe13CropParameter10descriptorEv
libcaffe2.so:_ZN5caffe13CropParameter12InternalSwapEPS0_
libcaffe2.so:_ZN5caffe13CropParameter16default_instanceEv
libcaffe2.so:_ZN5caffe13CropParameter21InitAsDefaultInstanceEv
libcaffe2.so:_ZN5caffe13CropParameter27MergePartialFromCodedStreamEPN6google8protobuf2io16CodedInputStreamE
libcaffe2.so:_ZN5caffe13CropParameter4SwapEPS0_
libcaffe2.so:_ZN5caffe13CropParameter5ClearEv
libcaffe2.so:_ZN5caffe13CropParameter8CopyFromERKN6google8protobuf7MessageE
libcaffe2.so:_ZN5caffe13CropParameter8CopyFromERKS0_
libcaffe2.so:_ZN5caffe13CropParameter9MergeFromERKN6google8protobuf7MessageE
libcaffe2.so:_ZN5caffe13CropParameter9MergeFromERKS0_
libcaffe2.so:_ZN5caffe13CropParameterC1ERKS0_
libcaffe2.so:_ZN5caffe13CropParameterC1Ev
libcaffe2.so:_ZN5caffe13CropParameterC2ERKS0_
libcaffe2.so:_ZN5caffe13CropParameterC2Ev
libcaffe2.so:_ZN5caffe13CropParameterD0Ev
libcaffe2.so:_ZN5caffe13CropParameterD1Ev
libcaffe2.so:_ZN5caffe13CropParameterD2Ev
libcaffe2.so:_ZN5caffe13DataParameter10SharedCtorEv
libcaffe2.so:_ZN5caffe13DataParameter10SharedDtorEv
libcaffe2.so:_ZN5caffe13DataParameter10descriptorEv
libcaffe2.so:_ZN5caffe13DataParameter12InternalSwapEPS0_
libcaffe2.so:_ZN5caffe13DataParameter16default_instanceEv
libcaffe2.so:_ZN5caffe13DataParameter21InitAsDefaultInstanceEv
libcaffe2.so:_ZN5caffe13DataParameter27MergePartialFromCodedStreamEPN6google8protobuf2io16CodedInputStreamE
libcaffe2.so:_ZN5caffe13DataParameter4SwapEPS0_
libcaffe2.so:_ZN5caffe13DataParameter5ClearEv
libcaffe2.so:_ZN5caffe13DataParameter8CopyFromERKN6google8protobuf7MessageE
libcaffe2.so:_ZN5caffe13DataParameter8CopyFromERKS0_
libcaffe2.so:_ZN5caffe13DataParameter9MergeFromERKN6google8protobuf7MessageE
libcaffe2.so:_ZN5caffe13DataParameter9MergeFromERKS0_
libcaffe2.so:_ZN5caffe13DataParameterC1ERKS0_
libcaffe2.so:_ZN5caffe13DataParameterC1Ev
libcaffe2.so:_ZN5caffe13DataParameterC2ERKS0_
libcaffe2.so:_ZN5caffe13DataParameterC2Ev
libcaffe2.so:_ZN5caffe13DataParameterD0Ev
libcaffe2.so:_ZN5caffe13DataParameterD1Ev
libcaffe2.so:_ZN5caffe13DataParameterD2Ev
libcaffe2.so:_ZN5caffe13LossParameter10SharedCtorEv
libcaffe2.so:_ZN5caffe13LossParameter10SharedDtorEv
libcaffe2.so:_ZN5caffe13LossParameter10descriptorEv
libcaffe2.so:_ZN5caffe13LossParameter12InternalSwapEPS0_
libcaffe2.so:_ZN5caffe13LossParameter16default_instanceEv
libcaffe2.so:_ZN5caffe13LossParameter21InitAsDefaultInstanceEv
libcaffe2.so:_ZN5caffe13LossParameter27MergePartialFromCodedStreamEPN6google8protobuf2io16CodedInputStreamE
libcaffe2.so:_ZN5caffe13LossParameter4SwapEPS0_
libcaffe2.so:_ZN5caffe13LossParameter5ClearEv
libcaffe2.so:_ZN5caffe13LossParameter8CopyFromERKN6google8protobuf7MessageE
libcaffe2.so:_ZN5caffe13LossParameter8CopyFromERKS0_
libcaffe2.so:_ZN5caffe13LossParameter9MergeFromERKN6google8protobuf7MessageE
libcaffe2.so:_ZN5caffe13LossParameter9MergeFromERKS0_
libcaffe2.so:_ZN5caffe13LossParameterC1ERKS0_
libcaffe2.so:_ZN5caffe13LossParameterC1Ev
libcaffe2.so:_ZN5caffe13LossParameterC2ERKS0_
libcaffe2.so:_ZN5caffe13LossParameterC2Ev
libcaffe2.so:_ZN5caffe13LossParameterD0Ev
libcaffe2.so:_ZN5caffe13LossParameterD1Ev
libcaffe2.so:_ZN5caffe13LossParameterD2Ev
libcaffe2.so:_ZN5caffe13Phase_IsValidEi
libcaffe2.so:_ZN5caffe13ReLUParameter10SharedCtorEv
libcaffe2.so:_ZN5caffe13ReLUParameter10SharedDtorEv
libcaffe2.so:_ZN5caffe13ReLUParameter10descriptorEv
libcaffe2.so:_ZN5caffe13ReLUParameter12InternalSwapEPS0_
libcaffe2.so:_ZN5caffe13ReLUParameter16default_instanceEv
libcaffe2.so:_ZN5caffe13ReLUParameter21InitAsDefaultInstanceEv
libcaffe2.so:_ZN5caffe13ReLUParameter27MergePartialFromCodedStreamEPN6google8protobuf2io16CodedInputStreamE
libcaffe2.so:_ZN5caffe13ReLUParameter4SwapEPS0_
libcaffe2.so:_ZN5caffe13ReLUParameter5ClearEv
libcaffe2.so:_ZN5caffe13ReLUParameter8CopyFromERKN6google8protobuf7MessageE
libcaffe2.so:_ZN5caffe13ReLUParameter8CopyFromERKS0_
libcaffe2.so:_ZN5caffe13ReLUParameter9MergeFromERKN6google8protobuf7MessageE
libcaffe2.so:_ZN5caffe13ReLUParameter9MergeFromERKS0_
libcaffe2.so:_ZN5caffe13ReLUParameterC1ERKS0_
libcaffe2.so:_ZN5caffe13ReLUParameterC1Ev
libcaffe2.so:_ZN5caffe13ReLUParameterC2ERKS0_
libcaffe2.so:_ZN5caffe13ReLUParameterC2Ev
libcaffe2.so:_ZN5caffe13ReLUParameterD0Ev
libcaffe2.so:_ZN5caffe13ReLUParameterD1Ev
libcaffe2.so:_ZN5caffe13ReLUParameterD2Ev
libcaffe2.so:_ZN5caffe13TanHParameter10SharedCtorEv
libcaffe2.so:_ZN5caffe13TanHParameter10SharedDtorEv
libcaffe2.so:_ZN5caffe13TanHParameter10descriptorEv
libcaffe2.so:_ZN5caffe13TanHParameter12InternalSwapEPS0_
libcaffe2.so:_ZN5caffe13TanHParameter16default_instanceEv
libcaffe2.so:_ZN5caffe13TanHParameter21InitAsDefaultInstanceEv
libcaffe2.so:_ZN5caffe13TanHParameter27MergePartialFromCodedStreamEPN6google8protobuf2io16CodedInputStreamE
libcaffe2.so:_ZN5caffe13TanHParameter4SwapEPS0_
libcaffe2.so:_ZN5caffe13TanHParameter5ClearEv
libcaffe2.so:_ZN5caffe13TanHParameter8CopyFromERKN6google8protobuf7MessageE
libcaffe2.so:_ZN5caffe13TanHParameter8CopyFromERKS0_
libcaffe2.so:_ZN5caffe13TanHParameter9MergeFromERKN6google8protobuf7MessageE
libcaffe2.so:_ZN5caffe13TanHParameter9MergeFromERKS0_
libcaffe2.so:_ZN5caffe13TanHParameterC1ERKS0_
libcaffe2.so:_ZN5caffe13TanHParameterC1Ev
libcaffe2.so:_ZN5caffe13TanHParameterC2ERKS0_
libcaffe2.so:_ZN5caffe13TanHParameterC2Ev
libcaffe2.so:_ZN5caffe13TanHParameterD0Ev
libcaffe2.so:_ZN5caffe13TanHParameterD1Ev
libcaffe2.so:_ZN5caffe13TanHParameterD2Ev
libcaffe2.so:_ZN5caffe13TileParameter10SharedCtorEv
libcaffe2.so:_ZN5caffe13TileParameter10SharedDtorEv
libcaffe2.so:_ZN5caffe13TileParameter10descriptorEv
libcaffe2.so:_ZN5caffe13TileParameter12InternalSwapEPS0_
libcaffe2.so:_ZN5caffe13TileParameter16default_instanceEv
libcaffe2.so:_ZN5caffe13TileParameter21InitAsDefaultInstanceEv
libcaffe2.so:_ZN5caffe13TileParameter27MergePartialFromCodedStreamEPN6google8protobuf2io16CodedInputStreamE
libcaffe2.so:_ZN5caffe13TileParameter4SwapEPS0_
libcaffe2.so:_ZN5caffe13TileParameter5ClearEv
libcaffe2.so:_ZN5caffe13TileParameter8CopyFromERKN6google8protobuf7MessageE
libcaffe2.so:_ZN5caffe13TileParameter8CopyFromERKS0_
libcaffe2.so:_ZN5caffe13TileParameter9MergeFromERKN6google8protobuf7MessageE
libcaffe2.so:_ZN5caffe13TileParameter9MergeFromERKS0_
libcaffe2.so:_ZN5caffe13TileParameterC1ERKS0_
libcaffe2.so:_ZN5caffe13TileParameterC1Ev
libcaffe2.so:_ZN5caffe13TileParameterC2ERKS0_
libcaffe2.so:_ZN5caffe13TileParameterC2Ev
libcaffe2.so:_ZN5caffe13TileParameterD0Ev
libcaffe2.so:_ZN5caffe13TileParameterD1Ev
libcaffe2.so:_ZN5caffe13TileParameterD2Ev
libcaffe2.so:_ZN5caffe14EmbedParameter10SharedCtorEv
libcaffe2.so:_ZN5caffe14EmbedParameter10SharedDtorEv
libcaffe2.so:_ZN5caffe14EmbedParameter10descriptorEv
libcaffe2.so:_ZN5caffe14EmbedParameter12InternalSwapEPS0_
libcaffe2.so:_ZN5caffe14EmbedParameter16default_instanceEv
libcaffe2.so:_ZN5caffe14EmbedParameter21InitAsDefaultInstanceEv
libcaffe2.so:_ZN5caffe14EmbedParameter27MergePartialFromCodedStreamEPN6google8protobuf2io16CodedInputStreamE
libcaffe2.so:_ZN5caffe14EmbedParameter4SwapEPS0_
libcaffe2.so:_ZN5caffe14EmbedParameter5ClearEv
libcaffe2.so:_ZN5caffe14EmbedParameter8CopyFromERKN6google8protobuf7MessageE
libcaffe2.so:_ZN5caffe14EmbedParameter8CopyFromERKS0_
libcaffe2.so:_ZN5caffe14EmbedParameter9MergeFromERKN6google8protobuf7MessageE
libcaffe2.so:_ZN5caffe14EmbedParameter9MergeFromERKS0_
libcaffe2.so:_ZN5caffe14EmbedParameterC1ERKS0_
libcaffe2.so:_ZN5caffe14EmbedParameterC1Ev
libcaffe2.so:_ZN5caffe14EmbedParameterC2ERKS0_
libcaffe2.so:_ZN5caffe14EmbedParameterC2Ev
libcaffe2.so:_ZN5caffe14EmbedParameterD0Ev
libcaffe2.so:_ZN5caffe14EmbedParameterD1Ev
libcaffe2.so:_ZN5caffe14EmbedParameterD2Ev
libcaffe2.so:_ZN5caffe14InputParameter10SharedCtorEv
libcaffe2.so:_ZN5caffe14InputParameter10SharedDtorEv
libcaffe2.so:_ZN5caffe14InputParameter10descriptorEv
libcaffe2.so:_ZN5caffe14InputParameter12InternalSwapEPS0_
libcaffe2.so:_ZN5caffe14InputParameter16default_instanceEv
libcaffe2.so:_ZN5caffe14InputParameter21InitAsDefaultInstanceEv
libcaffe2.so:_ZN5caffe14InputParameter27MergePartialFromCodedStreamEPN6google8protobuf2io16CodedInputStreamE
libcaffe2.so:_ZN5caffe14InputParameter4SwapEPS0_
libcaffe2.so:_ZN5caffe14InputParameter5ClearEv
libcaffe2.so:_ZN5caffe14InputParameter8CopyFromERKN6google8protobuf7MessageE
libcaffe2.so:_ZN5caffe14InputParameter8CopyFromERKS0_
libcaffe2.so:_ZN5caffe14InputParameter9MergeFromERKN6google8protobuf7MessageE
libcaffe2.so:_ZN5caffe14InputParameter9MergeFromERKS0_
libcaffe2.so:_ZN5caffe14InputParameterC1ERKS0_
libcaffe2.so:_ZN5caffe14InputParameterC1Ev
libcaffe2.so:_ZN5caffe14InputParameterC2ERKS0_
libcaffe2.so:_ZN5caffe14InputParameterC2Ev
libcaffe2.so:_ZN5caffe14InputParameterD0Ev
libcaffe2.so:_ZN5caffe14InputParameterD1Ev
libcaffe2.so:_ZN5caffe14InputParameterD2Ev
libcaffe2.so:_ZN5caffe14LayerParameter10SharedCtorEv
libcaffe2.so:_ZN5caffe14LayerParameter10SharedDtorEv
libcaffe2.so:_ZN5caffe14LayerParameter10descriptorEv
libcaffe2.so:_ZN5caffe14LayerParameter12InternalSwapEPS0_
libcaffe2.so:_ZN5caffe14LayerParameter16default_instanceEv
libcaffe2.so:_ZN5caffe14LayerParameter21InitAsDefaultInstanceEv
libcaffe2.so:_ZN5caffe14LayerParameter27MergePartialFromCodedStreamEPN6google8protobuf2io16CodedInputStreamE
libcaffe2.so:_ZN5caffe14LayerParameter4SwapEPS0_
libcaffe2.so:_ZN5caffe14LayerParameter5ClearEv
libcaffe2.so:_ZN5caffe14LayerParameter8CopyFromERKN6google8protobuf7MessageE
libcaffe2.so:_ZN5caffe14LayerParameter8CopyFromERKS0_
libcaffe2.so:_ZN5caffe14LayerParameter9MergeFromERKN6google8protobuf7MessageE
libcaffe2.so:_ZN5caffe14LayerParameter9MergeFromERKS0_
libcaffe2.so:_ZN5caffe14LayerParameterC1ERKS0_
libcaffe2.so:_ZN5caffe14LayerParameterC1Ev
libcaffe2.so:_ZN5caffe14LayerParameterC2ERKS0_
libcaffe2.so:_ZN5caffe14LayerParameterC2Ev
libcaffe2.so:_ZN5caffe14LayerParameterD0Ev
libcaffe2.so:_ZN5caffe14LayerParameterD1Ev
libcaffe2.so:_ZN5caffe14LayerParameterD2Ev
libcaffe2.so:_ZN5caffe14PReLUParameter10SharedCtorEv
libcaffe2.so:_ZN5caffe14PReLUParameter10SharedDtorEv
libcaffe2.so:_ZN5caffe14PReLUParameter10descriptorEv
libcaffe2.so:_ZN5caffe14PReLUParameter12InternalSwapEPS0_
libcaffe2.so:_ZN5caffe14PReLUParameter16default_instanceEv
libcaffe2.so:_ZN5caffe14PReLUParameter21InitAsDefaultInstanceEv
libcaffe2.so:_ZN5caffe14PReLUParameter27MergePartialFromCodedStreamEPN6google8protobuf2io16CodedInputStreamE
libcaffe2.so:_ZN5caffe14PReLUParameter4SwapEPS0_
libcaffe2.so:_ZN5caffe14PReLUParameter5ClearEv
libcaffe2.so:_ZN5caffe14PReLUParameter8CopyFromERKN6google8protobuf7MessageE
libcaffe2.so:_ZN5caffe14PReLUParameter8CopyFromERKS0_
libcaffe2.so:_ZN5caffe14PReLUParameter9MergeFromERKN6google8protobuf7MessageE
libcaffe2.so:_ZN5caffe14PReLUParameter9MergeFromERKS0_
libcaffe2.so:_ZN5caffe14PReLUParameterC1ERKS0_
libcaffe2.so:_ZN5caffe14PReLUParameterC1Ev
libcaffe2.so:_ZN5caffe14PReLUParameterC2ERKS0_
libcaffe2.so:_ZN5caffe14PReLUParameterC2Ev
libcaffe2.so:_ZN5caffe14PReLUParameterD0Ev
libcaffe2.so:_ZN5caffe14PReLUParameterD1Ev
libcaffe2.so:_ZN5caffe14PReLUParameterD2Ev
libcaffe2.so:_ZN5caffe14PowerParameter10SharedCtorEv
libcaffe2.so:_ZN5caffe14PowerParameter10SharedDtorEv
libcaffe2.so:_ZN5caffe14PowerParameter10descriptorEv
libcaffe2.so:_ZN5caffe14PowerParameter12InternalSwapEPS0_
libcaffe2.so:_ZN5caffe14PowerParameter16default_instanceEv
libcaffe2.so:_ZN5caffe14PowerParameter21InitAsDefaultInstanceEv
libcaffe2.so:_ZN5caffe14PowerParameter27MergePartialFromCodedStreamEPN6google8protobuf2io16CodedInputStreamE
libcaffe2.so:_ZN5caffe14PowerParameter4SwapEPS0_
libcaffe2.so:_ZN5caffe14PowerParameter5ClearEv
libcaffe2.so:_ZN5caffe14PowerParameter8CopyFromERKN6google8protobuf7MessageE
libcaffe2.so:_ZN5caffe14PowerParameter8CopyFromERKS0_
libcaffe2.so:_ZN5caffe14PowerParameter9MergeFromERKN6google8protobuf7MessageE
libcaffe2.so:_ZN5caffe14PowerParameter9MergeFromERKS0_
libcaffe2.so:_ZN5caffe14PowerParameterC1ERKS0_
libcaffe2.so:_ZN5caffe14PowerParameterC1Ev
libcaffe2.so:_ZN5caffe14PowerParameterC2ERKS0_
libcaffe2.so:_ZN5caffe14PowerParameterC2Ev
libcaffe2.so:_ZN5caffe14PowerParameterD0Ev
libcaffe2.so:_ZN5caffe14PowerParameterD1Ev
libcaffe2.so:_ZN5caffe14PowerParameterD2Ev
libcaffe2.so:_ZN5caffe14ScaleParameter10SharedCtorEv
libcaffe2.so:_ZN5caffe14ScaleParameter10SharedDtorEv
libcaffe2.so:_ZN5caffe14ScaleParameter10descriptorEv
libcaffe2.so:_ZN5caffe14ScaleParameter12InternalSwapEPS0_
libcaffe2.so:_ZN5caffe14ScaleParameter16default_instanceEv
libcaffe2.so:_ZN5caffe14ScaleParameter21InitAsDefaultInstanceEv
libcaffe2.so:_ZN5caffe14ScaleParameter27MergePartialFromCodedStreamEPN6google8protobuf2io16CodedInputStreamE
libcaffe2.so:_ZN5caffe14ScaleParameter4SwapEPS0_
libcaffe2.so:_ZN5caffe14ScaleParameter5ClearEv
libcaffe2.so:_ZN5caffe14ScaleParameter8CopyFromERKN6google8protobuf7MessageE
libcaffe2.so:_ZN5caffe14ScaleParameter8CopyFromERKS0_
libcaffe2.so:_ZN5caffe14ScaleParameter9MergeFromERKN6google8protobuf7MessageE
libcaffe2.so:_ZN5caffe14ScaleParameter9MergeFromERKS0_
libcaffe2.so:_ZN5caffe14ScaleParameterC1ERKS0_
libcaffe2.so:_ZN5caffe14ScaleParameterC1Ev
libcaffe2.so:_ZN5caffe14ScaleParameterC2ERKS0_
libcaffe2.so:_ZN5caffe14ScaleParameterC2Ev
libcaffe2.so:_ZN5caffe14ScaleParameterD0Ev
libcaffe2.so:_ZN5caffe14ScaleParameterD1Ev
libcaffe2.so:_ZN5caffe14ScaleParameterD2Ev
libcaffe2.so:_ZN5caffe14SliceParameter10SharedCtorEv
libcaffe2.so:_ZN5caffe14SliceParameter10SharedDtorEv
libcaffe2.so:_ZN5caffe14SliceParameter10descriptorEv
libcaffe2.so:_ZN5caffe14SliceParameter12InternalSwapEPS0_
libcaffe2.so:_ZN5caffe14SliceParameter16default_instanceEv
libcaffe2.so:_ZN5caffe14SliceParameter21InitAsDefaultInstanceEv
libcaffe2.so:_ZN5caffe14SliceParameter27MergePartialFromCodedStreamEPN6google8protobuf2io16CodedInputStreamE
libcaffe2.so:_ZN5caffe14SliceParameter4SwapEPS0_
libcaffe2.so:_ZN5caffe14SliceParameter5ClearEv
libcaffe2.so:_ZN5caffe14SliceParameter8CopyFromERKN6google8protobuf7MessageE
libcaffe2.so:_ZN5caffe14SliceParameter8CopyFromERKS0_
libcaffe2.so:_ZN5caffe14SliceParameter9MergeFromERKN6google8protobuf7MessageE
libcaffe2.so:_ZN5caffe14SliceParameter9MergeFromERKS0_
libcaffe2.so:_ZN5caffe14SliceParameterC1ERKS0_
libcaffe2.so:_ZN5caffe14SliceParameterC1Ev
libcaffe2.so:_ZN5caffe14SliceParameterC2ERKS0_
libcaffe2.so:_ZN5caffe14SliceParameterC2Ev
libcaffe2.so:_ZN5caffe14SliceParameterD0Ev
libcaffe2.so:_ZN5caffe14SliceParameterD1Ev
libcaffe2.so:_ZN5caffe14SliceParameterD2Ev
libcaffe2.so:_ZN5caffe15ArgMaxParameter10SharedCtorEv
libcaffe2.so:_ZN5caffe15ArgMaxParameter10SharedDtorEv
libcaffe2.so:_ZN5caffe15ArgMaxParameter10descriptorEv
libcaffe2.so:_ZN5caffe15ArgMaxParameter12InternalSwapEPS0_
libcaffe2.so:_ZN5caffe15ArgMaxParameter16default_instanceEv
libcaffe2.so:_ZN5caffe15ArgMaxParameter21InitAsDefaultInstanceEv
libcaffe2.so:_ZN5caffe15ArgMaxParameter27MergePartialFromCodedStreamEPN6google8protobuf2io16CodedInputStreamE
libcaffe2.so:_ZN5caffe15ArgMaxParameter4SwapEPS0_
libcaffe2.so:_ZN5caffe15ArgMaxParameter5ClearEv
libcaffe2.so:_ZN5caffe15ArgMaxParameter8CopyFromERKN6google8protobuf7MessageE
libcaffe2.so:_ZN5caffe15ArgMaxParameter8CopyFromERKS0_
libcaffe2.so:_ZN5caffe15ArgMaxParameter9MergeFromERKN6google8protobuf7MessageE
libcaffe2.so:_ZN5caffe15ArgMaxParameter9MergeFromERKS0_
libcaffe2.so:_ZN5caffe15ArgMaxParameterC1ERKS0_
libcaffe2.so:_ZN5caffe15ArgMaxParameterC1Ev
libcaffe2.so:_ZN5caffe15ArgMaxParameterC2ERKS0_
libcaffe2.so:_ZN5caffe15ArgMaxParameterC2Ev
libcaffe2.so:_ZN5caffe15ArgMaxParameterD0Ev
libcaffe2.so:_ZN5caffe15ArgMaxParameterD1Ev
libcaffe2.so:_ZN5caffe15ArgMaxParameterD2Ev
libcaffe2.so:_ZN5caffe15BlobProtoVector10SharedCtorEv
libcaffe2.so:_ZN5caffe15BlobProtoVector10SharedDtorEv
libcaffe2.so:_ZN5caffe15BlobProtoVector10descriptorEv
libcaffe2.so:_ZN5caffe15BlobProtoVector12InternalSwapEPS0_
libcaffe2.so:_ZN5caffe15BlobProtoVector16default_instanceEv
libcaffe2.so:_ZN5caffe15BlobProtoVector21InitAsDefaultInstanceEv
libcaffe2.so:_ZN5caffe15BlobProtoVector27MergePartialFromCodedStreamEPN6google8protobuf2io16CodedInputStreamE
libcaffe2.so:_ZN5caffe15BlobProtoVector4SwapEPS0_
libcaffe2.so:_ZN5caffe15BlobProtoVector5ClearEv
libcaffe2.so:_ZN5caffe15BlobProtoVector8CopyFromERKN6google8protobuf7MessageE
libcaffe2.so:_ZN5caffe15BlobProtoVector8CopyFromERKS0_
libcaffe2.so:_ZN5caffe15BlobProtoVector9MergeFromERKN6google8protobuf7MessageE
libcaffe2.so:_ZN5caffe15BlobProtoVector9MergeFromERKS0_
libcaffe2.so:_ZN5caffe15BlobProtoVectorC1ERKS0_
libcaffe2.so:_ZN5caffe15BlobProtoVectorC1Ev
libcaffe2.so:_ZN5caffe15BlobProtoVectorC2ERKS0_
libcaffe2.so:_ZN5caffe15BlobProtoVectorC2Ev
libcaffe2.so:_ZN5caffe15BlobProtoVectorD0Ev
libcaffe2.so:_ZN5caffe15BlobProtoVectorD1Ev
libcaffe2.so:_ZN5caffe15BlobProtoVectorD2Ev
libcaffe2.so:_ZN5caffe15ConcatParameter10SharedCtorEv
libcaffe2.so:_ZN5caffe15ConcatParameter10SharedDtorEv
libcaffe2.so:_ZN5caffe15ConcatParameter10descriptorEv
libcaffe2.so:_ZN5caffe15ConcatParameter12InternalSwapEPS0_
libcaffe2.so:_ZN5caffe15ConcatParameter16default_instanceEv
libcaffe2.so:_ZN5caffe15ConcatParameter21InitAsDefaultInstanceEv
libcaffe2.so:_ZN5caffe15ConcatParameter27MergePartialFromCodedStreamEPN6google8protobuf2io16CodedInputStreamE
libcaffe2.so:_ZN5caffe15ConcatParameter4SwapEPS0_
libcaffe2.so:_ZN5caffe15ConcatParameter5ClearEv
libcaffe2.so:_ZN5caffe15ConcatParameter8CopyFromERKN6google8protobuf7MessageE
libcaffe2.so:_ZN5caffe15ConcatParameter8CopyFromERKS0_
libcaffe2.so:_ZN5caffe15ConcatParameter9MergeFromERKN6google8protobuf7MessageE
libcaffe2.so:_ZN5caffe15ConcatParameter9MergeFromERKS0_
libcaffe2.so:_ZN5caffe15ConcatParameterC1ERKS0_
libcaffe2.so:_ZN5caffe15ConcatParameterC1Ev
libcaffe2.so:_ZN5caffe15ConcatParameterC2ERKS0_
libcaffe2.so:_ZN5caffe15ConcatParameterC2Ev
libcaffe2.so:_ZN5caffe15ConcatParameterD0Ev
libcaffe2.so:_ZN5caffe15ConcatParameterD1Ev
libcaffe2.so:_ZN5caffe15ConcatParameterD2Ev
libcaffe2.so:_ZN5caffe15FillerParameter10SharedCtorEv
libcaffe2.so:_ZN5caffe15FillerParameter10SharedDtorEv
libcaffe2.so:_ZN5caffe15FillerParameter10descriptorEv
libcaffe2.so:_ZN5caffe15FillerParameter12InternalSwapEPS0_
libcaffe2.so:_ZN5caffe15FillerParameter16default_instanceEv
libcaffe2.so:_ZN5caffe15FillerParameter21InitAsDefaultInstanceEv
libcaffe2.so:_ZN5caffe15FillerParameter27MergePartialFromCodedStreamEPN6google8protobuf2io16CodedInputStreamE
libcaffe2.so:_ZN5caffe15FillerParameter4SwapEPS0_
libcaffe2.so:_ZN5caffe15FillerParameter5ClearEv
libcaffe2.so:_ZN5caffe15FillerParameter8CopyFromERKN6google8protobuf7MessageE
libcaffe2.so:_ZN5caffe15FillerParameter8CopyFromERKS0_
libcaffe2.so:_ZN5caffe15FillerParameter9MergeFromERKN6google8protobuf7MessageE
libcaffe2.so:_ZN5caffe15FillerParameter9MergeFromERKS0_
libcaffe2.so:_ZN5caffe15FillerParameterC1ERKS0_
libcaffe2.so:_ZN5caffe15FillerParameterC1Ev
libcaffe2.so:_ZN5caffe15FillerParameterC2ERKS0_
libcaffe2.so:_ZN5caffe15FillerParameterC2Ev
libcaffe2.so:_ZN5caffe15FillerParameterD0Ev
libcaffe2.so:_ZN5caffe15FillerParameterD1Ev
libcaffe2.so:_ZN5caffe15FillerParameterD2Ev
libcaffe2.so:_ZN5caffe15PythonParameter10SharedCtorEv
libcaffe2.so:_ZN5caffe15PythonParameter10SharedDtorEv
libcaffe2.so:_ZN5caffe15PythonParameter10descriptorEv
libcaffe2.so:_ZN5caffe15PythonParameter12InternalSwapEPS0_
libcaffe2.so:_ZN5caffe15PythonParameter16default_instanceEv
libcaffe2.so:_ZN5caffe15PythonParameter21InitAsDefaultInstanceEv
libcaffe2.so:_ZN5caffe15PythonParameter27MergePartialFromCodedStreamEPN6google8protobuf2io16CodedInputStreamE
libcaffe2.so:_ZN5caffe15PythonParameter4SwapEPS0_
libcaffe2.so:_ZN5caffe15PythonParameter5ClearEv
libcaffe2.so:_ZN5caffe15PythonParameter8CopyFromERKN6google8protobuf7MessageE
libcaffe2.so:_ZN5caffe15PythonParameter8CopyFromERKS0_
libcaffe2.so:_ZN5caffe15PythonParameter9MergeFromERKN6google8protobuf7MessageE
libcaffe2.so:_ZN5caffe15PythonParameter9MergeFromERKS0_
libcaffe2.so:_ZN5caffe15PythonParameterC1ERKS0_
libcaffe2.so:_ZN5caffe15PythonParameterC1Ev
libcaffe2.so:_ZN5caffe15PythonParameterC2ERKS0_
libcaffe2.so:_ZN5caffe15PythonParameterC2Ev
libcaffe2.so:_ZN5caffe15PythonParameterD0Ev
libcaffe2.so:_ZN5caffe15PythonParameterD1Ev
libcaffe2.so:_ZN5caffe15PythonParameterD2Ev
libcaffe2.so:_ZN5caffe15SolverParameter10SharedCtorEv
libcaffe2.so:_ZN5caffe15SolverParameter10SharedDtorEv
libcaffe2.so:_ZN5caffe15SolverParameter10descriptorEv
libcaffe2.so:_ZN5caffe15SolverParameter12InternalSwapEPS0_
libcaffe2.so:_ZN5caffe15SolverParameter16default_instanceEv
libcaffe2.so:_ZN5caffe15SolverParameter21InitAsDefaultInstanceEv
libcaffe2.so:_ZN5caffe15SolverParameter27MergePartialFromCodedStreamEPN6google8protobuf2io16CodedInputStreamE
libcaffe2.so:_ZN5caffe15SolverParameter4SwapEPS0_
libcaffe2.so:_ZN5caffe15SolverParameter5ClearEv
libcaffe2.so:_ZN5caffe15SolverParameter8CopyFromERKN6google8protobuf7MessageE
libcaffe2.so:_ZN5caffe15SolverParameter8CopyFromERKS0_
libcaffe2.so:_ZN5caffe15SolverParameter9MergeFromERKN6google8protobuf7MessageE
libcaffe2.so:_ZN5caffe15SolverParameter9MergeFromERKS0_
libcaffe2.so:_ZN5caffe15SolverParameterC1ERKS0_
libcaffe2.so:_ZN5caffe15SolverParameterC1Ev
libcaffe2.so:_ZN5caffe15SolverParameterC2ERKS0_
libcaffe2.so:_ZN5caffe15SolverParameterC2Ev
libcaffe2.so:_ZN5caffe15SolverParameterD0Ev
libcaffe2.so:_ZN5caffe15SolverParameterD1Ev
libcaffe2.so:_ZN5caffe15SolverParameterD2Ev
libcaffe2.so:_ZN5caffe16DropoutParameter10SharedCtorEv
libcaffe2.so:_ZN5caffe16DropoutParameter10SharedDtorEv
libcaffe2.so:_ZN5caffe16DropoutParameter10descriptorEv
libcaffe2.so:_ZN5caffe16DropoutParameter12InternalSwapEPS0_
libcaffe2.so:_ZN5caffe16DropoutParameter16default_instanceEv
libcaffe2.so:_ZN5caffe16DropoutParameter21InitAsDefaultInstanceEv
libcaffe2.so:_ZN5caffe16DropoutParameter27MergePartialFromCodedStreamEPN6google8protobuf2io16CodedInputStreamE
libcaffe2.so:_ZN5caffe16DropoutParameter4SwapEPS0_
libcaffe2.so:_ZN5caffe16DropoutParameter5ClearEv
libcaffe2.so:_ZN5caffe16DropoutParameter8CopyFromERKN6google8protobuf7MessageE
libcaffe2.so:_ZN5caffe16DropoutParameter8CopyFromERKS0_
libcaffe2.so:_ZN5caffe16DropoutParameter9MergeFromERKN6google8protobuf7MessageE
libcaffe2.so:_ZN5caffe16DropoutParameter9MergeFromERKS0_
libcaffe2.so:_ZN5caffe16DropoutParameterC1ERKS0_
libcaffe2.so:_ZN5caffe16DropoutParameterC1Ev
libcaffe2.so:_ZN5caffe16DropoutParameterC2ERKS0_
libcaffe2.so:_ZN5caffe16DropoutParameterC2Ev
libcaffe2.so:_ZN5caffe16DropoutParameterD0Ev
libcaffe2.so:_ZN5caffe16DropoutParameterD1Ev
libcaffe2.so:_ZN5caffe16DropoutParameterD2Ev
libcaffe2.so:_ZN5caffe16EltwiseParameter10SharedCtorEv
libcaffe2.so:_ZN5caffe16EltwiseParameter10SharedDtorEv
libcaffe2.so:_ZN5caffe16EltwiseParameter10descriptorEv
libcaffe2.so:_ZN5caffe16EltwiseParameter12InternalSwapEPS0_
libcaffe2.so:_ZN5caffe16EltwiseParameter16default_instanceEv
libcaffe2.so:_ZN5caffe16EltwiseParameter21InitAsDefaultInstanceEv
libcaffe2.so:_ZN5caffe16EltwiseParameter27MergePartialFromCodedStreamEPN6google8protobuf2io16CodedInputStreamE
libcaffe2.so:_ZN5caffe16EltwiseParameter4SwapEPS0_
libcaffe2.so:_ZN5caffe16EltwiseParameter5ClearEv
libcaffe2.so:_ZN5caffe16EltwiseParameter8CopyFromERKN6google8protobuf7MessageE
libcaffe2.so:_ZN5caffe16EltwiseParameter8CopyFromERKS0_
libcaffe2.so:_ZN5caffe16EltwiseParameter9MergeFromERKN6google8protobuf7MessageE
libcaffe2.so:_ZN5caffe16EltwiseParameter9MergeFromERKS0_
libcaffe2.so:_ZN5caffe16EltwiseParameterC1ERKS0_
libcaffe2.so:_ZN5caffe16EltwiseParameterC1Ev
libcaffe2.so:_ZN5caffe16EltwiseParameterC2ERKS0_
libcaffe2.so:_ZN5caffe16EltwiseParameterC2Ev
libcaffe2.so:_ZN5caffe16EltwiseParameterD0Ev
libcaffe2.so:_ZN5caffe16EltwiseParameterD1Ev
libcaffe2.so:_ZN5caffe16EltwiseParameterD2Ev
libcaffe2.so:_ZN5caffe16FlattenParameter10SharedCtorEv
libcaffe2.so:_ZN5caffe16FlattenParameter10SharedDtorEv
libcaffe2.so:_ZN5caffe16FlattenParameter10descriptorEv
libcaffe2.so:_ZN5caffe16FlattenParameter12InternalSwapEPS0_
libcaffe2.so:_ZN5caffe16FlattenParameter16default_instanceEv
libcaffe2.so:_ZN5caffe16FlattenParameter21InitAsDefaultInstanceEv
libcaffe2.so:_ZN5caffe16FlattenParameter27MergePartialFromCodedStreamEPN6google8protobuf2io16CodedInputStreamE
libcaffe2.so:_ZN5caffe16FlattenParameter4SwapEPS0_
libcaffe2.so:_ZN5caffe16FlattenParameter5ClearEv
libcaffe2.so:_ZN5caffe16FlattenParameter8CopyFromERKN6google8protobuf7MessageE
libcaffe2.so:_ZN5caffe16FlattenParameter8CopyFromERKS0_
libcaffe2.so:_ZN5caffe16FlattenParameter9MergeFromERKN6google8protobuf7MessageE
libcaffe2.so:_ZN5caffe16FlattenParameter9MergeFromERKS0_
libcaffe2.so:_ZN5caffe16FlattenParameterC1ERKS0_
libcaffe2.so:_ZN5caffe16FlattenParameterC1Ev
libcaffe2.so:_ZN5caffe16FlattenParameterC2ERKS0_
libcaffe2.so:_ZN5caffe16FlattenParameterC2Ev
libcaffe2.so:_ZN5caffe16FlattenParameterD0Ev
libcaffe2.so:_ZN5caffe16FlattenParameterD1Ev
libcaffe2.so:_ZN5caffe16FlattenParameterD2Ev
libcaffe2.so:_ZN5caffe16Phase_descriptorEv
libcaffe2.so:_ZN5caffe16PoolingParameter10SharedCtorEv
libcaffe2.so:_ZN5caffe16PoolingParameter10SharedDtorEv
libcaffe2.so:_ZN5caffe16PoolingParameter10descriptorEv
libcaffe2.so:_ZN5caffe16PoolingParameter12InternalSwapEPS0_
libcaffe2.so:_ZN5caffe16PoolingParameter16default_instanceEv
libcaffe2.so:_ZN5caffe16PoolingParameter21InitAsDefaultInstanceEv
libcaffe2.so:_ZN5caffe16PoolingParameter27MergePartialFromCodedStreamEPN6google8protobuf2io16CodedInputStreamE
libcaffe2.so:_ZN5caffe16PoolingParameter4SwapEPS0_
libcaffe2.so:_ZN5caffe16PoolingParameter5ClearEv
libcaffe2.so:_ZN5caffe16PoolingParameter8CopyFromERKN6google8protobuf7MessageE
libcaffe2.so:_ZN5caffe16PoolingParameter8CopyFromERKS0_
libcaffe2.so:_ZN5caffe16PoolingParameter9MergeFromERKN6google8protobuf7MessageE
libcaffe2.so:_ZN5caffe16PoolingParameter9MergeFromERKS0_
libcaffe2.so:_ZN5caffe16PoolingParameterC1ERKS0_
libcaffe2.so:_ZN5caffe16PoolingParameterC1Ev
libcaffe2.so:_ZN5caffe16PoolingParameterC2ERKS0_
libcaffe2.so:_ZN5caffe16PoolingParameterC2Ev
libcaffe2.so:_ZN5caffe16PoolingParameterD0Ev
libcaffe2.so:_ZN5caffe16PoolingParameterD1Ev
libcaffe2.so:_ZN5caffe16PoolingParameterD2Ev
libcaffe2.so:_ZN5caffe16ReshapeParameter10SharedCtorEv
libcaffe2.so:_ZN5caffe16ReshapeParameter10SharedDtorEv
libcaffe2.so:_ZN5caffe16ReshapeParameter10descriptorEv
libcaffe2.so:_ZN5caffe16ReshapeParameter12InternalSwapEPS0_
libcaffe2.so:_ZN5caffe16ReshapeParameter16default_instanceEv
libcaffe2.so:_ZN5caffe16ReshapeParameter21InitAsDefaultInstanceEv
libcaffe2.so:_ZN5caffe16ReshapeParameter27MergePartialFromCodedStreamEPN6google8protobuf2io16CodedInputStreamE
libcaffe2.so:_ZN5caffe16ReshapeParameter4SwapEPS0_
libcaffe2.so:_ZN5caffe16ReshapeParameter5ClearEv
libcaffe2.so:_ZN5caffe16ReshapeParameter8CopyFromERKN6google8protobuf7MessageE
libcaffe2.so:_ZN5caffe16ReshapeParameter8CopyFromERKS0_
libcaffe2.so:_ZN5caffe16ReshapeParameter9MergeFromERKN6google8protobuf7MessageE
libcaffe2.so:_ZN5caffe16ReshapeParameter9MergeFromERKS0_
libcaffe2.so:_ZN5caffe16ReshapeParameterC1ERKS0_
libcaffe2.so:_ZN5caffe16ReshapeParameterC1Ev
libcaffe2.so:_ZN5caffe16ReshapeParameterC2ERKS0_
libcaffe2.so:_ZN5caffe16ReshapeParameterC2Ev
libcaffe2.so:_ZN5caffe16ReshapeParameterD0Ev
libcaffe2.so:_ZN5caffe16ReshapeParameterD1Ev
libcaffe2.so:_ZN5caffe16ReshapeParameterD2Ev
libcaffe2.so:_ZN5caffe16SigmoidParameter10SharedCtorEv
libcaffe2.so:_ZN5caffe16SigmoidParameter10SharedDtorEv
libcaffe2.so:_ZN5caffe16SigmoidParameter10descriptorEv
libcaffe2.so:_ZN5caffe16SigmoidParameter12InternalSwapEPS0_
libcaffe2.so:_ZN5caffe16SigmoidParameter16default_instanceEv
libcaffe2.so:_ZN5caffe16SigmoidParameter21InitAsDefaultInstanceEv
libcaffe2.so:_ZN5caffe16SigmoidParameter27MergePartialFromCodedStreamEPN6google8protobuf2io16CodedInputStreamE
libcaffe2.so:_ZN5caffe16SigmoidParameter4SwapEPS0_
libcaffe2.so:_ZN5caffe16SigmoidParameter5ClearEv
libcaffe2.so:_ZN5caffe16SigmoidParameter8CopyFromERKN6google8protobuf7MessageE
libcaffe2.so:_ZN5caffe16SigmoidParameter8CopyFromERKS0_
libcaffe2.so:_ZN5caffe16SigmoidParameter9MergeFromERKN6google8protobuf7MessageE
libcaffe2.so:_ZN5caffe16SigmoidParameter9MergeFromERKS0_
libcaffe2.so:_ZN5caffe16SigmoidParameterC1ERKS0_
libcaffe2.so:_ZN5caffe16SigmoidParameterC1Ev
libcaffe2.so:_ZN5caffe16SigmoidParameterC2ERKS0_
libcaffe2.so:_ZN5caffe16SigmoidParameterC2Ev
libcaffe2.so:_ZN5caffe16SigmoidParameterD0Ev
libcaffe2.so:_ZN5caffe16SigmoidParameterD1Ev
libcaffe2.so:_ZN5caffe16SigmoidParameterD2Ev
libcaffe2.so:_ZN5caffe16SoftmaxParameter10SharedCtorEv
libcaffe2.so:_ZN5caffe16SoftmaxParameter10SharedDtorEv
libcaffe2.so:_ZN5caffe16SoftmaxParameter10descriptorEv
libcaffe2.so:_ZN5caffe16SoftmaxParameter12InternalSwapEPS0_
libcaffe2.so:_ZN5caffe16SoftmaxParameter16default_instanceEv
libcaffe2.so:_ZN5caffe16SoftmaxParameter21InitAsDefaultInstanceEv
libcaffe2.so:_ZN5caffe16SoftmaxParameter27MergePartialFromCodedStreamEPN6google8protobuf2io16CodedInputStreamE
libcaffe2.so:_ZN5caffe16SoftmaxParameter4SwapEPS0_
libcaffe2.so:_ZN5caffe16SoftmaxParameter5ClearEv
libcaffe2.so:_ZN5caffe16SoftmaxParameter8CopyFromERKN6google8protobuf7MessageE
libcaffe2.so:_ZN5caffe16SoftmaxParameter8CopyFromERKS0_
libcaffe2.so:_ZN5caffe16SoftmaxParameter9MergeFromERKN6google8protobuf7MessageE
libcaffe2.so:_ZN5caffe16SoftmaxParameter9MergeFromERKS0_
libcaffe2.so:_ZN5caffe16SoftmaxParameterC1ERKS0_
libcaffe2.so:_ZN5caffe16SoftmaxParameterC1Ev
libcaffe2.so:_ZN5caffe16SoftmaxParameterC2ERKS0_
libcaffe2.so:_ZN5caffe16SoftmaxParameterC2Ev
libcaffe2.so:_ZN5caffe16SoftmaxParameterD0Ev
libcaffe2.so:_ZN5caffe16SoftmaxParameterD1Ev
libcaffe2.so:_ZN5caffe16SoftmaxParameterD2Ev
libcaffe2.so:_ZN5caffe16V0LayerParameter10SharedCtorEv
libcaffe2.so:_ZN5caffe16V0LayerParameter10SharedDtorEv
libcaffe2.so:_ZN5caffe16V0LayerParameter10descriptorEv
libcaffe2.so:_ZN5caffe16V0LayerParameter12InternalSwapEPS0_
libcaffe2.so:_ZN5caffe16V0LayerParameter16default_instanceEv
libcaffe2.so:_ZN5caffe16V0LayerParameter21InitAsDefaultInstanceEv
libcaffe2.so:_ZN5caffe16V0LayerParameter27MergePartialFromCodedStreamEPN6google8protobuf2io16CodedInputStreamE
libcaffe2.so:_ZN5caffe16V0LayerParameter4SwapEPS0_
libcaffe2.so:_ZN5caffe16V0LayerParameter5ClearEv
libcaffe2.so:_ZN5caffe16V0LayerParameter8CopyFromERKN6google8protobuf7MessageE
libcaffe2.so:_ZN5caffe16V0LayerParameter8CopyFromERKS0_
libcaffe2.so:_ZN5caffe16V0LayerParameter9MergeFromERKN6google8protobuf7MessageE
libcaffe2.so:_ZN5caffe16V0LayerParameter9MergeFromERKS0_
libcaffe2.so:_ZN5caffe16V0LayerParameterC1ERKS0_
libcaffe2.so:_ZN5caffe16V0LayerParameterC1Ev
libcaffe2.so:_ZN5caffe16V0LayerParameterC2ERKS0_
libcaffe2.so:_ZN5caffe16V0LayerParameterC2Ev
libcaffe2.so:_ZN5caffe16V0LayerParameterD0Ev
libcaffe2.so:_ZN5caffe16V0LayerParameterD1Ev
libcaffe2.so:_ZN5caffe16V0LayerParameterD2Ev
libcaffe2.so:_ZN5caffe16V1LayerParameter10SharedCtorEv
libcaffe2.so:_ZN5caffe16V1LayerParameter10SharedDtorEv
libcaffe2.so:_ZN5caffe16V1LayerParameter10descriptorEv
libcaffe2.so:_ZN5caffe16V1LayerParameter12InternalSwapEPS0_
libcaffe2.so:_ZN5caffe16V1LayerParameter16default_instanceEv
libcaffe2.so:_ZN5caffe16V1LayerParameter21InitAsDefaultInstanceEv
libcaffe2.so:_ZN5caffe16V1LayerParameter27MergePartialFromCodedStreamEPN6google8protobuf2io16CodedInputStreamE
libcaffe2.so:_ZN5caffe16V1LayerParameter4SwapEPS0_
libcaffe2.so:_ZN5caffe16V1LayerParameter5ClearEv
libcaffe2.so:_ZN5caffe16V1LayerParameter8CopyFromERKN6google8protobuf7MessageE
libcaffe2.so:_ZN5caffe16V1LayerParameter8CopyFromERKS0_
libcaffe2.so:_ZN5caffe16V1LayerParameter9MergeFromERKN6google8protobuf7MessageE
libcaffe2.so:_ZN5caffe16V1LayerParameter9MergeFromERKS0_
libcaffe2.so:_ZN5caffe16V1LayerParameterC1ERKS0_
libcaffe2.so:_ZN5caffe16V1LayerParameterC1Ev
libcaffe2.so:_ZN5caffe16V1LayerParameterC2ERKS0_
libcaffe2.so:_ZN5caffe16V1LayerParameterC2Ev
libcaffe2.so:_ZN5caffe16V1LayerParameterD0Ev
libcaffe2.so:_ZN5caffe16V1LayerParameterD1Ev
libcaffe2.so:_ZN5caffe16V1LayerParameterD2Ev
libcaffe2.so:_ZN5caffe17AccuracyParameter10SharedCtorEv
libcaffe2.so:_ZN5caffe17AccuracyParameter10SharedDtorEv
libcaffe2.so:_ZN5caffe17AccuracyParameter10descriptorEv
libcaffe2.so:_ZN5caffe17AccuracyParameter12InternalSwapEPS0_
libcaffe2.so:_ZN5caffe17AccuracyParameter16default_instanceEv
libcaffe2.so:_ZN5caffe17AccuracyParameter21InitAsDefaultInstanceEv
libcaffe2.so:_ZN5caffe17AccuracyParameter27MergePartialFromCodedStreamEPN6google8protobuf2io16CodedInputStreamE
libcaffe2.so:_ZN5caffe17AccuracyParameter4SwapEPS0_
libcaffe2.so:_ZN5caffe17AccuracyParameter5ClearEv
libcaffe2.so:_ZN5caffe17AccuracyParameter8CopyFromERKN6google8protobuf7MessageE
libcaffe2.so:_ZN5caffe17AccuracyParameter8CopyFromERKS0_
libcaffe2.so:_ZN5caffe17AccuracyParameter9MergeFromERKN6google8protobuf7MessageE
libcaffe2.so:_ZN5caffe17AccuracyParameter9MergeFromERKS0_
libcaffe2.so:_ZN5caffe17AccuracyParameterC1ERKS0_
libcaffe2.so:_ZN5caffe17AccuracyParameterC1Ev
libcaffe2.so:_ZN5caffe17AccuracyParameterC2ERKS0_
libcaffe2.so:_ZN5caffe17AccuracyParameterC2Ev
libcaffe2.so:_ZN5caffe17AccuracyParameterD0Ev
libcaffe2.so:_ZN5caffe17AccuracyParameterD1Ev
libcaffe2.so:_ZN5caffe17AccuracyParameterD2Ev
libcaffe2.so:_ZN5caffe17HDF5DataParameter10SharedCtorEv
libcaffe2.so:_ZN5caffe17HDF5DataParameter10SharedDtorEv
libcaffe2.so:_ZN5caffe17HDF5DataParameter10descriptorEv
libcaffe2.so:_ZN5caffe17HDF5DataParameter12InternalSwapEPS0_
libcaffe2.so:_ZN5caffe17HDF5DataParameter16default_instanceEv
libcaffe2.so:_ZN5caffe17HDF5DataParameter21InitAsDefaultInstanceEv
libcaffe2.so:_ZN5caffe17HDF5DataParameter27MergePartialFromCodedStreamEPN6google8protobuf2io16CodedInputStreamE
libcaffe2.so:_ZN5caffe17HDF5DataParameter4SwapEPS0_
libcaffe2.so:_ZN5caffe17HDF5DataParameter5ClearEv
libcaffe2.so:_ZN5caffe17HDF5DataParameter8CopyFromERKN6google8protobuf7MessageE
libcaffe2.so:_ZN5caffe17HDF5DataParameter8CopyFromERKS0_
libcaffe2.so:_ZN5caffe17HDF5DataParameter9MergeFromERKN6google8protobuf7MessageE
libcaffe2.so:_ZN5caffe17HDF5DataParameter9MergeFromERKS0_
libcaffe2.so:_ZN5caffe17HDF5DataParameterC1ERKS0_
libcaffe2.so:_ZN5caffe17HDF5DataParameterC1Ev
libcaffe2.so:_ZN5caffe17HDF5DataParameterC2ERKS0_
libcaffe2.so:_ZN5caffe17HDF5DataParameterC2Ev
libcaffe2.so:_ZN5caffe17HDF5DataParameterD0Ev
libcaffe2.so:_ZN5caffe17HDF5DataParameterD1Ev
libcaffe2.so:_ZN5caffe17HDF5DataParameterD2Ev
libcaffe2.so:_ZN5caffe18BatchNormParameter10SharedCtorEv
libcaffe2.so:_ZN5caffe18BatchNormParameter10SharedDtorEv
libcaffe2.so:_ZN5caffe18BatchNormParameter10descriptorEv
libcaffe2.so:_ZN5caffe18BatchNormParameter12InternalSwapEPS0_
libcaffe2.so:_ZN5caffe18BatchNormParameter16default_instanceEv
libcaffe2.so:_ZN5caffe18BatchNormParameter21InitAsDefaultInstanceEv
libcaffe2.so:_ZN5caffe18BatchNormParameter27MergePartialFromCodedStreamEPN6google8protobuf2io16CodedInputStreamE
libcaffe2.so:_ZN5caffe18BatchNormParameter4SwapEPS0_
libcaffe2.so:_ZN5caffe18BatchNormParameter5ClearEv
libcaffe2.so:_ZN5caffe18BatchNormParameter8CopyFromERKN6google8protobuf7MessageE
libcaffe2.so:_ZN5caffe18BatchNormParameter8CopyFromERKS0_
libcaffe2.so:_ZN5caffe18BatchNormParameter9MergeFromERKN6google8protobuf7MessageE
libcaffe2.so:_ZN5caffe18BatchNormParameter9MergeFromERKS0_
libcaffe2.so:_ZN5caffe18BatchNormParameterC1ERKS0_
libcaffe2.so:_ZN5caffe18BatchNormParameterC1Ev
libcaffe2.so:_ZN5caffe18BatchNormParameterC2ERKS0_
libcaffe2.so:_ZN5caffe18BatchNormParameterC2Ev
libcaffe2.so:_ZN5caffe18BatchNormParameterD0Ev
libcaffe2.so:_ZN5caffe18BatchNormParameterD1Ev
libcaffe2.so:_ZN5caffe18BatchNormParameterD2Ev
libcaffe2.so:_ZN5caffe18DummyDataParameter10SharedCtorEv
libcaffe2.so:_ZN5caffe18DummyDataParameter10SharedDtorEv
libcaffe2.so:_ZN5caffe18DummyDataParameter10descriptorEv
libcaffe2.so:_ZN5caffe18DummyDataParameter12InternalSwapEPS0_
libcaffe2.so:_ZN5caffe18DummyDataParameter16default_instanceEv
libcaffe2.so:_ZN5caffe18DummyDataParameter21InitAsDefaultInstanceEv
libcaffe2.so:_ZN5caffe18DummyDataParameter27MergePartialFromCodedStreamEPN6google8protobuf2io16CodedInputStreamE
libcaffe2.so:_ZN5caffe18DummyDataParameter4SwapEPS0_
libcaffe2.so:_ZN5caffe18DummyDataParameter5ClearEv
libcaffe2.so:_ZN5caffe18DummyDataParameter8CopyFromERKN6google8protobuf7MessageE
libcaffe2.so:_ZN5caffe18DummyDataParameter8CopyFromERKS0_
libcaffe2.so:_ZN5caffe18DummyDataParameter9MergeFromERKN6google8protobuf7MessageE
libcaffe2.so:_ZN5caffe18DummyDataParameter9MergeFromERKS0_
libcaffe2.so:_ZN5caffe18DummyDataParameterC1ERKS0_
libcaffe2.so:_ZN5caffe18DummyDataParameterC1Ev
libcaffe2.so:_ZN5caffe18DummyDataParameterC2ERKS0_
libcaffe2.so:_ZN5caffe18DummyDataParameterC2Ev
libcaffe2.so:_ZN5caffe18DummyDataParameterD0Ev
libcaffe2.so:_ZN5caffe18DummyDataParameterD1Ev
libcaffe2.so:_ZN5caffe18DummyDataParameterD2Ev
libcaffe2.so:_ZN5caffe18HingeLossParameter10SharedCtorEv
libcaffe2.so:_ZN5caffe18HingeLossParameter10SharedDtorEv
libcaffe2.so:_ZN5caffe18HingeLossParameter10descriptorEv
libcaffe2.so:_ZN5caffe18HingeLossParameter12InternalSwapEPS0_
libcaffe2.so:_ZN5caffe18HingeLossParameter16default_instanceEv
libcaffe2.so:_ZN5caffe18HingeLossParameter21InitAsDefaultInstanceEv
libcaffe2.so:_ZN5caffe18HingeLossParameter27MergePartialFromCodedStreamEPN6google8protobuf2io16CodedInputStreamE
libcaffe2.so:_ZN5caffe18HingeLossParameter4SwapEPS0_
libcaffe2.so:_ZN5caffe18HingeLossParameter5ClearEv
libcaffe2.so:_ZN5caffe18HingeLossParameter8CopyFromERKN6google8protobuf7MessageE
libcaffe2.so:_ZN5caffe18HingeLossParameter8CopyFromERKS0_
libcaffe2.so:_ZN5caffe18HingeLossParameter9MergeFromERKN6google8protobuf7MessageE
libcaffe2.so:_ZN5caffe18HingeLossParameter9MergeFromERKS0_
libcaffe2.so:_ZN5caffe18HingeLossParameterC1ERKS0_
libcaffe2.so:_ZN5caffe18HingeLossParameterC1Ev
libcaffe2.so:_ZN5caffe18HingeLossParameterC2ERKS0_
libcaffe2.so:_ZN5caffe18HingeLossParameterC2Ev
libcaffe2.so:_ZN5caffe18HingeLossParameterD0Ev
libcaffe2.so:_ZN5caffe18HingeLossParameterD1Ev
libcaffe2.so:_ZN5caffe18HingeLossParameterD2Ev
libcaffe2.so:_ZN5caffe18ImageDataParameter10SharedCtorEv
libcaffe2.so:_ZN5caffe18ImageDataParameter10SharedDtorEv
libcaffe2.so:_ZN5caffe18ImageDataParameter10descriptorEv
libcaffe2.so:_ZN5caffe18ImageDataParameter12InternalSwapEPS0_
libcaffe2.so:_ZN5caffe18ImageDataParameter16default_instanceEv
libcaffe2.so:_ZN5caffe18ImageDataParameter21InitAsDefaultInstanceEv
libcaffe2.so:_ZN5caffe18ImageDataParameter27MergePartialFromCodedStreamEPN6google8protobuf2io16CodedInputStreamE
libcaffe2.so:_ZN5caffe18ImageDataParameter4SwapEPS0_
libcaffe2.so:_ZN5caffe18ImageDataParameter5ClearEv
libcaffe2.so:_ZN5caffe18ImageDataParameter8CopyFromERKN6google8protobuf7MessageE
libcaffe2.so:_ZN5caffe18ImageDataParameter8CopyFromERKS0_
libcaffe2.so:_ZN5caffe18ImageDataParameter9MergeFromERKN6google8protobuf7MessageE
libcaffe2.so:_ZN5caffe18ImageDataParameter9MergeFromERKS0_
libcaffe2.so:_ZN5caffe18ImageDataParameterC1ERKS0_
libcaffe2.so:_ZN5caffe18ImageDataParameterC1Ev
libcaffe2.so:_ZN5caffe18ImageDataParameterC2ERKS0_
libcaffe2.so:_ZN5caffe18ImageDataParameterC2Ev
libcaffe2.so:_ZN5caffe18ImageDataParameterD0Ev
libcaffe2.so:_ZN5caffe18ImageDataParameterD1Ev
libcaffe2.so:_ZN5caffe18ImageDataParameterD2Ev
libcaffe2.so:_ZN5caffe18ParameterParameter10SharedCtorEv
libcaffe2.so:_ZN5caffe18ParameterParameter10SharedDtorEv
libcaffe2.so:_ZN5caffe18ParameterParameter10descriptorEv
libcaffe2.so:_ZN5caffe18ParameterParameter12InternalSwapEPS0_
libcaffe2.so:_ZN5caffe18ParameterParameter16default_instanceEv
libcaffe2.so:_ZN5caffe18ParameterParameter21InitAsDefaultInstanceEv
libcaffe2.so:_ZN5caffe18ParameterParameter27MergePartialFromCodedStreamEPN6google8protobuf2io16CodedInputStreamE
libcaffe2.so:_ZN5caffe18ParameterParameter4SwapEPS0_
libcaffe2.so:_ZN5caffe18ParameterParameter5ClearEv
libcaffe2.so:_ZN5caffe18ParameterParameter8CopyFromERKN6google8protobuf7MessageE
libcaffe2.so:_ZN5caffe18ParameterParameter8CopyFromERKS0_
libcaffe2.so:_ZN5caffe18ParameterParameter9MergeFromERKN6google8protobuf7MessageE
libcaffe2.so:_ZN5caffe18ParameterParameter9MergeFromERKS0_
libcaffe2.so:_ZN5caffe18ParameterParameterC1ERKS0_
libcaffe2.so:_ZN5caffe18ParameterParameterC1Ev
libcaffe2.so:_ZN5caffe18ParameterParameterC2ERKS0_
libcaffe2.so:_ZN5caffe18ParameterParameterC2Ev
libcaffe2.so:_ZN5caffe18ParameterParameterD0Ev
libcaffe2.so:_ZN5caffe18ParameterParameterD1Ev
libcaffe2.so:_ZN5caffe18ParameterParameterD2Ev
libcaffe2.so:_ZN5caffe18RecurrentParameter10SharedCtorEv
libcaffe2.so:_ZN5caffe18RecurrentParameter10SharedDtorEv
libcaffe2.so:_ZN5caffe18RecurrentParameter10descriptorEv
libcaffe2.so:_ZN5caffe18RecurrentParameter12InternalSwapEPS0_
libcaffe2.so:_ZN5caffe18RecurrentParameter16default_instanceEv
libcaffe2.so:_ZN5caffe18RecurrentParameter21InitAsDefaultInstanceEv
libcaffe2.so:_ZN5caffe18RecurrentParameter27MergePartialFromCodedStreamEPN6google8protobuf2io16CodedInputStreamE
libcaffe2.so:_ZN5caffe18RecurrentParameter4SwapEPS0_
libcaffe2.so:_ZN5caffe18RecurrentParameter5ClearEv
libcaffe2.so:_ZN5caffe18RecurrentParameter8CopyFromERKN6google8protobuf7MessageE
libcaffe2.so:_ZN5caffe18RecurrentParameter8CopyFromERKS0_
libcaffe2.so:_ZN5caffe18RecurrentParameter9MergeFromERKN6google8protobuf7MessageE
libcaffe2.so:_ZN5caffe18RecurrentParameter9MergeFromERKS0_
libcaffe2.so:_ZN5caffe18RecurrentParameterC1ERKS0_
libcaffe2.so:_ZN5caffe18RecurrentParameterC1Ev
libcaffe2.so:_ZN5caffe18RecurrentParameterC2ERKS0_
libcaffe2.so:_ZN5caffe18RecurrentParameterC2Ev
libcaffe2.so:_ZN5caffe18RecurrentParameterD0Ev
libcaffe2.so:_ZN5caffe18RecurrentParameterD1Ev
libcaffe2.so:_ZN5caffe18RecurrentParameterD2Ev
libcaffe2.so:_ZN5caffe18ReductionParameter10SharedCtorEv
libcaffe2.so:_ZN5caffe18ReductionParameter10SharedDtorEv
libcaffe2.so:_ZN5caffe18ReductionParameter10descriptorEv
libcaffe2.so:_ZN5caffe18ReductionParameter12InternalSwapEPS0_
libcaffe2.so:_ZN5caffe18ReductionParameter16default_instanceEv
libcaffe2.so:_ZN5caffe18ReductionParameter21InitAsDefaultInstanceEv
libcaffe2.so:_ZN5caffe18ReductionParameter27MergePartialFromCodedStreamEPN6google8protobuf2io16CodedInputStreamE
libcaffe2.so:_ZN5caffe18ReductionParameter4SwapEPS0_
libcaffe2.so:_ZN5caffe18ReductionParameter5ClearEv
libcaffe2.so:_ZN5caffe18ReductionParameter8CopyFromERKN6google8protobuf7MessageE
libcaffe2.so:_ZN5caffe18ReductionParameter8CopyFromERKS0_
libcaffe2.so:_ZN5caffe18ReductionParameter9MergeFromERKN6google8protobuf7MessageE
libcaffe2.so:_ZN5caffe18ReductionParameter9MergeFromERKS0_
libcaffe2.so:_ZN5caffe18ReductionParameterC1ERKS0_
libcaffe2.so:_ZN5caffe18ReductionParameterC1Ev
libcaffe2.so:_ZN5caffe18ReductionParameterC2ERKS0_
libcaffe2.so:_ZN5caffe18ReductionParameterC2Ev
libcaffe2.so:_ZN5caffe18ReductionParameterD0Ev
libcaffe2.so:_ZN5caffe18ReductionParameterD1Ev
libcaffe2.so:_ZN5caffe18ReductionParameterD2Ev
libcaffe2.so:_ZN5caffe18ThresholdParameter10SharedCtorEv
libcaffe2.so:_ZN5caffe18ThresholdParameter10SharedDtorEv
libcaffe2.so:_ZN5caffe18ThresholdParameter10descriptorEv
libcaffe2.so:_ZN5caffe18ThresholdParameter12InternalSwapEPS0_
libcaffe2.so:_ZN5caffe18ThresholdParameter16default_instanceEv
libcaffe2.so:_ZN5caffe18ThresholdParameter21InitAsDefaultInstanceEv
libcaffe2.so:_ZN5caffe18ThresholdParameter27MergePartialFromCodedStreamEPN6google8protobuf2io16CodedInputStreamE
libcaffe2.so:_ZN5caffe18ThresholdParameter4SwapEPS0_
libcaffe2.so:_ZN5caffe18ThresholdParameter5ClearEv
libcaffe2.so:_ZN5caffe18ThresholdParameter8CopyFromERKN6google8protobuf7MessageE
libcaffe2.so:_ZN5caffe18ThresholdParameter8CopyFromERKS0_
libcaffe2.so:_ZN5caffe18ThresholdParameter9MergeFromERKN6google8protobuf7MessageE
libcaffe2.so:_ZN5caffe18ThresholdParameter9MergeFromERKS0_
libcaffe2.so:_ZN5caffe18ThresholdParameterC1ERKS0_
libcaffe2.so:_ZN5caffe18ThresholdParameterC1Ev
libcaffe2.so:_ZN5caffe18ThresholdParameterC2ERKS0_
libcaffe2.so:_ZN5caffe18ThresholdParameterC2Ev
libcaffe2.so:_ZN5caffe18ThresholdParameterD0Ev
libcaffe2.so:_ZN5caffe18ThresholdParameterD1Ev
libcaffe2.so:_ZN5caffe18ThresholdParameterD2Ev
libcaffe2.so:_ZN5caffe19HDF5OutputParameter10SharedCtorEv
libcaffe2.so:_ZN5caffe19HDF5OutputParameter10SharedDtorEv
libcaffe2.so:_ZN5caffe19HDF5OutputParameter10descriptorEv
libcaffe2.so:_ZN5caffe19HDF5OutputParameter12InternalSwapEPS0_
libcaffe2.so:_ZN5caffe19HDF5OutputParameter16default_instanceEv
libcaffe2.so:_ZN5caffe19HDF5OutputParameter21InitAsDefaultInstanceEv
libcaffe2.so:_ZN5caffe19HDF5OutputParameter27MergePartialFromCodedStreamEPN6google8protobuf2io16CodedInputStreamE
libcaffe2.so:_ZN5caffe19HDF5OutputParameter4SwapEPS0_
libcaffe2.so:_ZN5caffe19HDF5OutputParameter5ClearEv
libcaffe2.so:_ZN5caffe19HDF5OutputParameter8CopyFromERKN6google8protobuf7MessageE
libcaffe2.so:_ZN5caffe19HDF5OutputParameter8CopyFromERKS0_
libcaffe2.so:_ZN5caffe19HDF5OutputParameter9MergeFromERKN6google8protobuf7MessageE
libcaffe2.so:_ZN5caffe19HDF5OutputParameter9MergeFromERKS0_
libcaffe2.so:_ZN5caffe19HDF5OutputParameterC1ERKS0_
libcaffe2.so:_ZN5caffe19HDF5OutputParameterC1Ev
libcaffe2.so:_ZN5caffe19HDF5OutputParameterC2ERKS0_
libcaffe2.so:_ZN5caffe19HDF5OutputParameterC2Ev
libcaffe2.so:_ZN5caffe19HDF5OutputParameterD0Ev
libcaffe2.so:_ZN5caffe19HDF5OutputParameterD1Ev
libcaffe2.so:_ZN5caffe19HDF5OutputParameterD2Ev
libcaffe2.so:_ZN5caffe19MemoryDataParameter10SharedCtorEv
libcaffe2.so:_ZN5caffe19MemoryDataParameter10SharedDtorEv
libcaffe2.so:_ZN5caffe19MemoryDataParameter10descriptorEv
libcaffe2.so:_ZN5caffe19MemoryDataParameter12InternalSwapEPS0_
libcaffe2.so:_ZN5caffe19MemoryDataParameter16default_instanceEv
libcaffe2.so:_ZN5caffe19MemoryDataParameter21InitAsDefaultInstanceEv
libcaffe2.so:_ZN5caffe19MemoryDataParameter27MergePartialFromCodedStreamEPN6google8protobuf2io16CodedInputStreamE
libcaffe2.so:_ZN5caffe19MemoryDataParameter4SwapEPS0_
libcaffe2.so:_ZN5caffe19MemoryDataParameter5ClearEv
libcaffe2.so:_ZN5caffe19MemoryDataParameter8CopyFromERKN6google8protobuf7MessageE
libcaffe2.so:_ZN5caffe19MemoryDataParameter8CopyFromERKS0_
libcaffe2.so:_ZN5caffe19MemoryDataParameter9MergeFromERKN6google8protobuf7MessageE
libcaffe2.so:_ZN5caffe19MemoryDataParameter9MergeFromERKS0_
libcaffe2.so:_ZN5caffe19MemoryDataParameterC1ERKS0_
libcaffe2.so:_ZN5caffe19MemoryDataParameterC1Ev
libcaffe2.so:_ZN5caffe19MemoryDataParameterC2ERKS0_
libcaffe2.so:_ZN5caffe19MemoryDataParameterC2Ev
libcaffe2.so:_ZN5caffe19MemoryDataParameterD0Ev
libcaffe2.so:_ZN5caffe19MemoryDataParameterD1Ev
libcaffe2.so:_ZN5caffe19MemoryDataParameterD2Ev
libcaffe2.so:_ZN5caffe19WindowDataParameter10SharedCtorEv
libcaffe2.so:_ZN5caffe19WindowDataParameter10SharedDtorEv
libcaffe2.so:_ZN5caffe19WindowDataParameter10descriptorEv
libcaffe2.so:_ZN5caffe19WindowDataParameter12InternalSwapEPS0_
libcaffe2.so:_ZN5caffe19WindowDataParameter16default_instanceEv
libcaffe2.so:_ZN5caffe19WindowDataParameter21InitAsDefaultInstanceEv
libcaffe2.so:_ZN5caffe19WindowDataParameter27MergePartialFromCodedStreamEPN6google8protobuf2io16CodedInputStreamE
libcaffe2.so:_ZN5caffe19WindowDataParameter4SwapEPS0_
libcaffe2.so:_ZN5caffe19WindowDataParameter5ClearEv
libcaffe2.so:_ZN5caffe19WindowDataParameter8CopyFromERKN6google8protobuf7MessageE
libcaffe2.so:_ZN5caffe19WindowDataParameter8CopyFromERKS0_
libcaffe2.so:_ZN5caffe19WindowDataParameter9MergeFromERKN6google8protobuf7MessageE
libcaffe2.so:_ZN5caffe19WindowDataParameter9MergeFromERKS0_
libcaffe2.so:_ZN5caffe19WindowDataParameterC1ERKS0_
libcaffe2.so:_ZN5caffe19WindowDataParameterC1Ev
libcaffe2.so:_ZN5caffe19WindowDataParameterC2ERKS0_
libcaffe2.so:_ZN5caffe19WindowDataParameterC2Ev
libcaffe2.so:_ZN5caffe19WindowDataParameterD0Ev
libcaffe2.so:_ZN5caffe19WindowDataParameterD1Ev
libcaffe2.so:_ZN5caffe19WindowDataParameterD2Ev
libcaffe2.so:_ZN5caffe20ConvolutionParameter10SharedCtorEv
libcaffe2.so:_ZN5caffe20ConvolutionParameter10SharedDtorEv
libcaffe2.so:_ZN5caffe20ConvolutionParameter10descriptorEv
libcaffe2.so:_ZN5caffe20ConvolutionParameter12InternalSwapEPS0_
libcaffe2.so:_ZN5caffe20ConvolutionParameter16default_instanceEv
libcaffe2.so:_ZN5caffe20ConvolutionParameter21InitAsDefaultInstanceEv
libcaffe2.so:_ZN5caffe20ConvolutionParameter27MergePartialFromCodedStreamEPN6google8protobuf2io16CodedInputStreamE
libcaffe2.so:_ZN5caffe20ConvolutionParameter4SwapEPS0_
libcaffe2.so:_ZN5caffe20ConvolutionParameter5ClearEv
libcaffe2.so:_ZN5caffe20ConvolutionParameter8CopyFromERKN6google8protobuf7MessageE
libcaffe2.so:_ZN5caffe20ConvolutionParameter8CopyFromERKS0_
libcaffe2.so:_ZN5caffe20ConvolutionParameter9MergeFromERKN6google8protobuf7MessageE
libcaffe2.so:_ZN5caffe20ConvolutionParameter9MergeFromERKS0_
libcaffe2.so:_ZN5caffe20ConvolutionParameterC1ERKS0_
libcaffe2.so:_ZN5caffe20ConvolutionParameterC1Ev
libcaffe2.so:_ZN5caffe20ConvolutionParameterC2ERKS0_
libcaffe2.so:_ZN5caffe20ConvolutionParameterC2Ev
libcaffe2.so:_ZN5caffe20ConvolutionParameterD0Ev
libcaffe2.so:_ZN5caffe20ConvolutionParameterD1Ev
libcaffe2.so:_ZN5caffe20ConvolutionParameterD2Ev
libcaffe2.so:_ZN5caffe21InfogainLossParameter10SharedCtorEv
libcaffe2.so:_ZN5caffe21InfogainLossParameter10SharedDtorEv
libcaffe2.so:_ZN5caffe21InfogainLossParameter10descriptorEv
libcaffe2.so:_ZN5caffe21InfogainLossParameter12InternalSwapEPS0_
libcaffe2.so:_ZN5caffe21InfogainLossParameter16default_instanceEv
libcaffe2.so:_ZN5caffe21InfogainLossParameter21InitAsDefaultInstanceEv
libcaffe2.so:_ZN5caffe21InfogainLossParameter27MergePartialFromCodedStreamEPN6google8protobuf2io16CodedInputStreamE
libcaffe2.so:_ZN5caffe21InfogainLossParameter4SwapEPS0_
libcaffe2.so:_ZN5caffe21InfogainLossParameter5ClearEv
libcaffe2.so:_ZN5caffe21InfogainLossParameter8CopyFromERKN6google8protobuf7MessageE
libcaffe2.so:_ZN5caffe21InfogainLossParameter8CopyFromERKS0_
libcaffe2.so:_ZN5caffe21InfogainLossParameter9MergeFromERKN6google8protobuf7MessageE
libcaffe2.so:_ZN5caffe21InfogainLossParameter9MergeFromERKS0_
libcaffe2.so:_ZN5caffe21InfogainLossParameterC1ERKS0_
libcaffe2.so:_ZN5caffe21InfogainLossParameterC1Ev
libcaffe2.so:_ZN5caffe21InfogainLossParameterC2ERKS0_
libcaffe2.so:_ZN5caffe21InfogainLossParameterC2Ev
libcaffe2.so:_ZN5caffe21InfogainLossParameterD0Ev
libcaffe2.so:_ZN5caffe21InfogainLossParameterD1Ev
libcaffe2.so:_ZN5caffe21InfogainLossParameterD2Ev
libcaffe2.so:_ZN5caffe21InnerProductParameter10SharedCtorEv
libcaffe2.so:_ZN5caffe21InnerProductParameter10SharedDtorEv
libcaffe2.so:_ZN5caffe21InnerProductParameter10descriptorEv
libcaffe2.so:_ZN5caffe21InnerProductParameter12InternalSwapEPS0_
libcaffe2.so:_ZN5caffe21InnerProductParameter16default_instanceEv
libcaffe2.so:_ZN5caffe21InnerProductParameter21InitAsDefaultInstanceEv
libcaffe2.so:_ZN5caffe21InnerProductParameter27MergePartialFromCodedStreamEPN6google8protobuf2io16CodedInputStreamE
libcaffe2.so:_ZN5caffe21InnerProductParameter4SwapEPS0_
libcaffe2.so:_ZN5caffe21InnerProductParameter5ClearEv
libcaffe2.so:_ZN5caffe21InnerProductParameter8CopyFromERKN6google8protobuf7MessageE
libcaffe2.so:_ZN5caffe21InnerProductParameter8CopyFromERKS0_
libcaffe2.so:_ZN5caffe21InnerProductParameter9MergeFromERKN6google8protobuf7MessageE
libcaffe2.so:_ZN5caffe21InnerProductParameter9MergeFromERKS0_
libcaffe2.so:_ZN5caffe21InnerProductParameterC1ERKS0_
libcaffe2.so:_ZN5caffe21InnerProductParameterC1Ev
libcaffe2.so:_ZN5caffe21InnerProductParameterC2ERKS0_
libcaffe2.so:_ZN5caffe21InnerProductParameterC2Ev
libcaffe2.so:_ZN5caffe21InnerProductParameterD0Ev
libcaffe2.so:_ZN5caffe21InnerProductParameterD1Ev
libcaffe2.so:_ZN5caffe21InnerProductParameterD2Ev
libcaffe2.so:_ZN5caffe23TransformationParameter10SharedCtorEv
libcaffe2.so:_ZN5caffe23TransformationParameter10SharedDtorEv
libcaffe2.so:_ZN5caffe23TransformationParameter10descriptorEv
libcaffe2.so:_ZN5caffe23TransformationParameter12InternalSwapEPS0_
libcaffe2.so:_ZN5caffe23TransformationParameter16default_instanceEv
libcaffe2.so:_ZN5caffe23TransformationParameter21InitAsDefaultInstanceEv
libcaffe2.so:_ZN5caffe23TransformationParameter27MergePartialFromCodedStreamEPN6google8protobuf2io16CodedInputStreamE
libcaffe2.so:_ZN5caffe23TransformationParameter4SwapEPS0_
libcaffe2.so:_ZN5caffe23TransformationParameter5ClearEv
libcaffe2.so:_ZN5caffe23TransformationParameter8CopyFromERKN6google8protobuf7MessageE
libcaffe2.so:_ZN5caffe23TransformationParameter8CopyFromERKS0_
libcaffe2.so:_ZN5caffe23TransformationParameter9MergeFromERKN6google8protobuf7MessageE
libcaffe2.so:_ZN5caffe23TransformationParameter9MergeFromERKS0_
libcaffe2.so:_ZN5caffe23TransformationParameterC1ERKS0_
libcaffe2.so:_ZN5caffe23TransformationParameterC1Ev
libcaffe2.so:_ZN5caffe23TransformationParameterC2ERKS0_
libcaffe2.so:_ZN5caffe23TransformationParameterC2Ev
libcaffe2.so:_ZN5caffe23TransformationParameterD0Ev
libcaffe2.so:_ZN5caffe23TransformationParameterD1Ev
libcaffe2.so:_ZN5caffe23TransformationParameterD2Ev
libcaffe2.so:_ZN5caffe24ContrastiveLossParameter10SharedCtorEv
libcaffe2.so:_ZN5caffe24ContrastiveLossParameter10SharedDtorEv
libcaffe2.so:_ZN5caffe24ContrastiveLossParameter10descriptorEv
libcaffe2.so:_ZN5caffe24ContrastiveLossParameter12InternalSwapEPS0_
libcaffe2.so:_ZN5caffe24ContrastiveLossParameter16default_instanceEv
libcaffe2.so:_ZN5caffe24ContrastiveLossParameter21InitAsDefaultInstanceEv
libcaffe2.so:_ZN5caffe24ContrastiveLossParameter27MergePartialFromCodedStreamEPN6google8protobuf2io16CodedInputStreamE
libcaffe2.so:_ZN5caffe24ContrastiveLossParameter4SwapEPS0_
libcaffe2.so:_ZN5caffe24ContrastiveLossParameter5ClearEv
libcaffe2.so:_ZN5caffe24ContrastiveLossParameter8CopyFromERKN6google8protobuf7MessageE
libcaffe2.so:_ZN5caffe24ContrastiveLossParameter8CopyFromERKS0_
libcaffe2.so:_ZN5caffe24ContrastiveLossParameter9MergeFromERKN6google8protobuf7MessageE
libcaffe2.so:_ZN5caffe24ContrastiveLossParameter9MergeFromERKS0_
libcaffe2.so:_ZN5caffe24ContrastiveLossParameterC1ERKS0_
libcaffe2.so:_ZN5caffe24ContrastiveLossParameterC1Ev
libcaffe2.so:_ZN5caffe24ContrastiveLossParameterC2ERKS0_
libcaffe2.so:_ZN5caffe24ContrastiveLossParameterC2Ev
libcaffe2.so:_ZN5caffe24ContrastiveLossParameterD0Ev
libcaffe2.so:_ZN5caffe24ContrastiveLossParameterD1Ev
libcaffe2.so:_ZN5caffe24ContrastiveLossParameterD2Ev
libcaffe2.so:_ZN5caffe24DataParameter_DB_IsValidEi
libcaffe2.so:_ZN5caffe27DataParameter_DB_descriptorEv
libcaffe2.so:_ZN5caffe27GetEmptyStringAlreadyInitedB5cxx11Ev
libcaffe2.so:_ZN5caffe27LRNParameter_Engine_IsValidEi
libcaffe2.so:_ZN5caffe27SPPParameter_Engine_IsValidEi
libcaffe2.so:_ZN5caffe28ReLUParameter_Engine_IsValidEi
libcaffe2.so:_ZN5caffe28TanHParameter_Engine_IsValidEi
libcaffe2.so:_ZN5caffe30LRNParameter_Engine_descriptorEv
libcaffe2.so:_ZN5caffe30ParamSpec_DimCheckMode_IsValidEi
libcaffe2.so:_ZN5caffe30SPPParameter_Engine_descriptorEv
libcaffe2.so:_ZN5caffe31HingeLossParameter_Norm_IsValidEi
libcaffe2.so:_ZN5caffe31LRNParameter_NormRegion_IsValidEi
libcaffe2.so:_ZN5caffe31PoolingParameter_Engine_IsValidEi
libcaffe2.so:_ZN5caffe31ReLUParameter_Engine_descriptorEv
libcaffe2.so:_ZN5caffe31SPPParameter_PoolMethod_IsValidEi
libcaffe2.so:_ZN5caffe31SigmoidParameter_Engine_IsValidEi
libcaffe2.so:_ZN5caffe31SoftmaxParameter_Engine_IsValidEi
libcaffe2.so:_ZN5caffe31TanHParameter_Engine_descriptorEv
libcaffe2.so:_ZN5caffe33ParamSpec_DimCheckMode_descriptorEv
libcaffe2.so:_ZN5caffe34EltwiseParameter_EltwiseOp_IsValidEi
libcaffe2.so:_ZN5caffe34HingeLossParameter_Norm_descriptorEv
libcaffe2.so:_ZN5caffe34LRNParameter_NormRegion_descriptorEv
libcaffe2.so:_ZN5caffe34PoolingParameter_Engine_descriptorEv
libcaffe2.so:_ZN5caffe34SPPParameter_PoolMethod_descriptorEv
libcaffe2.so:_ZN5caffe34SigmoidParameter_Engine_descriptorEv
libcaffe2.so:_ZN5caffe34SoftmaxParameter_Engine_descriptorEv
libcaffe2.so:_ZN5caffe34SolverParameter_SolverMode_IsValidEi
libcaffe2.so:_ZN5caffe34SolverParameter_SolverType_IsValidEi
libcaffe2.so:_ZN5caffe34V1LayerParameter_LayerType_IsValidEi
libcaffe2.so:_ZN5caffe35ConvolutionParameter_Engine_IsValidEi
libcaffe2.so:_ZN5caffe35PoolingParameter_PoolMethod_IsValidEi
libcaffe2.so:_ZN5caffe35V0LayerParameter_PoolMethod_IsValidEi
libcaffe2.so:_ZN5caffe36FillerParameter_VarianceNorm_IsValidEi
libcaffe2.so:_ZN5caffe37EltwiseParameter_EltwiseOp_descriptorEv
libcaffe2.so:_ZN5caffe37SolverParameter_SolverMode_descriptorEv
libcaffe2.so:_ZN5caffe37SolverParameter_SolverType_descriptorEv
libcaffe2.so:_ZN5caffe37V1LayerParameter_DimCheckMode_IsValidEi
libcaffe2.so:_ZN5caffe37V1LayerParameter_LayerType_descriptorEv
libcaffe2.so:_ZN5caffe38ConvolutionParameter_Engine_descriptorEv
libcaffe2.so:_ZN5caffe38PoolingParameter_PoolMethod_descriptorEv
libcaffe2.so:_ZN5caffe38ReductionParameter_ReductionOp_IsValidEi
libcaffe2.so:_ZN5caffe38SolverParameter_SnapshotFormat_IsValidEi
libcaffe2.so:_ZN5caffe38V0LayerParameter_PoolMethod_descriptorEv
libcaffe2.so:_ZN5caffe39FillerParameter_VarianceNorm_descriptorEv
libcaffe2.so:_ZN5caffe39LossParameter_NormalizationMode_IsValidEi
libcaffe2.so:_ZN5caffe40V1LayerParameter_DimCheckMode_descriptorEv
libcaffe2.so:_ZN5caffe41ReductionParameter_ReductionOp_descriptorEv
libcaffe2.so:_ZN5caffe41SolverParameter_SnapshotFormat_descriptorEv
libcaffe2.so:_ZN5caffe42LossParameter_NormalizationMode_descriptorEv
libcaffe2.so:_ZN5caffe5Datum10SharedCtorEv
libcaffe2.so:_ZN5caffe5Datum10SharedDtorEv
libcaffe2.so:_ZN5caffe5Datum10descriptorEv
libcaffe2.so:_ZN5caffe5Datum12InternalSwapEPS0_
libcaffe2.so:_ZN5caffe5Datum16default_instanceEv
libcaffe2.so:_ZN5caffe5Datum21InitAsDefaultInstanceEv
libcaffe2.so:_ZN5caffe5Datum27MergePartialFromCodedStreamEPN6google8protobuf2io16CodedInputStreamE
libcaffe2.so:_ZN5caffe5Datum4SwapEPS0_
libcaffe2.so:_ZN5caffe5Datum5ClearEv
libcaffe2.so:_ZN5caffe5Datum8CopyFromERKN6google8protobuf7MessageE
libcaffe2.so:_ZN5caffe5Datum8CopyFromERKS0_
libcaffe2.so:_ZN5caffe5Datum9MergeFromERKN6google8protobuf7MessageE
libcaffe2.so:_ZN5caffe5Datum9MergeFromERKS0_
libcaffe2.so:_ZN5caffe5DatumC1ERKS0_
libcaffe2.so:_ZN5caffe5DatumC1Ev
libcaffe2.so:_ZN5caffe5DatumC2ERKS0_
libcaffe2.so:_ZN5caffe5DatumC2Ev
libcaffe2.so:_ZN5caffe5DatumD0Ev
libcaffe2.so:_ZN5caffe5DatumD1Ev
libcaffe2.so:_ZN5caffe5DatumD2Ev
libcaffe2.so:_ZN5caffe8NetState10SharedCtorEv
libcaffe2.so:_ZN5caffe8NetState10SharedDtorEv
libcaffe2.so:_ZN5caffe8NetState10descriptorEv
libcaffe2.so:_ZN5caffe8NetState12InternalSwapEPS0_
libcaffe2.so:_ZN5caffe8NetState16default_instanceEv
libcaffe2.so:_ZN5caffe8NetState21InitAsDefaultInstanceEv
libcaffe2.so:_ZN5caffe8NetState27MergePartialFromCodedStreamEPN6google8protobuf2io16CodedInputStreamE
libcaffe2.so:_ZN5caffe8NetState4SwapEPS0_
libcaffe2.so:_ZN5caffe8NetState5ClearEv
libcaffe2.so:_ZN5caffe8NetState8CopyFromERKN6google8protobuf7MessageE
libcaffe2.so:_ZN5caffe8NetState8CopyFromERKS0_
libcaffe2.so:_ZN5caffe8NetState9MergeFromERKN6google8protobuf7MessageE
libcaffe2.so:_ZN5caffe8NetState9MergeFromERKS0_
libcaffe2.so:_ZN5caffe8NetStateC1ERKS0_
libcaffe2.so:_ZN5caffe8NetStateC1Ev
libcaffe2.so:_ZN5caffe8NetStateC2ERKS0_
libcaffe2.so:_ZN5caffe8NetStateC2Ev
libcaffe2.so:_ZN5caffe8NetStateD0Ev
libcaffe2.so:_ZN5caffe8NetStateD1Ev
libcaffe2.so:_ZN5caffe8NetStateD2Ev
libcaffe2.so:_ZN5caffe9BlobProto10SharedCtorEv
libcaffe2.so:_ZN5caffe9BlobProto10SharedDtorEv
libcaffe2.so:_ZN5caffe9BlobProto10descriptorEv
libcaffe2.so:_ZN5caffe9BlobProto12InternalSwapEPS0_
libcaffe2.so:_ZN5caffe9BlobProto16default_instanceEv
libcaffe2.so:_ZN5caffe9BlobProto21InitAsDefaultInstanceEv
libcaffe2.so:_ZN5caffe9BlobProto27MergePartialFromCodedStreamEPN6google8protobuf2io16CodedInputStreamE
libcaffe2.so:_ZN5caffe9BlobProto4SwapEPS0_
libcaffe2.so:_ZN5caffe9BlobProto5ClearEv
libcaffe2.so:_ZN5caffe9BlobProto8CopyFromERKN6google8protobuf7MessageE
libcaffe2.so:_ZN5caffe9BlobProto8CopyFromERKS0_
libcaffe2.so:_ZN5caffe9BlobProto9MergeFromERKN6google8protobuf7MessageE
libcaffe2.so:_ZN5caffe9BlobProto9MergeFromERKS0_
libcaffe2.so:_ZN5caffe9BlobProtoC1ERKS0_
libcaffe2.so:_ZN5caffe9BlobProtoC1Ev
libcaffe2.so:_ZN5caffe9BlobProtoC2ERKS0_
libcaffe2.so:_ZN5caffe9BlobProtoC2Ev
libcaffe2.so:_ZN5caffe9BlobProtoD0Ev
libcaffe2.so:_ZN5caffe9BlobProtoD1Ev
libcaffe2.so:_ZN5caffe9BlobProtoD2Ev
libcaffe2.so:_ZN5caffe9BlobShape10SharedCtorEv
libcaffe2.so:_ZN5caffe9BlobShape10SharedDtorEv
libcaffe2.so:_ZN5caffe9BlobShape10descriptorEv
libcaffe2.so:_ZN5caffe9BlobShape12InternalSwapEPS0_
libcaffe2.so:_ZN5caffe9BlobShape16default_instanceEv
libcaffe2.so:_ZN5caffe9BlobShape21InitAsDefaultInstanceEv
libcaffe2.so:_ZN5caffe9BlobShape27MergePartialFromCodedStreamEPN6google8protobuf2io16CodedInputStreamE
libcaffe2.so:_ZN5caffe9BlobShape4SwapEPS0_
libcaffe2.so:_ZN5caffe9BlobShape5ClearEv
libcaffe2.so:_ZN5caffe9BlobShape8CopyFromERKN6google8protobuf7MessageE
libcaffe2.so:_ZN5caffe9BlobShape8CopyFromERKS0_
libcaffe2.so:_ZN5caffe9BlobShape9MergeFromERKN6google8protobuf7MessageE
libcaffe2.so:_ZN5caffe9BlobShape9MergeFromERKS0_
libcaffe2.so:_ZN5caffe9BlobShapeC1ERKS0_
libcaffe2.so:_ZN5caffe9BlobShapeC1Ev
libcaffe2.so:_ZN5caffe9BlobShapeC2ERKS0_
libcaffe2.so:_ZN5caffe9BlobShapeC2Ev
libcaffe2.so:_ZN5caffe9BlobShapeD0Ev
libcaffe2.so:_ZN5caffe9BlobShapeD1Ev
libcaffe2.so:_ZN5caffe9BlobShapeD2Ev
libcaffe2.so:_ZN5caffe9ParamSpec10SharedCtorEv
libcaffe2.so:_ZN5caffe9ParamSpec10SharedDtorEv
libcaffe2.so:_ZN5caffe9ParamSpec10descriptorEv
libcaffe2.so:_ZN5caffe9ParamSpec12InternalSwapEPS0_
libcaffe2.so:_ZN5caffe9ParamSpec16default_instanceEv
libcaffe2.so:_ZN5caffe9ParamSpec21InitAsDefaultInstanceEv
libcaffe2.so:_ZN5caffe9ParamSpec27MergePartialFromCodedStreamEPN6google8protobuf2io16CodedInputStreamE
libcaffe2.so:_ZN5caffe9ParamSpec4SwapEPS0_
libcaffe2.so:_ZN5caffe9ParamSpec5ClearEv
libcaffe2.so:_ZN5caffe9ParamSpec8CopyFromERKN6google8protobuf7MessageE
libcaffe2.so:_ZN5caffe9ParamSpec8CopyFromERKS0_
libcaffe2.so:_ZN5caffe9ParamSpec9MergeFromERKN6google8protobuf7MessageE
libcaffe2.so:_ZN5caffe9ParamSpec9MergeFromERKS0_
libcaffe2.so:_ZN5caffe9ParamSpecC1ERKS0_
libcaffe2.so:_ZN5caffe9ParamSpecC1Ev
libcaffe2.so:_ZN5caffe9ParamSpecC2ERKS0_
libcaffe2.so:_ZN5caffe9ParamSpecC2Ev
libcaffe2.so:_ZN5caffe9ParamSpecD0Ev
libcaffe2.so:_ZN5caffe9ParamSpecD1Ev
libcaffe2.so:_ZN5caffe9ParamSpecD2Ev
libcaffe2.so:_ZN6caffe2100CAFFE2_PLEASE_ADD_OPERATOR_SCHEMA_FOR_SparseLengthsIndicesInGradientWeightedSumWithMainInputGradientEv
libcaffe2.so:_ZN6caffe210AccuracyOpIfNS_10CPUContextEE11RunOnDeviceEv
libcaffe2.so:_ZN6caffe210BlobsQueue12blockingReadERKSt6vectorIPNS_4BlobESaIS3_EEf
libcaffe2.so:_ZN6caffe210BlobsQueue13blockingWriteERKSt6vectorIPNS_4BlobESaIS3_EE
libcaffe2.so:_ZN6caffe210BlobsQueue5closeEv
libcaffe2.so:_ZN6caffe210BlobsQueue7doWriteERKSt6vectorIPNS_4BlobESaIS3_EE
libcaffe2.so:_ZN6caffe210BlobsQueue8canWriteEv
libcaffe2.so:_ZN6caffe210BlobsQueue8tryWriteERKSt6vectorIPNS_4BlobESaIS3_EE
libcaffe2.so:_ZN6caffe210BlobsQueueC1EPNS_9WorkspaceERKNSt7__cxx1112basic_stringIcSt11char_traitsIcESaIcEEEmmbRKSt6vectorIS8_SaIS8_EE
libcaffe2.so:_ZN6caffe210BlobsQueueC2EPNS_9WorkspaceERKNSt7__cxx1112basic_stringIcSt11char_traitsIcESaIcEEEmmbRKSt6vectorIS8_SaIS8_EE
libcaffe2.so:_ZN6caffe210BrightnessEPfiiifPSt23mersenne_twister_engineImLm32ELm624ELm397ELm31ELm2567483615ELm11ELm4294967295ELm7ELm2636928640ELm15ELm4022730752ELm18ELm1812433253EE
libcaffe2.so:_ZN6caffe210DAGNetBase10DoRunAsyncEv
libcaffe2.so:_ZN6caffe210DAGNetBase14TEST_BenchmarkEiib
libcaffe2.so:_ZN6caffe210DAGNetBase14WorkerFunctionEv
libcaffe2.so:_ZN6caffe210DAGNetBase15HandleExceptionEiRKNSt7__cxx1112basic_stringIcSt11char_traitsIcESaIcEEE
libcaffe2.so:_ZN6caffe210DAGNetBaseC1ERKSt10shared_ptrIKNS_6NetDefEEPNS_9WorkspaceE
libcaffe2.so:_ZN6caffe210DAGNetBaseC2ERKSt10shared_ptrIKNS_6NetDefEEPNS_9WorkspaceE
libcaffe2.so:_ZN6caffe210DAGNetBaseD0Ev
libcaffe2.so:_ZN6caffe210DAGNetBaseD1Ev
libcaffe2.so:_ZN6caffe210DAGNetBaseD2Ev
libcaffe2.so:_ZN6caffe210FileReader5resetEv
libcaffe2.so:_ZN6caffe210FileReaderC1ERKNSt7__cxx1112basic_stringIcSt11char_traitsIcESaIcEEEm
libcaffe2.so:_ZN6caffe210FileReaderC2ERKNSt7__cxx1112basic_stringIcSt11char_traitsIcESaIcEEEm
libcaffe2.so:_ZN6caffe210FileReaderD0Ev
libcaffe2.so:_ZN6caffe210FileReaderD1Ev
libcaffe2.so:_ZN6caffe210FileReaderD2Ev
libcaffe2.so:_ZN6caffe210FileReaderclERNS_9CharRangeE
libcaffe2.so:_ZN6caffe210GlobalInitEPiPPPc
libcaffe2.so:_ZN6caffe210HSoftmaxOpIfNS_10CPUContextEE11RunOnDeviceEv
libcaffe2.so:_ZN6caffe210HSoftmaxOpIfNS_10CPUContextEE16RunForwardSingleEPKfS4_S4_iPfS4_iiRi
libcaffe2.so:_ZN6caffe210HasScopeOpINS_10CPUContextEE11RunOnDeviceEv
libcaffe2.so:_ZN6caffe210LoadModuleERKNSt7__cxx1112basic_stringIcSt11char_traitsIcESaIcEEES7_
libcaffe2.so:_ZN6caffe210MetaNetDef10SharedCtorEv
libcaffe2.so:_ZN6caffe210MetaNetDef10SharedDtorEv
libcaffe2.so:_ZN6caffe210MetaNetDef10descriptorEv
libcaffe2.so:_ZN6caffe210MetaNetDef12InternalSwapEPS0_
libcaffe2.so:_ZN6caffe210MetaNetDef16default_instanceEv
libcaffe2.so:_ZN6caffe210MetaNetDef21InitAsDefaultInstanceEv
libcaffe2.so:_ZN6caffe210MetaNetDef27MergePartialFromCodedStreamEPN6google8protobuf2io16CodedInputStreamE
libcaffe2.so:_ZN6caffe210MetaNetDef4SwapEPS0_
libcaffe2.so:_ZN6caffe210MetaNetDef5ClearEv
libcaffe2.so:_ZN6caffe210MetaNetDef8CopyFromERKN6google8protobuf7MessageE
libcaffe2.so:_ZN6caffe210MetaNetDef8CopyFromERKS0_
libcaffe2.so:_ZN6caffe210MetaNetDef9MergeFromERKN6google8protobuf7MessageE
libcaffe2.so:_ZN6caffe210MetaNetDef9MergeFromERKS0_
libcaffe2.so:_ZN6caffe210MetaNetDefC1ERKS0_
libcaffe2.so:_ZN6caffe210MetaNetDefC1Ev
libcaffe2.so:_ZN6caffe210MetaNetDefC2ERKS0_
libcaffe2.so:_ZN6caffe210MetaNetDefC2Ev
libcaffe2.so:_ZN6caffe210MetaNetDefD0Ev
libcaffe2.so:_ZN6caffe210MetaNetDefD1Ev
libcaffe2.so:_ZN6caffe210MetaNetDefD2Ev
libcaffe2.so:_ZN6caffe210NanCheckOpINS_10CPUContextEE11RunOnDeviceEv
libcaffe2.so:_ZN6caffe210PadImageOpIfNS_10CPUContextEE18PadTensorInferenceERKNS_11OperatorDefERKSt6vectorINS_11TensorShapeESaIS7_EE
libcaffe2.so:_ZN6caffe210PadImageOpIfNS_10CPUContextEE24RunOnDeviceWithOrderNCHWEv
libcaffe2.so:_ZN6caffe210PadImageOpIfNS_10CPUContextEE24RunOnDeviceWithOrderNHWCEv
libcaffe2.so:_ZN6caffe210ReplaceAllERNSt7__cxx1112basic_stringIcSt11char_traitsIcESaIcEEEPKcS8_
libcaffe2.so:_ZN6caffe210RoIAlignOpIfNS_10CPUContextEE11RunOnDeviceEv
libcaffe2.so:_ZN6caffe210SaturationEPfiiifPSt23mersenne_twister_engineImLm32ELm624ELm397ELm31ELm2567483615ELm11ELm4294967295ELm7ELm2636928640ELm15ELm4022730752ELm18ELm1812433253EE
libcaffe2.so:_ZN6caffe210SoftmaxCPUERNS_10CPUContextEiiPKfPfS4_S3_bS4_
libcaffe2.so:_ZN6caffe210SoftplusOpIfNS_10CPUContextEE11RunOnDeviceEv
libcaffe2.so:_ZN6caffe210StoreAddOp11RunOnDeviceEv
libcaffe2.so:_ZN6caffe210StoreAddOpC1ERKNS_11OperatorDefEPNS_9WorkspaceE
libcaffe2.so:_ZN6caffe210StoreAddOpC2ERKNS_11OperatorDefEPNS_9WorkspaceE
libcaffe2.so:_ZN6caffe210StoreGetOp11RunOnDeviceEv
libcaffe2.so:_ZN6caffe210StoreGetOpC1ERKNS_11OperatorDefEPNS_9WorkspaceE
libcaffe2.so:_ZN6caffe210StoreGetOpC2ERKNS_11OperatorDefEPNS_9WorkspaceE
libcaffe2.so:_ZN6caffe210StoreSetOp11RunOnDeviceEv
libcaffe2.so:_ZN6caffe210StoreSetOpC1ERKNS_11OperatorDefEPNS_9WorkspaceE
libcaffe2.so:_ZN6caffe210StoreSetOpC2ERKNS_11OperatorDefEPNS_9WorkspaceE
libcaffe2.so:_ZN6caffe210TextFormat15ParseFromStringERKNSt7__cxx1112basic_stringIcSt11char_traitsIcESaIcEEEPN6google8protobuf7MessageE
libcaffe2.so:_ZN6caffe210ThreadPool14setMinWorkSizeEm
libcaffe2.so:_ZN6caffe210ThreadPool17defaultThreadPoolEv
libcaffe2.so:_ZN6caffe210ThreadPool3runERKSt8functionIFvimEEm
libcaffe2.so:_ZN6caffe210ThreadPool8withPoolERKSt8functionIFvPNS_11WorkersPoolEEE
libcaffe2.so:_ZN6caffe210ThreadPoolC1Ei
libcaffe2.so:_ZN6caffe210ThreadPoolC2Ei
libcaffe2.so:_ZN6caffe210ThreadPoolD1Ev
libcaffe2.so:_ZN6caffe210ThreadPoolD2Ev
libcaffe2.so:_ZN6caffe210gTypeNamesB5cxx11Ev
libcaffe2.so:_ZN6caffe210initNNPACKEv
libcaffe2.so:_ZN6caffe210lc_op_util15SetYBufferShapeEiiiNS_12StorageOrderEPSt6vectorIiSaIiEES5_S5_
libcaffe2.so:_ZN6caffe210lc_op_util20SetColumnBufferShapeEiiiNS_12StorageOrderEPSt6vectorIiSaIiEES5_S5_
libcaffe2.so:_ZN6caffe211ColorJitterEPfiiifffPSt23mersenne_twister_engineImLm32ELm624ELm397ELm31ELm2567483615ELm11ELm4294967295ELm7ELm2636928640ELm15ELm4022730752ELm18ELm1812433253EE
libcaffe2.so:_ZN6caffe211GetArgumentERKNS_11OperatorDefERKNSt7__cxx1112basic_stringIcSt11char_traitsIcESaIcEEE
libcaffe2.so:_ZN6caffe211GetNUMANodeEPKv
libcaffe2.so:_ZN6caffe211LayerNormOpINS_10CPUContextEE13DoRunWithTypeIfEEbv
libcaffe2.so:_ZN6caffe211LeakyReluOpIfNS_10CPUContextEE11RunOnDeviceEv
libcaffe2.so:_ZN6caffe211MPICommRankEP19ompi_communicator_t
libcaffe2.so:_ZN6caffe211MPICommSizeEP19ompi_communicator_t
libcaffe2.so:_ZN6caffe211NCHW2NHWCOpIfNS_10CPUContextEE11RunOnDeviceEv
libcaffe2.so:_ZN6caffe211NHWC2NCHWOpIfNS_10CPUContextEE11RunOnDeviceEv
libcaffe2.so:_ZN6caffe211NetRegistryB5cxx11Ev
libcaffe2.so:_ZN6caffe211OperatorDef10SharedCtorEv
libcaffe2.so:_ZN6caffe211OperatorDef10SharedDtorEv
libcaffe2.so:_ZN6caffe211OperatorDef10descriptorEv
libcaffe2.so:_ZN6caffe211OperatorDef12InternalSwapEPS0_
libcaffe2.so:_ZN6caffe211OperatorDef16default_instanceEv
libcaffe2.so:_ZN6caffe211OperatorDef21InitAsDefaultInstanceEv
libcaffe2.so:_ZN6caffe211OperatorDef27MergePartialFromCodedStreamEPN6google8protobuf2io16CodedInputStreamE
libcaffe2.so:_ZN6caffe211OperatorDef4SwapEPS0_
libcaffe2.so:_ZN6caffe211OperatorDef5ClearEv
libcaffe2.so:_ZN6caffe211OperatorDef8CopyFromERKN6google8protobuf7MessageE
libcaffe2.so:_ZN6caffe211OperatorDef8CopyFromERKS0_
libcaffe2.so:_ZN6caffe211OperatorDef9MergeFromERKN6google8protobuf7MessageE
libcaffe2.so:_ZN6caffe211OperatorDef9MergeFromERKS0_
libcaffe2.so:_ZN6caffe211OperatorDefC1ERKS0_
libcaffe2.so:_ZN6caffe211OperatorDefC1Ev
libcaffe2.so:_ZN6caffe211OperatorDefC2ERKS0_
libcaffe2.so:_ZN6caffe211OperatorDefC2Ev
libcaffe2.so:_ZN6caffe211OperatorDefD0Ev
libcaffe2.so:_ZN6caffe211OperatorDefD1Ev
libcaffe2.so:_ZN6caffe211OperatorDefD2Ev
libcaffe2.so:_ZN6caffe211RangeFillOpIfNS_10CPUContextEE4FillEPNS_6TensorIS1_EE
libcaffe2.so:_ZN6caffe211SpatialBNOpINS_10CPUContextEE11RunOnDeviceEv
libcaffe2.so:_ZN6caffe211StoreWaitOp11RunOnDeviceEv
libcaffe2.so:_ZN6caffe211StoreWaitOpC1ERKNS_11OperatorDefEPNS_9WorkspaceE
libcaffe2.so:_ZN6caffe211StoreWaitOpC2ERKNS_11OperatorDefEPNS_9WorkspaceE
libcaffe2.so:_ZN6caffe211StumpFuncOpIffNS_10CPUContextEE11RunOnDeviceEv
libcaffe2.so:_ZN6caffe211SummarizeOpIfNS_10CPUContextEE11RunOnDeviceEv
libcaffe2.so:_ZN6caffe211TensorProto10SharedCtorEv
libcaffe2.so:_ZN6caffe211TensorProto10SharedDtorEv
libcaffe2.so:_ZN6caffe211TensorProto10descriptorEv
libcaffe2.so:_ZN6caffe211TensorProto12InternalSwapEPS0_
libcaffe2.so:_ZN6caffe211TensorProto16default_instanceEv
libcaffe2.so:_ZN6caffe211TensorProto21InitAsDefaultInstanceEv
libcaffe2.so:_ZN6caffe211TensorProto27MergePartialFromCodedStreamEPN6google8protobuf2io16CodedInputStreamE
libcaffe2.so:_ZN6caffe211TensorProto4SwapEPS0_
libcaffe2.so:_ZN6caffe211TensorProto5ClearEv
libcaffe2.so:_ZN6caffe211TensorProto8CopyFromERKN6google8protobuf7MessageE
libcaffe2.so:_ZN6caffe211TensorProto8CopyFromERKS0_
libcaffe2.so:_ZN6caffe211TensorProto9MergeFromERKN6google8protobuf7MessageE
libcaffe2.so:_ZN6caffe211TensorProto9MergeFromERKS0_
libcaffe2.so:_ZN6caffe211TensorProtoC1ERKS0_
libcaffe2.so:_ZN6caffe211TensorProtoC1Ev
libcaffe2.so:_ZN6caffe211TensorProtoC2ERKS0_
libcaffe2.so:_ZN6caffe211TensorProtoC2Ev
libcaffe2.so:_ZN6caffe211TensorProtoD0Ev
libcaffe2.so:_ZN6caffe211TensorProtoD1Ev
libcaffe2.so:_ZN6caffe211TensorProtoD2Ev
libcaffe2.so:_ZN6caffe211TensorShape10SharedCtorEv
libcaffe2.so:_ZN6caffe211TensorShape10SharedDtorEv
libcaffe2.so:_ZN6caffe211TensorShape10descriptorEv
libcaffe2.so:_ZN6caffe211TensorShape12InternalSwapEPS0_
libcaffe2.so:_ZN6caffe211TensorShape16default_instanceEv
libcaffe2.so:_ZN6caffe211TensorShape21InitAsDefaultInstanceEv
libcaffe2.so:_ZN6caffe211TensorShape27MergePartialFromCodedStreamEPN6google8protobuf2io16CodedInputStreamE
libcaffe2.so:_ZN6caffe211TensorShape4SwapEPS0_
libcaffe2.so:_ZN6caffe211TensorShape5ClearEv
libcaffe2.so:_ZN6caffe211TensorShape8CopyFromERKN6google8protobuf7MessageE
libcaffe2.so:_ZN6caffe211TensorShape8CopyFromERKS0_
libcaffe2.so:_ZN6caffe211TensorShape9MergeFromERKN6google8protobuf7MessageE
libcaffe2.so:_ZN6caffe211TensorShape9MergeFromERKS0_
libcaffe2.so:_ZN6caffe211TensorShapeC1ERKS0_
libcaffe2.so:_ZN6caffe211TensorShapeC1Ev
libcaffe2.so:_ZN6caffe211TensorShapeC2ERKS0_
libcaffe2.so:_ZN6caffe211TensorShapeC2Ev
libcaffe2.so:_ZN6caffe211TensorShapeD0Ev
libcaffe2.so:_ZN6caffe211TensorShapeD1Ev
libcaffe2.so:_ZN6caffe211TensorShapeD2Ev
libcaffe2.so:_ZN6caffe211YellowFinOpIfNS_10CPUContextEE17MomentumSgdUpdateEv
libcaffe2.so:_ZN6caffe211YellowFinOpIfNS_10CPUContextEE7GetLrMuEv
libcaffe2.so:_ZN6caffe211compare_opsERKNS_11OperatorDefES2_b
libcaffe2.so:_ZN6caffe211dataset_ops10TreeWalker16gatherLengthDataEv
libcaffe2.so:_ZN6caffe211dataset_ops10TreeWalker16gatherSizeLimitsEv
libcaffe2.so:_ZN6caffe211dataset_ops10TreeWalker7advanceEv
libcaffe2.so:_ZN6caffe211dataset_ops10TreeWalkerC1ERKSt6vectorIPKNS_4BlobESaIS5_EERNS0_10TreeCursorE
libcaffe2.so:_ZN6caffe211dataset_ops10TreeWalkerC2ERKSt6vectorIPKNS_4BlobESaIS5_EERNS0_10TreeCursorE
libcaffe2.so:_ZN6caffe211dataset_ops12TreeIterator7advanceERKSt6vectorIPKiSaIS4_EERS2_IlSaIlEESB_SB_l
libcaffe2.so:_ZN6caffe211dataset_ops12TreeIteratorC1ERKSt6vectorINSt7__cxx1112basic_stringIcSt11char_traitsIcESaIcEEESaIS8_EE
libcaffe2.so:_ZN6caffe211dataset_ops12TreeIteratorC2ERKSt6vectorINSt7__cxx1112basic_stringIcSt11char_traitsIcESaIcEEESaIS8_EE
libcaffe2.so:_ZN6caffe211dataset_ops31SharedTensorVectorPtrSerializer9SerializeERKNS_4BlobERKNSt7__cxx1112basic_stringIcSt11char_traitsIcESaIcEEESt8functionIFvSC_SC_EE
libcaffe2.so:_ZN6caffe211dataset_ops33SharedTensorVectorPtrDeserializer11DeserializeERKNS_9BlobProtoEPNS_4BlobE
libcaffe2.so:_ZN6caffe212AsyncNetBase10initTracerERKSt10shared_ptrIKNS_6NetDefEE
libcaffe2.so:_ZN6caffe212AsyncNetBase11canScheduleEiPKSt6vectorINS_11EventStatusESaIS2_EE
libcaffe2.so:_ZN6caffe212AsyncNetBase11finishTasksERKSt13unordered_setIiSt4hashIiESt8equal_toIiESaIiEE
libcaffe2.so:_ZN6caffe212AsyncNetBase11pool_getterERSt13unordered_mapIiS1_IiSt10shared_ptrINS_14TaskThreadPoolEESt4hashIiESt8equal_toIiESaISt4pairIKiS4_EEES6_S8_SaIS9_ISA_SD_EEEiii
libcaffe2.so:_ZN6caffe212AsyncNetBase14finalizeEventsEv
libcaffe2.so:_ZN6caffe212AsyncNetBase3runEii
libcaffe2.so:_ZN6caffe212AsyncNetBase4poolERKNS_12DeviceOptionE
libcaffe2.so:_ZN6caffe212AsyncNetBase6streamEi
libcaffe2.so:_ZN6caffe212AsyncNetBase8RunAsyncEv
libcaffe2.so:_ZN6caffe212AsyncNetBaseC1ERKSt10shared_ptrIKNS_6NetDefEEPNS_9WorkspaceE
libcaffe2.so:_ZN6caffe212AsyncNetBaseC2ERKSt10shared_ptrIKNS_6NetDefEEPNS_9WorkspaceE
libcaffe2.so:_ZN6caffe212AsyncNetBaseD0Ev
libcaffe2.so:_ZN6caffe212AsyncNetBaseD1Ev
libcaffe2.so:_ZN6caffe212AsyncNetBaseD2Ev
libcaffe2.so:_ZN6caffe212DeviceOption10SharedCtorEv
libcaffe2.so:_ZN6caffe212DeviceOption10SharedDtorEv
libcaffe2.so:_ZN6caffe212DeviceOption10descriptorEv
libcaffe2.so:_ZN6caffe212DeviceOption12InternalSwapEPS0_
libcaffe2.so:_ZN6caffe212DeviceOption16default_instanceEv
libcaffe2.so:_ZN6caffe212DeviceOption21InitAsDefaultInstanceEv
libcaffe2.so:_ZN6caffe212DeviceOption27MergePartialFromCodedStreamEPN6google8protobuf2io16CodedInputStreamE
libcaffe2.so:_ZN6caffe212DeviceOption4SwapEPS0_
libcaffe2.so:_ZN6caffe212DeviceOption5ClearEv
libcaffe2.so:_ZN6caffe212DeviceOption8CopyFromERKN6google8protobuf7MessageE
libcaffe2.so:_ZN6caffe212DeviceOption8CopyFromERKS0_
libcaffe2.so:_ZN6caffe212DeviceOption9MergeFromERKN6google8protobuf7MessageE
libcaffe2.so:_ZN6caffe212DeviceOption9MergeFromERKS0_
libcaffe2.so:_ZN6caffe212DeviceOptionC1ERKS0_
libcaffe2.so:_ZN6caffe212DeviceOptionC1Ev
libcaffe2.so:_ZN6caffe212DeviceOptionC2ERKS0_
libcaffe2.so:_ZN6caffe212DeviceOptionC2Ev
libcaffe2.so:_ZN6caffe212DeviceOptionD0Ev
libcaffe2.so:_ZN6caffe212DeviceOptionD1Ev
libcaffe2.so:_ZN6caffe212DeviceOptionD2Ev
libcaffe2.so:_ZN6caffe212DotProductOpIfNS_10CPUContextEE11RunOnDeviceEv
libcaffe2.so:_ZN6caffe212IsSameDeviceERKNS_12DeviceOptionES2_
libcaffe2.so:_ZN6caffe212L1DistanceOpIfNS_10CPUContextEE11RunOnDeviceEv
libcaffe2.so:_ZN6caffe212MakeArgumentIN6google8protobuf11MessageLiteEEENS_8ArgumentERKNSt7__cxx1112basic_stringIcSt11char_traitsIcESaIcEEERKT_
libcaffe2.so:_ZN6caffe212MakeArgumentINSt7__cxx1112basic_stringIcSt11char_traitsIcESaIcEEEEENS_8ArgumentERKS6_RKT_
libcaffe2.so:_ZN6caffe212MakeArgumentISt6vectorINSt7__cxx1112basic_stringIcSt11char_traitsIcESaIcEEESaIS7_EEEENS_8ArgumentERKS7_RKT_
libcaffe2.so:_ZN6caffe212MakeArgumentISt6vectorIfSaIfEEEENS_8ArgumentERKNSt7__cxx1112basic_stringIcSt11char_traitsIcESaIcEEERKT_
libcaffe2.so:_ZN6caffe212MakeArgumentISt6vectorIiSaIiEEEENS_8ArgumentERKNSt7__cxx1112basic_stringIcSt11char_traitsIcESaIcEEERKT_
libcaffe2.so:_ZN6caffe212MakeArgumentISt6vectorIlSaIlEEEENS_8ArgumentERKNSt7__cxx1112basic_stringIcSt11char_traitsIcESaIcEEERKT_
libcaffe2.so:_ZN6caffe212MakeArgumentIbEENS_8ArgumentERKNSt7__cxx1112basic_stringIcSt11char_traitsIcESaIcEEERKT_
libcaffe2.so:_ZN6caffe212MakeArgumentIfEENS_8ArgumentERKNSt7__cxx1112basic_stringIcSt11char_traitsIcESaIcEEERKT_
libcaffe2.so:_ZN6caffe212MakeArgumentIiEENS_8ArgumentERKNSt7__cxx1112basic_stringIcSt11char_traitsIcESaIcEEERKT_
libcaffe2.so:_ZN6caffe212MakeArgumentIlEENS_8ArgumentERKNSt7__cxx1112basic_stringIcSt11char_traitsIcESaIcEEERKT_
libcaffe2.so:_ZN6caffe212MatchStringsENSt7__cxx1112basic_stringIcSt11char_traitsIcESaIcEEES5_
libcaffe2.so:_ZN6caffe212ModuleSchemaC1EPKcS2_
libcaffe2.so:_ZN6caffe212ModuleSchemaC2EPKcS2_
libcaffe2.so:_ZN6caffe212NNPACKConvOp24RunOnDeviceWithOrderNCHWEv
libcaffe2.so:_ZN6caffe212OperatorBase17InputTensorShapesEv
libcaffe2.so:_ZN6caffe212OperatorBaseC1ERKNS_11OperatorDefEPNS_9WorkspaceE
libcaffe2.so:_ZN6caffe212OperatorBaseC2ERKNS_11OperatorDefEPNS_9WorkspaceE
libcaffe2.so:_ZN6caffe212PercentileOpINS_10CPUContextEE11RunOnDeviceEv
libcaffe2.so:_ZN6caffe212PerplexityOpIfNS_10CPUContextEE11RunOnDeviceEv
libcaffe2.so:_ZN6caffe212ProfDAGProto10SharedCtorEv
libcaffe2.so:_ZN6caffe212ProfDAGProto10SharedDtorEv
libcaffe2.so:_ZN6caffe212ProfDAGProto10descriptorEv
libcaffe2.so:_ZN6caffe212ProfDAGProto12InternalSwapEPS0_
libcaffe2.so:_ZN6caffe212ProfDAGProto16default_instanceEv
libcaffe2.so:_ZN6caffe212ProfDAGProto21InitAsDefaultInstanceEv
libcaffe2.so:_ZN6caffe212ProfDAGProto27MergePartialFromCodedStreamEPN6google8protobuf2io16CodedInputStreamE
libcaffe2.so:_ZN6caffe212ProfDAGProto4SwapEPS0_
libcaffe2.so:_ZN6caffe212ProfDAGProto5ClearEv
libcaffe2.so:_ZN6caffe212ProfDAGProto8CopyFromERKN6google8protobuf7MessageE
libcaffe2.so:_ZN6caffe212ProfDAGProto8CopyFromERKS0_
libcaffe2.so:_ZN6caffe212ProfDAGProto9MergeFromERKN6google8protobuf7MessageE
libcaffe2.so:_ZN6caffe212ProfDAGProto9MergeFromERKS0_
libcaffe2.so:_ZN6caffe212ProfDAGProtoC1ERKS0_
libcaffe2.so:_ZN6caffe212ProfDAGProtoC1Ev
libcaffe2.so:_ZN6caffe212ProfDAGProtoC2ERKS0_
libcaffe2.so:_ZN6caffe212ProfDAGProtoC2Ev
libcaffe2.so:_ZN6caffe212ProfDAGProtoD0Ev
libcaffe2.so:_ZN6caffe212ProfDAGProtoD1Ev
libcaffe2.so:_ZN6caffe212ProfDAGProtoD2Ev
libcaffe2.so:_ZN6caffe212QTensorProto10SharedCtorEv
libcaffe2.so:_ZN6caffe212QTensorProto10SharedDtorEv
libcaffe2.so:_ZN6caffe212QTensorProto10descriptorEv
libcaffe2.so:_ZN6caffe212QTensorProto12InternalSwapEPS0_
libcaffe2.so:_ZN6caffe212QTensorProto16default_instanceEv
libcaffe2.so:_ZN6caffe212QTensorProto21InitAsDefaultInstanceEv
libcaffe2.so:_ZN6caffe212QTensorProto27MergePartialFromCodedStreamEPN6google8protobuf2io16CodedInputStreamE
libcaffe2.so:_ZN6caffe212QTensorProto4SwapEPS0_
libcaffe2.so:_ZN6caffe212QTensorProto5ClearEv
libcaffe2.so:_ZN6caffe212QTensorProto8CopyFromERKN6google8protobuf7MessageE
libcaffe2.so:_ZN6caffe212QTensorProto8CopyFromERKS0_
libcaffe2.so:_ZN6caffe212QTensorProto9MergeFromERKN6google8protobuf7MessageE
libcaffe2.so:_ZN6caffe212QTensorProto9MergeFromERKS0_
libcaffe2.so:_ZN6caffe212QTensorProtoC1ERKS0_
libcaffe2.so:_ZN6caffe212QTensorProtoC1Ev
libcaffe2.so:_ZN6caffe212QTensorProtoC2ERKS0_
libcaffe2.so:_ZN6caffe212QTensorProtoC2Ev
libcaffe2.so:_ZN6caffe212QTensorProtoD0Ev
libcaffe2.so:_ZN6caffe212QTensorProtoD1Ev
libcaffe2.so:_ZN6caffe212QTensorProtoD2Ev
libcaffe2.so:_ZN6caffe212StatRegistry3addERKNSt7__cxx1112basic_stringIcSt11char_traitsIcESaIcEEE
libcaffe2.so:_ZN6caffe212StatRegistry3getEv
libcaffe2.so:_ZN6caffe212StatRegistry6updateERKSt6vectorINS_17ExportedStatValueESaIS2_EE
libcaffe2.so:_ZN6caffe212StatRegistry7publishERSt6vectorINS_17ExportedStatValueESaIS2_EEb
libcaffe2.so:_ZN6caffe212StatRegistryD1Ev
libcaffe2.so:_ZN6caffe212StatRegistryD2Ev
libcaffe2.so:_ZN6caffe212StoreHandlerD0Ev
libcaffe2.so:_ZN6caffe212StoreHandlerD1Ev
libcaffe2.so:_ZN6caffe212StoreHandlerD2Ev
libcaffe2.so:_ZN6caffe212TensorProtos10SharedCtorEv
libcaffe2.so:_ZN6caffe212TensorProtos10SharedDtorEv
libcaffe2.so:_ZN6caffe212TensorProtos10descriptorEv
libcaffe2.so:_ZN6caffe212TensorProtos12InternalSwapEPS0_
libcaffe2.so:_ZN6caffe212TensorProtos16default_instanceEv
libcaffe2.so:_ZN6caffe212TensorProtos21InitAsDefaultInstanceEv
libcaffe2.so:_ZN6caffe212TensorProtos27MergePartialFromCodedStreamEPN6google8protobuf2io16CodedInputStreamE
libcaffe2.so:_ZN6caffe212TensorProtos4SwapEPS0_
libcaffe2.so:_ZN6caffe212TensorProtos5ClearEv
libcaffe2.so:_ZN6caffe212TensorProtos8CopyFromERKN6google8protobuf7MessageE
libcaffe2.so:_ZN6caffe212TensorProtos8CopyFromERKS0_
libcaffe2.so:_ZN6caffe212TensorProtos9MergeFromERKN6google8protobuf7MessageE
libcaffe2.so:_ZN6caffe212TensorProtos9MergeFromERKS0_
libcaffe2.so:_ZN6caffe212TensorProtosC1ERKS0_
libcaffe2.so:_ZN6caffe212TensorProtosC1Ev
libcaffe2.so:_ZN6caffe212TensorProtosC2ERKS0_
libcaffe2.so:_ZN6caffe212TensorProtosC2Ev
libcaffe2.so:_ZN6caffe212TensorProtosD0Ev
libcaffe2.so:_ZN6caffe212TensorProtosD1Ev
libcaffe2.so:_ZN6caffe212TensorProtosD2Ev
libcaffe2.so:_ZN6caffe212TensorShapes10SharedCtorEv
libcaffe2.so:_ZN6caffe212TensorShapes10SharedDtorEv
libcaffe2.so:_ZN6caffe212TensorShapes10descriptorEv
libcaffe2.so:_ZN6caffe212TensorShapes12InternalSwapEPS0_
libcaffe2.so:_ZN6caffe212TensorShapes16default_instanceEv
libcaffe2.so:_ZN6caffe212TensorShapes21InitAsDefaultInstanceEv
libcaffe2.so:_ZN6caffe212TensorShapes27MergePartialFromCodedStreamEPN6google8protobuf2io16CodedInputStreamE
libcaffe2.so:_ZN6caffe212TensorShapes4SwapEPS0_
libcaffe2.so:_ZN6caffe212TensorShapes5ClearEv
libcaffe2.so:_ZN6caffe212TensorShapes8CopyFromERKN6google8protobuf7MessageE
libcaffe2.so:_ZN6caffe212TensorShapes8CopyFromERKS0_
libcaffe2.so:_ZN6caffe212TensorShapes9MergeFromERKN6google8protobuf7MessageE
libcaffe2.so:_ZN6caffe212TensorShapes9MergeFromERKS0_
libcaffe2.so:_ZN6caffe212TensorShapesC1ERKS0_
libcaffe2.so:_ZN6caffe212TensorShapesC1Ev
libcaffe2.so:_ZN6caffe212TensorShapesC2ERKS0_
libcaffe2.so:_ZN6caffe212TensorShapesC2Ev
libcaffe2.so:_ZN6caffe212TensorShapesD0Ev
libcaffe2.so:_ZN6caffe212TensorShapesD1Ev
libcaffe2.so:_ZN6caffe212TensorShapesD2Ev
libcaffe2.so:_ZN6caffe212TimeObserver4StopEv
libcaffe2.so:_ZN6caffe212TimeObserver5StartEv
libcaffe2.so:_ZN6caffe212UsageMessageEv
libcaffe2.so:_ZN6caffe212VideoDecoder10decodeFileERKNSt7__cxx1112basic_stringIcSt11char_traitsIcESaIcEEERKNS_6ParamsEiRSt6vectorISt10unique_ptrINS_12DecodedFrameESt14default_deleteISE_EESaISH_EE
libcaffe2.so:_ZN6caffe212VideoDecoder10decodeLoopERKNSt7__cxx1112basic_stringIcSt11char_traitsIcESaIcEEERNS_14VideoIOContextERKNS_6ParamsEiRSt6vectorISt10unique_ptrINS_12DecodedFrameESt14default_deleteISG_EESaISJ_EE
libcaffe2.so:_ZN6caffe212VideoDecoder12decodeMemoryEPKciRKNS_6ParamsEiRSt6vectorISt10unique_ptrINS_12DecodedFrameESt14default_deleteIS8_EESaISB_EE
libcaffe2.so:_ZN6caffe212VideoDecoder14ffmpegErrorStrB5cxx11Ei
libcaffe2.so:_ZN6caffe212VideoDecoder24ResizeAndKeepAspectRatioEiiiiRiS1_
libcaffe2.so:_ZN6caffe212VideoDecoderC1Ev
libcaffe2.so:_ZN6caffe212VideoDecoderC2Ev
libcaffe2.so:_ZN6caffe212editDistanceERKNSt7__cxx1112basic_stringIcSt11char_traitsIcESaIcEEES7_m
libcaffe2.so:_ZN6caffe213BooleanMaskOpINS_10CPUContextEE11RunOnDeviceEv
libcaffe2.so:_ZN6caffe213ColorLightingEPfiiifRKSt6vectorIS1_IfSaIfEESaIS3_EERKS3_PSt23mersenne_twister_engineImLm32ELm624ELm397ELm31ELm2567483615ELm11ELm4294967295ELm7ELm2636928640ELm15ELm4022730752ELm18ELm1812433253EE
libcaffe2.so:_ZN6caffe213ConditionalOpINS_10CPUContextEE11RunOnDeviceEv
libcaffe2.so:_ZN6caffe213CreateScopeOpINS_10CPUContextEE11RunOnDeviceEv
libcaffe2.so:_ZN6caffe213DBReaderProto10SharedCtorEv
libcaffe2.so:_ZN6caffe213DBReaderProto10SharedDtorEv
libcaffe2.so:_ZN6caffe213DBReaderProto10descriptorEv
libcaffe2.so:_ZN6caffe213DBReaderProto12InternalSwapEPS0_
libcaffe2.so:_ZN6caffe213DBReaderProto16default_instanceEv
libcaffe2.so:_ZN6caffe213DBReaderProto21InitAsDefaultInstanceEv
libcaffe2.so:_ZN6caffe213DBReaderProto27MergePartialFromCodedStreamEPN6google8protobuf2io16CodedInputStreamE
libcaffe2.so:_ZN6caffe213DBReaderProto4SwapEPS0_
libcaffe2.so:_ZN6caffe213DBReaderProto5ClearEv
libcaffe2.so:_ZN6caffe213DBReaderProto8CopyFromERKN6google8protobuf7MessageE
libcaffe2.so:_ZN6caffe213DBReaderProto8CopyFromERKS0_
libcaffe2.so:_ZN6caffe213DBReaderProto9MergeFromERKN6google8protobuf7MessageE
libcaffe2.so:_ZN6caffe213DBReaderProto9MergeFromERKS0_
libcaffe2.so:_ZN6caffe213DBReaderProtoC1ERKS0_
libcaffe2.so:_ZN6caffe213DBReaderProtoC1Ev
libcaffe2.so:_ZN6caffe213DBReaderProtoC2ERKS0_
libcaffe2.so:_ZN6caffe213DBReaderProtoC2Ev
libcaffe2.so:_ZN6caffe213DBReaderProtoD0Ev
libcaffe2.so:_ZN6caffe213DBReaderProtoD1Ev
libcaffe2.so:_ZN6caffe213DBReaderProtoD2Ev
libcaffe2.so:_ZN6caffe213EluGradientOpIfNS_10CPUContextEE11RunOnDeviceEv
libcaffe2.so:_ZN6caffe213EnforceNotMet13AppendMessageERKNSt7__cxx1112basic_stringIcSt11char_traitsIcESaIcEEE
libcaffe2.so:_ZN6caffe213EnforceNotMetC1EPKciS2_RKNSt7__cxx1112basic_stringIcSt11char_traitsIcESaIcEEEPKv
libcaffe2.so:_ZN6caffe213EnforceNotMetC2EPKciS2_RKNSt7__cxx1112basic_stringIcSt11char_traitsIcESaIcEEEPKv
libcaffe2.so:_ZN6caffe213EventQueryCPUEPKNS_5EventE
libcaffe2.so:_ZN6caffe213EventResetCPUEPNS_5EventE
libcaffe2.so:_ZN6caffe213ExecutionStep10SharedCtorEv
libcaffe2.so:_ZN6caffe213ExecutionStep10SharedDtorEv
libcaffe2.so:_ZN6caffe213ExecutionStep10descriptorEv
libcaffe2.so:_ZN6caffe213ExecutionStep12InternalSwapEPS0_
libcaffe2.so:_ZN6caffe213ExecutionStep16default_instanceEv
libcaffe2.so:_ZN6caffe213ExecutionStep21InitAsDefaultInstanceEv
libcaffe2.so:_ZN6caffe213ExecutionStep27MergePartialFromCodedStreamEPN6google8protobuf2io16CodedInputStreamE
libcaffe2.so:_ZN6caffe213ExecutionStep4SwapEPS0_
libcaffe2.so:_ZN6caffe213ExecutionStep5ClearEv
libcaffe2.so:_ZN6caffe213ExecutionStep8CopyFromERKN6google8protobuf7MessageE
libcaffe2.so:_ZN6caffe213ExecutionStep8CopyFromERKS0_
libcaffe2.so:_ZN6caffe213ExecutionStep9MergeFromERKN6google8protobuf7MessageE
libcaffe2.so:_ZN6caffe213ExecutionStep9MergeFromERKS0_
libcaffe2.so:_ZN6caffe213ExecutionStepC1ERKS0_
libcaffe2.so:_ZN6caffe213ExecutionStepC1Ev
libcaffe2.so:_ZN6caffe213ExecutionStepC2ERKS0_
libcaffe2.so:_ZN6caffe213ExecutionStepC2Ev
libcaffe2.so:_ZN6caffe213ExecutionStepD0Ev
libcaffe2.so:_ZN6caffe213ExecutionStepD1Ev
libcaffe2.so:_ZN6caffe213ExecutionStepD2Ev
libcaffe2.so:_ZN6caffe213GlobalMPICommEv
libcaffe2.so:_ZN6caffe213IsNUMAEnabledEv
libcaffe2.so:_ZN6caffe213LRNGradientOpIfNS_10CPUContextEE24RunOnDeviceWithOrderNCHWEv
libcaffe2.so:_ZN6caffe213LRNGradientOpIfNS_10CPUContextEE24RunOnDeviceWithOrderNHWCEv
libcaffe2.so:_ZN6caffe213MPISetupPeersEiRKNSt7__cxx1112basic_stringIcSt11char_traitsIcESaIcEEES7_
libcaffe2.so:_ZN6caffe213OpRegistryKeyERKNSt7__cxx1112basic_stringIcSt11char_traitsIcESaIcEEES7_
libcaffe2.so:_ZN6caffe213PathNodeProto10SharedCtorEv
libcaffe2.so:_ZN6caffe213PathNodeProto10SharedDtorEv
libcaffe2.so:_ZN6caffe213PathNodeProto10descriptorEv
libcaffe2.so:_ZN6caffe213PathNodeProto12InternalSwapEPS0_
libcaffe2.so:_ZN6caffe213PathNodeProto16default_instanceEv
libcaffe2.so:_ZN6caffe213PathNodeProto21InitAsDefaultInstanceEv
libcaffe2.so:_ZN6caffe213PathNodeProto27MergePartialFromCodedStreamEPN6google8protobuf2io16CodedInputStreamE
libcaffe2.so:_ZN6caffe213PathNodeProto4SwapEPS0_
libcaffe2.so:_ZN6caffe213PathNodeProto5ClearEv
libcaffe2.so:_ZN6caffe213PathNodeProto8CopyFromERKN6google8protobuf7MessageE
libcaffe2.so:_ZN6caffe213PathNodeProto8CopyFromERKS0_
libcaffe2.so:_ZN6caffe213PathNodeProto9MergeFromERKN6google8protobuf7MessageE
libcaffe2.so:_ZN6caffe213PathNodeProto9MergeFromERKS0_
libcaffe2.so:_ZN6caffe213PathNodeProtoC1ERKS0_
libcaffe2.so:_ZN6caffe213PathNodeProtoC1Ev
libcaffe2.so:_ZN6caffe213PathNodeProtoC2ERKS0_
libcaffe2.so:_ZN6caffe213PathNodeProtoC2Ev
libcaffe2.so:_ZN6caffe213PathNodeProtoD0Ev
libcaffe2.so:_ZN6caffe213PathNodeProtoD1Ev
libcaffe2.so:_ZN6caffe213PathNodeProtoD2Ev
libcaffe2.so:_ZN6caffe213ProfDAGProtos10SharedCtorEv
libcaffe2.so:_ZN6caffe213ProfDAGProtos10SharedDtorEv
libcaffe2.so:_ZN6caffe213ProfDAGProtos10descriptorEv
libcaffe2.so:_ZN6caffe213ProfDAGProtos12InternalSwapEPS0_
libcaffe2.so:_ZN6caffe213ProfDAGProtos16default_instanceEv
libcaffe2.so:_ZN6caffe213ProfDAGProtos21InitAsDefaultInstanceEv
libcaffe2.so:_ZN6caffe213ProfDAGProtos27MergePartialFromCodedStreamEPN6google8protobuf2io16CodedInputStreamE
libcaffe2.so:_ZN6caffe213ProfDAGProtos4SwapEPS0_
libcaffe2.so:_ZN6caffe213ProfDAGProtos5ClearEv
libcaffe2.so:_ZN6caffe213ProfDAGProtos8CopyFromERKN6google8protobuf7MessageE
libcaffe2.so:_ZN6caffe213ProfDAGProtos8CopyFromERKS0_
libcaffe2.so:_ZN6caffe213ProfDAGProtos9MergeFromERKN6google8protobuf7MessageE
libcaffe2.so:_ZN6caffe213ProfDAGProtos9MergeFromERKS0_
libcaffe2.so:_ZN6caffe213ProfDAGProtosC1ERKS0_
libcaffe2.so:_ZN6caffe213ProfDAGProtosC1Ev
libcaffe2.so:_ZN6caffe213ProfDAGProtosC2ERKS0_
libcaffe2.so:_ZN6caffe213ProfDAGProtosC2Ev
libcaffe2.so:_ZN6caffe213ProfDAGProtosD0Ev
libcaffe2.so:_ZN6caffe213ProfDAGProtosD1Ev
libcaffe2.so:_ZN6caffe213ProfDAGProtosD2Ev
libcaffe2.so:_ZN6caffe213RMACRegionsOpINS_10CPUContextEE11RunOnDeviceEv
libcaffe2.so:_ZN6caffe213SetEnginePrefERKSt3mapIiS0_INSt7__cxx1112basic_stringIcSt11char_traitsIcESaIcEEESt6vectorIS6_SaIS6_EESt4lessIS6_ESaISt4pairIKS6_S9_EEESA_IiESaISC_IKiSG_EEERKS0_IiS9_SH_SaISC_ISI_S9_EEE
libcaffe2.so:_ZN6caffe213SignalHandler15CheckForSignalsEv
libcaffe2.so:_ZN6caffe213SignalHandler9GotSIGHUPEv
libcaffe2.so:_ZN6caffe213SignalHandler9GotSIGINTEv
libcaffe2.so:_ZN6caffe213SignalHandlerC1ENS0_6ActionES1_
libcaffe2.so:_ZN6caffe213SignalHandlerC2ENS0_6ActionES1_
libcaffe2.so:_ZN6caffe213SignalHandlerD1Ev
libcaffe2.so:_ZN6caffe213SignalHandlerD2Ev
libcaffe2.so:_ZN6caffe213StripBasenameERKNSt7__cxx1112basic_stringIcSt11char_traitsIcESaIcEEE
libcaffe2.so:_ZN6caffe213TensorPrinterC1ERKNSt7__cxx1112basic_stringIcSt11char_traitsIcESaIcEEES8_i
libcaffe2.so:_ZN6caffe213TensorPrinterC2ERKNSt7__cxx1112basic_stringIcSt11char_traitsIcESaIcEEES8_i
libcaffe2.so:_ZN6caffe213TensorPrinterD1Ev
libcaffe2.so:_ZN6caffe213TensorPrinterD2Ev
libcaffe2.so:_ZN6caffe213WeightedSumOpINS_10CPUContextEE11RunOnDeviceEv
libcaffe2.so:_ZN6caffe214ApplyTransformERKNSt7__cxx1112basic_stringIcSt11char_traitsIcESaIcEEERKNS_6NetDefE
libcaffe2.so:_ZN6caffe214ArgumentHelperC1ERKNS_11OperatorDefE
libcaffe2.so:_ZN6caffe214ArgumentHelperC1ERKNS_6NetDefE
libcaffe2.so:_ZN6caffe214ArgumentHelperC2ERKNS_11OperatorDefE
libcaffe2.so:_ZN6caffe214ArgumentHelperC2ERKNS_6NetDefE
libcaffe2.so:_ZN6caffe214AsyncSimpleNet10DoRunAsyncEv
libcaffe2.so:_ZN6caffe214AsyncSimpleNet14TEST_BenchmarkEiib
libcaffe2.so:_ZN6caffe214AsyncSimpleNetC1ERKSt10shared_ptrIKNS_6NetDefEEPNS_9WorkspaceE
libcaffe2.so:_ZN6caffe214AsyncSimpleNetC2ERKSt10shared_ptrIKNS_6NetDefEEPNS_9WorkspaceE
libcaffe2.so:_ZN6caffe214BernoulliJSDOpIfNS_10CPUContextEE11RunOnDeviceEv
libcaffe2.so:_ZN6caffe214ChannelStatsOpINS_10CPUContextEE11RunOnDeviceEv
libcaffe2.so:_ZN6caffe214ClipGradientOpIfNS_10CPUContextEE11RunOnDeviceEv
libcaffe2.so:_ZN6caffe214CreateOperatorERKNS_11OperatorDefEPNS_9WorkspaceEi
libcaffe2.so:_ZN6caffe214CrossEntropyOpIfNS_10CPUContextEE11RunOnDeviceEv
libcaffe2.so:_ZN6caffe214CurrentModulesB5cxx11Ev
libcaffe2.so:_ZN6caffe214DeviceTypeNameB5cxx11ERKi
libcaffe2.so:_ZN6caffe214EventCreateCPUERKNS_12DeviceOptionEPNS_5EventE
libcaffe2.so:_ZN6caffe214EventFinishCPUEPKNS_5EventE
libcaffe2.so:_ZN6caffe214EventRecordCPUEPNS_5EventEPKvPKc
libcaffe2.so:_ZN6caffe214HasCudaRuntimeEv
libcaffe2.so:_ZN6caffe214HierarchyProto10SharedCtorEv
libcaffe2.so:_ZN6caffe214HierarchyProto10SharedDtorEv
libcaffe2.so:_ZN6caffe214HierarchyProto10descriptorEv
libcaffe2.so:_ZN6caffe214HierarchyProto12InternalSwapEPS0_
libcaffe2.so:_ZN6caffe214HierarchyProto16default_instanceEv
libcaffe2.so:_ZN6caffe214HierarchyProto21InitAsDefaultInstanceEv
libcaffe2.so:_ZN6caffe214HierarchyProto27MergePartialFromCodedStreamEPN6google8protobuf2io16CodedInputStreamE
libcaffe2.so:_ZN6caffe214HierarchyProto4SwapEPS0_
libcaffe2.so:_ZN6caffe214HierarchyProto5ClearEv
libcaffe2.so:_ZN6caffe214HierarchyProto8CopyFromERKN6google8protobuf7MessageE
libcaffe2.so:_ZN6caffe214HierarchyProto8CopyFromERKS0_
libcaffe2.so:_ZN6caffe214HierarchyProto9MergeFromERKN6google8protobuf7MessageE
libcaffe2.so:_ZN6caffe214HierarchyProto9MergeFromERKS0_
libcaffe2.so:_ZN6caffe214HierarchyProtoC1ERKS0_
libcaffe2.so:_ZN6caffe214HierarchyProtoC1Ev
libcaffe2.so:_ZN6caffe214HierarchyProtoC2ERKS0_
libcaffe2.so:_ZN6caffe214HierarchyProtoC2Ev
libcaffe2.so:_ZN6caffe214HierarchyProtoD0Ev
libcaffe2.so:_ZN6caffe214HierarchyProtoD1Ev
libcaffe2.so:_ZN6caffe214HierarchyProtoD2Ev
libcaffe2.so:_ZN6caffe214MakeTwoClassOpIfNS_10CPUContextEE11RunOnDeviceEv
libcaffe2.so:_ZN6caffe214MatchArgumentsERKNS_11OperatorDefES2_
libcaffe2.so:_ZN6caffe214PoolGradientOpIfNS_10CPUContextENS_6LpPoolEE24RunOnDeviceWithOrderNCHWEv
libcaffe2.so:_ZN6caffe214PoolGradientOpIfNS_10CPUContextENS_6LpPoolEE24RunOnDeviceWithOrderNHWCEv
libcaffe2.so:_ZN6caffe214ReluGradientOpIfNS_10CPUContextEE11RunOnDeviceEv
libcaffe2.so:_ZN6caffe214SeluGradientOpIfNS_10CPUContextEE11RunOnDeviceEv
libcaffe2.so:_ZN6caffe214SequenceMaskOpINS_10CPUContextEE11RunOnDeviceEv
libcaffe2.so:_ZN6caffe214rmsprop_updateINS_10CPUContextEEEviPKfS3_S3_PfS4_S4_fffS3_PT_
libcaffe2.so:_ZN6caffe215AsyncPollingNet10DoRunAsyncEv
libcaffe2.so:_ZN6caffe215AsyncPollingNet15pollAndScheduleEv
libcaffe2.so:_ZN6caffe215AsyncPollingNet15updateTaskStatsEi
libcaffe2.so:_ZN6caffe215AsyncPollingNet5resetEv
libcaffe2.so:_ZN6caffe215AsyncPollingNet8scheduleEi
libcaffe2.so:_ZN6caffe215AsyncPollingNetC1ERKSt10shared_ptrIKNS_6NetDefEEPNS_9WorkspaceE
libcaffe2.so:_ZN6caffe215AsyncPollingNetC2ERKSt10shared_ptrIKNS_6NetDefEEPNS_9WorkspaceE
libcaffe2.so:_ZN6caffe215AsyncPollingNetD0Ev
libcaffe2.so:_ZN6caffe215AsyncPollingNetD1Ev
libcaffe2.so:_ZN6caffe215AsyncPollingNetD2Ev
libcaffe2.so:_ZN6caffe215BBoxTransformOpIfNS_10CPUContextEE11RunOnDeviceEv
libcaffe2.so:_ZN6caffe215BooleanUnmaskOpINS_10CPUContextEE11RunOnDeviceEv
libcaffe2.so:_ZN6caffe215CreateTransformENSt7__cxx1112basic_stringIcSt11char_traitsIcESaIcEEE
libcaffe2.so:_ZN6caffe215EmbeddingLookupIiNS_5__f16EfLb0EEEvllllPKT0_PKT_PKiPKfSB_bPT1_
libcaffe2.so:_ZN6caffe215EmbeddingLookupIiNS_5__f16EfLb1EEEvllllPKT0_PKT_PKiPKfSB_bPT1_
libcaffe2.so:_ZN6caffe215EmbeddingLookupIiffLb0EEEvllllPKT0_PKT_PKiPKfSA_bPT1_
libcaffe2.so:_ZN6caffe215EmbeddingLookupIiffLb1EEEvllllPKT0_PKT_PKiPKfSA_bPT1_
libcaffe2.so:_ZN6caffe215EmbeddingLookupIihfLb0EEEvllllPKT0_PKT_PKiPKfSA_bPT1_
libcaffe2.so:_ZN6caffe215EmbeddingLookupIihfLb1EEEvllllPKT0_PKT_PKiPKfSA_bPT1_
libcaffe2.so:_ZN6caffe215EmbeddingLookupIlNS_5__f16EfLb0EEEvllllPKT0_PKT_PKiPKfSB_bPT1_
libcaffe2.so:_ZN6caffe215EmbeddingLookupIlNS_5__f16EfLb1EEEvllllPKT0_PKT_PKiPKfSB_bPT1_
libcaffe2.so:_ZN6caffe215EmbeddingLookupIlffLb0EEEvllllPKT0_PKT_PKiPKfSA_bPT1_
libcaffe2.so:_ZN6caffe215EmbeddingLookupIlffLb1EEEvllllPKT0_PKT_PKiPKfSA_bPT1_
libcaffe2.so:_ZN6caffe215EmbeddingLookupIlhfLb0EEEvllllPKT0_PKT_PKiPKfSA_bPT1_
libcaffe2.so:_ZN6caffe215EmbeddingLookupIlhfLb1EEEvllllPKT0_PKT_PKiPKfSA_bPT1_
libcaffe2.so:_ZN6caffe215EventWaitCPUCPUEPKNS_5EventEPv
libcaffe2.so:_ZN6caffe215FreeDecodedDataERSt6vectorISt10unique_ptrINS_12DecodedFrameESt14default_deleteIS2_EESaIS5_EE
libcaffe2.so:_ZN6caffe215GetBuildOptionsB5cxx11Ev
libcaffe2.so:_ZN6caffe215GetCPUAllocatorEv
libcaffe2.so:_ZN6caffe215GetFlagArgumentERKNS_11OperatorDefERKNSt7__cxx1112basic_stringIcSt11char_traitsIcESaIcEEEb
libcaffe2.so:_ZN6caffe215GetNumNUMANodesEv
libcaffe2.so:_ZN6caffe215LogitGradientOpIfNS_10CPUContextEE11RunOnDeviceEv
libcaffe2.so:_ZN6caffe215MaxReduceDimsOpIfNS_10CPUContextELb0EE7ComputeEiiPKfPKiPf
libcaffe2.so:_ZN6caffe215MaxReduceDimsOpIfNS_10CPUContextELb1EE7ComputeEiiPKfPKiPf
libcaffe2.so:_ZN6caffe215MutexSerializer9SerializeERKNS_4BlobERKNSt7__cxx1112basic_stringIcSt11char_traitsIcESaIcEEESt8functionIFvSB_SB_EE
libcaffe2.so:_ZN6caffe215PReluGradientOpIfNS_10CPUContextEE11RunOnDeviceEv
libcaffe2.so:_ZN6caffe215PredictorConsts10SharedCtorEv
libcaffe2.so:_ZN6caffe215PredictorConsts10SharedDtorEv
libcaffe2.so:_ZN6caffe215PredictorConsts10descriptorEv
libcaffe2.so:_ZN6caffe215PredictorConsts12InternalSwapEPS0_
libcaffe2.so:_ZN6caffe215PredictorConsts16default_instanceEv
libcaffe2.so:_ZN6caffe215PredictorConsts21InitAsDefaultInstanceEv
libcaffe2.so:_ZN6caffe215PredictorConsts27MergePartialFromCodedStreamEPN6google8protobuf2io16CodedInputStreamE
libcaffe2.so:_ZN6caffe215PredictorConsts4SwapEPS0_
libcaffe2.so:_ZN6caffe215PredictorConsts5ClearEv
libcaffe2.so:_ZN6caffe215PredictorConsts8CopyFromERKN6google8protobuf7MessageE
libcaffe2.so:_ZN6caffe215PredictorConsts8CopyFromERKS0_
libcaffe2.so:_ZN6caffe215PredictorConsts9MergeFromERKN6google8protobuf7MessageE
libcaffe2.so:_ZN6caffe215PredictorConsts9MergeFromERKS0_
libcaffe2.so:_ZN6caffe215PredictorConstsC1ERKS0_
libcaffe2.so:_ZN6caffe215PredictorConstsC1Ev
libcaffe2.so:_ZN6caffe215PredictorConstsC2ERKS0_
libcaffe2.so:_ZN6caffe215PredictorConstsC2Ev
libcaffe2.so:_ZN6caffe215PredictorConstsD0Ev
libcaffe2.so:_ZN6caffe215PredictorConstsD1Ev
libcaffe2.so:_ZN6caffe215PredictorConstsD2Ev
libcaffe2.so:_ZN6caffe215RebatchingQueue10enqueueOneERNS_10CPUContextERKSt6vectorIPKNS_6TensorIS1_EESaIS7_EE
libcaffe2.so:_ZN6caffe215RebatchingQueue11enqueueManyERNS_10CPUContextERKSt6vectorIPKNS_6TensorIS1_EESaIS7_EE
libcaffe2.so:_ZN6caffe215RebatchingQueue5closeEv
libcaffe2.so:_ZN6caffe215RebatchingQueue7dequeueERNS_10CPUContextEmRKSt6vectorIPNS_6TensorIS1_EESaIS6_EE
libcaffe2.so:_ZN6caffe215RebatchingQueue7enqueueESt6vectorIS1_INS_6TensorINS_10CPUContextEEESaIS4_EESaIS6_EE
libcaffe2.so:_ZN6caffe215RebatchingQueueC1Emm
libcaffe2.so:_ZN6caffe215RebatchingQueueC2Emm
libcaffe2.so:_ZN6caffe215RebatchingQueueD1Ev
libcaffe2.so:_ZN6caffe215RebatchingQueueD2Ev
libcaffe2.so:_ZN6caffe215ResizeNearestOpIfNS_10CPUContextEE11RunOnDeviceEv
libcaffe2.so:_ZN6caffe215RowWiseArgMaxOpINS_10CPUContextEE11RunOnDeviceEv
libcaffe2.so:_ZN6caffe215SetCPUAllocatorEPNS_12CPUAllocatorE
libcaffe2.so:_ZN6caffe215SetOpEnginePrefERKNSt7__cxx1112basic_stringIcSt11char_traitsIcESaIcEEERKSt3mapIiSt6vectorIS5_SaIS5_EESt4lessIiESaISt4pairIKiSB_EEE
libcaffe2.so:_ZN6caffe215SetUsageMessageERKNSt7__cxx1112basic_stringIcSt11char_traitsIcESaIcEEE
libcaffe2.so:_ZN6caffe215StringToPadModeERKNSt7__cxx1112basic_stringIcSt11char_traitsIcESaIcEEE
libcaffe2.so:_ZN6caffe215resizeNearest2xEiiiiPKfPf
libcaffe2.so:_ZN6caffe216BlobStatRegistry10doRegisterElOSt10unique_ptrINS_14BlobStatGetterESt14default_deleteIS2_EE
libcaffe2.so:_ZN6caffe216BlobStatRegistry3getEl
libcaffe2.so:_ZN6caffe216BlobStatRegistry8instanceEv
libcaffe2.so:_ZN6caffe216ClipTransformRGBEPKhiiiiiiiiiiPKiS3_bbfffbfRKSt6vectorIS4_IfSaIfEESaIS6_EERKS6_SC_SC_PSt23mersenne_twister_engineImLm32ELm624ELm397ELm31ELm2567483615ELm11ELm4294967295ELm7ELm2636928640ELm15ELm4022730752ELm18ELm1812433253EEPf
libcaffe2.so:_ZN6caffe216ConvDocGeneratorEPKc
libcaffe2.so:_ZN6caffe216FCShapeInferenceERKNS_11OperatorDefERKSt6vectorINS_11TensorShapeESaIS4_EEb
libcaffe2.so:_ZN6caffe216FileStoreHandler10objectPathERKNSt7__cxx1112basic_stringIcSt11char_traitsIcESaIcEEE
libcaffe2.so:_ZN6caffe216FileStoreHandler3addERKNSt7__cxx1112basic_stringIcSt11char_traitsIcESaIcEEEl
libcaffe2.so:_ZN6caffe216FileStoreHandler3getERKNSt7__cxx1112basic_stringIcSt11char_traitsIcESaIcEEE
libcaffe2.so:_ZN6caffe216FileStoreHandler3setERKNSt7__cxx1112basic_stringIcSt11char_traitsIcESaIcEEES8_
libcaffe2.so:_ZN6caffe216FileStoreHandler4waitERKSt6vectorINSt7__cxx1112basic_stringIcSt11char_traitsIcESaIcEEESaIS7_EERKNSt6chrono8durationIlSt5ratioILl1ELl1000EEEE
libcaffe2.so:_ZN6caffe216FileStoreHandler5checkERKSt6vectorINSt7__cxx1112basic_stringIcSt11char_traitsIcESaIcEEESaIS7_EE
libcaffe2.so:_ZN6caffe216FileStoreHandler7tmpPathERKNSt7__cxx1112basic_stringIcSt11char_traitsIcESaIcEEE
libcaffe2.so:_ZN6caffe216FileStoreHandler8realPathERKNSt7__cxx1112basic_stringIcSt11char_traitsIcESaIcEEE
libcaffe2.so:_ZN6caffe216FileStoreHandlerC1ERKNSt7__cxx1112basic_stringIcSt11char_traitsIcESaIcEEES8_
libcaffe2.so:_ZN6caffe216FileStoreHandlerC2ERKNSt7__cxx1112basic_stringIcSt11char_traitsIcESaIcEEES8_
libcaffe2.so:_ZN6caffe216FileStoreHandlerD0Ev
libcaffe2.so:_ZN6caffe216FileStoreHandlerD1Ev
libcaffe2.so:_ZN6caffe216FileStoreHandlerD2Ev
libcaffe2.so:_ZN6caffe216GetGradientForOpERKNS_11OperatorDefERKSt6vectorINS_15GradientWrapperESaIS4_EE
libcaffe2.so:_ZN6caffe216GradientRegistryB5cxx11Ev
libcaffe2.so:_ZN6caffe216HSoftmaxSearchOpIfNS_10CPUContextEE11RunOnDeviceEv
libcaffe2.so:_ZN6caffe216HSoftmaxSearchOpIfNS_10CPUContextEE12extractNodesERKNS_9NodeProtoERSt6vectorISt4pairINSt7__cxx1112basic_stringIcSt11char_traitsIcESaIcEEEfESaISE_EE
libcaffe2.so:_ZN6caffe216HSoftmaxSearchOpIfNS_10CPUContextEE7pruningEPKfiiS4_S4_RKNS_9NodeProtoERS5_ff
libcaffe2.so:_ZN6caffe216InitCaffeLoggingEPiPPc
libcaffe2.so:_ZN6caffe216LambdaRankNdcgOpIfNS_10CPUContextEE11RunOnDeviceEv
libcaffe2.so:_ZN6caffe216LambdaRankNdcgOpIfNS_10CPUContextEE16ComputeDiscountsEPii
libcaffe2.so:_ZN6caffe216LambdaRankNdcgOpIfNS_10CPUContextEE19ResizeInvLogITensorEi
libcaffe2.so:_ZN6caffe216LpNormGradientOpIfNS_10CPUContextEE11RunOnDeviceEv
libcaffe2.so:_ZN6caffe216MathDocGeneratorEPKc
libcaffe2.so:_ZN6caffe216MergeOpticalFlowERN2cv3MatERKS1_
libcaffe2.so:_ZN6caffe216OpSchemaRegistry3mapB5cxx11Ev
libcaffe2.so:_ZN6caffe216ProtoDebugStringB5cxx11ERKN6google8protobuf7MessageE
libcaffe2.so:_ZN6caffe216RandomNumberSeedEv
libcaffe2.so:_ZN6caffe216SetGlobalMPICommEP19ompi_communicator_t
libcaffe2.so:_ZN6caffe216StumpFuncIndexOpIflNS_10CPUContextEE11RunOnDeviceEv
libcaffe2.so:_ZN6caffe216TensorSerializerINS_10CPUContextEE17StoreDeviceDetailERKNS_6TensorIS1_EEPNS_11TensorProtoE
libcaffe2.so:_ZN6caffe216WeightedSampleOpIfNS_10CPUContextEE11RunOnDeviceEv
libcaffe2.so:_ZN6caffe216are_nodes_commonERKNS_9transform5GraphEii
libcaffe2.so:_ZN6caffe217BoxWithNMSLimitOpINS_10CPUContextEE11RunOnDeviceEv
libcaffe2.so:_ZN6caffe217DropoutGradientOpIfNS_10CPUContextEE11RunOnDeviceEv
libcaffe2.so:_ZN6caffe217ElementWiseDivideERNS_10CPUContextEiPfS2_PKfS4_S4_
libcaffe2.so:_ZN6caffe217GetOperatorLoggerEv
libcaffe2.so:_ZN6caffe217MutexDeserializer11DeserializeERKNS_9BlobProtoEPNS_4BlobE
libcaffe2.so:_ZN6caffe217PadEmptySamplesOpINS_10CPUContextEE11RunOnDeviceEv
libcaffe2.so:_ZN6caffe217SetOperatorLoggerESt8functionIFvRKNS_11OperatorDefEEE
libcaffe2.so:_ZN6caffe217SingleOpTransform11PatternRuleERKNS_9transform5GraphERKSt6vectorIiSaIiEEi
libcaffe2.so:_ZN6caffe217SingleOpTransform11ReplaceRuleERKSt6vectorIiSaIiEEPNS_9transform5GraphE
libcaffe2.so:_ZN6caffe217SingleOpTransform13ValidatorRuleERKNS_9transform5GraphERKSt6vectorIiSaIiEE
libcaffe2.so:_ZN6caffe217SoftmaxGradientOpIfNS_10CPUContextEE11RunOnDeviceEv
libcaffe2.so:_ZN6caffe217SoftmaxWithLossOpIfNS_10CPUContextEE11RunOnDeviceEv
libcaffe2.so:_ZN6caffe217ThresholdedReluOpIfNS_10CPUContextEE11RunOnDeviceEv
libcaffe2.so:_ZN6caffe217TransformRegistryB5cxx11Ev
libcaffe2.so:_ZN6caffe217WriteStringToFileERKNSt7__cxx1112basic_stringIcSt11char_traitsIcESaIcEEEPKc
libcaffe2.so:_ZN6caffe217createRNNExecutorINS_10CPUContextEEESt10unique_ptrINS_28RecurrentNetworkExecutorBaseESt14default_deleteIS3_EERKNS_6NetDefERSt3mapINSt7__cxx1112basic_stringIcSt11char_traitsIcESaIcEEESG_St4lessISG_ESaISt4pairIKSG_SG_EEESG_NS_14ArgumentHelperE
libcaffe2.so:_ZN6caffe218AsyncSchedulingNet10DoRunAsyncEv
libcaffe2.so:_ZN6caffe218AsyncSchedulingNet15pollAndScheduleEi
libcaffe2.so:_ZN6caffe218AsyncSchedulingNet17updateParentCountEi
libcaffe2.so:_ZN6caffe218AsyncSchedulingNet4WaitEv
libcaffe2.so:_ZN6caffe218AsyncSchedulingNet5resetEv
libcaffe2.so:_ZN6caffe218AsyncSchedulingNet8scheduleEi
libcaffe2.so:_ZN6caffe218AsyncSchedulingNet9finishRunEv
libcaffe2.so:_ZN6caffe218AsyncSchedulingNetC1ERKSt10shared_ptrIKNS_6NetDefEEPNS_9WorkspaceE
libcaffe2.so:_ZN6caffe218AsyncSchedulingNetC2ERKSt10shared_ptrIKNS_6NetDefEEPNS_9WorkspaceE
libcaffe2.so:_ZN6caffe218AsyncSchedulingNetD0Ev
libcaffe2.so:_ZN6caffe218AsyncSchedulingNetD1Ev
libcaffe2.so:_ZN6caffe218AsyncSchedulingNetD2Ev
libcaffe2.so:_ZN6caffe218ColorNormalizationEPfiiiiRKSt6vectorIfSaIfEES5_
libcaffe2.so:_ZN6caffe218CosineSimilarityOpIfNS_10CPUContextEE11RunOnDeviceEv
libcaffe2.so:_ZN6caffe218CostInferenceForFCERKNS_11OperatorDefERKSt6vectorINS_11TensorShapeESaIS4_EE
libcaffe2.so:_ZN6caffe218DataTypeToTypeMetaERKNS_20TensorProto_DataTypeE
libcaffe2.so:_ZN6caffe218DeviceType_IsValidEi
libcaffe2.so:_ZN6caffe218GetCurrentNUMANodeEv
libcaffe2.so:_ZN6caffe218GetExceptionStringB5cxx11ERKSt9exception
libcaffe2.so:_ZN6caffe218GetMutableArgumentERKNSt7__cxx1112basic_stringIcSt11char_traitsIcESaIcEEEbPNS_11OperatorDefE
libcaffe2.so:_ZN6caffe218HSoftmaxGradientOpIfNS_10CPUContextEE11RunOnDeviceEv
libcaffe2.so:_ZN6caffe218HSoftmaxGradientOpIfNS_10CPUContextEE17RunBackwardSingleEPKfS4_S4_iS4_PfS5_S5_S5_iiRi
libcaffe2.so:_ZN6caffe218MurmurHash3_x86_32EPKvijPv
libcaffe2.so:_ZN6caffe218PadImageGradientOpIfNS_10CPUContextEE24RunOnDeviceWithOrderNCHWEv
libcaffe2.so:_ZN6caffe218PadImageGradientOpIfNS_10CPUContextEE24RunOnDeviceWithOrderNHWCEv
libcaffe2.so:_ZN6caffe218ReadStringFromFileEPKcPNSt7__cxx1112basic_stringIcSt11char_traitsIcESaIcEEE
libcaffe2.so:_ZN6caffe218RoIAlignGradientOpIfNS_10CPUContextEE11RunOnDeviceEv
libcaffe2.so:_ZN6caffe218RunPlanOnWorkspaceEPNS_9WorkspaceERKNS_7PlanDefESt8functionIFbiEE
libcaffe2.so:_ZN6caffe218SetPerOpEnginePrefERKSt3mapIiS0_INSt7__cxx1112basic_stringIcSt11char_traitsIcESaIcEEESt6vectorIS6_SaIS6_EESt4lessIS6_ESaISt4pairIKS6_S9_EEESA_IiESaISC_IKiSG_EEE
libcaffe2.so:_ZN6caffe218SmartTensorPrinter11PrintTensorERKNS_6TensorINS_10CPUContextEEE
libcaffe2.so:_ZN6caffe218SmartTensorPrinter20DefaultTensorPrinterEv
libcaffe2.so:_ZN6caffe218SmartTensorPrinter5PrintERKNS_6TensorINS_10CPUContextEEE
libcaffe2.so:_ZN6caffe218SmartTensorPrinterC1ERKNSt7__cxx1112basic_stringIcSt11char_traitsIcESaIcEEE
libcaffe2.so:_ZN6caffe218SmartTensorPrinterC1ERKNSt7__cxx1112basic_stringIcSt11char_traitsIcESaIcEEES8_
libcaffe2.so:_ZN6caffe218SmartTensorPrinterC1ERKNSt7__cxx1112basic_stringIcSt11char_traitsIcESaIcEEES8_i
libcaffe2.so:_ZN6caffe218SmartTensorPrinterC2ERKNSt7__cxx1112basic_stringIcSt11char_traitsIcESaIcEEE
libcaffe2.so:_ZN6caffe218SmartTensorPrinterC2ERKNSt7__cxx1112basic_stringIcSt11char_traitsIcESaIcEEES8_
libcaffe2.so:_ZN6caffe218SmartTensorPrinterC2ERKNSt7__cxx1112basic_stringIcSt11char_traitsIcESaIcEEES8_i
libcaffe2.so:_ZN6caffe218SoftplusGradientOpIfNS_10CPUContextEE11RunOnDeviceEv
libcaffe2.so:_ZN6caffe218ThreadPoolRegistryB5cxx11Ev
libcaffe2.so:_ZN6caffe218TypeMetaToDataTypeERKNS_8TypeMetaE
libcaffe2.so:_ZN6caffe218createSharedBufferINS_10CPUContextEEEvPNS_9WorkspaceE
libcaffe2.so:_ZN6caffe218editDistanceHelperEPKcmS1_mRSt6vectorImSaImEES5_S5_m
libcaffe2.so:_ZN6caffe219BatchBucketOneHotOpINS_10CPUContextEE11RunOnDeviceEv
libcaffe2.so:_ZN6caffe219CPUOperatorRegistryB5cxx11Ev
libcaffe2.so:_ZN6caffe219ElementwiseLinearOpIfNS_10CPUContextENS_13DefaultEngineEE11RunOnDeviceEv
libcaffe2.so:_ZN6caffe219EventSetFinishedCPUEPKNS_5EventEPKc
libcaffe2.so:_ZN6caffe219GenerateProposalsOpINS_10CPUContextEE11RunOnDeviceEv
libcaffe2.so:_ZN6caffe219GetTypeCallFunctionEl
libcaffe2.so:_ZN6caffe219LabelCrossEntropyOpIfNS_10CPUContextEE11RunOnDeviceEv
libcaffe2.so:_ZN6caffe219LayerNormGradientOpINS_10CPUContextEE13DoRunWithTypeIfEEbv
libcaffe2.so:_ZN6caffe219LeakyReluGradientOpIfNS_10CPUContextEE11RunOnDeviceEv
libcaffe2.so:_ZN6caffe219LogicalDocGeneratorEPKc
libcaffe2.so:_ZN6caffe219MaxPoolDocGeneratorEPKc
libcaffe2.so:_ZN6caffe219MurmurHash3_x64_128EPKvijPv
libcaffe2.so:_ZN6caffe219MurmurHash3_x86_128EPKvijPv
libcaffe2.so:_ZN6caffe219PatternNetTransform11PatternRuleERKNS_9transform5GraphERKSt6vectorIiSaIiEEi
libcaffe2.so:_ZN6caffe219PatternNetTransform11ReplaceRuleERKSt6vectorIiSaIiEEPNS_9transform5GraphE
libcaffe2.so:_ZN6caffe219PatternNetTransform13ValidatorRuleERKNS_9transform5GraphERKSt6vectorIiSaIiEE
libcaffe2.so:_ZN6caffe219PatternNetTransform24GetPatternTraversalOrderERKNS_9transform5GraphE
libcaffe2.so:_ZN6caffe219RunCountNetObserver4StopEv
libcaffe2.so:_ZN6caffe219RunCountNetObserver5StartEv
libcaffe2.so:_ZN6caffe219RunCountNetObserver9debugInfoB5cxx11Ev
libcaffe2.so:_ZN6caffe219SetGlobalEnginePrefERKSt3mapIiSt6vectorINSt7__cxx1112basic_stringIcSt11char_traitsIcESaIcEEESaIS7_EESt4lessIiESaISt4pairIKiS9_EEE
libcaffe2.so:_ZN6caffe219ShowLogInfoToStderrEv
libcaffe2.so:_ZN6caffe219SpatialBNGradientOpINS_10CPUContextEE11RunOnDeviceEv
libcaffe2.so:_ZN6caffe219SquaredL2DistanceOpIfNS_10CPUContextEE11RunOnDeviceEv
libcaffe2.so:_ZN6caffe219TensorProto_Segment10SharedCtorEv
libcaffe2.so:_ZN6caffe219TensorProto_Segment10SharedDtorEv
libcaffe2.so:_ZN6caffe219TensorProto_Segment10descriptorEv
libcaffe2.so:_ZN6caffe219TensorProto_Segment12InternalSwapEPS0_
libcaffe2.so:_ZN6caffe219TensorProto_Segment16default_instanceEv
libcaffe2.so:_ZN6caffe219TensorProto_Segment21InitAsDefaultInstanceEv
libcaffe2.so:_ZN6caffe219TensorProto_Segment27MergePartialFromCodedStreamEPN6google8protobuf2io16CodedInputStreamE
libcaffe2.so:_ZN6caffe219TensorProto_Segment4SwapEPS0_
libcaffe2.so:_ZN6caffe219TensorProto_Segment5ClearEv
libcaffe2.so:_ZN6caffe219TensorProto_Segment8CopyFromERKN6google8protobuf7MessageE
libcaffe2.so:_ZN6caffe219TensorProto_Segment8CopyFromERKS0_
libcaffe2.so:_ZN6caffe219TensorProto_Segment9MergeFromERKN6google8protobuf7MessageE
libcaffe2.so:_ZN6caffe219TensorProto_Segment9MergeFromERKS0_
libcaffe2.so:_ZN6caffe219TensorProto_SegmentC1ERKS0_
libcaffe2.so:_ZN6caffe219TensorProto_SegmentC1Ev
libcaffe2.so:_ZN6caffe219TensorProto_SegmentC2ERKS0_
libcaffe2.so:_ZN6caffe219TensorProto_SegmentC2Ev
libcaffe2.so:_ZN6caffe219TensorProto_SegmentD0Ev
libcaffe2.so:_ZN6caffe219TensorProto_SegmentD1Ev
libcaffe2.so:_ZN6caffe219TensorProto_SegmentD2Ev
libcaffe2.so:_ZN6caffe219gDeviceTypeRegistryB5cxx11Ev
libcaffe2.so:_ZN6caffe219runWithSharedBufferINS_10CPUContextEEEvPNS_9WorkspaceESt8functionIFvPNS_6TensorIT_EEEE
libcaffe2.so:_ZN6caffe220CUDAOperatorRegistryB5cxx11Ev
libcaffe2.so:_ZN6caffe220DotProductGradientOpIfNS_10CPUContextEE11RunOnDeviceEv
libcaffe2.so:_ZN6caffe220EventErrorMessageCPUB5cxx11EPKNS_5EventE
libcaffe2.so:_ZN6caffe220GetTensorShapeOfBlobEPKNS_4BlobE
libcaffe2.so:_ZN6caffe220L1DistanceGradientOpIfNS_10CPUContextEE11RunOnDeviceEv
libcaffe2.so:_ZN6caffe220MultiClassAccuracyOpIfNS_10CPUContextEE11RunOnDeviceEv
libcaffe2.so:_ZN6caffe220OpticalFlowExtractorERKN2cv3MatES3_iRS1_
libcaffe2.so:_ZN6caffe220SetStackTraceFetcherESt8functionIFNSt7__cxx1112basic_stringIcSt11char_traitsIcESaIcEEEvEE
libcaffe2.so:_ZN6caffe220TimeOperatorObserver4StopEv
libcaffe2.so:_ZN6caffe220TimeOperatorObserver5StartEv
libcaffe2.so:_ZN6caffe220WriteProtoToTextFileERKN6google8protobuf7MessageEPKc
libcaffe2.so:_ZN6caffe220gRegisteredTypeNamesB5cxx11Ev
libcaffe2.so:_ZN6caffe221DeviceType_descriptorEv
libcaffe2.so:_ZN6caffe221GetTensorInfoFunctionEl
libcaffe2.so:_ZN6caffe221IsMemberOfValueHolder3getINSt7__cxx1112basic_stringIcSt11char_traitsIcESaIcEEEEERSt13unordered_setIT_St4hashIS9_ESt8equal_toIS9_ESaIS9_EEv
libcaffe2.so:_ZN6caffe221IsMemberOfValueHolder3getIbEERSt13unordered_setIT_St4hashIS3_ESt8equal_toIS3_ESaIS3_EEv
libcaffe2.so:_ZN6caffe221IsMemberOfValueHolder3getIiEERSt13unordered_setIT_St4hashIS3_ESt8equal_toIS3_ESaIS3_EEv
libcaffe2.so:_ZN6caffe221IsMemberOfValueHolder3getIlEERSt13unordered_setIT_St4hashIS3_ESt8equal_toIS3_ESaIS3_EEv
libcaffe2.so:_ZN6caffe221LegacyPadding_IsValidEi
libcaffe2.so:_ZN6caffe221ReadProtoFromTextFileEPKcPN6google8protobuf7MessageE
libcaffe2.so:_ZN6caffe221ValidateTensorDevicesB5cxx11ERNS_12OperatorBaseERKNS_11OperatorDefE
libcaffe2.so:_ZN6caffe221WeightedSumGradientOpINS_10CPUContextEE11RunOnDeviceEv
libcaffe2.so:_ZN6caffe222ApplyTransformIfFasterERKNSt7__cxx1112basic_stringIcSt11char_traitsIcESaIcEEERKNS_6NetDefESA_iid
libcaffe2.so:_ZN6caffe222BernoulliJSDGradientOpIfNS_10CPUContextEE11RunOnDeviceEv
libcaffe2.so:_ZN6caffe222BlobSerializerRegistryEv
libcaffe2.so:_ZN6caffe222Caffe2SetOpenMPThreadsEPiPPPc
libcaffe2.so:_ZN6caffe222ChannelBackpropStatsOpINS_10CPUContextEE11RunOnDeviceEv
libcaffe2.so:_ZN6caffe222ComparisonDocGeneratorEPKcS1_
libcaffe2.so:_ZN6caffe222CrossEntropyGradientOpIfNS_10CPUContextEE11RunOnDeviceEv
libcaffe2.so:_ZN6caffe222GetRegisteredOperatorsB5cxx11Ev
libcaffe2.so:_ZN6caffe222MakeTwoClassGradientOpIfNS_10CPUContextEE11RunOnDeviceEv
libcaffe2.so:_ZN6caffe222WriteProtoToBinaryFileERKN6google8protobuf11MessageLiteEPKc
libcaffe2.so:_ZN6caffe223AveragePoolDocGeneratorEPKc
libcaffe2.so:_ZN6caffe223DotProductWithPaddingOpIfNS_10CPUContextEE11RunOnDeviceEv
libcaffe2.so:_ZN6caffe223InferBlobShapesAndTypesERSt3mapINSt7__cxx1112basic_stringIcSt11char_traitsIcESaIcEEENS_11TensorShapeESt4lessIS6_ESaISt4pairIKS6_S7_EEERKSt6vectorIPNS_6NetDefESaISI_EE
libcaffe2.so:_ZN6caffe223MaxReduceDimsGradientOpIfNS_10CPUContextELb0EE7ComputeEiiPKfS4_S4_PKiPf
libcaffe2.so:_ZN6caffe223MaxReduceDimsGradientOpIfNS_10CPUContextELb1EE7ComputeEiiPKfS4_S4_PKiPf
libcaffe2.so:_ZN6caffe223ReadProtoFromBinaryFileEPKcPN6google8protobuf11MessageLiteE
libcaffe2.so:_ZN6caffe223ResizeNearestGradientOpIfNS_10CPUContextEE11RunOnDeviceEv
libcaffe2.so:_ZN6caffe223ShutdownProtobufLibraryEv
libcaffe2.so:_ZN6caffe224BlobDeserializerRegistryB5cxx11Ev
libcaffe2.so:_ZN6caffe224ClipTransformOpticalFlowEPKhiiiiiiiRKN2cv5Rect_IiEEibiiibRKSt6vectorIfSaIfEESB_Pf
libcaffe2.so:_ZN6caffe224GetAsyncNetCPUThreadPoolEii
libcaffe2.so:_ZN6caffe224LambdaRankNdcgGradientOpIfNS_10CPUContextEE11RunOnDeviceEv
libcaffe2.so:_ZN6caffe224LegacyPadding_descriptorEv
libcaffe2.so:_ZN6caffe224MarginRankingCriterionOpINS_10CPUContextEE11RunOnDeviceEv
libcaffe2.so:_ZN6caffe224MemoryAllocationReporter3NewEPvm
libcaffe2.so:_ZN6caffe224MemoryAllocationReporter6DeleteEPv
libcaffe2.so:_ZN6caffe224RegisterTypeCallFunctionElPFNS_8TypeMetaEPKvE
libcaffe2.so:_ZN6caffe224RunCountOperatorObserver4StopEv
libcaffe2.so:_ZN6caffe224RunCountOperatorObserver5StartEv
libcaffe2.so:_ZN6caffe224RunCountOperatorObserverC1EPNS_12OperatorBaseEPNS_19RunCountNetObserverE
libcaffe2.so:_ZN6caffe224RunCountOperatorObserverC2EPNS_12OperatorBaseEPNS_19RunCountNetObserverE
libcaffe2.so:_ZN6caffe224SpatialSoftmaxWithLossOpIfNS_10CPUContextEE11RunOnDeviceEv
libcaffe2.so:_ZN6caffe224average_net_run_durationERKNS_6NetDefES2_ii
libcaffe2.so:_ZN6caffe225ParseProtoFromLargeStringERKNSt7__cxx1112basic_stringIcSt11char_traitsIcESaIcEEEPN6google8protobuf7MessageE
libcaffe2.so:_ZN6caffe225SoftmaxWithLossGradientOpIfNS_10CPUContextEE11RunOnDeviceEv
libcaffe2.so:_ZN6caffe225ThresholdedReluGradientOpIfNS_10CPUContextEE11RunOnDeviceEv
libcaffe2.so:_ZN6caffe226CosineEmbeddingCriterionOpINS_10CPUContextEE11RunOnDeviceEv
libcaffe2.so:_ZN6caffe226CosineSimilarityGradientOpIfNS_10CPUContextEE11RunOnDeviceEv
libcaffe2.so:_ZN6caffe226CostInferenceForDotProductERKNS_11OperatorDefERKSt6vectorINS_11TensorShapeESaIS4_EE
libcaffe2.so:_ZN6caffe226ParseCaffeCommandLineFlagsEPiPPPc
libcaffe2.so:_ZN6caffe226RegisterTensorInfoFunctionElPFSt6vectorIlSaIlEEPKvPbPmPNS_12DeviceOptionEE
libcaffe2.so:_ZN6caffe227AddGlobalNetObserverCreatorESt8functionIFSt10unique_ptrINS_12ObserverBaseINS_7NetBaseEEESt14default_deleteIS4_EEPS3_EE
libcaffe2.so:_ZN6caffe227CostInferenceForBatchMatMulERKNS_11OperatorDefERKSt6vectorINS_11TensorShapeESaIS4_EE
libcaffe2.so:_ZN6caffe227CostInferenceForBatchOneHotERKNS_11OperatorDefERKSt6vectorINS_11TensorShapeESaIS4_EE
libcaffe2.so:_ZN6caffe227ElementwiseLinearGradientOpIfNS_10CPUContextENS_13DefaultEngineEE11RunOnDeviceEv
libcaffe2.so:_ZN6caffe227GetEmptyStringAlreadyInitedB5cxx11Ev
libcaffe2.so:_ZN6caffe227LabelCrossEntropyGradientOpIfNS_10CPUContextEE11RunOnDeviceEv
libcaffe2.so:_ZN6caffe227TypedAxpy_uint8_float__baseEifPKhPf
libcaffe2.so:_ZN6caffe228DecodeMultipleClipsFromVideoEPKcRKNSt7__cxx1112basic_stringIcSt11char_traitsIcESaIcEEEiRKNS_6ParamsEiibRiSD_RSt6vectorIPhSaISF_EE
libcaffe2.so:_ZN6caffe228TensorProto_DataType_IsValidEi
libcaffe2.so:_ZN6caffe228gCaffe2TypeRegistrationMutexEv
libcaffe2.so:_ZN6caffe229Caffe2CheckIntrinsicsFeaturesEPiPPPc
libcaffe2.so:_ZN6caffe229CommandLineFlagsHasBeenParsedEv
libcaffe2.so:_ZN6caffe229TensorInferenceForBatchMatMulERKNS_11OperatorDefERKSt6vectorINS_11TensorShapeESaIS4_EE
libcaffe2.so:_ZN6caffe229TensorInferenceForBatchOneHotERKNS_11OperatorDefERKSt6vectorINS_11TensorShapeESaIS4_EE
libcaffe2.so:_ZN6caffe229TypedAxpy_float16_float__baseEifPKNS_5__f16EPf
libcaffe2.so:_ZN6caffe229printStackTracesOnFatalSignalEv
libcaffe2.so:_ZN6caffe22db15LMDBTransaction3PutERKNSt7__cxx1112basic_stringIcSt11char_traitsIcESaIcEEES9_
libcaffe2.so:_ZN6caffe22db16Caffe2DBRegistryB5cxx11Ev
libcaffe2.so:_ZN6caffe22db18DBReaderSerializer9SerializeERKNS_4BlobERKNSt7__cxx1112basic_stringIcSt11char_traitsIcESaIcEEESt8functionIFvSC_SC_EE
libcaffe2.so:_ZN6caffe22db20DBReaderDeserializer11DeserializeERKNS_9BlobProtoEPNS_4BlobE
libcaffe2.so:_ZN6caffe22db4LMDBC1ERKNSt7__cxx1112basic_stringIcSt11char_traitsIcESaIcEEENS0_4ModeE
libcaffe2.so:_ZN6caffe22db4LMDBC2ERKNSt7__cxx1112basic_stringIcSt11char_traitsIcESaIcEEENS0_4ModeE
libcaffe2.so:_ZN6caffe22db56CAFFE2_PLEASE_ADD_OPERATOR_SCHEMA_FOR_CreateBlobsQueueDBEv
libcaffe2.so:_ZN6caffe230InferBlobShapesAndTypesFromMapERKSt3mapINSt7__cxx1112basic_stringIcSt11char_traitsIcESaIcEEESt6vectorIlSaIlEESt4lessIS6_ESaISt4pairIKS6_S9_EEERKS7_IPNS_6NetDefESaISK_EE
libcaffe2.so:_ZN6caffe230MultiFrameOpticalFlowExtractorERKSt6vectorIN2cv3MatESaIS2_EEiRS2_
libcaffe2.so:_ZN6caffe231Fused8BitRowwiseEmbeddingLookupIihfLb0EEEvllllPKT0_PKT_PKiPKfbPT1_
libcaffe2.so:_ZN6caffe231Fused8BitRowwiseEmbeddingLookupIlhfLb0EEEvllllPKT0_PKT_PKiPKfbPT1_
libcaffe2.so:_ZN6caffe231SigmoidCrossEntropyWithLogitsOpIfNS_10CPUContextEE11RunOnDeviceEv
libcaffe2.so:_ZN6caffe231TensorProto_DataType_descriptorEv
libcaffe2.so:_ZN6caffe231TypedAxpy_uint8_float__avx2_fmaEifPKhPf
libcaffe2.so:_ZN6caffe232MarginRankingCriterionGradientOpINS_10CPUContextEE11RunOnDeviceEv
libcaffe2.so:_ZN6caffe232SpatialSoftmaxWithLossGradientOpIfNS_10CPUContextEE11RunOnDeviceEv
libcaffe2.so:_ZN6caffe232ThreadedRecurrentNetworkExecutor12RunBackwardsEi
libcaffe2.so:_ZN6caffe232ThreadedRecurrentNetworkExecutor14WorkerFunctionEv
libcaffe2.so:_ZN6caffe232ThreadedRecurrentNetworkExecutor3RunEi
libcaffe2.so:_ZN6caffe232ThreadedRecurrentNetworkExecutor5RunOpENS_6OpTaskEi
libcaffe2.so:_ZN6caffe232ThreadedRecurrentNetworkExecutor5_ExecEv
libcaffe2.so:_ZN6caffe232setPrintStackTracesOnFatalSignalEb
libcaffe2.so:_ZN6caffe233TypedAxpy_float16_float__avx2_fmaEifPKNS_5__f16EPf
libcaffe2.so:_ZN6caffe233TypedAxpy_float16_float__avx_f16cEifPKNS_5__f16EPf
libcaffe2.so:_ZN6caffe234CosineEmbeddingCriterionGradientOpINS_10CPUContextEE11RunOnDeviceEv
libcaffe2.so:_ZN6caffe236InferBlobShapesAndTypesFromWorkspaceEPNS_9WorkspaceERKSt6vectorIPNS_6NetDefESaIS4_EE
libcaffe2.so:_ZN6caffe237CollectAndDistributeFpnRpnProposalsOpINS_10CPUContextEE11RunOnDeviceEv
libcaffe2.so:_ZN6caffe239CommonSubexpressionEliminationTransform11PatternRuleERKNS_9transform5GraphERKSt6vectorIiSaIiEEi
libcaffe2.so:_ZN6caffe239CommonSubexpressionEliminationTransform11ReplaceRuleERKSt6vectorIiSaIiEEPNS_9transform5GraphE
libcaffe2.so:_ZN6caffe239CommonSubexpressionEliminationTransform13ValidatorRuleERKNS_9transform5GraphERKSt6vectorIiSaIiEE
libcaffe2.so:_ZN6caffe239SigmoidCrossEntropyWithLogitsGradientOpIfNS_10CPUContextEE11RunOnDeviceEv
libcaffe2.so:_ZN6caffe239WeightedSigmoidCrossEntropyWithLogitsOpIfNS_10CPUContextEE11RunOnDeviceEv
libcaffe2.so:_ZN6caffe23opt18OptimizeForBackendERKNS_6NetDefESt8functionIFbRKNS_11OperatorDefEEES4_IFS1_S3_EE
libcaffe2.so:_ZN6caffe23opt18fuseNNPACKConvReluENS_6NetDefE
libcaffe2.so:_ZN6caffe23opt9addNNPACKENS_6NetDefEb
libcaffe2.so:_ZN6caffe240CAFFE2_PLEASE_ADD_OPERATOR_SCHEMA_FOR_DoEv
libcaffe2.so:_ZN6caffe240CAFFE2_PLEASE_ADD_OPERATOR_SCHEMA_FOR_EQEv
libcaffe2.so:_ZN6caffe240CAFFE2_PLEASE_ADD_OPERATOR_SCHEMA_FOR_FCEv
libcaffe2.so:_ZN6caffe240CAFFE2_PLEASE_ADD_OPERATOR_SCHEMA_FOR_GEEv
libcaffe2.so:_ZN6caffe240CAFFE2_PLEASE_ADD_OPERATOR_SCHEMA_FOR_GTEv
libcaffe2.so:_ZN6caffe240CAFFE2_PLEASE_ADD_OPERATOR_SCHEMA_FOR_IfEv
libcaffe2.so:_ZN6caffe240CAFFE2_PLEASE_ADD_OPERATOR_SCHEMA_FOR_LCEv
libcaffe2.so:_ZN6caffe240CAFFE2_PLEASE_ADD_OPERATOR_SCHEMA_FOR_LEEv
libcaffe2.so:_ZN6caffe240CAFFE2_PLEASE_ADD_OPERATOR_SCHEMA_FOR_LTEv
libcaffe2.so:_ZN6caffe240CAFFE2_PLEASE_ADD_OPERATOR_SCHEMA_FOR_OrEv
libcaffe2.so:_ZN6caffe241CAFFE2_PLEASE_ADD_OPERATOR_SCHEMA_FOR_AbsEv
libcaffe2.so:_ZN6caffe241CAFFE2_PLEASE_ADD_OPERATOR_SCHEMA_FOR_AddEv
libcaffe2.so:_ZN6caffe241CAFFE2_PLEASE_ADD_OPERATOR_SCHEMA_FOR_AndEv
libcaffe2.so:_ZN6caffe241CAFFE2_PLEASE_ADD_OPERATOR_SCHEMA_FOR_CosEv
libcaffe2.so:_ZN6caffe241CAFFE2_PLEASE_ADD_OPERATOR_SCHEMA_FOR_DivEv
libcaffe2.so:_ZN6caffe241CAFFE2_PLEASE_ADD_OPERATOR_SCHEMA_FOR_EluEv
libcaffe2.so:_ZN6caffe241CAFFE2_PLEASE_ADD_OPERATOR_SCHEMA_FOR_ExpEv
libcaffe2.so:_ZN6caffe241CAFFE2_PLEASE_ADD_OPERATOR_SCHEMA_FOR_GluEv
libcaffe2.so:_ZN6caffe241CAFFE2_PLEASE_ADD_OPERATOR_SCHEMA_FOR_LRNEv
libcaffe2.so:_ZN6caffe241CAFFE2_PLEASE_ADD_OPERATOR_SCHEMA_FOR_LogEv
libcaffe2.so:_ZN6caffe241CAFFE2_PLEASE_ADD_OPERATOR_SCHEMA_FOR_MaxEv
libcaffe2.so:_ZN6caffe241CAFFE2_PLEASE_ADD_OPERATOR_SCHEMA_FOR_MinEv
libcaffe2.so:_ZN6caffe241CAFFE2_PLEASE_ADD_OPERATOR_SCHEMA_FOR_MulEv
libcaffe2.so:_ZN6caffe241CAFFE2_PLEASE_ADD_OPERATOR_SCHEMA_FOR_NotEv
libcaffe2.so:_ZN6caffe241CAFFE2_PLEASE_ADD_OPERATOR_SCHEMA_FOR_PowEv
libcaffe2.so:_ZN6caffe241CAFFE2_PLEASE_ADD_OPERATOR_SCHEMA_FOR_SinEv
libcaffe2.so:_ZN6caffe241CAFFE2_PLEASE_ADD_OPERATOR_SCHEMA_FOR_SqrEv
libcaffe2.so:_ZN6caffe241CAFFE2_PLEASE_ADD_OPERATOR_SCHEMA_FOR_SubEv
libcaffe2.so:_ZN6caffe241CAFFE2_PLEASE_ADD_OPERATOR_SCHEMA_FOR_SumEv
libcaffe2.so:_ZN6caffe241CAFFE2_PLEASE_ADD_OPERATOR_SCHEMA_FOR_XorEv
libcaffe2.so:_ZN6caffe242CAFFE2_PLEASE_ADD_OPERATOR_SCHEMA_FOR_AdamEv
libcaffe2.so:_ZN6caffe242CAFFE2_PLEASE_ADD_OPERATOR_SCHEMA_FOR_CastEv
libcaffe2.so:_ZN6caffe242CAFFE2_PLEASE_ADD_OPERATOR_SCHEMA_FOR_CeilEv
libcaffe2.so:_ZN6caffe242CAFFE2_PLEASE_ADD_OPERATOR_SCHEMA_FOR_ClipEv
libcaffe2.so:_ZN6caffe242CAFFE2_PLEASE_ADD_OPERATOR_SCHEMA_FOR_ConvEv
libcaffe2.so:_ZN6caffe242CAFFE2_PLEASE_ADD_OPERATOR_SCHEMA_FOR_CopyEv
libcaffe2.so:_ZN6caffe242CAFFE2_PLEASE_ADD_OPERATOR_SCHEMA_FOR_FindEv
libcaffe2.so:_ZN6caffe242CAFFE2_PLEASE_ADD_OPERATOR_SCHEMA_FOR_FreeEv
libcaffe2.so:_ZN6caffe242CAFFE2_PLEASE_ADD_OPERATOR_SCHEMA_FOR_IterEv
libcaffe2.so:_ZN6caffe242CAFFE2_PLEASE_ADD_OPERATOR_SCHEMA_FOR_LC1DEv
libcaffe2.so:_ZN6caffe242CAFFE2_PLEASE_ADD_OPERATOR_SCHEMA_FOR_LC2DEv
libcaffe2.so:_ZN6caffe242CAFFE2_PLEASE_ADD_OPERATOR_SCHEMA_FOR_LC3DEv
libcaffe2.so:_ZN6caffe242CAFFE2_PLEASE_ADD_OPERATOR_SCHEMA_FOR_LarsEv
libcaffe2.so:_ZN6caffe242CAFFE2_PLEASE_ADD_OPERATOR_SCHEMA_FOR_LoadEv
libcaffe2.so:_ZN6caffe242CAFFE2_PLEASE_ADD_OPERATOR_SCHEMA_FOR_MeanEv
libcaffe2.so:_ZN6caffe242CAFFE2_PLEASE_ADD_OPERATOR_SCHEMA_FOR_ReluEv
libcaffe2.so:_ZN6caffe242CAFFE2_PLEASE_ADD_OPERATOR_SCHEMA_FOR_SaveEv
libcaffe2.so:_ZN6caffe242CAFFE2_PLEASE_ADD_OPERATOR_SCHEMA_FOR_SeluEv
libcaffe2.so:_ZN6caffe242CAFFE2_PLEASE_ADD_OPERATOR_SCHEMA_FOR_SignEv
libcaffe2.so:_ZN6caffe242CAFFE2_PLEASE_ADD_OPERATOR_SCHEMA_FOR_SizeEv
libcaffe2.so:_ZN6caffe242CAFFE2_PLEASE_ADD_OPERATOR_SCHEMA_FOR_SqrtEv
libcaffe2.so:_ZN6caffe242CAFFE2_PLEASE_ADD_OPERATOR_SCHEMA_FOR_TanhEv
libcaffe2.so:_ZN6caffe242CAFFE2_PLEASE_ADD_OPERATOR_SCHEMA_FOR_TileEv
libcaffe2.so:_ZN6caffe242CAFFE2_PLEASE_ADD_OPERATOR_SCHEMA_FOR_TopKEv
libcaffe2.so:_ZN6caffe243CAFFE2_PLEASE_ADD_OPERATOR_SCHEMA_FOR_AliasEv
libcaffe2.so:_ZN6caffe243CAFFE2_PLEASE_ADD_OPERATOR_SCHEMA_FOR_FloorEv
libcaffe2.so:_ZN6caffe243CAFFE2_PLEASE_ADD_OPERATOR_SCHEMA_FOR_LogitEv
libcaffe2.so:_ZN6caffe243CAFFE2_PLEASE_ADD_OPERATOR_SCHEMA_FOR_PReluEv
libcaffe2.so:_ZN6caffe243CAFFE2_PLEASE_ADD_OPERATOR_SCHEMA_FOR_PrintEv
libcaffe2.so:_ZN6caffe243CAFFE2_PLEASE_ADD_OPERATOR_SCHEMA_FOR_RangeEv
libcaffe2.so:_ZN6caffe243CAFFE2_PLEASE_ADD_OPERATOR_SCHEMA_FOR_ScaleEv
libcaffe2.so:_ZN6caffe243CAFFE2_PLEASE_ADD_OPERATOR_SCHEMA_FOR_ShapeEv
libcaffe2.so:_ZN6caffe243CAFFE2_PLEASE_ADD_OPERATOR_SCHEMA_FOR_SliceEv
libcaffe2.so:_ZN6caffe243CAFFE2_PLEASE_ADD_OPERATOR_SCHEMA_FOR_SplitEv
libcaffe2.so:_ZN6caffe243CAFFE2_PLEASE_ADD_OPERATOR_SCHEMA_FOR_SwishEv
libcaffe2.so:_ZN6caffe243CAFFE2_PLEASE_ADD_OPERATOR_SCHEMA_FOR_WhileEv
libcaffe2.so:_ZN6caffe244CAFFE2_PLEASE_ADD_OPERATOR_SCHEMA_FOR_ArgMaxEv
libcaffe2.so:_ZN6caffe244CAFFE2_PLEASE_ADD_OPERATOR_SCHEMA_FOR_ArgMinEv
libcaffe2.so:_ZN6caffe244CAFFE2_PLEASE_ADD_OPERATOR_SCHEMA_FOR_AssertEv
libcaffe2.so:_ZN6caffe244CAFFE2_PLEASE_ADD_OPERATOR_SCHEMA_FOR_Col2ImEv
libcaffe2.so:_ZN6caffe244CAFFE2_PLEASE_ADD_OPERATOR_SCHEMA_FOR_ConcatEv
libcaffe2.so:_ZN6caffe244CAFFE2_PLEASE_ADD_OPERATOR_SCHEMA_FOR_Conv1DEv
libcaffe2.so:_ZN6caffe244CAFFE2_PLEASE_ADD_OPERATOR_SCHEMA_FOR_Conv2DEv
libcaffe2.so:_ZN6caffe244CAFFE2_PLEASE_ADD_OPERATOR_SCHEMA_FOR_Conv3DEv
libcaffe2.so:_ZN6caffe244CAFFE2_PLEASE_ADD_OPERATOR_SCHEMA_FOR_GatherEv
libcaffe2.so:_ZN6caffe244CAFFE2_PLEASE_ADD_OPERATOR_SCHEMA_FOR_Im2ColEv
libcaffe2.so:_ZN6caffe244CAFFE2_PLEASE_ADD_OPERATOR_SCHEMA_FOR_LpPoolEv
libcaffe2.so:_ZN6caffe244CAFFE2_PLEASE_ADD_OPERATOR_SCHEMA_FOR_MatMulEv
libcaffe2.so:_ZN6caffe244CAFFE2_PLEASE_ADD_OPERATOR_SCHEMA_FOR_OneHotEv
libcaffe2.so:_ZN6caffe244CAFFE2_PLEASE_ADD_OPERATOR_SCHEMA_FOR_ReduceEv
libcaffe2.so:_ZN6caffe244CAFFE2_PLEASE_ADD_OPERATOR_SCHEMA_FOR_SumIntEv
libcaffe2.so:_ZN6caffe244CAFFE2_PLEASE_ADD_OPERATOR_SCHEMA_FOR_UniqueEv
libcaffe2.so:_ZN6caffe245CAFFE2_PLEASE_ADD_OPERATOR_SCHEMA_FOR_AdagradEv
libcaffe2.so:_ZN6caffe245CAFFE2_PLEASE_ADD_OPERATOR_SCHEMA_FOR_BarrierEv
libcaffe2.so:_ZN6caffe245CAFFE2_PLEASE_ADD_OPERATOR_SCHEMA_FOR_CountUpEv
libcaffe2.so:_ZN6caffe245CAFFE2_PLEASE_ADD_OPERATOR_SCHEMA_FOR_DropoutEv
libcaffe2.so:_ZN6caffe245CAFFE2_PLEASE_ADD_OPERATOR_SCHEMA_FOR_FlattenEv
libcaffe2.so:_ZN6caffe245CAFFE2_PLEASE_ADD_OPERATOR_SCHEMA_FOR_GRUUnitEv
libcaffe2.so:_ZN6caffe245CAFFE2_PLEASE_ADD_OPERATOR_SCHEMA_FOR_IsEmptyEv
libcaffe2.so:_ZN6caffe245CAFFE2_PLEASE_ADD_OPERATOR_SCHEMA_FOR_MaxPoolEv
libcaffe2.so:_ZN6caffe245CAFFE2_PLEASE_ADD_OPERATOR_SCHEMA_FOR_ReshapeEv
libcaffe2.so:_ZN6caffe245CAFFE2_PLEASE_ADD_OPERATOR_SCHEMA_FOR_RmsPropEv
libcaffe2.so:_ZN6caffe245CAFFE2_PLEASE_ADD_OPERATOR_SCHEMA_FOR_RoIPoolEv
libcaffe2.so:_ZN6caffe245CAFFE2_PLEASE_ADD_OPERATOR_SCHEMA_FOR_SigmoidEv
libcaffe2.so:_ZN6caffe245CAFFE2_PLEASE_ADD_OPERATOR_SCHEMA_FOR_SoftmaxEv
libcaffe2.so:_ZN6caffe245CAFFE2_PLEASE_ADD_OPERATOR_SCHEMA_FOR_SqueezeEv
libcaffe2.so:_ZN6caffe246CAFFE2_PLEASE_ADD_OPERATOR_SCHEMA_FOR_AccuracyEv
libcaffe2.so:_ZN6caffe246CAFFE2_PLEASE_ADD_OPERATOR_SCHEMA_FOR_CreateDBEv
libcaffe2.so:_ZN6caffe246CAFFE2_PLEASE_ADD_OPERATOR_SCHEMA_FOR_DBExistsEv
libcaffe2.so:_ZN6caffe246CAFFE2_PLEASE_ADD_OPERATOR_SCHEMA_FOR_FeedBlobEv
libcaffe2.so:_ZN6caffe246CAFFE2_PLEASE_ADD_OPERATOR_SCHEMA_FOR_HasScopeEv
libcaffe2.so:_ZN6caffe246CAFFE2_PLEASE_ADD_OPERATOR_SCHEMA_FOR_IndexGetEv
libcaffe2.so:_ZN6caffe246CAFFE2_PLEASE_ADD_OPERATOR_SCHEMA_FOR_KeySplitEv
libcaffe2.so:_ZN6caffe246CAFFE2_PLEASE_ADD_OPERATOR_SCHEMA_FOR_LSTMUnitEv
libcaffe2.so:_ZN6caffe246CAFFE2_PLEASE_ADD_OPERATOR_SCHEMA_FOR_MSRAFillEv
libcaffe2.so:_ZN6caffe246CAFFE2_PLEASE_ADD_OPERATOR_SCHEMA_FOR_MergeDimEv
libcaffe2.so:_ZN6caffe246CAFFE2_PLEASE_ADD_OPERATOR_SCHEMA_FOR_NanCheckEv
libcaffe2.so:_ZN6caffe246CAFFE2_PLEASE_ADD_OPERATOR_SCHEMA_FOR_NegativeEv
libcaffe2.so:_ZN6caffe246CAFFE2_PLEASE_ADD_OPERATOR_SCHEMA_FOR_PadImageEv
libcaffe2.so:_ZN6caffe246CAFFE2_PLEASE_ADD_OPERATOR_SCHEMA_FOR_RoIAlignEv
libcaffe2.so:_ZN6caffe246CAFFE2_PLEASE_ADD_OPERATOR_SCHEMA_FOR_SnapshotEv
libcaffe2.so:_ZN6caffe246CAFFE2_PLEASE_ADD_OPERATOR_SCHEMA_FOR_SoftplusEv
libcaffe2.so:_ZN6caffe246CAFFE2_PLEASE_ADD_OPERATOR_SCHEMA_FOR_SoftsignEv
libcaffe2.so:_ZN6caffe246CAFFE2_PLEASE_ADD_OPERATOR_SCHEMA_FOR_StoreAddEv
libcaffe2.so:_ZN6caffe246CAFFE2_PLEASE_ADD_OPERATOR_SCHEMA_FOR_StoreGetEv
libcaffe2.so:_ZN6caffe246CAFFE2_PLEASE_ADD_OPERATOR_SCHEMA_FOR_StoreSetEv
libcaffe2.so:_ZN6caffe246CAFFE2_PLEASE_ADD_OPERATOR_SCHEMA_FOR_TimerEndEv
libcaffe2.so:_ZN6caffe246CAFFE2_PLEASE_ADD_OPERATOR_SCHEMA_FOR_TimerGetEv
libcaffe2.so:_ZN6caffe246EmbeddingLookup_int32_t_float_float_true__baseEllllPKfPKiS3_S1_S1_bPf
libcaffe2.so:_ZN6caffe246EmbeddingLookup_int64_t_float_float_true__baseEllllPKfPKlPKiS1_S1_bPf
libcaffe2.so:_ZN6caffe247CAFFE2_PLEASE_ADD_OPERATOR_SCHEMA_FOR_AllgatherEv
libcaffe2.so:_ZN6caffe247CAFFE2_PLEASE_ADD_OPERATOR_SCHEMA_FOR_AllreduceEv
libcaffe2.so:_ZN6caffe247CAFFE2_PLEASE_ADD_OPERATOR_SCHEMA_FOR_BroadcastEv
libcaffe2.so:_ZN6caffe247CAFFE2_PLEASE_ADD_OPERATOR_SCHEMA_FOR_CountDownEv
libcaffe2.so:_ZN6caffe247CAFFE2_PLEASE_ADD_OPERATOR_SCHEMA_FOR_GroupNormEv
libcaffe2.so:_ZN6caffe247CAFFE2_PLEASE_ADD_OPERATOR_SCHEMA_FOR_IndexLoadEv
libcaffe2.so:_ZN6caffe247CAFFE2_PLEASE_ADD_OPERATOR_SCHEMA_FOR_IndexSizeEv
libcaffe2.so:_ZN6caffe247CAFFE2_PLEASE_ADD_OPERATOR_SCHEMA_FOR_LayerNormEv
libcaffe2.so:_ZN6caffe247CAFFE2_PLEASE_ADD_OPERATOR_SCHEMA_FOR_LeakyReluEv
libcaffe2.so:_ZN6caffe247CAFFE2_PLEASE_ADD_OPERATOR_SCHEMA_FOR_MPIReduceEv
libcaffe2.so:_ZN6caffe247CAFFE2_PLEASE_ADD_OPERATOR_SCHEMA_FOR_MaxPool1DEv
libcaffe2.so:_ZN6caffe247CAFFE2_PLEASE_ADD_OPERATOR_SCHEMA_FOR_MaxPool2DEv
libcaffe2.so:_ZN6caffe247CAFFE2_PLEASE_ADD_OPERATOR_SCHEMA_FOR_MaxPool3DEv
libcaffe2.so:_ZN6caffe247CAFFE2_PLEASE_ADD_OPERATOR_SCHEMA_FOR_NCHW2NHWCEv
libcaffe2.so:_ZN6caffe247CAFFE2_PLEASE_ADD_OPERATOR_SCHEMA_FOR_NHWC2NCHWEv
libcaffe2.so:_ZN6caffe247CAFFE2_PLEASE_ADD_OPERATOR_SCHEMA_FOR_NormalizeEv
libcaffe2.so:_ZN6caffe247CAFFE2_PLEASE_ADD_OPERATOR_SCHEMA_FOR_ONNXWhileEv
libcaffe2.so:_ZN6caffe247CAFFE2_PLEASE_ADD_OPERATOR_SCHEMA_FOR_RangeFillEv
libcaffe2.so:_ZN6caffe247CAFFE2_PLEASE_ADD_OPERATOR_SCHEMA_FOR_ReduceSumEv
libcaffe2.so:_ZN6caffe247CAFFE2_PLEASE_ADD_OPERATOR_SCHEMA_FOR_SpatialBNEv
libcaffe2.so:_ZN6caffe247CAFFE2_PLEASE_ADD_OPERATOR_SCHEMA_FOR_StoreWaitEv
libcaffe2.so:_ZN6caffe247CAFFE2_PLEASE_ADD_OPERATOR_SCHEMA_FOR_StumpFuncEv
libcaffe2.so:_ZN6caffe247CAFFE2_PLEASE_ADD_OPERATOR_SCHEMA_FOR_SummarizeEv
libcaffe2.so:_ZN6caffe247CAFFE2_PLEASE_ADD_OPERATOR_SCHEMA_FOR_TransposeEv
libcaffe2.so:_ZN6caffe247CAFFE2_PLEASE_ADD_OPERATOR_SCHEMA_FOR_YellowFinEv
libcaffe2.so:_ZN6caffe247EmbeddingLookup_int32_t_float_float_false__baseEllllPKfPKiS3_S1_S1_bPf
libcaffe2.so:_ZN6caffe247EmbeddingLookup_int64_t_float_float_false__baseEllllPKfPKlPKiS1_S1_bPf
libcaffe2.so:_ZN6caffe247WeightedSigmoidCrossEntropyWithLogitsGradientOpIfNS_10CPUContextEE11RunOnDeviceEv
libcaffe2.so:_ZN6caffe248CAFFE2_PLEASE_ADD_OPERATOR_SCHEMA_FOR_AccumulateEv
libcaffe2.so:_ZN6caffe248CAFFE2_PLEASE_ADD_OPERATOR_SCHEMA_FOR_AddPaddingEv
libcaffe2.so:_ZN6caffe248CAFFE2_PLEASE_ADD_OPERATOR_SCHEMA_FOR_AtomicIterEv
libcaffe2.so:_ZN6caffe248CAFFE2_PLEASE_ADD_OPERATOR_SCHEMA_FOR_CheckpointEv
libcaffe2.so:_ZN6caffe248CAFFE2_PLEASE_ADD_OPERATOR_SCHEMA_FOR_ColwiseMaxEv
libcaffe2.so:_ZN6caffe248CAFFE2_PLEASE_ADD_OPERATOR_SCHEMA_FOR_DeformConvEv
libcaffe2.so:_ZN6caffe248CAFFE2_PLEASE_ADD_OPERATOR_SCHEMA_FOR_DepthSplitEv
libcaffe2.so:_ZN6caffe248CAFFE2_PLEASE_ADD_OPERATOR_SCHEMA_FOR_DotProductEv
libcaffe2.so:_ZN6caffe248CAFFE2_PLEASE_ADD_OPERATOR_SCHEMA_FOR_ExpandDimsEv
libcaffe2.so:_ZN6caffe248CAFFE2_PLEASE_ADD_OPERATOR_SCHEMA_FOR_FCGradientEv
libcaffe2.so:_ZN6caffe248CAFFE2_PLEASE_ADD_OPERATOR_SCHEMA_FOR_ImageInputEv
libcaffe2.so:_ZN6caffe248CAFFE2_PLEASE_ADD_OPERATOR_SCHEMA_FOR_IndexStoreEv
libcaffe2.so:_ZN6caffe248CAFFE2_PLEASE_ADD_OPERATOR_SCHEMA_FOR_L1DistanceEv
libcaffe2.so:_ZN6caffe248CAFFE2_PLEASE_ADD_OPERATOR_SCHEMA_FOR_LCGradientEv
libcaffe2.so:_ZN6caffe248CAFFE2_PLEASE_ADD_OPERATOR_SCHEMA_FOR_PercentileEv
libcaffe2.so:_ZN6caffe248CAFFE2_PLEASE_ADD_OPERATOR_SCHEMA_FOR_PerplexityEv
libcaffe2.so:_ZN6caffe248CAFFE2_PLEASE_ADD_OPERATOR_SCHEMA_FOR_PrependDimEv
libcaffe2.so:_ZN6caffe248CAFFE2_PLEASE_ADD_OPERATOR_SCHEMA_FOR_ReduceMeanEv
libcaffe2.so:_ZN6caffe248CAFFE2_PLEASE_ADD_OPERATOR_SCHEMA_FOR_ReplaceNaNEv
libcaffe2.so:_ZN6caffe248CAFFE2_PLEASE_ADD_OPERATOR_SCHEMA_FOR_ResizeLikeEv
libcaffe2.so:_ZN6caffe248CAFFE2_PLEASE_ADD_OPERATOR_SCHEMA_FOR_RowwiseMaxEv
libcaffe2.so:_ZN6caffe248CAFFE2_PLEASE_ADD_OPERATOR_SCHEMA_FOR_SendTensorEv
libcaffe2.so:_ZN6caffe248CAFFE2_PLEASE_ADD_OPERATOR_SCHEMA_FOR_SparseAdamEv
libcaffe2.so:_ZN6caffe248CAFFE2_PLEASE_ADD_OPERATOR_SCHEMA_FOR_TimerBeginEv
libcaffe2.so:_ZN6caffe248CAFFE2_PLEASE_ADD_OPERATOR_SCHEMA_FOR_VideoInputEv
libcaffe2.so:_ZN6caffe248CAFFE2_PLEASE_ADD_OPERATOR_SCHEMA_FOR_XavierFillEv
libcaffe2.so:_ZN6caffe248EmbeddingLookup_int32_t_float16_float_true__baseEllllPKNS_5__f16EPKiS4_PKfS6_bPf
libcaffe2.so:_ZN6caffe248EmbeddingLookup_int32_t_uint8_t_float_true__baseEllllPKhPKiS3_PKfS5_bPf
libcaffe2.so:_ZN6caffe248EmbeddingLookup_int64_t_float16_float_true__baseEllllPKNS_5__f16EPKlPKiPKfS8_bPf
libcaffe2.so:_ZN6caffe248EmbeddingLookup_int64_t_uint8_t_float_true__baseEllllPKhPKlPKiPKfS7_bPf
libcaffe2.so:_ZN6caffe249CAFFE2_PLEASE_ADD_OPERATOR_SCHEMA_FOR_AbsGradientEv
libcaffe2.so:_ZN6caffe249CAFFE2_PLEASE_ADD_OPERATOR_SCHEMA_FOR_AveragePoolEv
libcaffe2.so:_ZN6caffe249CAFFE2_PLEASE_ADD_OPERATOR_SCHEMA_FOR_BatchGatherEv
libcaffe2.so:_ZN6caffe249CAFFE2_PLEASE_ADD_OPERATOR_SCHEMA_FOR_BatchMatMulEv
libcaffe2.so:_ZN6caffe249CAFFE2_PLEASE_ADD_OPERATOR_SCHEMA_FOR_BatchOneHotEv
libcaffe2.so:_ZN6caffe249CAFFE2_PLEASE_ADD_OPERATOR_SCHEMA_FOR_BooleanMaskEv
libcaffe2.so:_ZN6caffe249CAFFE2_PLEASE_ADD_OPERATOR_SCHEMA_FOR_ConditionalEv
libcaffe2.so:_ZN6caffe249CAFFE2_PLEASE_ADD_OPERATOR_SCHEMA_FOR_CosGradientEv
libcaffe2.so:_ZN6caffe249CAFFE2_PLEASE_ADD_OPERATOR_SCHEMA_FOR_CreateScopeEv
libcaffe2.so:_ZN6caffe249CAFFE2_PLEASE_ADD_OPERATOR_SCHEMA_FOR_DepthConcatEv
libcaffe2.so:_ZN6caffe249CAFFE2_PLEASE_ADD_OPERATOR_SCHEMA_FOR_DivGradientEv
libcaffe2.so:_ZN6caffe249CAFFE2_PLEASE_ADD_OPERATOR_SCHEMA_FOR_DropoutGradEv
libcaffe2.so:_ZN6caffe249CAFFE2_PLEASE_ADD_OPERATOR_SCHEMA_FOR_EluGradientEv
libcaffe2.so:_ZN6caffe249CAFFE2_PLEASE_ADD_OPERATOR_SCHEMA_FOR_EnsureDenseEv
libcaffe2.so:_ZN6caffe249CAFFE2_PLEASE_ADD_OPERATOR_SCHEMA_FOR_FloatToHalfEv
libcaffe2.so:_ZN6caffe249CAFFE2_PLEASE_ADD_OPERATOR_SCHEMA_FOR_HalfToFloatEv
libcaffe2.so:_ZN6caffe249CAFFE2_PLEASE_ADD_OPERATOR_SCHEMA_FOR_HasElementsEv
libcaffe2.so:_ZN6caffe249CAFFE2_PLEASE_ADD_OPERATOR_SCHEMA_FOR_IndexFreezeEv
libcaffe2.so:_ZN6caffe249CAFFE2_PLEASE_ADD_OPERATOR_SCHEMA_FOR_LRNGradientEv
libcaffe2.so:_ZN6caffe249CAFFE2_PLEASE_ADD_OPERATOR_SCHEMA_FOR_LengthsTileEv
libcaffe2.so:_ZN6caffe249CAFFE2_PLEASE_ADD_OPERATOR_SCHEMA_FOR_LengthsTopKEv
libcaffe2.so:_ZN6caffe249CAFFE2_PLEASE_ADD_OPERATOR_SCHEMA_FOR_MaxGradientEv
libcaffe2.so:_ZN6caffe249CAFFE2_PLEASE_ADD_OPERATOR_SCHEMA_FOR_MinGradientEv
libcaffe2.so:_ZN6caffe249CAFFE2_PLEASE_ADD_OPERATOR_SCHEMA_FOR_MomentumSGDEv
libcaffe2.so:_ZN6caffe249CAFFE2_PLEASE_ADD_OPERATOR_SCHEMA_FOR_NormalizeL1Ev
libcaffe2.so:_ZN6caffe249CAFFE2_PLEASE_ADD_OPERATOR_SCHEMA_FOR_QuantDecodeEv
libcaffe2.so:_ZN6caffe249CAFFE2_PLEASE_ADD_OPERATOR_SCHEMA_FOR_RMACRegionsEv
libcaffe2.so:_ZN6caffe249CAFFE2_PLEASE_ADD_OPERATOR_SCHEMA_FOR_SinGradientEv
libcaffe2.so:_ZN6caffe249CAFFE2_PLEASE_ADD_OPERATOR_SCHEMA_FOR_SumElementsEv
libcaffe2.so:_ZN6caffe249CAFFE2_PLEASE_ADD_OPERATOR_SCHEMA_FOR_UniformFillEv
libcaffe2.so:_ZN6caffe249CAFFE2_PLEASE_ADD_OPERATOR_SCHEMA_FOR_WeightedSumEv
libcaffe2.so:_ZN6caffe249EmbeddingLookup_int32_t_float16_float_false__baseEllllPKNS_5__f16EPKiS4_PKfS6_bPf
libcaffe2.so:_ZN6caffe249EmbeddingLookup_int32_t_uint8_t_float_false__baseEllllPKhPKiS3_PKfS5_bPf
libcaffe2.so:_ZN6caffe249EmbeddingLookup_int64_t_float16_float_false__baseEllllPKNS_5__f16EPKlPKiPKfS8_bPf
libcaffe2.so:_ZN6caffe249EmbeddingLookup_int64_t_uint8_t_float_false__baseEllllPKhPKlPKiPKfS7_bPf
libcaffe2.so:_ZN6caffe24Blob11DeserializeERKNS_9BlobProtoE
libcaffe2.so:_ZN6caffe24Blob11DeserializeERKNSt7__cxx1112basic_stringIcSt11char_traitsIcESaIcEEE
libcaffe2.so:_ZN6caffe24gloo12createDeviceENS0_16createDeviceAttrE
libcaffe2.so:_ZN6caffe24gloo13signalFailureEPNS_4BlobERSt9exception
libcaffe2.so:_ZN6caffe24gloo17CreateCommonWorldINS_10CPUContextEE20initializeForContextEv
libcaffe2.so:_ZN6caffe24gloo19StoreHandlerWrapper3getERKNSt7__cxx1112basic_stringIcSt11char_traitsIcESaIcEEE
libcaffe2.so:_ZN6caffe24gloo19StoreHandlerWrapper3setERKNSt7__cxx1112basic_stringIcSt11char_traitsIcESaIcEEERKSt6vectorIcS6_E
libcaffe2.so:_ZN6caffe24gloo19StoreHandlerWrapper4waitERKSt6vectorINSt7__cxx1112basic_stringIcSt11char_traitsIcESaIcEEESaIS8_EERKNSt6chrono8durationIlSt5ratioILl1ELl1000EEEE
libcaffe2.so:_ZN6caffe24math10ColwiseMaxIfNS_10CPUContextEEEviiPKT_PS3_PT0_
libcaffe2.so:_ZN6caffe24math10CopyMatrixINS_10CPUContextEEEvmiiPKviPviPT_PFvS4_S5_mE
libcaffe2.so:_ZN6caffe24math10CopyVectorIfNS_10CPUContextEEEviPKT_PS3_PT0_
libcaffe2.so:_ZN6caffe24math10ReduceMeanIfNS_10CPUContextEEEviiiPKiiS4_PKT_PS5_PT0_PNS_6TensorIS9_EE
libcaffe2.so:_ZN6caffe24math10RowwiseMaxIfNS_10CPUContextEEEviiPKT_PS3_PT0_
libcaffe2.so:_ZN6caffe24math11ElemwiseMaxIfNS_10CPUContextEEEviPKT_S5_PS3_PT0_
libcaffe2.so:_ZN6caffe24math11GemmBatchedIfNS_10CPUContextENS_13DefaultEngineEEEv15CBLAS_TRANSPOSES4_iiiifPKT_S7_fPS5_PT0_PNS_6TensorIS9_EENS_20TensorProto_DataTypeE
libcaffe2.so:_ZN6caffe24math11RandUniformIfNS_10CPUContextEEEvmT_S3_PS3_PT0_
libcaffe2.so:_ZN6caffe24math11RandUniformIiNS_10CPUContextEEEvmT_S3_PS3_PT0_
libcaffe2.so:_ZN6caffe24math12RandGaussianIfNS_10CPUContextEEEvmT_S3_PS3_PT0_
libcaffe2.so:_ZN6caffe24math15AddStripedBatchIfNS_10CPUContextEEEviPKT_PS3_iiPT0_
libcaffe2.so:_ZN6caffe24math17RandUniformUniqueIiNS_10CPUContextEEEvmT_S3_PS3_mPKS3_PT0_
libcaffe2.so:_ZN6caffe24math17RandUniformUniqueIlNS_10CPUContextEEEvmT_S3_PS3_mPKS3_PT0_
libcaffe2.so:_ZN6caffe24math2GEIfNS_10CPUContextEEEviPKT_S5_PbPT0_
libcaffe2.so:_ZN6caffe24math2GEIiNS_10CPUContextEEEviPKT_S5_PbPT0_
libcaffe2.so:_ZN6caffe24math2GEIlNS_10CPUContextEEEviPKT_S5_PbPT0_
libcaffe2.so:_ZN6caffe24math2GTIfNS_10CPUContextEEEviPKT_S5_PbPT0_
libcaffe2.so:_ZN6caffe24math2GTIiNS_10CPUContextEEEviPKT_S5_PbPT0_
libcaffe2.so:_ZN6caffe24math2GTIlNS_10CPUContextEEEviPKT_S5_PbPT0_
libcaffe2.so:_ZN6caffe24math2LEIfNS_10CPUContextEEEviPKT_S5_PbPT0_
libcaffe2.so:_ZN6caffe24math2LEIiNS_10CPUContextEEEviPKT_S5_PbPT0_
libcaffe2.so:_ZN6caffe24math2LEIlNS_10CPUContextEEEviPKT_S5_PbPT0_
libcaffe2.so:_ZN6caffe24math2LTIfNS_10CPUContextEEEviPKT_S5_PbPT0_
libcaffe2.so:_ZN6caffe24math2LTIiNS_10CPUContextEEEviPKT_S5_PbPT0_
libcaffe2.so:_ZN6caffe24math2LTIlNS_10CPUContextEEEviPKT_S5_PbPT0_
libcaffe2.so:_ZN6caffe24math2OrIbNS_10CPUContextEEEviPKT_S5_PbPT0_
libcaffe2.so:_ZN6caffe24math3AbsIfNS_10CPUContextEEEviPKT_PS3_PT0_
libcaffe2.so:_ZN6caffe24math3AddIfNS_10CPUContextEEEviPKT_S5_PS3_PT0_
libcaffe2.so:_ZN6caffe24math3AddIiNS_10CPUContextEEEviPKT_S5_PS3_PT0_
libcaffe2.so:_ZN6caffe24math3AddIlNS_10CPUContextEEEviPKT_S5_PS3_PT0_
libcaffe2.so:_ZN6caffe24math3AndIbNS_10CPUContextEEEviPKT_S5_PbPT0_
libcaffe2.so:_ZN6caffe24math3CosIfNS_10CPUContextEEEviPKT_PS3_PT0_
libcaffe2.so:_ZN6caffe24math3DivIfNS_10CPUContextEEEviPKT_S5_PS3_PT0_
libcaffe2.so:_ZN6caffe24math3DivIiNS_10CPUContextEEEviPKT_S5_PS3_PT0_
libcaffe2.so:_ZN6caffe24math3DivIlNS_10CPUContextEEEviPKT_S5_PS3_PT0_
libcaffe2.so:_ZN6caffe24math3DotIfNS_10CPUContextEEEviPKT_S5_PS3_PT0_
libcaffe2.so:_ZN6caffe24math3ExpIfNS_10CPUContextEEEviPKT_PS3_PT0_
libcaffe2.so:_ZN6caffe24math3LogIfNS_10CPUContextEEEviPKT_PS3_PT0_
libcaffe2.so:_ZN6caffe24math3MulIfNS_10CPUContextEEEviPKT_S5_PS3_PT0_
libcaffe2.so:_ZN6caffe24math3MulIiNS_10CPUContextEEEviPKT_S5_PS3_PT0_
libcaffe2.so:_ZN6caffe24math3MulIlNS_10CPUContextEEEviPKT_S5_PS3_PT0_
libcaffe2.so:_ZN6caffe24math3NotIbNS_10CPUContextEEEviPKT_PS3_PT0_
libcaffe2.so:_ZN6caffe24math3SetIaNS_10CPUContextEEEvmT_PS3_PT0_
libcaffe2.so:_ZN6caffe24math3SetIbNS_10CPUContextEEEvmT_PS3_PT0_
libcaffe2.so:_ZN6caffe24math3SetIcNS_10CPUContextEEEvmT_PS3_PT0_
libcaffe2.so:_ZN6caffe24math3SetIdNS_10CPUContextEEEvmT_PS3_PT0_
libcaffe2.so:_ZN6caffe24math3SetIfNS_10CPUContextEEEvmT_PS3_PT0_
libcaffe2.so:_ZN6caffe24math3SetIhNS_10CPUContextEEEvmT_PS3_PT0_
libcaffe2.so:_ZN6caffe24math3SetIiNS_10CPUContextEEEvmT_PS3_PT0_
libcaffe2.so:_ZN6caffe24math3SetIlNS_10CPUContextEEEvmT_PS3_PT0_
libcaffe2.so:_ZN6caffe24math3SetIsNS_10CPUContextEEEvmT_PS3_PT0_
libcaffe2.so:_ZN6caffe24math3SetItNS_10CPUContextEEEvmT_PS3_PT0_
libcaffe2.so:_ZN6caffe24math3SinIfNS_10CPUContextEEEviPKT_PS3_PT0_
libcaffe2.so:_ZN6caffe24math3SqrIfNS_10CPUContextEEEviPKT_PS3_PT0_
libcaffe2.so:_ZN6caffe24math3SubIfNS_10CPUContextEEEviPKT_S5_PS3_PT0_
libcaffe2.so:_ZN6caffe24math3SubIiNS_10CPUContextEEEviPKT_S5_PS3_PT0_
libcaffe2.so:_ZN6caffe24math3SubIlNS_10CPUContextEEEviPKT_S5_PS3_PT0_
libcaffe2.so:_ZN6caffe24math3SumIfNS_10CPUContextEEEviPKT_PS3_PT0_PNS_6TensorIS7_EE
libcaffe2.so:_ZN6caffe24math3SumIiNS_10CPUContextEEEviPKT_PS3_PT0_PNS_6TensorIS7_EE
libcaffe2.so:_ZN6caffe24math3SumIlNS_10CPUContextEEEviPKT_PS3_PT0_PNS_6TensorIS7_EE
libcaffe2.so:_ZN6caffe24math3XorIbNS_10CPUContextEEEviPKT_S5_PbPT0_
libcaffe2.so:_ZN6caffe24math4AxpyIfNS_10CPUContextEEEviPKfPKT_PS5_PT0_
libcaffe2.so:_ZN6caffe24math4AxpyIfNS_10CPUContextEEEvifPKT_PS3_PT0_
libcaffe2.so:_ZN6caffe24math4GemmIfNS_10CPUContextENS_13DefaultEngineEEEv15CBLAS_TRANSPOSES4_iiifPKT_S7_fPS5_PT0_NS_20TensorProto_DataTypeE
libcaffe2.so:_ZN6caffe24math4GemvIfNS_10CPUContextENS_13DefaultEngineEEEv15CBLAS_TRANSPOSEiifPKT_S7_fPS5_PT0_NS_20TensorProto_DataTypeE
libcaffe2.so:_ZN6caffe24math4PowxIfNS_10CPUContextEEEviPKT_S3_PS3_PT0_
libcaffe2.so:_ZN6caffe24math4SqrtIfNS_10CPUContextEEEviPKT_PS3_PT0_
libcaffe2.so:_ZN6caffe24math5AxpbyIfNS_10CPUContextEEEvifPKT_S3_PS3_PT0_
libcaffe2.so:_ZN6caffe24math5ScaleIfNS_10CPUContextEEEviPKfPKT_PS5_PT0_
libcaffe2.so:_ZN6caffe24math5ScaleIfNS_10CPUContextEEEvifPKT_PS3_PT0_
libcaffe2.so:_ZN6caffe24math6Col2imIfNS_10CPUContextELi1EEEvPKT_iiiiiiiiiiiiiPS3_PT0_
libcaffe2.so:_ZN6caffe24math6Col2imIfNS_10CPUContextELi2EEEvPKT_iiiiiiiiiiiiiPS3_PT0_
libcaffe2.so:_ZN6caffe24math6GemmExIfNS_10CPUContextENS_13DefaultEngineEEEv15CBLAS_TRANSPOSES4_iiiT_PKS5_iS7_iS5_PS5_iPT0_
libcaffe2.so:_ZN6caffe24math6Im2colIfNS_10CPUContextELi1EEEvPKT_iiiiiiiiiiiiiPS3_PT0_
libcaffe2.so:_ZN6caffe24math6Im2colIfNS_10CPUContextELi2EEEvPKT_iiiiiiiiiiiiiPS3_PT0_
libcaffe2.so:_ZN6caffe24math6SelectIfNS_10CPUContextEEEviiPKT_PKiPS3_PT0_
libcaffe2.so:_ZN6caffe24math6SinCosIdNS_10CPUContextEEEviPKT_PS3_S6_PT0_
libcaffe2.so:_ZN6caffe24math6SinCosIfNS_10CPUContextEEEviPKT_PS3_S6_PT0_
libcaffe2.so:_ZN6caffe24math6SumSqrIfNS_10CPUContextEEEviPKT_PS3_PT0_PNS_6TensorIS7_EE
libcaffe2.so:_ZN6caffe24math7BiasCHWIfNS_10CPUContextEEEvPKT_iiPS3_PT0_
libcaffe2.so:_ZN6caffe24math7GEToRowIfNS_10CPUContextEEEviiPKT_S5_PbPT0_
libcaffe2.so:_ZN6caffe24math7GEToRowIiNS_10CPUContextEEEviiPKT_S5_PbPT0_
libcaffe2.so:_ZN6caffe24math7GEToRowIlNS_10CPUContextEEEviiPKT_S5_PbPT0_
libcaffe2.so:_ZN6caffe24math7GTToRowIfNS_10CPUContextEEEviiPKT_S5_PbPT0_
libcaffe2.so:_ZN6caffe24math7GTToRowIiNS_10CPUContextEEEviiPKT_S5_PbPT0_
libcaffe2.so:_ZN6caffe24math7GTToRowIlNS_10CPUContextEEEviiPKT_S5_PbPT0_
libcaffe2.so:_ZN6caffe24math7InvSqrtIfNS_10CPUContextEEEviPKT_PS3_PT0_
libcaffe2.so:_ZN6caffe24math7LEToRowIfNS_10CPUContextEEEviiPKT_S5_PbPT0_
libcaffe2.so:_ZN6caffe24math7LEToRowIiNS_10CPUContextEEEviiPKT_S5_PbPT0_
libcaffe2.so:_ZN6caffe24math7LEToRowIlNS_10CPUContextEEEviiPKT_S5_PbPT0_
libcaffe2.so:_ZN6caffe24math7LTToRowIfNS_10CPUContextEEEviiPKT_S5_PbPT0_
libcaffe2.so:_ZN6caffe24math7LTToRowIiNS_10CPUContextEEEviiPKT_S5_PbPT0_
libcaffe2.so:_ZN6caffe24math7LTToRowIlNS_10CPUContextEEEviiPKT_S5_PbPT0_
libcaffe2.so:_ZN6caffe24math7MaximumIfNS_10CPUContextEEEvifPKT_PS3_PT0_
libcaffe2.so:_ZN6caffe24math7OrToRowIbNS_10CPUContextEEEviiPKT_S5_PbPT0_
libcaffe2.so:_ZN6caffe24math8AddToColIfNS_10CPUContextEEEviiPKT_PS3_PT0_
libcaffe2.so:_ZN6caffe24math8AddToColIiNS_10CPUContextEEEviiPKT_PS3_PT0_
libcaffe2.so:_ZN6caffe24math8AddToColIlNS_10CPUContextEEEviiPKT_PS3_PT0_
libcaffe2.so:_ZN6caffe24math8AddToRowIfNS_10CPUContextEEEviiPKT_PS3_PT0_
libcaffe2.so:_ZN6caffe24math8AddToRowIfNS_10CPUContextEEEviiPKT_S5_PS3_PT0_
libcaffe2.so:_ZN6caffe24math8AddToRowIiNS_10CPUContextEEEviiPKT_PS3_PT0_
libcaffe2.so:_ZN6caffe24math8AddToRowIiNS_10CPUContextEEEviiPKT_S5_PS3_PT0_
libcaffe2.so:_ZN6caffe24math8AddToRowIlNS_10CPUContextEEEviiPKT_PS3_PT0_
libcaffe2.so:_ZN6caffe24math8AddToRowIlNS_10CPUContextEEEviiPKT_S5_PS3_PT0_
libcaffe2.so:_ZN6caffe24math8AndToRowIbNS_10CPUContextEEEviiPKT_S5_PbPT0_
libcaffe2.so:_ZN6caffe24math8Col2imNdIfNS_10CPUContextELi2EEEvPKT_PKiS7_iiS7_S7_S7_S7_iPS3_PT0_
libcaffe2.so:_ZN6caffe24math8DivToColIfNS_10CPUContextEEEviiPKT_PS3_PT0_
libcaffe2.so:_ZN6caffe24math8DivToColIiNS_10CPUContextEEEviiPKT_PS3_PT0_
libcaffe2.so:_ZN6caffe24math8DivToColIlNS_10CPUContextEEEviiPKT_PS3_PT0_
libcaffe2.so:_ZN6caffe24math8DivToRowIfNS_10CPUContextEEEviiPKT_PS3_PT0_
libcaffe2.so:_ZN6caffe24math8DivToRowIfNS_10CPUContextEEEviiPKT_S5_PS3_PT0_
libcaffe2.so:_ZN6caffe24math8DivToRowIiNS_10CPUContextEEEviiPKT_PS3_PT0_
libcaffe2.so:_ZN6caffe24math8DivToRowIiNS_10CPUContextEEEviiPKT_S5_PS3_PT0_
libcaffe2.so:_ZN6caffe24math8DivToRowIlNS_10CPUContextEEEviiPKT_PS3_PT0_
libcaffe2.so:_ZN6caffe24math8DivToRowIlNS_10CPUContextEEEviiPKT_S5_PS3_PT0_
libcaffe2.so:_ZN6caffe24math8Im2colNdIfNS_10CPUContextELi2EEEvPKT_PKiS7_iiS7_S7_S7_S7_iPS3_PT0_b
libcaffe2.so:_ZN6caffe24math8MulToColIfNS_10CPUContextEEEviiPKT_PS3_PT0_
libcaffe2.so:_ZN6caffe24math8MulToColIiNS_10CPUContextEEEviiPKT_PS3_PT0_
libcaffe2.so:_ZN6caffe24math8MulToColIlNS_10CPUContextEEEviiPKT_PS3_PT0_
libcaffe2.so:_ZN6caffe24math8MulToRowIfNS_10CPUContextEEEviiPKT_PS3_PT0_
libcaffe2.so:_ZN6caffe24math8MulToRowIfNS_10CPUContextEEEviiPKT_S5_PS3_PT0_
libcaffe2.so:_ZN6caffe24math8MulToRowIiNS_10CPUContextEEEviiPKT_PS3_PT0_
libcaffe2.so:_ZN6caffe24math8MulToRowIiNS_10CPUContextEEEviiPKT_S5_PS3_PT0_
libcaffe2.so:_ZN6caffe24math8MulToRowIlNS_10CPUContextEEEviiPKT_PS3_PT0_
libcaffe2.so:_ZN6caffe24math8MulToRowIlNS_10CPUContextEEEviiPKT_S5_PS3_PT0_
libcaffe2.so:_ZN6caffe24math8SubToColIfNS_10CPUContextEEEviiPKT_PS3_PT0_
libcaffe2.so:_ZN6caffe24math8SubToColIiNS_10CPUContextEEEviiPKT_PS3_PT0_
libcaffe2.so:_ZN6caffe24math8SubToColIlNS_10CPUContextEEEviiPKT_PS3_PT0_
libcaffe2.so:_ZN6caffe24math8SubToRowIfNS_10CPUContextEEEviiPKT_PS3_PT0_
libcaffe2.so:_ZN6caffe24math8SubToRowIfNS_10CPUContextEEEviiPKT_S5_PS3_PT0_
libcaffe2.so:_ZN6caffe24math8SubToRowIiNS_10CPUContextEEEviiPKT_PS3_PT0_
libcaffe2.so:_ZN6caffe24math8SubToRowIiNS_10CPUContextEEEviiPKT_S5_PS3_PT0_
libcaffe2.so:_ZN6caffe24math8SubToRowIlNS_10CPUContextEEEviiPKT_PS3_PT0_
libcaffe2.so:_ZN6caffe24math8SubToRowIlNS_10CPUContextEEEviiPKT_S5_PS3_PT0_
libcaffe2.so:_ZN6caffe24math8XorToRowIbNS_10CPUContextEEEviiPKT_S5_PbPT0_
libcaffe2.so:_ZN6caffe24math9ReduceMaxIfNS_10CPUContextEEEviPKT_PS3_PNS_6TensorIT0_EEPS8_
libcaffe2.so:_ZN6caffe24math9ReduceMaxIiNS_10CPUContextEEEviPKT_PS3_PNS_6TensorIT0_EEPS8_
libcaffe2.so:_ZN6caffe24math9ReduceMaxIlNS_10CPUContextEEEviPKT_PS3_PNS_6TensorIT0_EEPS8_
libcaffe2.so:_ZN6caffe24math9ReduceMinIfNS_10CPUContextEEEviPKT_PS3_PNS_6TensorIT0_EEPS8_
libcaffe2.so:_ZN6caffe24math9ReduceSumIfNS_10CPUContextEEEviiiPKiiS4_PKT_PS5_PT0_PNS_6TensorIS9_EE
libcaffe2.so:_ZN6caffe24math9TransposeIdNS_10CPUContextEEEviiPKiS4_PKT_PS5_PT0_
libcaffe2.so:_ZN6caffe24math9TransposeIdNS_10CPUContextEEEviiPKiS4_S4_PKT_PS5_PT0_
libcaffe2.so:_ZN6caffe24math9TransposeIfNS_10CPUContextEEEviiPKiS4_PKT_PS5_PT0_
libcaffe2.so:_ZN6caffe24math9TransposeIfNS_10CPUContextEEEviiPKiS4_S4_PKT_PS5_PT0_
libcaffe2.so:_ZN6caffe24math9TransposeIiNS_10CPUContextEEEviiPKiS4_PKT_PS5_PT0_
libcaffe2.so:_ZN6caffe24math9TransposeIiNS_10CPUContextEEEviiPKiS4_S4_PKT_PS5_PT0_
libcaffe2.so:_ZN6caffe24math9TransposeIlNS_10CPUContextEEEviiPKiS4_PKT_PS5_PT0_
libcaffe2.so:_ZN6caffe24math9TransposeIlNS_10CPUContextEEEviiPKiS4_S4_PKT_PS5_PT0_
libcaffe2.so:_ZN6caffe24onnx12OnnxExporter13IsBlackListedERKNS_8ArgumentE
libcaffe2.so:_ZN6caffe24onnx12OnnxExporter14CreateLrnNodesERKNS_11OperatorDefERKSt13unordered_mapINSt7__cxx1112basic_stringIcSt11char_traitsIcESaIcEEENS_11TensorShapeESt4hashISB_ESt8equal_toISB_ESaISt4pairIKSB_SC_EEE
libcaffe2.so:_ZN6caffe24onnx12OnnxExporter15CreateGemmNodesERKNS_11OperatorDefERKSt13unordered_mapINSt7__cxx1112basic_stringIcSt11char_traitsIcESaIcEEENS_11TensorShapeESt4hashISB_ESt8equal_toISB_ESaISt4pairIKSB_SC_EEE
libcaffe2.so:_ZN6caffe24onnx12OnnxExporter16CreateSliceNodesERKNS_11OperatorDefERKSt13unordered_mapINSt7__cxx1112basic_stringIcSt11char_traitsIcESaIcEEENS_11TensorShapeESt4hashISB_ESt8equal_toISB_ESaISt4pairIKSB_SC_EEE
libcaffe2.so:_ZN6caffe24onnx12OnnxExporter17CreateConcatNodesERKNS_11OperatorDefERKSt13unordered_mapINSt7__cxx1112basic_stringIcSt11char_traitsIcESaIcEEENS_11TensorShapeESt4hashISB_ESt8equal_toISB_ESaISt4pairIKSB_SC_EEE
libcaffe2.so:_ZN6caffe24onnx12OnnxExporter18CreateReshapeNodesERKNS_11OperatorDefERKSt13unordered_mapINSt7__cxx1112basic_stringIcSt11char_traitsIcESaIcEEENS_11TensorShapeESt4hashISB_ESt8equal_toISB_ESaISt4pairIKSB_SC_EEE
libcaffe2.so:_ZN6caffe24onnx12OnnxExporter19Caffe2OpToOnnxNodesERKNS_11OperatorDefERKSt13unordered_mapINSt7__cxx1112basic_stringIcSt11char_traitsIcESaIcEEENS_11TensorShapeESt4hashISB_ESt8equal_toISB_ESaISt4pairIKSB_SC_EEE
libcaffe2.so:_ZN6caffe24onnx12OnnxExporter19CreateConvPoolNodesERKNS_11OperatorDefERKSt13unordered_mapINSt7__cxx1112basic_stringIcSt11char_traitsIcESaIcEEENS_11TensorShapeESt4hashISB_ESt8equal_toISB_ESaISt4pairIKSB_SC_EEE
libcaffe2.so:_ZN6caffe24onnx12OnnxExporter19InitOpToTensorProtoERKNS_11OperatorDefEPN7onnx_c211TensorProtoE
libcaffe2.so:_ZN6caffe24onnx12OnnxExporter23CopyCaffe2ArgToOnnxAttrEPN7onnx_c214AttributeProtoERKNSt7__cxx1112basic_stringIcSt11char_traitsIcESaIcEEERKNS_8ArgumentE
libcaffe2.so:_ZN6caffe24onnx12OnnxExporter25CommonCaffe2OpToOnnxNodesERKNS_11OperatorDefE
libcaffe2.so:_ZN6caffe24onnx12OnnxExporter25CreateChannelShuffleNodesERKNS_11OperatorDefERKSt13unordered_mapINSt7__cxx1112basic_stringIcSt11char_traitsIcESaIcEEENS_11TensorShapeESt4hashISB_ESt8equal_toISB_ESaISt4pairIKSB_SC_EEE
libcaffe2.so:_ZN6caffe24onnx13Caffe2Backend10CreateGemmEPNS0_8OnnxNodeEi
libcaffe2.so:_ZN6caffe24onnx13Caffe2Backend11ConvertNodeERKNSt7__cxx1112basic_stringIcSt11char_traitsIcESaIcEEEi
libcaffe2.so:_ZN6caffe24onnx13Caffe2Backend11CreateSliceEPNS0_8OnnxNodeEi
libcaffe2.so:_ZN6caffe24onnx13Caffe2Backend11CreateSplitEPNS0_8OnnxNodeEi
libcaffe2.so:_ZN6caffe24onnx13Caffe2Backend12CreateConcatEPNS0_8OnnxNodeEi
libcaffe2.so:_ZN6caffe24onnx13Caffe2Backend12CreateGatherEPNS0_8OnnxNodeEi
libcaffe2.so:_ZN6caffe24onnx13Caffe2Backend12CreateMatMulEPNS0_8OnnxNodeEi
libcaffe2.so:_ZN6caffe24onnx13Caffe2Backend12OnnxToCaffe2EPNS_6NetDefES3_RKN7onnx_c210ModelProtoERKNSt7__cxx1112basic_stringIcSt11char_traitsIcESaIcEEEibRKSt6vectorINS0_9Caffe2OpsESaISH_EE
libcaffe2.so:_ZN6caffe24onnx13Caffe2Backend13CreateReshapeEPNS0_8OnnxNodeEi
libcaffe2.so:_ZN6caffe24onnx13Caffe2Backend14CreateConstantEPNS0_8OnnxNodeEi
libcaffe2.so:_ZN6caffe24onnx13Caffe2Backend15AllNamesInGraphB5cxx11ERKN7onnx_c210GraphProtoE
libcaffe2.so:_ZN6caffe24onnx13Caffe2Backend16CreateLogSoftmaxEPNS0_8OnnxNodeEi
libcaffe2.so:_ZN6caffe24onnx13Caffe2Backend16CreateReciprocalEPNS0_8OnnxNodeEi
libcaffe2.so:_ZN6caffe24onnx13Caffe2Backend19OnnxNodeToCaffe2OpsERKN7onnx_c210ModelProtoES5_PNS0_8OnnxNodeEi
libcaffe2.so:_ZN6caffe24onnx13Caffe2Backend20BuildTensorFillingOpEPNS_11OperatorDefERKN7onnx_c211TensorProtoERKNSt7__cxx1112basic_stringIcSt11char_traitsIcESaIcEEE
libcaffe2.so:_ZN6caffe24onnx13Caffe2Backend20CreateConvPoolOpBaseEPNS0_8OnnxNodeEi
libcaffe2.so:_ZN6caffe24onnx13Caffe2Backend22CheckOpSchemaArgumentsERKNS_8OpSchemaERKNS_11OperatorDefE
libcaffe2.so:_ZN6caffe24onnx13Caffe2Backend24CreateBatchNormalizationEPNS0_8OnnxNodeEi
libcaffe2.so:_ZN6caffe24onnx13Caffe2Backend25CommonOnnxNodeToCaffe2OpsEPNS0_8OnnxNodeEi
libcaffe2.so:_ZN6caffe24onnx13Caffe2Backend7PrepareERKNSt7__cxx1112basic_stringIcSt11char_traitsIcESaIcEEES9_RKSt6vectorINS0_9Caffe2OpsESaISB_EE
libcaffe2.so:_ZN6caffe24onnx13Caffe2Backend9CreatePadEPNS0_8OnnxNodeEi
libcaffe2.so:_ZN6caffe24onnx14OnnxAttributesC1ERKN7onnx_c29NodeProtoE
libcaffe2.so:_ZN6caffe24onnx14OnnxAttributesC2ERKN7onnx_c29NodeProtoE
libcaffe2.so:_ZN6caffe24onnx16Caffe2BackendRep3RunERKSt6vectorIPNS_6TensorINS_10CPUContextEEESaIS6_EEPS8_
libcaffe2.so:_ZN6caffe24onnx16Caffe2BackendRep6RunMapERKSt13unordered_mapINSt7__cxx1112basic_stringIcSt11char_traitsIcESaIcEEEPNS_6TensorINS_10CPUContextEEESt4hashIS8_ESt8equal_toIS8_ESaISt4pairIKS8_SC_EEEPSt6vectorISC_SaISC_EE
libcaffe2.so:_ZN6caffe24onnx16Caffe2BackendRep9CheckInitEv
libcaffe2.so:_ZN6caffe24onnx6DeviceC1ERKNSt7__cxx1112basic_stringIcSt11char_traitsIcESaIcEEE
libcaffe2.so:_ZN6caffe24onnx6DeviceC2ERKNSt7__cxx1112basic_stringIcSt11char_traitsIcESaIcEEE
libcaffe2.so:_ZN6caffe24onnx8MakeNodeERKNSt7__cxx1112basic_stringIcSt11char_traitsIcESaIcEEERKSt6vectorIS6_SaIS6_EESD_RKS9_IN7onnx_c214AttributeProtoESaISF_EES8_
libcaffe2.so:_ZN6caffe24onnx9DummyName12NewDummyNameB5cxx11Ev
libcaffe2.so:_ZN6caffe24onnx9DummyName14get_used_namesB5cxx11Ev
libcaffe2.so:_ZN6caffe24onnx9DummyName5ResetERKSt13unordered_setINSt7__cxx1112basic_stringIcSt11char_traitsIcESaIcEEESt4hashIS8_ESt8equal_toIS8_ESaIS8_EE
libcaffe2.so:_ZN6caffe250CAFFE2_PLEASE_ADD_OPERATOR_SCHEMA_FOR_AveragedLossEv
libcaffe2.so:_ZN6caffe250CAFFE2_PLEASE_ADD_OPERATOR_SCHEMA_FOR_BatchToSpaceEv
libcaffe2.so:_ZN6caffe250CAFFE2_PLEASE_ADD_OPERATOR_SCHEMA_FOR_BernoulliJSDEv
libcaffe2.so:_ZN6caffe250CAFFE2_PLEASE_ADD_OPERATOR_SCHEMA_FOR_ChannelStatsEv
libcaffe2.so:_ZN6caffe250CAFFE2_PLEASE_ADD_OPERATOR_SCHEMA_FOR_ClipGradientEv
libcaffe2.so:_ZN6caffe250CAFFE2_PLEASE_ADD_OPERATOR_SCHEMA_FOR_ConstantFillEv
libcaffe2.so:_ZN6caffe250CAFFE2_PLEASE_ADD_OPERATOR_SCHEMA_FOR_ConvGradientEv
libcaffe2.so:_ZN6caffe250CAFFE2_PLEASE_ADD_OPERATOR_SCHEMA_FOR_CopyCPUToGPUEv
libcaffe2.so:_ZN6caffe250CAFFE2_PLEASE_ADD_OPERATOR_SCHEMA_FOR_CopyGPUToCPUEv
libcaffe2.so:_ZN6caffe250CAFFE2_PLEASE_ADD_OPERATOR_SCHEMA_FOR_CrossEntropyEv
libcaffe2.so:_ZN6caffe250CAFFE2_PLEASE_ADD_OPERATOR_SCHEMA_FOR_DequeueBlobsEv
libcaffe2.so:_ZN6caffe250CAFFE2_PLEASE_ADD_OPERATOR_SCHEMA_FOR_DiagonalFillEv
libcaffe2.so:_ZN6caffe250CAFFE2_PLEASE_ADD_OPERATOR_SCHEMA_FOR_EnqueueBlobsEv
libcaffe2.so:_ZN6caffe250CAFFE2_PLEASE_ADD_OPERATOR_SCHEMA_FOR_FCTransposedEv
libcaffe2.so:_ZN6caffe250CAFFE2_PLEASE_ADD_OPERATOR_SCHEMA_FOR_FlattenToVecEv
libcaffe2.so:_ZN6caffe250CAFFE2_PLEASE_ADD_OPERATOR_SCHEMA_FOR_FlexibleTopKEv
libcaffe2.so:_ZN6caffe250CAFFE2_PLEASE_ADD_OPERATOR_SCHEMA_FOR_GatherRangesEv
libcaffe2.so:_ZN6caffe250CAFFE2_PLEASE_ADD_OPERATOR_SCHEMA_FOR_GaussianFillEv
libcaffe2.so:_ZN6caffe250CAFFE2_PLEASE_ADD_OPERATOR_SCHEMA_FOR_InstanceNormEv
libcaffe2.so:_ZN6caffe250CAFFE2_PLEASE_ADD_OPERATOR_SCHEMA_FOR_LC1DGradientEv
libcaffe2.so:_ZN6caffe250CAFFE2_PLEASE_ADD_OPERATOR_SCHEMA_FOR_LC2DGradientEv
libcaffe2.so:_ZN6caffe250CAFFE2_PLEASE_ADD_OPERATOR_SCHEMA_FOR_LC3DGradientEv
libcaffe2.so:_ZN6caffe250CAFFE2_PLEASE_ADD_OPERATOR_SCHEMA_FOR_LearningRateEv
libcaffe2.so:_ZN6caffe250CAFFE2_PLEASE_ADD_OPERATOR_SCHEMA_FOR_MPIAllgatherEv
libcaffe2.so:_ZN6caffe250CAFFE2_PLEASE_ADD_OPERATOR_SCHEMA_FOR_MPIAllreduceEv
libcaffe2.so:_ZN6caffe250CAFFE2_PLEASE_ADD_OPERATOR_SCHEMA_FOR_MPIBroadcastEv
libcaffe2.so:_ZN6caffe250CAFFE2_PLEASE_ADD_OPERATOR_SCHEMA_FOR_MakeTwoClassEv
libcaffe2.so:_ZN6caffe250CAFFE2_PLEASE_ADD_OPERATOR_SCHEMA_FOR_MeanGradientEv
libcaffe2.so:_ZN6caffe250CAFFE2_PLEASE_ADD_OPERATOR_SCHEMA_FOR_PackSegmentsEv
libcaffe2.so:_ZN6caffe250CAFFE2_PLEASE_ADD_OPERATOR_SCHEMA_FOR_ReluGradientEv
libcaffe2.so:_ZN6caffe250CAFFE2_PLEASE_ADD_OPERATOR_SCHEMA_FOR_ResetCounterEv
libcaffe2.so:_ZN6caffe250CAFFE2_PLEASE_ADD_OPERATOR_SCHEMA_FOR_SeluGradientEv
libcaffe2.so:_ZN6caffe250CAFFE2_PLEASE_ADD_OPERATOR_SCHEMA_FOR_SequenceMaskEv
libcaffe2.so:_ZN6caffe250CAFFE2_PLEASE_ADD_OPERATOR_SCHEMA_FOR_SpaceToBatchEv
libcaffe2.so:_ZN6caffe250CAFFE2_PLEASE_ADD_OPERATOR_SCHEMA_FOR_StopGradientEv
libcaffe2.so:_ZN6caffe250CAFFE2_PLEASE_ADD_OPERATOR_SCHEMA_FOR_TanhGradientEv
libcaffe2.so:_ZN6caffe250CAFFE2_PLEASE_ADD_OPERATOR_SCHEMA_FOR_TileGradientEv
libcaffe2.so:_ZN6caffe250CAFFE2_PLEASE_ADD_OPERATOR_SCHEMA_FOR_TopKGradientEv
libcaffe2.so:_ZN6caffe250CAFFE2_PLEASE_ADD_OPERATOR_SCHEMA_FOR_ZeroGradientEv
libcaffe2.so:_ZN6caffe250EmbeddingLookup_int32_t_float_float_true__avx2_fmaEllllPKfPKiS3_S1_S1_bPf
libcaffe2.so:_ZN6caffe250EmbeddingLookup_int64_t_float_float_true__avx2_fmaEllllPKfPKlPKiS1_S1_bPf
libcaffe2.so:_ZN6caffe251CAFFE2_PLEASE_ADD_OPERATOR_SCHEMA_FOR_AveragePool1DEv
libcaffe2.so:_ZN6caffe251CAFFE2_PLEASE_ADD_OPERATOR_SCHEMA_FOR_AveragePool2DEv
libcaffe2.so:_ZN6caffe251CAFFE2_PLEASE_ADD_OPERATOR_SCHEMA_FOR_AveragePool3DEv
libcaffe2.so:_ZN6caffe251CAFFE2_PLEASE_ADD_OPERATOR_SCHEMA_FOR_BooleanUnmaskEv
libcaffe2.so:_ZN6caffe251CAFFE2_PLEASE_ADD_OPERATOR_SCHEMA_FOR_ConvTransposeEv
libcaffe2.so:_ZN6caffe251CAFFE2_PLEASE_ADD_OPERATOR_SCHEMA_FOR_CreateCounterEv
libcaffe2.so:_ZN6caffe251CAFFE2_PLEASE_ADD_OPERATOR_SCHEMA_FOR_GatherPaddingEv
libcaffe2.so:_ZN6caffe251CAFFE2_PLEASE_ADD_OPERATOR_SCHEMA_FOR_LengthsGatherEv
libcaffe2.so:_ZN6caffe251CAFFE2_PLEASE_ADD_OPERATOR_SCHEMA_FOR_LogitGradientEv
libcaffe2.so:_ZN6caffe251CAFFE2_PLEASE_ADD_OPERATOR_SCHEMA_FOR_MPISendTensorEv
libcaffe2.so:_ZN6caffe251CAFFE2_PLEASE_ADD_OPERATOR_SCHEMA_FOR_PReluGradientEv
libcaffe2.so:_ZN6caffe251CAFFE2_PLEASE_ADD_OPERATOR_SCHEMA_FOR_ReceiveTensorEv
libcaffe2.so:_ZN6caffe251CAFFE2_PLEASE_ADD_OPERATOR_SCHEMA_FOR_ReduceBackMaxEv
libcaffe2.so:_ZN6caffe251CAFFE2_PLEASE_ADD_OPERATOR_SCHEMA_FOR_ReduceBackSumEv
libcaffe2.so:_ZN6caffe251CAFFE2_PLEASE_ADD_OPERATOR_SCHEMA_FOR_ReduceScatterEv
libcaffe2.so:_ZN6caffe251CAFFE2_PLEASE_ADD_OPERATOR_SCHEMA_FOR_RemovePaddingEv
libcaffe2.so:_ZN6caffe251CAFFE2_PLEASE_ADD_OPERATOR_SCHEMA_FOR_ResizeNearestEv
libcaffe2.so:_ZN6caffe251CAFFE2_PLEASE_ADD_OPERATOR_SCHEMA_FOR_RetrieveCountEv
libcaffe2.so:_ZN6caffe251CAFFE2_PLEASE_ADD_OPERATOR_SCHEMA_FOR_RowWiseArgMaxEv
libcaffe2.so:_ZN6caffe251CAFFE2_PLEASE_ADD_OPERATOR_SCHEMA_FOR_ScatterAssignEv
libcaffe2.so:_ZN6caffe251CAFFE2_PLEASE_ADD_OPERATOR_SCHEMA_FOR_SegmentOneHotEv
libcaffe2.so:_ZN6caffe251CAFFE2_PLEASE_ADD_OPERATOR_SCHEMA_FOR_SliceGradientEv
libcaffe2.so:_ZN6caffe251CAFFE2_PLEASE_ADD_OPERATOR_SCHEMA_FOR_SparseAdagradEv
libcaffe2.so:_ZN6caffe251CAFFE2_PLEASE_ADD_OPERATOR_SCHEMA_FOR_SparseToDenseEv
libcaffe2.so:_ZN6caffe251CAFFE2_PLEASE_ADD_OPERATOR_SCHEMA_FOR_SumReduceLikeEv
libcaffe2.so:_ZN6caffe251CAFFE2_PLEASE_ADD_OPERATOR_SCHEMA_FOR_SwishGradientEv
libcaffe2.so:_ZN6caffe251CAFFE2_PLEASE_ADD_OPERATOR_SCHEMA_FOR_WallClockTimeEv
libcaffe2.so:_ZN6caffe251EmbeddingLookup_int32_t_float_float_false__avx2_fmaEllllPKfPKiS3_S1_S1_bPf
libcaffe2.so:_ZN6caffe251EmbeddingLookup_int64_t_float_float_false__avx2_fmaEllllPKfPKlPKiS1_S1_bPf
libcaffe2.so:_ZN6caffe252CAFFE2_PLEASE_ADD_OPERATOR_SCHEMA_FOR_ChannelShuffleEv
libcaffe2.so:_ZN6caffe252CAFFE2_PLEASE_ADD_OPERATOR_SCHEMA_FOR_Conv1DGradientEv
libcaffe2.so:_ZN6caffe252CAFFE2_PLEASE_ADD_OPERATOR_SCHEMA_FOR_Conv2DGradientEv
libcaffe2.so:_ZN6caffe252CAFFE2_PLEASE_ADD_OPERATOR_SCHEMA_FOR_Conv3DGradientEv
libcaffe2.so:_ZN6caffe252CAFFE2_PLEASE_ADD_OPERATOR_SCHEMA_FOR_IntIndexCreateEv
libcaffe2.so:_ZN6caffe252CAFFE2_PLEASE_ADD_OPERATOR_SCHEMA_FOR_LengthsToShapeEv
libcaffe2.so:_ZN6caffe252CAFFE2_PLEASE_ADD_OPERATOR_SCHEMA_FOR_LpPoolGradientEv
libcaffe2.so:_ZN6caffe252CAFFE2_PLEASE_ADD_OPERATOR_SCHEMA_FOR_NegateGradientEv
libcaffe2.so:_ZN6caffe252CAFFE2_PLEASE_ADD_OPERATOR_SCHEMA_FOR_ReduceBackMeanEv
libcaffe2.so:_ZN6caffe252CAFFE2_PLEASE_ADD_OPERATOR_SCHEMA_FOR_ReduceFrontMaxEv
libcaffe2.so:_ZN6caffe252CAFFE2_PLEASE_ADD_OPERATOR_SCHEMA_FOR_ReduceFrontSumEv
libcaffe2.so:_ZN6caffe252CAFFE2_PLEASE_ADD_OPERATOR_SCHEMA_FOR_StumpFuncIndexEv
libcaffe2.so:_ZN6caffe252CAFFE2_PLEASE_ADD_OPERATOR_SCHEMA_FOR_SumElementsIntEv
libcaffe2.so:_ZN6caffe252CAFFE2_PLEASE_ADD_OPERATOR_SCHEMA_FOR_SumSqrElementsEv
libcaffe2.so:_ZN6caffe252CAFFE2_PLEASE_ADD_OPERATOR_SCHEMA_FOR_TimerGetAndEndEv
libcaffe2.so:_ZN6caffe252CAFFE2_PLEASE_ADD_OPERATOR_SCHEMA_FOR_UniformIntFillEv
libcaffe2.so:_ZN6caffe252CAFFE2_PLEASE_ADD_OPERATOR_SCHEMA_FOR_UnpackSegmentsEv
libcaffe2.so:_ZN6caffe252CAFFE2_PLEASE_ADD_OPERATOR_SCHEMA_FOR_UnsafeCoalesceEv
libcaffe2.so:_ZN6caffe252CAFFE2_PLEASE_ADD_OPERATOR_SCHEMA_FOR_WeightedSampleEv
libcaffe2.so:_ZN6caffe252EmbeddingLookup_int32_t_float16_float_true__avx2_fmaEllllPKNS_5__f16EPKiS4_PKfS6_bPf
libcaffe2.so:_ZN6caffe252EmbeddingLookup_int32_t_uint8_t_float_true__avx2_fmaEllllPKhPKiS3_PKfS5_bPf
libcaffe2.so:_ZN6caffe252EmbeddingLookup_int64_t_float16_float_true__avx2_fmaEllllPKNS_5__f16EPKlPKiPKfS8_bPf
libcaffe2.so:_ZN6caffe252EmbeddingLookup_int64_t_uint8_t_float_true__avx2_fmaEllllPKhPKlPKiPKfS7_bPf
libcaffe2.so:_ZN6caffe253CAFFE2_PLEASE_ADD_OPERATOR_SCHEMA_FOR_CloseBlobsQueueEv
libcaffe2.so:_ZN6caffe253CAFFE2_PLEASE_ADD_OPERATOR_SCHEMA_FOR_EnsureCPUOutputEv
libcaffe2.so:_ZN6caffe253CAFFE2_PLEASE_ADD_OPERATOR_SCHEMA_FOR_GRUUnitGradientEv
libcaffe2.so:_ZN6caffe253CAFFE2_PLEASE_ADD_OPERATOR_SCHEMA_FOR_GivenTensorFillEv
libcaffe2.so:_ZN6caffe253CAFFE2_PLEASE_ADD_OPERATOR_SCHEMA_FOR_LengthsToRangesEv
libcaffe2.so:_ZN6caffe253CAFFE2_PLEASE_ADD_OPERATOR_SCHEMA_FOR_LongIndexCreateEv
libcaffe2.so:_ZN6caffe253CAFFE2_PLEASE_ADD_OPERATOR_SCHEMA_FOR_MaxPoolGradientEv
libcaffe2.so:_ZN6caffe253CAFFE2_PLEASE_ADD_OPERATOR_SCHEMA_FOR_PadEmptySamplesEv
libcaffe2.so:_ZN6caffe253CAFFE2_PLEASE_ADD_OPERATOR_SCHEMA_FOR_ReduceFrontMeanEv
libcaffe2.so:_ZN6caffe253CAFFE2_PLEASE_ADD_OPERATOR_SCHEMA_FOR_RoIPoolGradientEv
libcaffe2.so:_ZN6caffe253CAFFE2_PLEASE_ADD_OPERATOR_SCHEMA_FOR_SigmoidGradientEv
libcaffe2.so:_ZN6caffe253CAFFE2_PLEASE_ADD_OPERATOR_SCHEMA_FOR_SoftmaxGradientEv
libcaffe2.so:_ZN6caffe253CAFFE2_PLEASE_ADD_OPERATOR_SCHEMA_FOR_SoftmaxWithLossEv
libcaffe2.so:_ZN6caffe253CAFFE2_PLEASE_ADD_OPERATOR_SCHEMA_FOR_SparseNormalizeEv
libcaffe2.so:_ZN6caffe253CAFFE2_PLEASE_ADD_OPERATOR_SCHEMA_FOR_ThresholdedReluEv
libcaffe2.so:_ZN6caffe253EmbeddingLookup_int32_t_float16_float_false__avx2_fmaEllllPKNS_5__f16EPKiS4_PKfS6_bPf
libcaffe2.so:_ZN6caffe253EmbeddingLookup_int32_t_uint8_t_float_false__avx2_fmaEllllPKhPKiS3_PKfS5_bPf
libcaffe2.so:_ZN6caffe253EmbeddingLookup_int64_t_float16_float_false__avx2_fmaEllllPKNS_5__f16EPKlPKiPKfS8_bPf
libcaffe2.so:_ZN6caffe253EmbeddingLookup_int64_t_uint8_t_float_false__avx2_fmaEllllPKhPKlPKiPKfS7_bPf
libcaffe2.so:_ZN6caffe254CAFFE2_PLEASE_ADD_OPERATOR_SCHEMA_FOR_CheckCounterDoneEv
libcaffe2.so:_ZN6caffe254CAFFE2_PLEASE_ADD_OPERATOR_SCHEMA_FOR_CloneCommonWorldEv
libcaffe2.so:_ZN6caffe254CAFFE2_PLEASE_ADD_OPERATOR_SCHEMA_FOR_CopyFromCPUInputEv
libcaffe2.so:_ZN6caffe254CAFFE2_PLEASE_ADD_OPERATOR_SCHEMA_FOR_CopyOnDeviceLikeEv
libcaffe2.so:_ZN6caffe254CAFFE2_PLEASE_ADD_OPERATOR_SCHEMA_FOR_CosineSimilarityEv
libcaffe2.so:_ZN6caffe254CAFFE2_PLEASE_ADD_OPERATOR_SCHEMA_FOR_CreateBlobsQueueEv
libcaffe2.so:_ZN6caffe254CAFFE2_PLEASE_ADD_OPERATOR_SCHEMA_FOR_LSTMUnitGradientEv
libcaffe2.so:_ZN6caffe254CAFFE2_PLEASE_ADD_OPERATOR_SCHEMA_FOR_LengthsRangeFillEv
libcaffe2.so:_ZN6caffe254CAFFE2_PLEASE_ADD_OPERATOR_SCHEMA_FOR_LengthsToWeightsEv
libcaffe2.so:_ZN6caffe254CAFFE2_PLEASE_ADD_OPERATOR_SCHEMA_FOR_MPIReceiveTensorEv
libcaffe2.so:_ZN6caffe254CAFFE2_PLEASE_ADD_OPERATOR_SCHEMA_FOR_PadImageGradientEv
libcaffe2.so:_ZN6caffe254CAFFE2_PLEASE_ADD_OPERATOR_SCHEMA_FOR_RecurrentNetworkEv
libcaffe2.so:_ZN6caffe254CAFFE2_PLEASE_ADD_OPERATOR_SCHEMA_FOR_RoIAlignGradientEv
libcaffe2.so:_ZN6caffe254CAFFE2_PLEASE_ADD_OPERATOR_SCHEMA_FOR_SafeDequeueBlobsEv
libcaffe2.so:_ZN6caffe254CAFFE2_PLEASE_ADD_OPERATOR_SCHEMA_FOR_SafeEnqueueBlobsEv
libcaffe2.so:_ZN6caffe254CAFFE2_PLEASE_ADD_OPERATOR_SCHEMA_FOR_SoftplusGradientEv
libcaffe2.so:_ZN6caffe254CAFFE2_PLEASE_ADD_OPERATOR_SCHEMA_FOR_SoftsignGradientEv
libcaffe2.so:_ZN6caffe254CAFFE2_PLEASE_ADD_OPERATOR_SCHEMA_FOR_SquareRootDivideEv
libcaffe2.so:_ZN6caffe255CAFFE2_PLEASE_ADD_OPERATOR_SCHEMA_FOR_BatchBucketOneHotEv
libcaffe2.so:_ZN6caffe255CAFFE2_PLEASE_ADD_OPERATOR_SCHEMA_FOR_ColumnMaxGradientEv
libcaffe2.so:_ZN6caffe255CAFFE2_PLEASE_ADD_OPERATOR_SCHEMA_FOR_CreateCommonWorldEv
libcaffe2.so:_ZN6caffe255CAFFE2_PLEASE_ADD_OPERATOR_SCHEMA_FOR_ElementwiseLinearEv
libcaffe2.so:_ZN6caffe255CAFFE2_PLEASE_ADD_OPERATOR_SCHEMA_FOR_GroupNormGradientEv
libcaffe2.so:_ZN6caffe255CAFFE2_PLEASE_ADD_OPERATOR_SCHEMA_FOR_LabelCrossEntropyEv
libcaffe2.so:_ZN6caffe255CAFFE2_PLEASE_ADD_OPERATOR_SCHEMA_FOR_LayerNormGradientEv
libcaffe2.so:_ZN6caffe255CAFFE2_PLEASE_ADD_OPERATOR_SCHEMA_FOR_LeakyReluGradientEv
libcaffe2.so:_ZN6caffe255CAFFE2_PLEASE_ADD_OPERATOR_SCHEMA_FOR_MaxPool1DGradientEv
libcaffe2.so:_ZN6caffe255CAFFE2_PLEASE_ADD_OPERATOR_SCHEMA_FOR_MaxPool2DGradientEv
libcaffe2.so:_ZN6caffe255CAFFE2_PLEASE_ADD_OPERATOR_SCHEMA_FOR_MaxPool3DGradientEv
libcaffe2.so:_ZN6caffe255CAFFE2_PLEASE_ADD_OPERATOR_SCHEMA_FOR_MomentumSGDUpdateEv
libcaffe2.so:_ZN6caffe255CAFFE2_PLEASE_ADD_OPERATOR_SCHEMA_FOR_NormalizeGradientEv
libcaffe2.so:_ZN6caffe255CAFFE2_PLEASE_ADD_OPERATOR_SCHEMA_FOR_ReversePackedSegsEv
libcaffe2.so:_ZN6caffe255CAFFE2_PLEASE_ADD_OPERATOR_SCHEMA_FOR_RowWiseSparseAdamEv
libcaffe2.so:_ZN6caffe255CAFFE2_PLEASE_ADD_OPERATOR_SCHEMA_FOR_SpatialBNGradientEv
libcaffe2.so:_ZN6caffe255CAFFE2_PLEASE_ADD_OPERATOR_SCHEMA_FOR_SquaredL2DistanceEv
libcaffe2.so:_ZN6caffe255CAFFE2_PLEASE_ADD_OPERATOR_SCHEMA_FOR_StringIndexCreateEv
libcaffe2.so:_ZN6caffe255CAFFE2_PLEASE_ADD_OPERATOR_SCHEMA_FOR_UniqueUniformFillEv
libcaffe2.so:_ZN6caffe256CAFFE2_PLEASE_ADD_OPERATOR_SCHEMA_FOR_BatchDenseToSparseEv
libcaffe2.so:_ZN6caffe256CAFFE2_PLEASE_ADD_OPERATOR_SCHEMA_FOR_BatchSparseToDenseEv
libcaffe2.so:_ZN6caffe256CAFFE2_PLEASE_ADD_OPERATOR_SCHEMA_FOR_BooleanMaskLengthsEv
libcaffe2.so:_ZN6caffe256CAFFE2_PLEASE_ADD_OPERATOR_SCHEMA_FOR_ColwiseMaxGradientEv
libcaffe2.so:_ZN6caffe256CAFFE2_PLEASE_ADD_OPERATOR_SCHEMA_FOR_DeformConvGradientEv
libcaffe2.so:_ZN6caffe256CAFFE2_PLEASE_ADD_OPERATOR_SCHEMA_FOR_DestroyCommonWorldEv
libcaffe2.so:_ZN6caffe256CAFFE2_PLEASE_ADD_OPERATOR_SCHEMA_FOR_DotProductGradientEv
libcaffe2.so:_ZN6caffe256CAFFE2_PLEASE_ADD_OPERATOR_SCHEMA_FOR_GivenTensorIntFillEv
libcaffe2.so:_ZN6caffe256CAFFE2_PLEASE_ADD_OPERATOR_SCHEMA_FOR_L1DistanceGradientEv
libcaffe2.so:_ZN6caffe256CAFFE2_PLEASE_ADD_OPERATOR_SCHEMA_FOR_MultiClassAccuracyEv
libcaffe2.so:_ZN6caffe256CAFFE2_PLEASE_ADD_OPERATOR_SCHEMA_FOR_RowwiseMaxGradientEv
libcaffe2.so:_ZN6caffe256CAFFE2_PLEASE_ADD_OPERATOR_SCHEMA_FOR_ScatterWeightedSumEv
libcaffe2.so:_ZN6caffe256CAFFE2_PLEASE_ADD_OPERATOR_SCHEMA_FOR_SegmentIdsToRangesEv
libcaffe2.so:_ZN6caffe256CAFFE2_PLEASE_ADD_OPERATOR_SCHEMA_FOR_StatRegistryCreateEv
libcaffe2.so:_ZN6caffe256CAFFE2_PLEASE_ADD_OPERATOR_SCHEMA_FOR_StatRegistryExportEv
libcaffe2.so:_ZN6caffe256CAFFE2_PLEASE_ADD_OPERATOR_SCHEMA_FOR_StatRegistryUpdateEv
libcaffe2.so:_ZN6caffe256CAFFE2_PLEASE_ADD_OPERATOR_SCHEMA_FOR_TextFileReaderReadEv
libcaffe2.so:_ZN6caffe257CAFFE2_PLEASE_ADD_OPERATOR_SCHEMA_FOR_AccumulateHistogramEv
libcaffe2.so:_ZN6caffe257CAFFE2_PLEASE_ADD_OPERATOR_SCHEMA_FOR_AveragePoolGradientEv
libcaffe2.so:_ZN6caffe257CAFFE2_PLEASE_ADD_OPERATOR_SCHEMA_FOR_BatchGatherGradientEv
libcaffe2.so:_ZN6caffe257CAFFE2_PLEASE_ADD_OPERATOR_SCHEMA_FOR_ClipTensorByScalingEv
libcaffe2.so:_ZN6caffe257CAFFE2_PLEASE_ADD_OPERATOR_SCHEMA_FOR_Float16ConstantFillEv
libcaffe2.so:_ZN6caffe257CAFFE2_PLEASE_ADD_OPERATOR_SCHEMA_FOR_GivenTensorBoolFillEv
libcaffe2.so:_ZN6caffe257CAFFE2_PLEASE_ADD_OPERATOR_SCHEMA_FOR_LengthsToSegmentIdsEv
libcaffe2.so:_ZN6caffe257CAFFE2_PLEASE_ADD_OPERATOR_SCHEMA_FOR_LengthsTopKGradientEv
libcaffe2.so:_ZN6caffe257CAFFE2_PLEASE_ADD_OPERATOR_SCHEMA_FOR_QuantDecodeGradientEv
libcaffe2.so:_ZN6caffe257CAFFE2_PLEASE_ADD_OPERATOR_SCHEMA_FOR_SegmentIdsToLengthsEv
libcaffe2.so:_ZN6caffe257CAFFE2_PLEASE_ADD_OPERATOR_SCHEMA_FOR_SumElementsGradientEv
libcaffe2.so:_ZN6caffe257CAFFE2_PLEASE_ADD_OPERATOR_SCHEMA_FOR_TensorProtosDBInputEv
libcaffe2.so:_ZN6caffe257CAFFE2_PLEASE_ADD_OPERATOR_SCHEMA_FOR_WeightedSumGradientEv
libcaffe2.so:_ZN6caffe258CAFFE2_PLEASE_ADD_OPERATOR_SCHEMA_FOR_AveragedLossGradientEv
libcaffe2.so:_ZN6caffe258CAFFE2_PLEASE_ADD_OPERATOR_SCHEMA_FOR_BernoulliJSDGradientEv
libcaffe2.so:_ZN6caffe258CAFFE2_PLEASE_ADD_OPERATOR_SCHEMA_FOR_ChannelBackpropStatsEv
libcaffe2.so:_ZN6caffe258CAFFE2_PLEASE_ADD_OPERATOR_SCHEMA_FOR_CpuUtilizationReportEv
libcaffe2.so:_ZN6caffe258CAFFE2_PLEASE_ADD_OPERATOR_SCHEMA_FOR_CreateTextFileReaderEv
libcaffe2.so:_ZN6caffe258CAFFE2_PLEASE_ADD_OPERATOR_SCHEMA_FOR_CrossEntropyGradientEv
libcaffe2.so:_ZN6caffe258CAFFE2_PLEASE_ADD_OPERATOR_SCHEMA_FOR_FCTransposedGradientEv
libcaffe2.so:_ZN6caffe258CAFFE2_PLEASE_ADD_OPERATOR_SCHEMA_FOR_FlexibleTopKGradientEv
libcaffe2.so:_ZN6caffe258CAFFE2_PLEASE_ADD_OPERATOR_SCHEMA_FOR_GivenTensorInt64FillEv
libcaffe2.so:_ZN6caffe258CAFFE2_PLEASE_ADD_OPERATOR_SCHEMA_FOR_InstanceNormGradientEv
libcaffe2.so:_ZN6caffe258CAFFE2_PLEASE_ADD_OPERATOR_SCHEMA_FOR_MPICreateCommonWorldEv
libcaffe2.so:_ZN6caffe258CAFFE2_PLEASE_ADD_OPERATOR_SCHEMA_FOR_MakeTwoClassGradientEv
libcaffe2.so:_ZN6caffe258CAFFE2_PLEASE_ADD_OPERATOR_SCHEMA_FOR_NGramFromCategoricalEv
libcaffe2.so:_ZN6caffe258CAFFE2_PLEASE_ADD_OPERATOR_SCHEMA_FOR_RowWiseSparseAdagradEv
libcaffe2.so:_ZN6caffe259CAFFE2_PLEASE_ADD_OPERATOR_SCHEMA_FOR_AveragePool1DGradientEv
libcaffe2.so:_ZN6caffe259CAFFE2_PLEASE_ADD_OPERATOR_SCHEMA_FOR_AveragePool2DGradientEv
libcaffe2.so:_ZN6caffe259CAFFE2_PLEASE_ADD_OPERATOR_SCHEMA_FOR_AveragePool3DGradientEv
libcaffe2.so:_ZN6caffe259CAFFE2_PLEASE_ADD_OPERATOR_SCHEMA_FOR_ConvTransposeGradientEv
libcaffe2.so:_ZN6caffe259CAFFE2_PLEASE_ADD_OPERATOR_SCHEMA_FOR_DotProductWithPaddingEv
libcaffe2.so:_ZN6caffe259CAFFE2_PLEASE_ADD_OPERATOR_SCHEMA_FOR_GivenTensorDoubleFillEv
libcaffe2.so:_ZN6caffe259CAFFE2_PLEASE_ADD_OPERATOR_SCHEMA_FOR_GivenTensorStringFillEv
libcaffe2.so:_ZN6caffe259CAFFE2_PLEASE_ADD_OPERATOR_SCHEMA_FOR_ReduceBackMaxGradientEv
libcaffe2.so:_ZN6caffe259CAFFE2_PLEASE_ADD_OPERATOR_SCHEMA_FOR_ReduceBackSumGradientEv
libcaffe2.so:_ZN6caffe259CAFFE2_PLEASE_ADD_OPERATOR_SCHEMA_FOR_ResizeNearestGradientEv
libcaffe2.so:_ZN6caffe259CAFFE2_PLEASE_ADD_OPERATOR_SCHEMA_FOR_WeightedMultiSamplingEv
libcaffe2.so:_ZN6caffe25AddOpEPNS_6NetDefENSt7__cxx1112basic_stringIcSt11char_traitsIcESaIcEEESt6vectorIS7_SaIS7_EESA_
libcaffe2.so:_ZN6caffe25CpuIdC1Ev
libcaffe2.so:_ZN6caffe25CpuIdC2Ev
libcaffe2.so:_ZN6caffe25EluOpIfNS_10CPUContextEE11RunOnDeviceEv
libcaffe2.so:_ZN6caffe25GluOpIfNS_10CPUContextEE10ComputeGluEiiiPKfPf
libcaffe2.so:_ZN6caffe25LRNOpIfNS_10CPUContextEE24RunOnDeviceWithOrderNCHWEv
libcaffe2.so:_ZN6caffe25LRNOpIfNS_10CPUContextEE24RunOnDeviceWithOrderNHWCEv
libcaffe2.so:_ZN6caffe25splitEcRKNSt7__cxx1112basic_stringIcSt11char_traitsIcESaIcEEE
libcaffe2.so:_ZN6caffe25toMapB5cxx11ERKSt6vectorINS_17ExportedStatValueESaIS1_EE
libcaffe2.so:_ZN6caffe25utils17ComputeAllAnchorsERKNS_6TensorINS_10CPUContextEEEiif
libcaffe2.so:_ZN6caffe25utils18MapRoIsToFpnLevelsEN5Eigen3RefIKNS1_5ArrayIfLin1ELin1ELi1ELin1ELin1EEELi0ENS1_11OuterStrideILin1EEEEEffff
libcaffe2.so:_ZN6caffe25utils23RowsWhereRoILevelEqualsEN5Eigen3RefIKNS1_5ArrayIfLin1ELin1ELi1ELin1ELin1EEELi0ENS1_11OuterStrideILin1EEEEERS5_iPS4_PNS3_IiLin1ELi1ELi0ELin1ELi1EEE
libcaffe2.so:_ZN6caffe25utils24SortAndLimitRoIsByScoresEN5Eigen3RefIKNS1_5ArrayIfLin1ELi1ELi0ELin1ELi1EEELi0ENS1_11InnerStrideILi1EEEEEiRNS3_IfLin1ELin1ELi1ELin1ELin1EEE
libcaffe2.so:_ZN6caffe25utils7ArgSortERN5Eigen5ArrayIiLin1ELi1ELi0ELin1ELi1EEE
libcaffe2.so:_ZN6caffe25utils9BoxesAreaERKN5Eigen5ArrayIfLin1ELin1ELi1ELin1ELin1EEE
libcaffe2.so:_ZN6caffe260CAFFE2_PLEASE_ADD_OPERATOR_SCHEMA_FOR_ChannelShuffleGradientEv
libcaffe2.so:_ZN6caffe260CAFFE2_PLEASE_ADD_OPERATOR_SCHEMA_FOR_FileStoreHandlerCreateEv
libcaffe2.so:_ZN6caffe260CAFFE2_PLEASE_ADD_OPERATOR_SCHEMA_FOR_GatherFused8BitRowwiseEv
libcaffe2.so:_ZN6caffe260CAFFE2_PLEASE_ADD_OPERATOR_SCHEMA_FOR_MarginRankingCriterionEv
libcaffe2.so:_ZN6caffe260CAFFE2_PLEASE_ADD_OPERATOR_SCHEMA_FOR_ReduceBackMeanGradientEv
libcaffe2.so:_ZN6caffe260CAFFE2_PLEASE_ADD_OPERATOR_SCHEMA_FOR_ReduceFrontMaxGradientEv
libcaffe2.so:_ZN6caffe260CAFFE2_PLEASE_ADD_OPERATOR_SCHEMA_FOR_ReduceFrontSumGradientEv
libcaffe2.so:_ZN6caffe260CAFFE2_PLEASE_ADD_OPERATOR_SCHEMA_FOR_SpatialSoftmaxWithLossEv
libcaffe2.so:_ZN6caffe261CAFFE2_PLEASE_ADD_OPERATOR_SCHEMA_FOR_ReduceFrontMeanGradientEv
libcaffe2.so:_ZN6caffe261CAFFE2_PLEASE_ADD_OPERATOR_SCHEMA_FOR_SoftmaxWithLossGradientEv
libcaffe2.so:_ZN6caffe261CAFFE2_PLEASE_ADD_OPERATOR_SCHEMA_FOR_SparseMomentumSGDUpdateEv
libcaffe2.so:_ZN6caffe261CAFFE2_PLEASE_ADD_OPERATOR_SCHEMA_FOR_ThresholdedReluGradientEv
libcaffe2.so:_ZN6caffe261CAFFE2_PLEASE_ADD_OPERATOR_SCHEMA_FOR_rnn_internal_apply_linkEv
libcaffe2.so:_ZN6caffe262CAFFE2_PLEASE_ADD_OPERATOR_SCHEMA_FOR_CosineEmbeddingCriterionEv
libcaffe2.so:_ZN6caffe262CAFFE2_PLEASE_ADD_OPERATOR_SCHEMA_FOR_CosineSimilarityGradientEv
libcaffe2.so:_ZN6caffe262CAFFE2_PLEASE_ADD_OPERATOR_SCHEMA_FOR_PiecewiseLinearTransformEv
libcaffe2.so:_ZN6caffe262CAFFE2_PLEASE_ADD_OPERATOR_SCHEMA_FOR_RecurrentNetworkGradientEv
libcaffe2.so:_ZN6caffe262CAFFE2_PLEASE_ADD_OPERATOR_SCHEMA_FOR_SinusoidPositionEncodingEv
libcaffe2.so:_ZN6caffe263CAFFE2_PLEASE_ADD_OPERATOR_SCHEMA_FOR_ElementwiseLinearGradientEv
libcaffe2.so:_ZN6caffe263CAFFE2_PLEASE_ADD_OPERATOR_SCHEMA_FOR_LabelCrossEntropyGradientEv
libcaffe2.so:_ZN6caffe263CAFFE2_PLEASE_ADD_OPERATOR_SCHEMA_FOR_SquaredL2DistanceGradientEv
libcaffe2.so:_ZN6caffe264CAFFE2_PLEASE_ADD_OPERATOR_SCHEMA_FOR_WeightedSampleDequeueBlobsEv
libcaffe2.so:_ZN6caffe265CAFFE2_PLEASE_ADD_OPERATOR_SCHEMA_FOR_RecurrentNetworkBlobFetcherEv
libcaffe2.so:_ZN6caffe265CAFFE2_PLEASE_ADD_OPERATOR_SCHEMA_FOR_Rowwise8BitQuantizedToFloatEv
libcaffe2.so:_ZN6caffe265Fused8BitRowwiseEmbeddingLookup_int32_t_uint8_t_float_false__baseEllllPKhPKiS3_PKfbPf
libcaffe2.so:_ZN6caffe265Fused8BitRowwiseEmbeddingLookup_int64_t_uint8_t_float_false__baseEllllPKhPKlPKiPKfbPf
libcaffe2.so:_ZN6caffe266CAFFE2_PLEASE_ADD_OPERATOR_SCHEMA_FOR_FloatToRowwiseQuantized8BitsEv
libcaffe2.so:_ZN6caffe266CAFFE2_PLEASE_ADD_OPERATOR_SCHEMA_FOR_SparseLengthsSum8BitsRowwiseEv
libcaffe2.so:_ZN6caffe266Fused8BitRowwiseEmbeddingLookup_int32_t_float_float_true__avx2_fmaEllllPKfPKiS3_S1_bPf
libcaffe2.so:_ZN6caffe266Fused8BitRowwiseEmbeddingLookup_int64_t_float_float_true__avx2_fmaEllllPKfPKlPKiS1_bPf
libcaffe2.so:_ZN6caffe267CAFFE2_PLEASE_ADD_OPERATOR_SCHEMA_FOR_DotProductWithPaddingGradientEv
libcaffe2.so:_ZN6caffe267CAFFE2_PLEASE_ADD_OPERATOR_SCHEMA_FOR_SigmoidCrossEntropyWithLogitsEv
libcaffe2.so:_ZN6caffe267CAFFE2_PLEASE_ADD_OPERATOR_SCHEMA_FOR_SparseLengthsMean8BitsRowwiseEv
libcaffe2.so:_ZN6caffe267CAFFE2_PLEASE_ADD_OPERATOR_SCHEMA_FOR_VariableLengthSequencePaddingEv
libcaffe2.so:_ZN6caffe267Fused8BitRowwiseEmbeddingLookup_int32_t_float_float_false__avx2_fmaEllllPKfPKiS3_S1_bPf
libcaffe2.so:_ZN6caffe267Fused8BitRowwiseEmbeddingLookup_int64_t_float_float_false__avx2_fmaEllllPKfPKlPKiS1_bPf
libcaffe2.so:_ZN6caffe268CAFFE2_PLEASE_ADD_OPERATOR_SCHEMA_FOR_MarginRankingCriterionGradientEv
libcaffe2.so:_ZN6caffe268CAFFE2_PLEASE_ADD_OPERATOR_SCHEMA_FOR_SpatialSoftmaxWithLossGradientEv
libcaffe2.so:_ZN6caffe268Fused8BitRowwiseEmbeddingLookup_int32_t_float16_float_true__avx2_fmaEllllPKNS_5__f16EPKiS4_PKfbPf
libcaffe2.so:_ZN6caffe268Fused8BitRowwiseEmbeddingLookup_int32_t_uint8_t_float_true__avx2_fmaEllllPKhPKiS3_PKfbPf
libcaffe2.so:_ZN6caffe268Fused8BitRowwiseEmbeddingLookup_int64_t_float16_float_true__avx2_fmaEllllPKNS_5__f16EPKlPKiPKfbPf
libcaffe2.so:_ZN6caffe268Fused8BitRowwiseEmbeddingLookup_int64_t_uint8_t_float_true__avx2_fmaEllllPKhPKlPKiPKfbPf
libcaffe2.so:_ZN6caffe269Fused8BitRowwiseEmbeddingLookup_int32_t_float16_float_false__avx2_fmaEllllPKNS_5__f16EPKiS4_PKfbPf
libcaffe2.so:_ZN6caffe269Fused8BitRowwiseEmbeddingLookup_int32_t_uint8_t_float_false__avx2_fmaEllllPKhPKiS3_PKfbPf
libcaffe2.so:_ZN6caffe269Fused8BitRowwiseEmbeddingLookup_int64_t_float16_float_false__avx2_fmaEllllPKNS_5__f16EPKlPKiPKfbPf
libcaffe2.so:_ZN6caffe269Fused8BitRowwiseEmbeddingLookup_int64_t_uint8_t_float_false__avx2_fmaEllllPKhPKlPKiPKfbPf
libcaffe2.so:_ZN6caffe26CastOpINS_10CPUContextEE7SetBodyENS_20TensorProto_DataTypeE
libcaffe2.so:_ZN6caffe26ClipOpIfNS_10CPUContextEE11RunOnDeviceEv
libcaffe2.so:_ZN6caffe26DAGNet5RunAtEiRKSt6vectorIiSaIiEE
libcaffe2.so:_ZN6caffe26LarsOpIfNS_10CPUContextEE7ComputeElPKfS4_fPf
libcaffe2.so:_ZN6caffe26LoadOpINS_10CPUContextEE16SetCurrentDeviceEPNS_9BlobProtoE
libcaffe2.so:_ZN6caffe26NetDef10SharedCtorEv
libcaffe2.so:_ZN6caffe26NetDef10SharedDtorEv
libcaffe2.so:_ZN6caffe26NetDef10descriptorEv
libcaffe2.so:_ZN6caffe26NetDef12InternalSwapEPS0_
libcaffe2.so:_ZN6caffe26NetDef16default_instanceEv
libcaffe2.so:_ZN6caffe26NetDef21InitAsDefaultInstanceEv
libcaffe2.so:_ZN6caffe26NetDef27MergePartialFromCodedStreamEPN6google8protobuf2io16CodedInputStreamE
libcaffe2.so:_ZN6caffe26NetDef4SwapEPS0_
libcaffe2.so:_ZN6caffe26NetDef5ClearEv
libcaffe2.so:_ZN6caffe26NetDef8CopyFromERKN6google8protobuf7MessageE
libcaffe2.so:_ZN6caffe26NetDef8CopyFromERKS0_
libcaffe2.so:_ZN6caffe26NetDef9MergeFromERKN6google8protobuf7MessageE
libcaffe2.so:_ZN6caffe26NetDef9MergeFromERKS0_
libcaffe2.so:_ZN6caffe26NetDefC1ERKS0_
libcaffe2.so:_ZN6caffe26NetDefC1Ev
libcaffe2.so:_ZN6caffe26NetDefC2ERKS0_
libcaffe2.so:_ZN6caffe26NetDefC2Ev
libcaffe2.so:_ZN6caffe26NetDefD0Ev
libcaffe2.so:_ZN6caffe26NetDefD1Ev
libcaffe2.so:_ZN6caffe26NetDefD2Ev
libcaffe2.so:_ZN6caffe26PoolOpIfNS_10CPUContextENS_6LpPoolEE24RunOnDeviceWithOrderNCHWEv
libcaffe2.so:_ZN6caffe26PoolOpIfNS_10CPUContextENS_6LpPoolEE24RunOnDeviceWithOrderNHWCEv
libcaffe2.so:_ZN6caffe26ReluOpIfNS_10CPUContextEE11RunOnDeviceEv
libcaffe2.so:_ZN6caffe26SeluOpIfNS_10CPUContextEE11RunOnDeviceEv
libcaffe2.so:_ZN6caffe26detail10PrependOpsESt6vectorINS_11OperatorDefESaIS2_EEPNS_6NetDefE
libcaffe2.so:_ZN6caffe26detail12extractLinksEPNS_12OperatorBaseERKNSt7__cxx1112basic_stringIcSt11char_traitsIcESaIcEEESA_SA_SA_PSt6vectorINS0_4LinkESaISC_EE
libcaffe2.so:_ZN6caffe26detail13extractNetDefERKNS_11OperatorDefERKNSt7__cxx1112basic_stringIcSt11char_traitsIcESaIcEEE
libcaffe2.so:_ZN6caffe26detail15AddApplyLinkOpsERKSt6vectorINS0_4LinkESaIS2_EENSt7__cxx1112basic_stringIcSt11char_traitsIcESaIcEEERKNS_12DeviceOptionEPNS_6NetDefE
libcaffe2.so:_ZN6caffe26detail19GetRecurrentMappingB5cxx11ERKSt6vectorINS0_4LinkESaIS2_EEb
libcaffe2.so:_ZN6caffe26script12kindToStringB5cxx11Ei
libcaffe2.so:_ZN6caffe26script15CompilationUnit12defineExternERKNSt7__cxx1112basic_stringIcSt11char_traitsIcESaIcEEESt10unique_ptrINS_6NetDefESt14default_deleteISB_EE
libcaffe2.so:_ZN6caffe26script15CompilationUnit6defineERKNSt7__cxx1112basic_stringIcSt11char_traitsIcESaIcEEE
libcaffe2.so:_ZN6caffe26script15CompilationUnit9createNetEPNS_9WorkspaceERKNSt7__cxx1112basic_stringIcSt11char_traitsIcESaIcEEE
libcaffe2.so:_ZN6caffe26script15CompilationUnitC1Ev
libcaffe2.so:_ZN6caffe26script15CompilationUnitC2Ev
libcaffe2.so:_ZN6caffe26script15CompilationUnitD1Ev
libcaffe2.so:_ZN6caffe26script15CompilationUnitD2Ev
libcaffe2.so:_ZN6caffe26script16sharedParserDataEv
libcaffe2.so:_ZN6caffe270CAFFE2_PLEASE_ADD_OPERATOR_SCHEMA_FOR_CosineEmbeddingCriterionGradientEv
libcaffe2.so:_ZN6caffe270CAFFE2_PLEASE_ADD_OPERATOR_SCHEMA_FOR_FloatToFused8BitRowwiseQuantizedEv
libcaffe2.so:_ZN6caffe270CAFFE2_PLEASE_ADD_OPERATOR_SCHEMA_FOR_Fused8BitRowwiseQuantizedToFloatEv
libcaffe2.so:_ZN6caffe270CAFFE2_PLEASE_ADD_OPERATOR_SCHEMA_FOR_SparseLengthsSumFused8BitRowwiseEv
libcaffe2.so:_ZN6caffe271CAFFE2_PLEASE_ADD_OPERATOR_SCHEMA_FOR_SparseLengthsMeanFused8BitRowwiseEv
libcaffe2.so:_ZN6caffe272CAFFE2_PLEASE_ADD_OPERATOR_SCHEMA_FOR_SparseLengthsPositionalWeightedSumEv
libcaffe2.so:_ZN6caffe273CAFFE2_PLEASE_ADD_OPERATOR_SCHEMA_FOR_LengthsIndicesInGradientSumGradientEv
libcaffe2.so:_ZN6caffe274CAFFE2_PLEASE_ADD_OPERATOR_SCHEMA_FOR_SparseLengthsWeightedSum8BitsRowwiseEv
libcaffe2.so:_ZN6caffe275CAFFE2_PLEASE_ADD_OPERATOR_SCHEMA_FOR_SigmoidCrossEntropyWithLogitsGradientEv
libcaffe2.so:_ZN6caffe275CAFFE2_PLEASE_ADD_OPERATOR_SCHEMA_FOR_SparseLengthsWeightedMean8BitsRowwiseEv
libcaffe2.so:_ZN6caffe275CAFFE2_PLEASE_ADD_OPERATOR_SCHEMA_FOR_WeightedSigmoidCrossEntropyWithLogitsEv
libcaffe2.so:_ZN6caffe276CAFFE2_PLEASE_ADD_OPERATOR_SCHEMA_FOR_rnn_internal_accumulate_gradient_inputEv
libcaffe2.so:_ZN6caffe278CAFFE2_PLEASE_ADD_OPERATOR_SCHEMA_FOR_SparseLengthsWeightedSumFused8BitRowwiseEv
libcaffe2.so:_ZN6caffe279CAFFE2_PLEASE_ADD_OPERATOR_SCHEMA_FOR_SparseLengthsIndicesInGradientSumGradientEv
libcaffe2.so:_ZN6caffe27NetBase8RunAsyncEv
libcaffe2.so:_ZN6caffe27NetBaseC1ERKSt10shared_ptrIKNS_6NetDefEEPNS_9WorkspaceE
libcaffe2.so:_ZN6caffe27NetBaseC2ERKSt10shared_ptrIKNS_6NetDefEEPNS_9WorkspaceE
libcaffe2.so:_ZN6caffe27NetsMap10SharedCtorEv
libcaffe2.so:_ZN6caffe27NetsMap10SharedDtorEv
libcaffe2.so:_ZN6caffe27NetsMap10descriptorEv
libcaffe2.so:_ZN6caffe27NetsMap11clear_valueEv
libcaffe2.so:_ZN6caffe27NetsMap12InternalSwapEPS0_
libcaffe2.so:_ZN6caffe27NetsMap16default_instanceEv
libcaffe2.so:_ZN6caffe27NetsMap21InitAsDefaultInstanceEv
libcaffe2.so:_ZN6caffe27NetsMap27MergePartialFromCodedStreamEPN6google8protobuf2io16CodedInputStreamE
libcaffe2.so:_ZN6caffe27NetsMap4SwapEPS0_
libcaffe2.so:_ZN6caffe27NetsMap5ClearEv
libcaffe2.so:_ZN6caffe27NetsMap8CopyFromERKN6google8protobuf7MessageE
libcaffe2.so:_ZN6caffe27NetsMap8CopyFromERKS0_
libcaffe2.so:_ZN6caffe27NetsMap9MergeFromERKN6google8protobuf7MessageE
libcaffe2.so:_ZN6caffe27NetsMap9MergeFromERKS0_
libcaffe2.so:_ZN6caffe27NetsMapC1ERKS0_
libcaffe2.so:_ZN6caffe27NetsMapC1Ev
libcaffe2.so:_ZN6caffe27NetsMapC2ERKS0_
libcaffe2.so:_ZN6caffe27NetsMapC2Ev
libcaffe2.so:_ZN6caffe27NetsMapD0Ev
libcaffe2.so:_ZN6caffe27NetsMapD1Ev
libcaffe2.so:_ZN6caffe27NetsMapD2Ev
libcaffe2.so:_ZN6caffe27PReluOpIfNS_10CPUContextEE11RunOnDeviceEv
libcaffe2.so:_ZN6caffe27PlanDef10SharedCtorEv
libcaffe2.so:_ZN6caffe27PlanDef10SharedDtorEv
libcaffe2.so:_ZN6caffe27PlanDef10descriptorEv
libcaffe2.so:_ZN6caffe27PlanDef12InternalSwapEPS0_
libcaffe2.so:_ZN6caffe27PlanDef16default_instanceEv
libcaffe2.so:_ZN6caffe27PlanDef21InitAsDefaultInstanceEv
libcaffe2.so:_ZN6caffe27PlanDef27MergePartialFromCodedStreamEPN6google8protobuf2io16CodedInputStreamE
libcaffe2.so:_ZN6caffe27PlanDef4SwapEPS0_
libcaffe2.so:_ZN6caffe27PlanDef5ClearEv
libcaffe2.so:_ZN6caffe27PlanDef8CopyFromERKN6google8protobuf7MessageE
libcaffe2.so:_ZN6caffe27PlanDef8CopyFromERKS0_
libcaffe2.so:_ZN6caffe27PlanDef9MergeFromERKN6google8protobuf7MessageE
libcaffe2.so:_ZN6caffe27PlanDef9MergeFromERKS0_
libcaffe2.so:_ZN6caffe27PlanDefC1ERKS0_
libcaffe2.so:_ZN6caffe27PlanDefC1Ev
libcaffe2.so:_ZN6caffe27PlanDefC2ERKS0_
libcaffe2.so:_ZN6caffe27PlanDefC2Ev
libcaffe2.so:_ZN6caffe27PlanDefD0Ev
libcaffe2.so:_ZN6caffe27PlanDefD1Ev
libcaffe2.so:_ZN6caffe27PlanDefD2Ev
libcaffe2.so:_ZN6caffe283CAFFE2_PLEASE_ADD_OPERATOR_SCHEMA_FOR_WeightedSigmoidCrossEntropyWithLogitsGradientEv
libcaffe2.so:_ZN6caffe287CAFFE2_PLEASE_ADD_OPERATOR_SCHEMA_FOR_SparseLengthsIndicesInGradientWeightedSumGradientEv
libcaffe2.so:_ZN6caffe28Argument10SharedCtorEv
libcaffe2.so:_ZN6caffe28Argument10SharedDtorEv
libcaffe2.so:_ZN6caffe28Argument10descriptorEv
libcaffe2.so:_ZN6caffe28Argument12InternalSwapEPS0_
libcaffe2.so:_ZN6caffe28Argument16default_instanceEv
libcaffe2.so:_ZN6caffe28Argument21InitAsDefaultInstanceEv
libcaffe2.so:_ZN6caffe28Argument27MergePartialFromCodedStreamEPN6google8protobuf2io16CodedInputStreamE
libcaffe2.so:_ZN6caffe28Argument4SwapEPS0_
libcaffe2.so:_ZN6caffe28Argument5ClearEv
libcaffe2.so:_ZN6caffe28Argument8CopyFromERKN6google8protobuf7MessageE
libcaffe2.so:_ZN6caffe28Argument8CopyFromERKS0_
libcaffe2.so:_ZN6caffe28Argument9MergeFromERKN6google8protobuf7MessageE
libcaffe2.so:_ZN6caffe28Argument9MergeFromERKS0_
libcaffe2.so:_ZN6caffe28ArgumentC1ERKS0_
libcaffe2.so:_ZN6caffe28ArgumentC1Ev
libcaffe2.so:_ZN6caffe28ArgumentC2ERKS0_
libcaffe2.so:_ZN6caffe28ArgumentC2Ev
libcaffe2.so:_ZN6caffe28ArgumentD0Ev
libcaffe2.so:_ZN6caffe28ArgumentD1Ev
libcaffe2.so:_ZN6caffe28ArgumentD2Ev
libcaffe2.so:_ZN6caffe28BlobStat9sizeBytesERKNS_4BlobE
libcaffe2.so:_ZN6caffe28BlobsMap10SharedCtorEv
libcaffe2.so:_ZN6caffe28BlobsMap10SharedDtorEv
libcaffe2.so:_ZN6caffe28BlobsMap10descriptorEv
libcaffe2.so:_ZN6caffe28BlobsMap12InternalSwapEPS0_
libcaffe2.so:_ZN6caffe28BlobsMap16default_instanceEv
libcaffe2.so:_ZN6caffe28BlobsMap21InitAsDefaultInstanceEv
libcaffe2.so:_ZN6caffe28BlobsMap27MergePartialFromCodedStreamEPN6google8protobuf2io16CodedInputStreamE
libcaffe2.so:_ZN6caffe28BlobsMap4SwapEPS0_
libcaffe2.so:_ZN6caffe28BlobsMap5ClearEv
libcaffe2.so:_ZN6caffe28BlobsMap8CopyFromERKN6google8protobuf7MessageE
libcaffe2.so:_ZN6caffe28BlobsMap8CopyFromERKS0_
libcaffe2.so:_ZN6caffe28BlobsMap9MergeFromERKN6google8protobuf7MessageE
libcaffe2.so:_ZN6caffe28BlobsMap9MergeFromERKS0_
libcaffe2.so:_ZN6caffe28BlobsMapC1ERKS0_
libcaffe2.so:_ZN6caffe28BlobsMapC1Ev
libcaffe2.so:_ZN6caffe28BlobsMapC2ERKS0_
libcaffe2.so:_ZN6caffe28BlobsMapC2Ev
libcaffe2.so:_ZN6caffe28BlobsMapD0Ev
libcaffe2.so:_ZN6caffe28BlobsMapD1Ev
libcaffe2.so:_ZN6caffe28BlobsMapD2Ev
libcaffe2.so:_ZN6caffe28ContrastEPfiiifPSt23mersenne_twister_engineImLm32ELm624ELm397ELm31ELm2567483615ELm11ELm4294967295ELm7ELm2636928640ELm15ELm4022730752ELm18ELm1812433253EE
libcaffe2.so:_ZN6caffe28DemangleB5cxx11EPKc
libcaffe2.so:_ZN6caffe28DeviceIdERKNS_12DeviceOptionE
libcaffe2.so:_ZN6caffe28GetCpuIdEv
libcaffe2.so:_ZN6caffe28HasInputERKNS_11OperatorDefERKNSt7__cxx1112basic_stringIcSt11char_traitsIcESaIcEEE
libcaffe2.so:_ZN6caffe28LpNormOpIfNS_10CPUContextEE11RunOnDeviceEv
libcaffe2.so:_ZN6caffe28MPIMutexEv
libcaffe2.so:_ZN6caffe28NUMABindEi
libcaffe2.so:_ZN6caffe28NUMAMoveEPvmi
libcaffe2.so:_ZN6caffe28NoDeleteEPv
libcaffe2.so:_ZN6caffe28OneHotOpINS_10CPUContextEE10DoOneHotOpEllRKNS_6TensorIS1_EEPS4_
libcaffe2.so:_ZN6caffe28OpSchema10NumOutputsESt3setIiSt4lessIiESaIiEE
libcaffe2.so:_ZN6caffe28OpSchema10NumOutputsESt8functionIFbiEE
libcaffe2.so:_ZN6caffe28OpSchema10NumOutputsEi
libcaffe2.so:_ZN6caffe28OpSchema10NumOutputsEii
libcaffe2.so:_ZN6caffe28OpSchema10ScalarTypeENS_20TensorProto_DataTypeE
libcaffe2.so:_ZN6caffe28OpSchema12AllowInplaceESt3setISt4pairIiiESt4lessIS3_ESaIS3_EE
libcaffe2.so:_ZN6caffe28OpSchema12AllowInplaceESt8functionIFbiiEE
libcaffe2.so:_ZN6caffe28OpSchema14EnforceInplaceESt3setISt4pairIiiESt4lessIS3_ESaIS3_EE
libcaffe2.so:_ZN6caffe28OpSchema14EnforceInplaceESt8functionIFbiiEE
libcaffe2.so:_ZN6caffe28OpSchema16NumInputsOutputsESt8functionIFbiiEE
libcaffe2.so:_ZN6caffe28OpSchema16OutputCalculatorESt8functionIFiiEE
libcaffe2.so:_ZN6caffe28OpSchema17InheritOnnxSchemaERKNSt7__cxx1112basic_stringIcSt11char_traitsIcESaIcEEE
libcaffe2.so:_ZN6caffe28OpSchema18SameNumberOfOutputEv
libcaffe2.so:_ZN6caffe28OpSchema19NeedsAllInputShapesESt8functionIFSt6vectorINS_11TensorShapeESaIS3_EERKNS_11OperatorDefERKS5_EE
libcaffe2.so:_ZN6caffe28OpSchema20AllowOneToOneInplaceEv
libcaffe2.so:_ZN6caffe28OpSchema21CostInferenceFunctionESt8functionIFNS0_4CostERKNS_11OperatorDefERKSt6vectorINS_11TensorShapeESaIS7_EEEE
libcaffe2.so:_ZN6caffe28OpSchema21IdenticalTypeAndShapeEv
libcaffe2.so:_ZN6caffe28OpSchema21InputsCanCrossDevicesEv
libcaffe2.so:_ZN6caffe28OpSchema22EnforceOneToOneInplaceEv
libcaffe2.so:_ZN6caffe28OpSchema23DeviceInferenceFunctionESt8functionIFSt4pairISt6vectorINS_12DeviceOptionESaIS4_EES6_ERKNS_11OperatorDefEEE
libcaffe2.so:_ZN6caffe28OpSchema23TensorInferenceFunctionESt8functionIFSt6vectorINS_11TensorShapeESaIS3_EERKNS_11OperatorDefERKS5_EE
libcaffe2.so:_ZN6caffe28OpSchema28IdenticalTypeAndShapeOfInputEi
libcaffe2.so:_ZN6caffe28OpSchema31IdenticalTypeAndShapeOfInputDimEii
libcaffe2.so:_ZN6caffe28OpSchema3ArgEPKcS2_b
libcaffe2.so:_ZN6caffe28OpSchema5InputEiPKcS2_
libcaffe2.so:_ZN6caffe28OpSchema6OutputEiPKcS2_
libcaffe2.so:_ZN6caffe28OpSchema6SetDocERKNSt7__cxx1112basic_stringIcSt11char_traitsIcESaIcEEE
libcaffe2.so:_ZN6caffe28OpSchema7PrivateEv
libcaffe2.so:_ZN6caffe28OpSchema9ArgIsTestEPKc
libcaffe2.so:_ZN6caffe28OpSchema9FillUsingESt8functionIFvRS0_EE
libcaffe2.so:_ZN6caffe28OpSchema9NumInputsESt3setIiSt4lessIiESaIiEE
libcaffe2.so:_ZN6caffe28OpSchema9NumInputsESt8functionIFbiEE
libcaffe2.so:_ZN6caffe28OpSchema9NumInputsEi
libcaffe2.so:_ZN6caffe28OpSchema9NumInputsEii
libcaffe2.so:_ZN6caffe28PlansMap10SharedCtorEv
libcaffe2.so:_ZN6caffe28PlansMap10SharedDtorEv
libcaffe2.so:_ZN6caffe28PlansMap10descriptorEv
libcaffe2.so:_ZN6caffe28PlansMap11clear_valueEv
libcaffe2.so:_ZN6caffe28PlansMap12InternalSwapEPS0_
libcaffe2.so:_ZN6caffe28PlansMap16default_instanceEv
libcaffe2.so:_ZN6caffe28PlansMap21InitAsDefaultInstanceEv
libcaffe2.so:_ZN6caffe28PlansMap27MergePartialFromCodedStreamEPN6google8protobuf2io16CodedInputStreamE
libcaffe2.so:_ZN6caffe28PlansMap4SwapEPS0_
libcaffe2.so:_ZN6caffe28PlansMap5ClearEv
libcaffe2.so:_ZN6caffe28PlansMap8CopyFromERKN6google8protobuf7MessageE
libcaffe2.so:_ZN6caffe28PlansMap8CopyFromERKS0_
libcaffe2.so:_ZN6caffe28PlansMap9MergeFromERKN6google8protobuf7MessageE
libcaffe2.so:_ZN6caffe28PlansMap9MergeFromERKS0_
libcaffe2.so:_ZN6caffe28PlansMapC1ERKS0_
libcaffe2.so:_ZN6caffe28PlansMapC1Ev
libcaffe2.so:_ZN6caffe28PlansMapC2ERKS0_
libcaffe2.so:_ZN6caffe28PlansMapC2Ev
libcaffe2.so:_ZN6caffe28PlansMapD0Ev
libcaffe2.so:_ZN6caffe28PlansMapD1Ev
libcaffe2.so:_ZN6caffe28PlansMapD2Ev
libcaffe2.so:_ZN6caffe28TypeMeta2IdIN4gloo7float16EEElv
libcaffe2.so:_ZN6caffe28TypeMeta2IdINS_21MPICommonWorldWrapperEEElv
libcaffe2.so:_ZN6caffe28TypeMeta2IdINS_2db6CursorEEElv
libcaffe2.so:_ZN6caffe28TypeMeta2IdINS_2db8DBReaderEEElv
libcaffe2.so:_ZN6caffe28TypeMeta2IdINS_4int813Int8TensorCPUEEElv
libcaffe2.so:_ZN6caffe28TypeMeta2IdINS_5__f16EEElv
libcaffe2.so:_ZN6caffe28TypeMeta2IdINS_6TensorINS_10CPUContextEEEEElv
libcaffe2.so:_ZN6caffe28TypeMeta2IdINS_6detail14WorkspaceStackEEElv
libcaffe2.so:_ZN6caffe28TypeMeta2IdINS_6detail17ScratchWorkspacesEEElv
libcaffe2.so:_ZN6caffe28TypeMeta2IdINS_7QTensorINS_10CPUContextEEEEElv
libcaffe2.so:_ZN6caffe28TypeMeta2IdINSt7__cxx1112basic_stringIcSt11char_traitsIcESaIcEEEEElv
libcaffe2.so:_ZN6caffe28TypeMeta2IdIPNS_13TimerInstanceEEElv
libcaffe2.so:_ZN6caffe28TypeMeta2IdIPbEElv
libcaffe2.so:_ZN6caffe28TypeMeta2IdIPcEElv
libcaffe2.so:_ZN6caffe28TypeMeta2IdIPiEElv
libcaffe2.so:_ZN6caffe28TypeMeta2IdISt10shared_ptrIN4gloo7ContextEEEElv
libcaffe2.so:_ZN6caffe28TypeMeta2IdISt10shared_ptrINS_10BlobsQueueEEEElv
libcaffe2.so:_ZN6caffe28TypeMeta2IdISt10shared_ptrISt6vectorINS_6TensorINS_10CPUContextEEESaIS6_EEEEElv
libcaffe2.so:_ZN6caffe28TypeMeta2IdISt10unique_ptrINS_11dataset_ops10TreeCursorESt14default_deleteIS4_EEEElv
libcaffe2.so:_ZN6caffe28TypeMeta2IdISt10unique_ptrINS_12StatRegistryESt14default_deleteIS3_EEEElv
libcaffe2.so:_ZN6caffe28TypeMeta2IdISt10unique_ptrINS_12StoreHandlerESt14default_deleteIS3_EEEElv
libcaffe2.so:_ZN6caffe28TypeMeta2IdISt10unique_ptrINS_15RebatchingQueueESt14default_deleteIS3_EEEElv
libcaffe2.so:_ZN6caffe28TypeMeta2IdISt10unique_ptrINS_22TextFileReaderInstanceESt14default_deleteIS3_EEEElv
libcaffe2.so:_ZN6caffe28TypeMeta2IdISt10unique_ptrINS_7CounterIlEESt14default_deleteIS4_EEEElv
libcaffe2.so:_ZN6caffe28TypeMeta2IdISt10unique_ptrINS_9IndexBaseESt14default_deleteIS3_EEEElv
libcaffe2.so:_ZN6caffe28TypeMeta2IdISt10unique_ptrISt5mutexSt14default_deleteIS3_EEEElv
libcaffe2.so:_ZN6caffe28TypeMeta2IdISt10unique_ptrISt6atomicIbESt14default_deleteIS4_EEEElv
libcaffe2.so:_ZN6caffe28TypeMeta2IdISt10unique_ptrISt6vectorINS_6TensorINS_10CPUContextEEESaIS6_EESt14default_deleteIS8_EEEElv
libcaffe2.so:_ZN6caffe28TypeMeta2IdISt13unordered_mapIiiSt4hashIiESt8equal_toIiESaISt4pairIKiiEEEEElv
libcaffe2.so:_ZN6caffe28TypeMeta2IdISt13unordered_mapIilSt4hashIiESt8equal_toIiESaISt4pairIKilEEEEElv
libcaffe2.so:_ZN6caffe28TypeMeta2IdISt13unordered_mapIliSt4hashIlESt8equal_toIlESaISt4pairIKliEEEEElv
libcaffe2.so:_ZN6caffe28TypeMeta2IdISt13unordered_mapIllSt4hashIlESt8equal_toIlESaISt4pairIKllEEEEElv
libcaffe2.so:_ZN6caffe28TypeMeta2IdISt6vectorIlSaIlEEEElv
libcaffe2.so:_ZN6caffe28TypeMeta2IdISt6vectorImSaImEEEElv
libcaffe2.so:_ZN6caffe28TypeMeta2IdIaEElv
libcaffe2.so:_ZN6caffe28TypeMeta2IdIbEElv
libcaffe2.so:_ZN6caffe28TypeMeta2IdIcEElv
libcaffe2.so:_ZN6caffe28TypeMeta2IdIdEElv
libcaffe2.so:_ZN6caffe28TypeMeta2IdIfEElv
libcaffe2.so:_ZN6caffe28TypeMeta2IdIhEElv
libcaffe2.so:_ZN6caffe28TypeMeta2IdIiEElv
libcaffe2.so:_ZN6caffe28TypeMeta2IdIlEElv
libcaffe2.so:_ZN6caffe28TypeMeta2IdIsEElv
libcaffe2.so:_ZN6caffe28TypeMeta2IdItEElv
libcaffe2.so:_ZN6caffe28internal18SetCudaRuntimeFlagEv
libcaffe2.so:_ZN6caffe28internal24Caffe2InitializeRegistry8RegistryEv
libcaffe2.so:_ZN6caffe28internal28Caffe2InitFatalSignalHandlerEPiPPPc
libcaffe2.so:_ZN6caffe28memonger22optimize_inference_netERKNS_6NetDefERKSt3setINSt7__cxx1112basic_stringIcSt11char_traitsIcESaIcEEESt4lessISA_ESaISA_EE
libcaffe2.so:_ZN6caffe28memonger30compute_blob_recycling_for_dagERKNS_6NetDefERKSt6vectorINSt7__cxx1112basic_stringIcSt11char_traitsIcESaIcEEESaISA_EERKS4_IiSaIiEERKSt13unordered_setISA_St4hashISA_ESt8equal_toISA_ESB_ERKSA_SQ_RKSt13unordered_mapISA_SG_SL_SN_SaISt4pairISR_SG_EEE
libcaffe2.so:_ZN6caffe29APMeterOpIfNS_10CPUContextEE11RunOnDeviceEv
libcaffe2.so:_ZN6caffe29APMeterOpIfNS_10CPUContextEE17BufferPredictionsEPKfPKiii
libcaffe2.so:_ZN6caffe29BlobProto10SharedCtorEv
libcaffe2.so:_ZN6caffe29BlobProto10SharedDtorEv
libcaffe2.so:_ZN6caffe29BlobProto10descriptorEv
libcaffe2.so:_ZN6caffe29BlobProto12InternalSwapEPS0_
libcaffe2.so:_ZN6caffe29BlobProto16default_instanceEv
libcaffe2.so:_ZN6caffe29BlobProto21InitAsDefaultInstanceEv
libcaffe2.so:_ZN6caffe29BlobProto27MergePartialFromCodedStreamEPN6google8protobuf2io16CodedInputStreamE
libcaffe2.so:_ZN6caffe29BlobProto4SwapEPS0_
libcaffe2.so:_ZN6caffe29BlobProto5ClearEv
libcaffe2.so:_ZN6caffe29BlobProto8CopyFromERKN6google8protobuf7MessageE
libcaffe2.so:_ZN6caffe29BlobProto8CopyFromERKS0_
libcaffe2.so:_ZN6caffe29BlobProto9MergeFromERKN6google8protobuf7MessageE
libcaffe2.so:_ZN6caffe29BlobProto9MergeFromERKS0_
libcaffe2.so:_ZN6caffe29BlobProtoC1ERKS0_
libcaffe2.so:_ZN6caffe29BlobProtoC1Ev
libcaffe2.so:_ZN6caffe29BlobProtoC2ERKS0_
libcaffe2.so:_ZN6caffe29BlobProtoC2Ev
libcaffe2.so:_ZN6caffe29BlobProtoD0Ev
libcaffe2.so:_ZN6caffe29BlobProtoD1Ev
libcaffe2.so:_ZN6caffe29BlobProtoD2Ev
libcaffe2.so:_ZN6caffe29CreateNetERKNS_6NetDefEPNS_9WorkspaceE
libcaffe2.so:_ZN6caffe29CreateNetERKSt10shared_ptrIKNS_6NetDefEEPNS_9WorkspaceE
libcaffe2.so:_ZN6caffe29DropoutOpIfNS_10CPUContextEE11RunOnDeviceEv
libcaffe2.so:_ZN6caffe29HasModuleERKNSt7__cxx1112basic_stringIcSt11char_traitsIcESaIcEEE
libcaffe2.so:_ZN6caffe29HasOutputERKNS_11OperatorDefERKNSt7__cxx1112basic_stringIcSt11char_traitsIcESaIcEEE
libcaffe2.so:_ZN6caffe29ModelInfo10SharedCtorEv
libcaffe2.so:_ZN6caffe29ModelInfo10SharedDtorEv
libcaffe2.so:_ZN6caffe29ModelInfo10descriptorEv
libcaffe2.so:_ZN6caffe29ModelInfo12InternalSwapEPS0_
libcaffe2.so:_ZN6caffe29ModelInfo16default_instanceEv
libcaffe2.so:_ZN6caffe29ModelInfo21InitAsDefaultInstanceEv
libcaffe2.so:_ZN6caffe29ModelInfo27MergePartialFromCodedStreamEPN6google8protobuf2io16CodedInputStreamE
libcaffe2.so:_ZN6caffe29ModelInfo4SwapEPS0_
libcaffe2.so:_ZN6caffe29ModelInfo5ClearEv
libcaffe2.so:_ZN6caffe29ModelInfo8CopyFromERKN6google8protobuf7MessageE
libcaffe2.so:_ZN6caffe29ModelInfo8CopyFromERKS0_
libcaffe2.so:_ZN6caffe29ModelInfo9MergeFromERKN6google8protobuf7MessageE
libcaffe2.so:_ZN6caffe29ModelInfo9MergeFromERKS0_
libcaffe2.so:_ZN6caffe29ModelInfoC1ERKS0_
libcaffe2.so:_ZN6caffe29ModelInfoC1Ev
libcaffe2.so:_ZN6caffe29ModelInfoC2ERKS0_
libcaffe2.so:_ZN6caffe29ModelInfoC2Ev
libcaffe2.so:_ZN6caffe29ModelInfoD0Ev
libcaffe2.so:_ZN6caffe29ModelInfoD1Ev
libcaffe2.so:_ZN6caffe29ModelInfoD2Ev
libcaffe2.so:_ZN6caffe29NodeProto10SharedCtorEv
libcaffe2.so:_ZN6caffe29NodeProto10SharedDtorEv
libcaffe2.so:_ZN6caffe29NodeProto10descriptorEv
libcaffe2.so:_ZN6caffe29NodeProto12InternalSwapEPS0_
libcaffe2.so:_ZN6caffe29NodeProto16default_instanceEv
libcaffe2.so:_ZN6caffe29NodeProto21InitAsDefaultInstanceEv
libcaffe2.so:_ZN6caffe29NodeProto27MergePartialFromCodedStreamEPN6google8protobuf2io16CodedInputStreamE
libcaffe2.so:_ZN6caffe29NodeProto4SwapEPS0_
libcaffe2.so:_ZN6caffe29NodeProto5ClearEv
libcaffe2.so:_ZN6caffe29NodeProto8CopyFromERKN6google8protobuf7MessageE
libcaffe2.so:_ZN6caffe29NodeProto8CopyFromERKS0_
libcaffe2.so:_ZN6caffe29NodeProto9MergeFromERKN6google8protobuf7MessageE
libcaffe2.so:_ZN6caffe29NodeProto9MergeFromERKS0_
libcaffe2.so:_ZN6caffe29NodeProtoC1ERKS0_
libcaffe2.so:_ZN6caffe29NodeProtoC1Ev
libcaffe2.so:_ZN6caffe29NodeProtoC2ERKS0_
libcaffe2.so:_ZN6caffe29NodeProtoC2Ev
libcaffe2.so:_ZN6caffe29NodeProtoD0Ev
libcaffe2.so:_ZN6caffe29NodeProtoD1Ev
libcaffe2.so:_ZN6caffe29NodeProtoD2Ev
libcaffe2.so:_ZN6caffe29PathProto10SharedCtorEv
libcaffe2.so:_ZN6caffe29PathProto10SharedDtorEv
libcaffe2.so:_ZN6caffe29PathProto10descriptorEv
libcaffe2.so:_ZN6caffe29PathProto12InternalSwapEPS0_
libcaffe2.so:_ZN6caffe29PathProto16default_instanceEv
libcaffe2.so:_ZN6caffe29PathProto21InitAsDefaultInstanceEv
libcaffe2.so:_ZN6caffe29PathProto27MergePartialFromCodedStreamEPN6google8protobuf2io16CodedInputStreamE
libcaffe2.so:_ZN6caffe29PathProto4SwapEPS0_
libcaffe2.so:_ZN6caffe29PathProto5ClearEv
libcaffe2.so:_ZN6caffe29PathProto8CopyFromERKN6google8protobuf7MessageE
libcaffe2.so:_ZN6caffe29PathProto8CopyFromERKS0_
libcaffe2.so:_ZN6caffe29PathProto9MergeFromERKN6google8protobuf7MessageE
libcaffe2.so:_ZN6caffe29PathProto9MergeFromERKS0_
libcaffe2.so:_ZN6caffe29PathProtoC1ERKS0_
libcaffe2.so:_ZN6caffe29PathProtoC1Ev
libcaffe2.so:_ZN6caffe29PathProtoC2ERKS0_
libcaffe2.so:_ZN6caffe29PathProtoC2Ev
libcaffe2.so:_ZN6caffe29PathProtoD0Ev
libcaffe2.so:_ZN6caffe29PathProtoD1Ev
libcaffe2.so:_ZN6caffe29PathProtoD2Ev
libcaffe2.so:_ZN6caffe29Predictor3runERKSt6vectorIPNS_6TensorINS_10CPUContextEEESaIS5_EEPS7_
libcaffe2.so:_ZN6caffe29Predictor7run_mapERKSt13unordered_mapINSt7__cxx1112basic_stringIcSt11char_traitsIcESaIcEEEPNS_6TensorINS_10CPUContextEEESt4hashIS7_ESt8equal_toIS7_ESaISt4pairIKS7_SB_EEEPSt6vectorISB_SaISB_EE
libcaffe2.so:_ZN6caffe29PredictorC1ERKNS_10MetaNetDefEPNS_9WorkspaceE
libcaffe2.so:_ZN6caffe29PredictorC1ERKNS_6NetDefES3_PNS_9WorkspaceE
libcaffe2.so:_ZN6caffe29PredictorC2ERKNS_10MetaNetDefEPNS_9WorkspaceE
libcaffe2.so:_ZN6caffe29PredictorC2ERKNS_6NetDefES3_PNS_9WorkspaceE
libcaffe2.so:_ZN6caffe29PredictorD1Ev
libcaffe2.so:_ZN6caffe29PredictorD2Ev
libcaffe2.so:_ZN6caffe29RoIPoolOpIfNS_10CPUContextEE11RunOnDeviceEv
libcaffe2.so:_ZN6caffe29SimpleNet14TEST_BenchmarkEiib
libcaffe2.so:_ZN6caffe29SimpleNet3RunEv
libcaffe2.so:_ZN6caffe29SimpleNet8RunAsyncEv
libcaffe2.so:_ZN6caffe29SimpleNetC1ERKSt10shared_ptrIKNS_6NetDefEEPNS_9WorkspaceE
libcaffe2.so:_ZN6caffe29SimpleNetC2ERKSt10shared_ptrIKNS_6NetDefEEPNS_9WorkspaceE
libcaffe2.so:_ZN6caffe29SoftmaxOpIfNS_10CPUContextEE11RunOnDeviceEv
libcaffe2.so:_ZN6caffe29StringMap10SharedCtorEv
libcaffe2.so:_ZN6caffe29StringMap10SharedDtorEv
libcaffe2.so:_ZN6caffe29StringMap10descriptorEv
libcaffe2.so:_ZN6caffe29StringMap12InternalSwapEPS0_
libcaffe2.so:_ZN6caffe29StringMap16default_instanceEv
libcaffe2.so:_ZN6caffe29StringMap21InitAsDefaultInstanceEv
libcaffe2.so:_ZN6caffe29StringMap27MergePartialFromCodedStreamEPN6google8protobuf2io16CodedInputStreamE
libcaffe2.so:_ZN6caffe29StringMap4SwapEPS0_
libcaffe2.so:_ZN6caffe29StringMap5ClearEv
libcaffe2.so:_ZN6caffe29StringMap8CopyFromERKN6google8protobuf7MessageE
libcaffe2.so:_ZN6caffe29StringMap8CopyFromERKS0_
libcaffe2.so:_ZN6caffe29StringMap9MergeFromERKN6google8protobuf7MessageE
libcaffe2.so:_ZN6caffe29StringMap9MergeFromERKS0_
libcaffe2.so:_ZN6caffe29StringMapC1ERKS0_
libcaffe2.so:_ZN6caffe29StringMapC1Ev
libcaffe2.so:_ZN6caffe29StringMapC2ERKS0_
libcaffe2.so:_ZN6caffe29StringMapC2Ev
libcaffe2.so:_ZN6caffe29StringMapD0Ev
libcaffe2.so:_ZN6caffe29StringMapD1Ev
libcaffe2.so:_ZN6caffe29StringMapD2Ev
libcaffe2.so:_ZN6caffe29Tokenizer4nextEPcS1_RNS_15TokenizedStringE
libcaffe2.so:_ZN6caffe29Tokenizer5resetEv
libcaffe2.so:_ZN6caffe29TokenizerC1ERKSt6vectorIcSaIcEEc
libcaffe2.so:_ZN6caffe29TokenizerC2ERKSt6vectorIcSaIcEEc
libcaffe2.so:_ZN6caffe29Transform12PatternMatchERKNS_9transform5GraphE
libcaffe2.so:_ZN6caffe29Transform12TryNeighborsERKNS_9transform5GraphERKSt3mapIiSt6vectorINSt7__cxx1112basic_stringIcSt11char_traitsIcESaIcEEESaISC_EESt4lessIiESaISt4pairIKiSE_EEERKS6_IbSaIbEEPS6_IiSaIiEESU_
libcaffe2.so:_ZN6caffe29Transform14ReplacePatternERKSt6vectorIS1_IiSaIiEESaIS3_EEPNS_9transform5GraphE
libcaffe2.so:_ZN6caffe29Transform18PatternMatchHelperERKNS_9transform5GraphERKSt6vectorIbSaIbEEPS5_IiSaIiEESC_
libcaffe2.so:_ZN6caffe29Transform7ApplyToERKNS_6NetDefE
libcaffe2.so:_ZN6caffe29TreeProto10SharedCtorEv
libcaffe2.so:_ZN6caffe29TreeProto10SharedDtorEv
libcaffe2.so:_ZN6caffe29TreeProto10descriptorEv
libcaffe2.so:_ZN6caffe29TreeProto12InternalSwapEPS0_
libcaffe2.so:_ZN6caffe29TreeProto16default_instanceEv
libcaffe2.so:_ZN6caffe29TreeProto21InitAsDefaultInstanceEv
libcaffe2.so:_ZN6caffe29TreeProto27MergePartialFromCodedStreamEPN6google8protobuf2io16CodedInputStreamE
libcaffe2.so:_ZN6caffe29TreeProto4SwapEPS0_
libcaffe2.so:_ZN6caffe29TreeProto5ClearEv
libcaffe2.so:_ZN6caffe29TreeProto8CopyFromERKN6google8protobuf7MessageE
libcaffe2.so:_ZN6caffe29TreeProto8CopyFromERKS0_
libcaffe2.so:_ZN6caffe29TreeProto9MergeFromERKN6google8protobuf7MessageE
libcaffe2.so:_ZN6caffe29TreeProto9MergeFromERKS0_
libcaffe2.so:_ZN6caffe29TreeProtoC1ERKS0_
libcaffe2.so:_ZN6caffe29TreeProtoC1Ev
libcaffe2.so:_ZN6caffe29TreeProtoC2ERKS0_
libcaffe2.so:_ZN6caffe29TreeProtoC2Ev
libcaffe2.so:_ZN6caffe29TreeProtoD0Ev
libcaffe2.so:_ZN6caffe29TreeProtoD1Ev
libcaffe2.so:_ZN6caffe29TreeProtoD2Ev
libcaffe2.so:_ZN6caffe29TypedAxpyINS_5__f16EfEEviT0_PKT_PS2_
libcaffe2.so:_ZN6caffe29TypedAxpyIffEEviT0_PKT_PS1_
libcaffe2.so:_ZN6caffe29TypedAxpyIhfEEviT0_PKT_PS1_
libcaffe2.so:_ZN6caffe29Workspace10CreateBlobERKNSt7__cxx1112basic_stringIcSt11char_traitsIcESaIcEEE
libcaffe2.so:_ZN6caffe29Workspace10RemoveBlobERKNSt7__cxx1112basic_stringIcSt11char_traitsIcESaIcEEE
libcaffe2.so:_ZN6caffe29Workspace10RenameBlobERKNSt7__cxx1112basic_stringIcSt11char_traitsIcESaIcEEES8_
libcaffe2.so:_ZN6caffe29Workspace10RunNetOnceERKNS_6NetDefE
libcaffe2.so:_ZN6caffe29Workspace13GetThreadPoolEv
libcaffe2.so:_ZN6caffe29Workspace14AddBlobMappingEPKS0_RKSt13unordered_mapINSt7__cxx1112basic_stringIcSt11char_traitsIcESaIcEEES9_St4hashIS9_ESt8equal_toIS9_ESaISt4pairIKS9_S9_EEEb
libcaffe2.so:_ZN6caffe29Workspace14PrintBlobSizesEv
libcaffe2.so:_ZN6caffe29Workspace15CreateLocalBlobERKNSt7__cxx1112basic_stringIcSt11char_traitsIcESaIcEEE
libcaffe2.so:_ZN6caffe29Workspace15RunOperatorOnceERKNS_11OperatorDefE
libcaffe2.so:_ZN6caffe29Workspace6GetNetERKNSt7__cxx1112basic_stringIcSt11char_traitsIcESaIcEEE
libcaffe2.so:_ZN6caffe29Workspace6RunNetERKNSt7__cxx1112basic_stringIcSt11char_traitsIcESaIcEEE
libcaffe2.so:_ZN6caffe29Workspace7GetBlobERKNSt7__cxx1112basic_stringIcSt11char_traitsIcESaIcEEE
libcaffe2.so:_ZN6caffe29Workspace7RunPlanERKNS_7PlanDefESt8functionIFbiEE
libcaffe2.so:_ZN6caffe29Workspace9CreateNetERKNS_6NetDefEb
libcaffe2.so:_ZN6caffe29Workspace9CreateNetERKSt10shared_ptrIKNS_6NetDefEEb
libcaffe2.so:_ZN6caffe29Workspace9DeleteNetERKNSt7__cxx1112basic_stringIcSt11char_traitsIcESaIcEEE
libcaffe2.so:_ZN6caffe29dag_utils12singleChainsERSt6vectorINS0_12OperatorNodeESaIS2_EE
libcaffe2.so:_ZN6caffe29dag_utils13computeChainsERSt6vectorINS0_12OperatorNodeESaIS2_EE
libcaffe2.so:_ZN6caffe29dag_utils20prepareOperatorNodesERKSt10shared_ptrIKNS_6NetDefEEPNS_9WorkspaceE
libcaffe2.so:_ZN6caffe29dag_utils22prepareChainGraphNodesERKSt6vectorINS0_12OperatorNodeESaIS2_EERKS1_IS1_IiSaIiEESaIS8_EE
libcaffe2.so:_ZN6caffe29transform5Graph16GetSubgraphInputB5cxx11ERKSt6vectorIiSaIiEE
libcaffe2.so:_ZN6caffe29transform5Graph17GetSubgraphOutputB5cxx11ERKSt6vectorIiSaIiEE
libcaffe2.so:_ZN6caffe29transform5Graph18DeactivateSubgraphESt6vectorIiSaIiEE
libcaffe2.so:_ZN6caffe29transform5Graph26GetSubgraphPerimeterHelperB5cxx11EbRKSt6vectorIiSaIiEE
libcaffe2.so:_ZN6caffe29transform5Graph9GetNetDefEv
libcaffe2.so:_ZN6caffe29transform5GraphC1ERKNS_6NetDefE
libcaffe2.so:_ZN6caffe29transform5GraphC2ERKNS_6NetDefE
libcaffe2.so:_ZN6caffe2eqERKNS_6NetDefES2_
libcaffe2.so:_ZN6caffe2lsERSoRKNS_6NetDefE
libcaffe2.so:_ZN6caffe2lsERSoRKNS_8OpSchemaE
libcaffe2.so:_ZN7onnx_c210GraphProto10SharedCtorEv
libcaffe2.so:_ZN7onnx_c210GraphProto10SharedDtorEv
libcaffe2.so:_ZN7onnx_c210GraphProto10descriptorEv
libcaffe2.so:_ZN7onnx_c210GraphProto12InternalSwapEPS0_
libcaffe2.so:_ZN7onnx_c210GraphProto16default_instanceEv
libcaffe2.so:_ZN7onnx_c210GraphProto21InitAsDefaultInstanceEv
libcaffe2.so:_ZN7onnx_c210GraphProto27MergePartialFromCodedStreamEPN6google8protobuf2io16CodedInputStreamE
libcaffe2.so:_ZN7onnx_c210GraphProto4SwapEPS0_
libcaffe2.so:_ZN7onnx_c210GraphProto5ClearEv
libcaffe2.so:_ZN7onnx_c210GraphProto8CopyFromERKN6google8protobuf7MessageE
libcaffe2.so:_ZN7onnx_c210GraphProto8CopyFromERKS0_
libcaffe2.so:_ZN7onnx_c210GraphProto9MergeFromERKN6google8protobuf7MessageE
libcaffe2.so:_ZN7onnx_c210GraphProto9MergeFromERKS0_
libcaffe2.so:_ZN7onnx_c210GraphProtoC1ERKS0_
libcaffe2.so:_ZN7onnx_c210GraphProtoC1Ev
libcaffe2.so:_ZN7onnx_c210GraphProtoC2ERKS0_
libcaffe2.so:_ZN7onnx_c210GraphProtoC2Ev
libcaffe2.so:_ZN7onnx_c210GraphProtoD0Ev
libcaffe2.so:_ZN7onnx_c210GraphProtoD1Ev
libcaffe2.so:_ZN7onnx_c210GraphProtoD2Ev
libcaffe2.so:_ZN7onnx_c210ModelProto10SharedCtorEv
libcaffe2.so:_ZN7onnx_c210ModelProto10SharedDtorEv
libcaffe2.so:_ZN7onnx_c210ModelProto10descriptorEv
libcaffe2.so:_ZN7onnx_c210ModelProto12InternalSwapEPS0_
libcaffe2.so:_ZN7onnx_c210ModelProto16default_instanceEv
libcaffe2.so:_ZN7onnx_c210ModelProto21InitAsDefaultInstanceEv
libcaffe2.so:_ZN7onnx_c210ModelProto27MergePartialFromCodedStreamEPN6google8protobuf2io16CodedInputStreamE
libcaffe2.so:_ZN7onnx_c210ModelProto4SwapEPS0_
libcaffe2.so:_ZN7onnx_c210ModelProto5ClearEv
libcaffe2.so:_ZN7onnx_c210ModelProto8CopyFromERKN6google8protobuf7MessageE
libcaffe2.so:_ZN7onnx_c210ModelProto8CopyFromERKS0_
libcaffe2.so:_ZN7onnx_c210ModelProto9MergeFromERKN6google8protobuf7MessageE
libcaffe2.so:_ZN7onnx_c210ModelProto9MergeFromERKS0_
libcaffe2.so:_ZN7onnx_c210ModelProtoC1ERKS0_
libcaffe2.so:_ZN7onnx_c210ModelProtoC1Ev
libcaffe2.so:_ZN7onnx_c210ModelProtoC2ERKS0_
libcaffe2.so:_ZN7onnx_c210ModelProtoC2Ev
libcaffe2.so:_ZN7onnx_c210ModelProtoD0Ev
libcaffe2.so:_ZN7onnx_c210ModelProtoD1Ev
libcaffe2.so:_ZN7onnx_c210ModelProtoD2Ev
libcaffe2.so:_ZN7onnx_c210ReplaceAllERNSt7__cxx1112basic_stringIcSt11char_traitsIcESaIcEEEPKcS8_
libcaffe2.so:_ZN7onnx_c210value_nameB5cxx11EPNS_5ValueE
libcaffe2.so:_ZN7onnx_c211TensorProto10SharedCtorEv
libcaffe2.so:_ZN7onnx_c211TensorProto10SharedDtorEv
libcaffe2.so:_ZN7onnx_c211TensorProto10descriptorEv
libcaffe2.so:_ZN7onnx_c211TensorProto12InternalSwapEPS0_
libcaffe2.so:_ZN7onnx_c211TensorProto16default_instanceEv
libcaffe2.so:_ZN7onnx_c211TensorProto21InitAsDefaultInstanceEv
libcaffe2.so:_ZN7onnx_c211TensorProto27MergePartialFromCodedStreamEPN6google8protobuf2io16CodedInputStreamE
libcaffe2.so:_ZN7onnx_c211TensorProto4SwapEPS0_
libcaffe2.so:_ZN7onnx_c211TensorProto5ClearEv
libcaffe2.so:_ZN7onnx_c211TensorProto8CopyFromERKN6google8protobuf7MessageE
libcaffe2.so:_ZN7onnx_c211TensorProto8CopyFromERKS0_
libcaffe2.so:_ZN7onnx_c211TensorProto9MergeFromERKN6google8protobuf7MessageE
libcaffe2.so:_ZN7onnx_c211TensorProto9MergeFromERKS0_
libcaffe2.so:_ZN7onnx_c211TensorProtoC1ERKS0_
libcaffe2.so:_ZN7onnx_c211TensorProtoC1Ev
libcaffe2.so:_ZN7onnx_c211TensorProtoC2ERKS0_
libcaffe2.so:_ZN7onnx_c211TensorProtoC2Ev
libcaffe2.so:_ZN7onnx_c211TensorProtoD0Ev
libcaffe2.so:_ZN7onnx_c211TensorProtoD1Ev
libcaffe2.so:_ZN7onnx_c211TensorProtoD2Ev
libcaffe2.so:_ZN7onnx_c211encodeGraphEPNS_10GraphProtoERKSt10shared_ptrINS_5GraphEE
libcaffe2.so:_ZN7onnx_c212addAttributeEPNS_9NodeProtoEPNS_4NodeENS_6SymbolE
libcaffe2.so:_ZN7onnx_c212encodeTensorEPNS_11TensorProtoERKNS_6TensorE
libcaffe2.so:_ZN7onnx_c212optimization13PrepareOutputERKNS_10ModelProtoE
libcaffe2.so:_ZN7onnx_c212optimization8OptimizeERKNS_10ModelProtoERKSt6vectorINSt7__cxx1112basic_stringIcSt11char_traitsIcESaIcEEESaISA_EE
libcaffe2.so:_ZN7onnx_c214AttributeProto10SharedCtorEv
libcaffe2.so:_ZN7onnx_c214AttributeProto10SharedDtorEv
libcaffe2.so:_ZN7onnx_c214AttributeProto10descriptorEv
libcaffe2.so:_ZN7onnx_c214AttributeProto12InternalSwapEPS0_
libcaffe2.so:_ZN7onnx_c214AttributeProto16default_instanceEv
libcaffe2.so:_ZN7onnx_c214AttributeProto21InitAsDefaultInstanceEv
libcaffe2.so:_ZN7onnx_c214AttributeProto27MergePartialFromCodedStreamEPN6google8protobuf2io16CodedInputStreamE
libcaffe2.so:_ZN7onnx_c214AttributeProto4SwapEPS0_
libcaffe2.so:_ZN7onnx_c214AttributeProto5ClearEv
libcaffe2.so:_ZN7onnx_c214AttributeProto8CopyFromERKN6google8protobuf7MessageE
libcaffe2.so:_ZN7onnx_c214AttributeProto8CopyFromERKS0_
libcaffe2.so:_ZN7onnx_c214AttributeProto9MergeFromERKN6google8protobuf7MessageE
libcaffe2.so:_ZN7onnx_c214AttributeProto9MergeFromERKS0_
libcaffe2.so:_ZN7onnx_c214AttributeProtoC1ERKS0_
libcaffe2.so:_ZN7onnx_c214AttributeProtoC1Ev
libcaffe2.so:_ZN7onnx_c214AttributeProtoC2ERKS0_
libcaffe2.so:_ZN7onnx_c214AttributeProtoC2Ev
libcaffe2.so:_ZN7onnx_c214AttributeProtoD0Ev
libcaffe2.so:_ZN7onnx_c214AttributeProtoD1Ev
libcaffe2.so:_ZN7onnx_c214AttributeProtoD2Ev
libcaffe2.so:_ZN7onnx_c214ValueInfoProto10SharedCtorEv
libcaffe2.so:_ZN7onnx_c214ValueInfoProto10SharedDtorEv
libcaffe2.so:_ZN7onnx_c214ValueInfoProto10descriptorEv
libcaffe2.so:_ZN7onnx_c214ValueInfoProto12InternalSwapEPS0_
libcaffe2.so:_ZN7onnx_c214ValueInfoProto16default_instanceEv
libcaffe2.so:_ZN7onnx_c214ValueInfoProto21InitAsDefaultInstanceEv
libcaffe2.so:_ZN7onnx_c214ValueInfoProto27MergePartialFromCodedStreamEPN6google8protobuf2io16CodedInputStreamE
libcaffe2.so:_ZN7onnx_c214ValueInfoProto4SwapEPS0_
libcaffe2.so:_ZN7onnx_c214ValueInfoProto5ClearEv
libcaffe2.so:_ZN7onnx_c214ValueInfoProto8CopyFromERKN6google8protobuf7MessageE
libcaffe2.so:_ZN7onnx_c214ValueInfoProto8CopyFromERKS0_
libcaffe2.so:_ZN7onnx_c214ValueInfoProto9MergeFromERKN6google8protobuf7MessageE
libcaffe2.so:_ZN7onnx_c214ValueInfoProto9MergeFromERKS0_
libcaffe2.so:_ZN7onnx_c214ValueInfoProtoC1ERKS0_
libcaffe2.so:_ZN7onnx_c214ValueInfoProtoC1Ev
libcaffe2.so:_ZN7onnx_c214ValueInfoProtoC2ERKS0_
libcaffe2.so:_ZN7onnx_c214ValueInfoProtoC2Ev
libcaffe2.so:_ZN7onnx_c214ValueInfoProtoD0Ev
libcaffe2.so:_ZN7onnx_c214ValueInfoProtoD1Ev
libcaffe2.so:_ZN7onnx_c214ValueInfoProtoD2Ev
libcaffe2.so:_ZN7onnx_c215RNNDocGeneratorEPKc
libcaffe2.so:_ZN7onnx_c215Version_IsValidEi
libcaffe2.so:_ZN7onnx_c215encodeValueInfoEPNS_14ValueInfoProtoEPNS_5ValueE
libcaffe2.so:_ZN7onnx_c216ExportModelProtoEPNS_10ModelProtoERKSt10shared_ptrINS_5GraphEE
libcaffe2.so:_ZN7onnx_c216ImportModelProtoERKNS_10ModelProtoE
libcaffe2.so:_ZN7onnx_c216MathDocGeneratorEPKc
libcaffe2.so:_ZN7onnx_c216OpSchemaRegistry3mapB5cxx11Ev
libcaffe2.so:_ZN7onnx_c216TensorShapeProto10SharedCtorEv
libcaffe2.so:_ZN7onnx_c216TensorShapeProto10SharedDtorEv
libcaffe2.so:_ZN7onnx_c216TensorShapeProto10descriptorEv
libcaffe2.so:_ZN7onnx_c216TensorShapeProto12InternalSwapEPS0_
libcaffe2.so:_ZN7onnx_c216TensorShapeProto16default_instanceEv
libcaffe2.so:_ZN7onnx_c216TensorShapeProto21InitAsDefaultInstanceEv
libcaffe2.so:_ZN7onnx_c216TensorShapeProto27MergePartialFromCodedStreamEPN6google8protobuf2io16CodedInputStreamE
libcaffe2.so:_ZN7onnx_c216TensorShapeProto4SwapEPS0_
libcaffe2.so:_ZN7onnx_c216TensorShapeProto5ClearEv
libcaffe2.so:_ZN7onnx_c216TensorShapeProto8CopyFromERKN6google8protobuf7MessageE
libcaffe2.so:_ZN7onnx_c216TensorShapeProto8CopyFromERKS0_
libcaffe2.so:_ZN7onnx_c216TensorShapeProto9MergeFromERKN6google8protobuf7MessageE
libcaffe2.so:_ZN7onnx_c216TensorShapeProto9MergeFromERKS0_
libcaffe2.so:_ZN7onnx_c216TensorShapeProtoC1ERKS0_
libcaffe2.so:_ZN7onnx_c216TensorShapeProtoC1Ev
libcaffe2.so:_ZN7onnx_c216TensorShapeProtoC2ERKS0_
libcaffe2.so:_ZN7onnx_c216TensorShapeProtoC2Ev
libcaffe2.so:_ZN7onnx_c216TensorShapeProtoD0Ev
libcaffe2.so:_ZN7onnx_c216TensorShapeProtoD1Ev
libcaffe2.so:_ZN7onnx_c216TensorShapeProtoD2Ev
libcaffe2.so:_ZN7onnx_c216TypeProto_Tensor10SharedCtorEv
libcaffe2.so:_ZN7onnx_c216TypeProto_Tensor10SharedDtorEv
libcaffe2.so:_ZN7onnx_c216TypeProto_Tensor10descriptorEv
libcaffe2.so:_ZN7onnx_c216TypeProto_Tensor12InternalSwapEPS0_
libcaffe2.so:_ZN7onnx_c216TypeProto_Tensor16default_instanceEv
libcaffe2.so:_ZN7onnx_c216TypeProto_Tensor21InitAsDefaultInstanceEv
libcaffe2.so:_ZN7onnx_c216TypeProto_Tensor27MergePartialFromCodedStreamEPN6google8protobuf2io16CodedInputStreamE
libcaffe2.so:_ZN7onnx_c216TypeProto_Tensor4SwapEPS0_
libcaffe2.so:_ZN7onnx_c216TypeProto_Tensor5ClearEv
libcaffe2.so:_ZN7onnx_c216TypeProto_Tensor8CopyFromERKN6google8protobuf7MessageE
libcaffe2.so:_ZN7onnx_c216TypeProto_Tensor8CopyFromERKS0_
libcaffe2.so:_ZN7onnx_c216TypeProto_Tensor9MergeFromERKN6google8protobuf7MessageE
libcaffe2.so:_ZN7onnx_c216TypeProto_Tensor9MergeFromERKS0_
libcaffe2.so:_ZN7onnx_c216TypeProto_TensorC1ERKS0_
libcaffe2.so:_ZN7onnx_c216TypeProto_TensorC1Ev
libcaffe2.so:_ZN7onnx_c216TypeProto_TensorC2ERKS0_
libcaffe2.so:_ZN7onnx_c216TypeProto_TensorC2Ev
libcaffe2.so:_ZN7onnx_c216TypeProto_TensorD0Ev
libcaffe2.so:_ZN7onnx_c216TypeProto_TensorD1Ev
libcaffe2.so:_ZN7onnx_c216TypeProto_TensorD2Ev
libcaffe2.so:_ZN7onnx_c216convertAttributeERKNS_14AttributeProtoEPNS_4NodeE
libcaffe2.so:_ZN7onnx_c217convertAttributesERNS_9NodeProtoEPNS_4NodeE
libcaffe2.so:_ZN7onnx_c217graphProtoToGraphERKNS_10GraphProtoE
libcaffe2.so:_ZN7onnx_c218OperatorSetIdProto10SharedCtorEv
libcaffe2.so:_ZN7onnx_c218OperatorSetIdProto10SharedDtorEv
libcaffe2.so:_ZN7onnx_c218OperatorSetIdProto10descriptorEv
libcaffe2.so:_ZN7onnx_c218OperatorSetIdProto12InternalSwapEPS0_
libcaffe2.so:_ZN7onnx_c218OperatorSetIdProto16default_instanceEv
libcaffe2.so:_ZN7onnx_c218OperatorSetIdProto21InitAsDefaultInstanceEv
libcaffe2.so:_ZN7onnx_c218OperatorSetIdProto27MergePartialFromCodedStreamEPN6google8protobuf2io16CodedInputStreamE
libcaffe2.so:_ZN7onnx_c218OperatorSetIdProto4SwapEPS0_
libcaffe2.so:_ZN7onnx_c218OperatorSetIdProto5ClearEv
libcaffe2.so:_ZN7onnx_c218OperatorSetIdProto8CopyFromERKN6google8protobuf7MessageE
libcaffe2.so:_ZN7onnx_c218OperatorSetIdProto8CopyFromERKS0_
libcaffe2.so:_ZN7onnx_c218OperatorSetIdProto9MergeFromERKN6google8protobuf7MessageE
libcaffe2.so:_ZN7onnx_c218OperatorSetIdProto9MergeFromERKS0_
libcaffe2.so:_ZN7onnx_c218OperatorSetIdProtoC1ERKS0_
libcaffe2.so:_ZN7onnx_c218OperatorSetIdProtoC1Ev
libcaffe2.so:_ZN7onnx_c218OperatorSetIdProtoC2ERKS0_
libcaffe2.so:_ZN7onnx_c218OperatorSetIdProtoC2Ev
libcaffe2.so:_ZN7onnx_c218OperatorSetIdProtoD0Ev
libcaffe2.so:_ZN7onnx_c218OperatorSetIdProtoD1Ev
libcaffe2.so:_ZN7onnx_c218OperatorSetIdProtoD2Ev
libcaffe2.so:_ZN7onnx_c218RNNDocGeneratorOldEPKc
libcaffe2.so:_ZN7onnx_c218ReduceDocGeneratorEPKc
libcaffe2.so:_ZN7onnx_c218Version_descriptorEv
libcaffe2.so:_ZN7onnx_c218datatypeFromStringERKNSt7__cxx1112basic_stringIcSt11char_traitsIcESaIcEEE
libcaffe2.so:_ZN7onnx_c219TensorProto_Segment10SharedCtorEv
libcaffe2.so:_ZN7onnx_c219TensorProto_Segment10SharedDtorEv
libcaffe2.so:_ZN7onnx_c219TensorProto_Segment10descriptorEv
libcaffe2.so:_ZN7onnx_c219TensorProto_Segment12InternalSwapEPS0_
libcaffe2.so:_ZN7onnx_c219TensorProto_Segment16default_instanceEv
libcaffe2.so:_ZN7onnx_c219TensorProto_Segment21InitAsDefaultInstanceEv
libcaffe2.so:_ZN7onnx_c219TensorProto_Segment27MergePartialFromCodedStreamEPN6google8protobuf2io16CodedInputStreamE
libcaffe2.so:_ZN7onnx_c219TensorProto_Segment4SwapEPS0_
libcaffe2.so:_ZN7onnx_c219TensorProto_Segment5ClearEv
libcaffe2.so:_ZN7onnx_c219TensorProto_Segment8CopyFromERKN6google8protobuf7MessageE
libcaffe2.so:_ZN7onnx_c219TensorProto_Segment8CopyFromERKS0_
libcaffe2.so:_ZN7onnx_c219TensorProto_Segment9MergeFromERKN6google8protobuf7MessageE
libcaffe2.so:_ZN7onnx_c219TensorProto_Segment9MergeFromERKS0_
libcaffe2.so:_ZN7onnx_c219TensorProto_SegmentC1ERKS0_
libcaffe2.so:_ZN7onnx_c219TensorProto_SegmentC1Ev
libcaffe2.so:_ZN7onnx_c219TensorProto_SegmentC2ERKS0_
libcaffe2.so:_ZN7onnx_c219TensorProto_SegmentC2Ev
libcaffe2.so:_ZN7onnx_c219TensorProto_SegmentD0Ev
libcaffe2.so:_ZN7onnx_c219TensorProto_SegmentD1Ev
libcaffe2.so:_ZN7onnx_c219TensorProto_SegmentD2Ev
libcaffe2.so:_ZN7onnx_c219tensorProtoToTensorERKNS_11TensorProtoE
libcaffe2.so:_ZN7onnx_c220MathDocGenerator_oldEPKc
libcaffe2.so:_ZN7onnx_c221ArgReduceDocGeneratorEPKc
libcaffe2.so:_ZN7onnx_c221ConvOpSchemaGeneratorEPKc
libcaffe2.so:_ZN7onnx_c221PoolOpSchemaGeneratorEPKcS1_S1_
libcaffe2.so:_ZN7onnx_c222StringStringEntryProto10SharedCtorEv
libcaffe2.so:_ZN7onnx_c222StringStringEntryProto10SharedDtorEv
libcaffe2.so:_ZN7onnx_c222StringStringEntryProto10descriptorEv
libcaffe2.so:_ZN7onnx_c222StringStringEntryProto12InternalSwapEPS0_
libcaffe2.so:_ZN7onnx_c222StringStringEntryProto16default_instanceEv
libcaffe2.so:_ZN7onnx_c222StringStringEntryProto21InitAsDefaultInstanceEv
libcaffe2.so:_ZN7onnx_c222StringStringEntryProto27MergePartialFromCodedStreamEPN6google8protobuf2io16CodedInputStreamE
libcaffe2.so:_ZN7onnx_c222StringStringEntryProto4SwapEPS0_
libcaffe2.so:_ZN7onnx_c222StringStringEntryProto5ClearEv
libcaffe2.so:_ZN7onnx_c222StringStringEntryProto8CopyFromERKN6google8protobuf7MessageE
libcaffe2.so:_ZN7onnx_c222StringStringEntryProto8CopyFromERKS0_
libcaffe2.so:_ZN7onnx_c222StringStringEntryProto9MergeFromERKN6google8protobuf7MessageE
libcaffe2.so:_ZN7onnx_c222StringStringEntryProto9MergeFromERKS0_
libcaffe2.so:_ZN7onnx_c222StringStringEntryProtoC1ERKS0_
libcaffe2.so:_ZN7onnx_c222StringStringEntryProtoC1Ev
libcaffe2.so:_ZN7onnx_c222StringStringEntryProtoC2ERKS0_
libcaffe2.so:_ZN7onnx_c222StringStringEntryProtoC2Ev
libcaffe2.so:_ZN7onnx_c222StringStringEntryProtoD0Ev
libcaffe2.so:_ZN7onnx_c222StringStringEntryProtoD1Ev
libcaffe2.so:_ZN7onnx_c222StringStringEntryProtoD2Ev
libcaffe2.so:_ZN7onnx_c223BinaryLogicDocGeneratorEPKc
libcaffe2.so:_ZN7onnx_c223LpPoolOpSchemaGeneratorEPKc
libcaffe2.so:_ZN7onnx_c224RoiPoolOpSchemaGeneratorEPKc
libcaffe2.so:_ZN7onnx_c225SoftmaxFamilyDocGeneratorEPKcS1_
libcaffe2.so:_ZN7onnx_c225encodeTypeProtoTensorTypeEPNS_16TypeProto_TensorEPNS_5ValueE
libcaffe2.so:_ZN7onnx_c226TensorShapeProto_Dimension10SharedCtorEv
libcaffe2.so:_ZN7onnx_c226TensorShapeProto_Dimension10SharedDtorEv
libcaffe2.so:_ZN7onnx_c226TensorShapeProto_Dimension10descriptorEv
libcaffe2.so:_ZN7onnx_c226TensorShapeProto_Dimension11clear_valueEv
libcaffe2.so:_ZN7onnx_c226TensorShapeProto_Dimension12InternalSwapEPS0_
libcaffe2.so:_ZN7onnx_c226TensorShapeProto_Dimension16default_instanceEv
libcaffe2.so:_ZN7onnx_c226TensorShapeProto_Dimension21InitAsDefaultInstanceEv
libcaffe2.so:_ZN7onnx_c226TensorShapeProto_Dimension27MergePartialFromCodedStreamEPN6google8protobuf2io16CodedInputStreamE
libcaffe2.so:_ZN7onnx_c226TensorShapeProto_Dimension4SwapEPS0_
libcaffe2.so:_ZN7onnx_c226TensorShapeProto_Dimension5ClearEv
libcaffe2.so:_ZN7onnx_c226TensorShapeProto_Dimension8CopyFromERKN6google8protobuf7MessageE
libcaffe2.so:_ZN7onnx_c226TensorShapeProto_Dimension8CopyFromERKS0_
libcaffe2.so:_ZN7onnx_c226TensorShapeProto_Dimension9MergeFromERKN6google8protobuf7MessageE
libcaffe2.so:_ZN7onnx_c226TensorShapeProto_Dimension9MergeFromERKS0_
libcaffe2.so:_ZN7onnx_c226TensorShapeProto_DimensionC1ERKS0_
libcaffe2.so:_ZN7onnx_c226TensorShapeProto_DimensionC1Ev
libcaffe2.so:_ZN7onnx_c226TensorShapeProto_DimensionC2ERKS0_
libcaffe2.so:_ZN7onnx_c226TensorShapeProto_DimensionC2Ev
libcaffe2.so:_ZN7onnx_c226TensorShapeProto_DimensionD0Ev
libcaffe2.so:_ZN7onnx_c226TensorShapeProto_DimensionD1Ev
libcaffe2.so:_ZN7onnx_c226TensorShapeProto_DimensionD2Ev
libcaffe2.so:_ZN7onnx_c228TensorProto_DataType_IsValidEi
libcaffe2.so:_ZN7onnx_c228tensorShapeProtoToDimensionsERKNS_16TensorShapeProtoE
libcaffe2.so:_ZN7onnx_c230ConvTransposeOpSchemaGeneratorEPKc
libcaffe2.so:_ZN7onnx_c230GlobalPoolingOpSchemaGeneratorEPKcS1_
libcaffe2.so:_ZN7onnx_c231TensorProto_DataType_descriptorEv
libcaffe2.so:_ZN7onnx_c232GlobalLpPoolingOpSchemaGeneratorEPKcS1_
libcaffe2.so:_ZN7onnx_c236AttributeProto_AttributeType_IsValidEi
libcaffe2.so:_ZN7onnx_c239AttributeProto_AttributeType_descriptorEv
libcaffe2.so:_ZN7onnx_c24barfEPKcz
libcaffe2.so:_ZN7onnx_c25Utils11StringRange10LAndRStripEv
libcaffe2.so:_ZN7onnx_c25Utils11StringRange11GetCapturedEv
libcaffe2.so:_ZN7onnx_c25Utils11StringRange14RestartCaptureEv
libcaffe2.so:_ZN7onnx_c25Utils11StringRange21ParensWhitespaceStripEv
libcaffe2.so:_ZN7onnx_c25Utils11StringRange5ResetEPKcm
libcaffe2.so:_ZN7onnx_c25Utils11StringRange5ResetERKNSt7__cxx1112basic_stringIcSt11char_traitsIcESaIcEEE
libcaffe2.so:_ZN7onnx_c25Utils11StringRange5ResetEv
libcaffe2.so:_ZN7onnx_c25Utils11StringRange6LStripES1_
libcaffe2.so:_ZN7onnx_c25Utils11StringRange6LStripEm
libcaffe2.so:_ZN7onnx_c25Utils11StringRange6LStripEv
libcaffe2.so:_ZN7onnx_c25Utils11StringRange6RStripES1_
libcaffe2.so:_ZN7onnx_c25Utils11StringRange6RStripEm
libcaffe2.so:_ZN7onnx_c25Utils11StringRange6RStripEv
libcaffe2.so:_ZN7onnx_c25Utils11StringRangeC1EPKc
libcaffe2.so:_ZN7onnx_c25Utils11StringRangeC1EPKcm
libcaffe2.so:_ZN7onnx_c25Utils11StringRangeC1ERKNSt7__cxx1112basic_stringIcSt11char_traitsIcESaIcEEE
libcaffe2.so:_ZN7onnx_c25Utils11StringRangeC1Ev
libcaffe2.so:_ZN7onnx_c25Utils11StringRangeC2EPKc
libcaffe2.so:_ZN7onnx_c25Utils11StringRangeC2EPKcm
libcaffe2.so:_ZN7onnx_c25Utils11StringRangeC2ERKNSt7__cxx1112basic_stringIcSt11char_traitsIcESaIcEEE
libcaffe2.so:_ZN7onnx_c25Utils11StringRangeC2Ev
libcaffe2.so:_ZN7onnx_c25Utils12TypesWrapper15GetTypesWrapperEv
libcaffe2.so:_ZN7onnx_c25Utils12TypesWrapper19GetAllowedDataTypesB5cxx11Ev
libcaffe2.so:_ZN7onnx_c25Utils12TypesWrapper23TensorDataTypeToTypeStrB5cxx11Ev
libcaffe2.so:_ZN7onnx_c25Utils12TypesWrapper23TypeStrToTensorDataTypeB5cxx11Ev
libcaffe2.so:_ZN7onnx_c25Utils12TypesWrapperC1Ev
libcaffe2.so:_ZN7onnx_c25Utils12TypesWrapperC2Ev
libcaffe2.so:_ZN7onnx_c25Utils13DataTypeUtils10FromStringERKNSt7__cxx1112basic_stringIcSt11char_traitsIcESaIcEEERNS_9TypeProtoE
libcaffe2.so:_ZN7onnx_c25Utils13DataTypeUtils11ToTypeProtoERKPKNSt7__cxx1112basic_stringIcSt11char_traitsIcESaIcEEE
libcaffe2.so:_ZN7onnx_c25Utils13DataTypeUtils14GetTypeStrLockEv
libcaffe2.so:_ZN7onnx_c25Utils13DataTypeUtils16ToDataTypeStringB5cxx11ERKNS_20TensorProto_DataTypeE
libcaffe2.so:_ZN7onnx_c25Utils13DataTypeUtils18FromDataTypeStringERKNSt7__cxx1112basic_stringIcSt11char_traitsIcESaIcEEERNS_20TensorProto_DataTypeE
libcaffe2.so:_ZN7onnx_c25Utils13DataTypeUtils20GetTypeStrToProtoMapB5cxx11Ev
libcaffe2.so:_ZN7onnx_c25Utils13DataTypeUtils21IsValidDataTypeStringERKNSt7__cxx1112basic_stringIcSt11char_traitsIcESaIcEEE
libcaffe2.so:_ZN7onnx_c25Utils13DataTypeUtils6ToTypeB5cxx11ERKNS_9TypeProtoE
libcaffe2.so:_ZN7onnx_c25Utils13DataTypeUtils6ToTypeERKNSt7__cxx1112basic_stringIcSt11char_traitsIcESaIcEEE
libcaffe2.so:_ZN7onnx_c25Utils13DataTypeUtils8ToStringERKNS_9TypeProtoERKNSt7__cxx1112basic_stringIcSt11char_traitsIcESaIcEEESC_
libcaffe2.so:_ZN7onnx_c26SymbolC1ERKNSt7__cxx1112basic_stringIcSt11char_traitsIcESaIcEEE
libcaffe2.so:_ZN7onnx_c26SymbolC2ERKNSt7__cxx1112basic_stringIcSt11char_traitsIcESaIcEEE
libcaffe2.so:_ZN7onnx_c27checker10check_nodeERKNS_9NodeProtoERKNS0_14CheckerContextERKNS0_19LexicalScopeContextE
libcaffe2.so:_ZN7onnx_c27checker11check_graphERKNS_10GraphProtoERKNS0_14CheckerContextERKNS0_19LexicalScopeContextE
libcaffe2.so:_ZN7onnx_c27checker11check_modelERKNS_10ModelProtoE
libcaffe2.so:_ZN7onnx_c27checker12check_tensorERKNS_11TensorProtoERKNS0_14CheckerContextE
libcaffe2.so:_ZN7onnx_c27checker15check_attributeERKNS_14AttributeProtoERKNS0_14CheckerContextERKNS0_19LexicalScopeContextE
libcaffe2.so:_ZN7onnx_c27checker16check_value_infoERKNS_14ValueInfoProtoERKNS0_14CheckerContextE
libcaffe2.so:_ZN7onnx_c28OpSchema10NumOutputsESt3setIiSt4lessIiESaIiEE
libcaffe2.so:_ZN7onnx_c28OpSchema12SinceVersionEi
libcaffe2.so:_ZN7onnx_c28OpSchema14TypeConstraintENSt7__cxx1112basic_stringIcSt11char_traitsIcESaIcEEESt6vectorIS6_SaIS6_EES6_
libcaffe2.so:_ZN7onnx_c28OpSchema15FormalParameter12MutableTypesB5cxx11Ev
libcaffe2.so:_ZN7onnx_c28OpSchema15FormalParameterC1ENSt7__cxx1112basic_stringIcSt11char_traitsIcESaIcEEES7_S7_NS0_21FormalParameterOptionE
libcaffe2.so:_ZN7onnx_c28OpSchema15FormalParameterC1ENSt7__cxx1112basic_stringIcSt11char_traitsIcESaIcEEESt13unordered_setIPKS7_St4hashISA_ESt8equal_toISA_ESaISA_EES7_S7_NS0_21FormalParameterOptionE
libcaffe2.so:_ZN7onnx_c28OpSchema15FormalParameterC2ENSt7__cxx1112basic_stringIcSt11char_traitsIcESaIcEEES7_S7_NS0_21FormalParameterOptionE
libcaffe2.so:_ZN7onnx_c28OpSchema15FormalParameterC2ENSt7__cxx1112basic_stringIcSt11char_traitsIcESaIcEEESt13unordered_setIPKS7_St4hashISA_ESt8equal_toISA_ESaISA_EES7_S7_NS0_21FormalParameterOptionE
libcaffe2.so:_ZN7onnx_c28OpSchema15SetSupportLevelENS0_11SupportTypeE
libcaffe2.so:_ZN7onnx_c28OpSchema16ParseAndSetTypesEPSt6vectorINS0_15FormalParameterESaIS2_EE
libcaffe2.so:_ZN7onnx_c28OpSchema22ShapeInferenceFunctionEPFvRNS_16InferenceContextEE
libcaffe2.so:_ZN7onnx_c28OpSchema24AllowUncheckedAttributesEv
libcaffe2.so:_ZN7onnx_c28OpSchema4AttrENS0_9AttributeE
libcaffe2.so:_ZN7onnx_c28OpSchema4AttrENSt7__cxx1112basic_stringIcSt11char_traitsIcESaIcEEES6_NS_28AttributeProto_AttributeTypeERKNS_10GraphProtoE
libcaffe2.so:_ZN7onnx_c28OpSchema4AttrENSt7__cxx1112basic_stringIcSt11char_traitsIcESaIcEEES6_NS_28AttributeProto_AttributeTypeERKNS_11TensorProtoE
libcaffe2.so:_ZN7onnx_c28OpSchema4AttrENSt7__cxx1112basic_stringIcSt11char_traitsIcESaIcEEES6_NS_28AttributeProto_AttributeTypeERKS6_
libcaffe2.so:_ZN7onnx_c28OpSchema4AttrENSt7__cxx1112basic_stringIcSt11char_traitsIcESaIcEEES6_NS_28AttributeProto_AttributeTypeERKSt6vectorINS_10GraphProtoESaIS9_EE
libcaffe2.so:_ZN7onnx_c28OpSchema4AttrENSt7__cxx1112basic_stringIcSt11char_traitsIcESaIcEEES6_NS_28AttributeProto_AttributeTypeERKSt6vectorINS_11TensorProtoESaIS9_EE
libcaffe2.so:_ZN7onnx_c28OpSchema4AttrENSt7__cxx1112basic_stringIcSt11char_traitsIcESaIcEEES6_NS_28AttributeProto_AttributeTypeERKSt6vectorIS6_SaIS6_EE
libcaffe2.so:_ZN7onnx_c28OpSchema4AttrENSt7__cxx1112basic_stringIcSt11char_traitsIcESaIcEEES6_NS_28AttributeProto_AttributeTypeERKSt6vectorIfSaIfEE
libcaffe2.so:_ZN7onnx_c28OpSchema4AttrENSt7__cxx1112basic_stringIcSt11char_traitsIcESaIcEEES6_NS_28AttributeProto_AttributeTypeERKSt6vectorIlSaIlEE
libcaffe2.so:_ZN7onnx_c28OpSchema4AttrENSt7__cxx1112basic_stringIcSt11char_traitsIcESaIcEEES6_NS_28AttributeProto_AttributeTypeERKf
libcaffe2.so:_ZN7onnx_c28OpSchema4AttrENSt7__cxx1112basic_stringIcSt11char_traitsIcESaIcEEES6_NS_28AttributeProto_AttributeTypeERKl
libcaffe2.so:_ZN7onnx_c28OpSchema4AttrENSt7__cxx1112basic_stringIcSt11char_traitsIcESaIcEEES6_NS_28AttributeProto_AttributeTypeEb
libcaffe2.so:_ZN7onnx_c28OpSchema5InputEiNSt7__cxx1112basic_stringIcSt11char_traitsIcESaIcEEES6_S6_NS0_21FormalParameterOptionE
libcaffe2.so:_ZN7onnx_c28OpSchema6OutputEiNSt7__cxx1112basic_stringIcSt11char_traitsIcESaIcEEES6_S6_NS0_21FormalParameterOptionE
libcaffe2.so:_ZN7onnx_c28OpSchema6SetDocENSt7__cxx1112basic_stringIcSt11char_traitsIcESaIcEEE
libcaffe2.so:_ZN7onnx_c28OpSchema8FinalizeEv
libcaffe2.so:_ZN7onnx_c28OpSchema9FillUsingERKSt8functionIFvRS0_EE
libcaffe2.so:_ZN7onnx_c28OpSchema9NumInputsESt3setIiSt4lessIiESaIiEE
libcaffe2.so:_ZN7onnx_c28OpSchema9SetDomainENSt7__cxx1112basic_stringIcSt11char_traitsIcESaIcEEE
libcaffe2.so:_ZN7onnx_c29NodeProto10SharedCtorEv
libcaffe2.so:_ZN7onnx_c29NodeProto10SharedDtorEv
libcaffe2.so:_ZN7onnx_c29NodeProto10descriptorEv
libcaffe2.so:_ZN7onnx_c29NodeProto12InternalSwapEPS0_
libcaffe2.so:_ZN7onnx_c29NodeProto16default_instanceEv
libcaffe2.so:_ZN7onnx_c29NodeProto21InitAsDefaultInstanceEv
libcaffe2.so:_ZN7onnx_c29NodeProto27MergePartialFromCodedStreamEPN6google8protobuf2io16CodedInputStreamE
libcaffe2.so:_ZN7onnx_c29NodeProto4SwapEPS0_
libcaffe2.so:_ZN7onnx_c29NodeProto5ClearEv
libcaffe2.so:_ZN7onnx_c29NodeProto8CopyFromERKN6google8protobuf7MessageE
libcaffe2.so:_ZN7onnx_c29NodeProto8CopyFromERKS0_
libcaffe2.so:_ZN7onnx_c29NodeProto9MergeFromERKN6google8protobuf7MessageE
libcaffe2.so:_ZN7onnx_c29NodeProto9MergeFromERKS0_
libcaffe2.so:_ZN7onnx_c29NodeProtoC1ERKS0_
libcaffe2.so:_ZN7onnx_c29NodeProtoC1Ev
libcaffe2.so:_ZN7onnx_c29NodeProtoC2ERKS0_
libcaffe2.so:_ZN7onnx_c29NodeProtoC2Ev
libcaffe2.so:_ZN7onnx_c29NodeProtoD0Ev
libcaffe2.so:_ZN7onnx_c29NodeProtoD1Ev
libcaffe2.so:_ZN7onnx_c29NodeProtoD2Ev
libcaffe2.so:_ZN7onnx_c29TypeProto10SharedCtorEv
libcaffe2.so:_ZN7onnx_c29TypeProto10SharedDtorEv
libcaffe2.so:_ZN7onnx_c29TypeProto10descriptorEv
libcaffe2.so:_ZN7onnx_c29TypeProto11clear_valueEv
libcaffe2.so:_ZN7onnx_c29TypeProto12InternalSwapEPS0_
libcaffe2.so:_ZN7onnx_c29TypeProto16default_instanceEv
libcaffe2.so:_ZN7onnx_c29TypeProto21InitAsDefaultInstanceEv
libcaffe2.so:_ZN7onnx_c29TypeProto25set_allocated_tensor_typeEPNS_16TypeProto_TensorE
libcaffe2.so:_ZN7onnx_c29TypeProto27MergePartialFromCodedStreamEPN6google8protobuf2io16CodedInputStreamE
libcaffe2.so:_ZN7onnx_c29TypeProto4SwapEPS0_
libcaffe2.so:_ZN7onnx_c29TypeProto5ClearEv
libcaffe2.so:_ZN7onnx_c29TypeProto8CopyFromERKN6google8protobuf7MessageE
libcaffe2.so:_ZN7onnx_c29TypeProto8CopyFromERKS0_
libcaffe2.so:_ZN7onnx_c29TypeProto9MergeFromERKN6google8protobuf7MessageE
libcaffe2.so:_ZN7onnx_c29TypeProto9MergeFromERKS0_
libcaffe2.so:_ZN7onnx_c29TypeProtoC1ERKS0_
libcaffe2.so:_ZN7onnx_c29TypeProtoC1Ev
libcaffe2.so:_ZN7onnx_c29TypeProtoC2ERKS0_
libcaffe2.so:_ZN7onnx_c29TypeProtoC2Ev
libcaffe2.so:_ZN7onnx_c29TypeProtoD0Ev
libcaffe2.so:_ZN7onnx_c29TypeProtoD1Ev
libcaffe2.so:_ZN7onnx_c29TypeProtoD2Ev
libcaffe2.so:_ZN7onnx_c2lsERSoRKNS_8OpSchemaE
libcaffe2.so:_ZNK3nom4repr13NeuralNetData7getNameB5cxx11Ev
libcaffe2.so:_ZNK3nom4repr17NeuralNetOperator7getNameB5cxx11Ev
libcaffe2.so:_ZNK4gloo13EnforceNotMet3msgB5cxx11Ev
libcaffe2.so:_ZNK4gloo13EnforceNotMet4whatEv
libcaffe2.so:_ZNK4gloo7Context10getTimeoutEv
libcaffe2.so:_ZNK4gloo9transport3tcp4Pair7addressEv
libcaffe2.so:_ZNK4gloo9transport3tcp6Device11getPCIBusIDB5cxx11Ev
libcaffe2.so:_ZNK4gloo9transport3tcp6Device17getInterfaceSpeedEv
libcaffe2.so:_ZNK4gloo9transport3tcp6Device3strB5cxx11Ev
libcaffe2.so:_ZNK4gloo9transport3tcp7Address3strB5cxx11Ev
libcaffe2.so:_ZNK4gloo9transport3tcp7Address5bytesEv
libcaffe2.so:_ZNK5caffe11SolverState11GetMetadataEv
libcaffe2.so:_ZNK5caffe11SolverState12ByteSizeLongEv
libcaffe2.so:_ZNK5caffe11SolverState13IsInitializedEv
libcaffe2.so:_ZNK5caffe11SolverState13SetCachedSizeEi
libcaffe2.so:_ZNK5caffe11SolverState24SerializeWithCachedSizesEPN6google8protobuf2io17CodedOutputStreamE
libcaffe2.so:_ZNK5caffe11SolverState39InternalSerializeWithCachedSizesToArrayEbPh
libcaffe2.so:_ZNK5caffe11SolverState3NewEPN6google8protobuf5ArenaE
libcaffe2.so:_ZNK5caffe12ELUParameter11GetMetadataEv
libcaffe2.so:_ZNK5caffe12ELUParameter12ByteSizeLongEv
libcaffe2.so:_ZNK5caffe12ELUParameter13IsInitializedEv
libcaffe2.so:_ZNK5caffe12ELUParameter13SetCachedSizeEi
libcaffe2.so:_ZNK5caffe12ELUParameter24SerializeWithCachedSizesEPN6google8protobuf2io17CodedOutputStreamE
libcaffe2.so:_ZNK5caffe12ELUParameter39InternalSerializeWithCachedSizesToArrayEbPh
libcaffe2.so:_ZNK5caffe12ELUParameter3NewEPN6google8protobuf5ArenaE
libcaffe2.so:_ZNK5caffe12ExpParameter11GetMetadataEv
libcaffe2.so:_ZNK5caffe12ExpParameter12ByteSizeLongEv
libcaffe2.so:_ZNK5caffe12ExpParameter13IsInitializedEv
libcaffe2.so:_ZNK5caffe12ExpParameter13SetCachedSizeEi
libcaffe2.so:_ZNK5caffe12ExpParameter24SerializeWithCachedSizesEPN6google8protobuf2io17CodedOutputStreamE
libcaffe2.so:_ZNK5caffe12ExpParameter39InternalSerializeWithCachedSizesToArrayEbPh
libcaffe2.so:_ZNK5caffe12ExpParameter3NewEPN6google8protobuf5ArenaE
libcaffe2.so:_ZNK5caffe12LRNParameter11GetMetadataEv
libcaffe2.so:_ZNK5caffe12LRNParameter12ByteSizeLongEv
libcaffe2.so:_ZNK5caffe12LRNParameter13IsInitializedEv
libcaffe2.so:_ZNK5caffe12LRNParameter13SetCachedSizeEi
libcaffe2.so:_ZNK5caffe12LRNParameter24SerializeWithCachedSizesEPN6google8protobuf2io17CodedOutputStreamE
libcaffe2.so:_ZNK5caffe12LRNParameter39InternalSerializeWithCachedSizesToArrayEbPh
libcaffe2.so:_ZNK5caffe12LRNParameter3NewEPN6google8protobuf5ArenaE
libcaffe2.so:_ZNK5caffe12LogParameter11GetMetadataEv
libcaffe2.so:_ZNK5caffe12LogParameter12ByteSizeLongEv
libcaffe2.so:_ZNK5caffe12LogParameter13IsInitializedEv
libcaffe2.so:_ZNK5caffe12LogParameter13SetCachedSizeEi
libcaffe2.so:_ZNK5caffe12LogParameter24SerializeWithCachedSizesEPN6google8protobuf2io17CodedOutputStreamE
libcaffe2.so:_ZNK5caffe12LogParameter39InternalSerializeWithCachedSizesToArrayEbPh
libcaffe2.so:_ZNK5caffe12LogParameter3NewEPN6google8protobuf5ArenaE
libcaffe2.so:_ZNK5caffe12MVNParameter11GetMetadataEv
libcaffe2.so:_ZNK5caffe12MVNParameter12ByteSizeLongEv
libcaffe2.so:_ZNK5caffe12MVNParameter13IsInitializedEv
libcaffe2.so:_ZNK5caffe12MVNParameter13SetCachedSizeEi
libcaffe2.so:_ZNK5caffe12MVNParameter24SerializeWithCachedSizesEPN6google8protobuf2io17CodedOutputStreamE
libcaffe2.so:_ZNK5caffe12MVNParameter39InternalSerializeWithCachedSizesToArrayEbPh
libcaffe2.so:_ZNK5caffe12MVNParameter3NewEPN6google8protobuf5ArenaE
libcaffe2.so:_ZNK5caffe12NetParameter11GetMetadataEv
libcaffe2.so:_ZNK5caffe12NetParameter12ByteSizeLongEv
libcaffe2.so:_ZNK5caffe12NetParameter13IsInitializedEv
libcaffe2.so:_ZNK5caffe12NetParameter13SetCachedSizeEi
libcaffe2.so:_ZNK5caffe12NetParameter24SerializeWithCachedSizesEPN6google8protobuf2io17CodedOutputStreamE
libcaffe2.so:_ZNK5caffe12NetParameter39InternalSerializeWithCachedSizesToArrayEbPh
libcaffe2.so:_ZNK5caffe12NetParameter3NewEPN6google8protobuf5ArenaE
libcaffe2.so:_ZNK5caffe12NetStateRule11GetMetadataEv
libcaffe2.so:_ZNK5caffe12NetStateRule12ByteSizeLongEv
libcaffe2.so:_ZNK5caffe12NetStateRule13IsInitializedEv
libcaffe2.so:_ZNK5caffe12NetStateRule13SetCachedSizeEi
libcaffe2.so:_ZNK5caffe12NetStateRule24SerializeWithCachedSizesEPN6google8protobuf2io17CodedOutputStreamE
libcaffe2.so:_ZNK5caffe12NetStateRule39InternalSerializeWithCachedSizesToArrayEbPh
libcaffe2.so:_ZNK5caffe12NetStateRule3NewEPN6google8protobuf5ArenaE
libcaffe2.so:_ZNK5caffe12SPPParameter11GetMetadataEv
libcaffe2.so:_ZNK5caffe12SPPParameter12ByteSizeLongEv
libcaffe2.so:_ZNK5caffe12SPPParameter13IsInitializedEv
libcaffe2.so:_ZNK5caffe12SPPParameter13SetCachedSizeEi
libcaffe2.so:_ZNK5caffe12SPPParameter24SerializeWithCachedSizesEPN6google8protobuf2io17CodedOutputStreamE
libcaffe2.so:_ZNK5caffe12SPPParameter39InternalSerializeWithCachedSizesToArrayEbPh
libcaffe2.so:_ZNK5caffe12SPPParameter3NewEPN6google8protobuf5ArenaE
libcaffe2.so:_ZNK5caffe13BiasParameter11GetMetadataEv
libcaffe2.so:_ZNK5caffe13BiasParameter12ByteSizeLongEv
libcaffe2.so:_ZNK5caffe13BiasParameter13IsInitializedEv
libcaffe2.so:_ZNK5caffe13BiasParameter13SetCachedSizeEi
libcaffe2.so:_ZNK5caffe13BiasParameter24SerializeWithCachedSizesEPN6google8protobuf2io17CodedOutputStreamE
libcaffe2.so:_ZNK5caffe13BiasParameter39InternalSerializeWithCachedSizesToArrayEbPh
libcaffe2.so:_ZNK5caffe13BiasParameter3NewEPN6google8protobuf5ArenaE
libcaffe2.so:_ZNK5caffe13CropParameter11GetMetadataEv
libcaffe2.so:_ZNK5caffe13CropParameter12ByteSizeLongEv
libcaffe2.so:_ZNK5caffe13CropParameter13IsInitializedEv
libcaffe2.so:_ZNK5caffe13CropParameter13SetCachedSizeEi
libcaffe2.so:_ZNK5caffe13CropParameter24SerializeWithCachedSizesEPN6google8protobuf2io17CodedOutputStreamE
libcaffe2.so:_ZNK5caffe13CropParameter39InternalSerializeWithCachedSizesToArrayEbPh
libcaffe2.so:_ZNK5caffe13CropParameter3NewEPN6google8protobuf5ArenaE
libcaffe2.so:_ZNK5caffe13DataParameter11GetMetadataEv
libcaffe2.so:_ZNK5caffe13DataParameter12ByteSizeLongEv
libcaffe2.so:_ZNK5caffe13DataParameter13IsInitializedEv
libcaffe2.so:_ZNK5caffe13DataParameter13SetCachedSizeEi
libcaffe2.so:_ZNK5caffe13DataParameter24SerializeWithCachedSizesEPN6google8protobuf2io17CodedOutputStreamE
libcaffe2.so:_ZNK5caffe13DataParameter39InternalSerializeWithCachedSizesToArrayEbPh
libcaffe2.so:_ZNK5caffe13DataParameter3NewEPN6google8protobuf5ArenaE
libcaffe2.so:_ZNK5caffe13LossParameter11GetMetadataEv
libcaffe2.so:_ZNK5caffe13LossParameter12ByteSizeLongEv
libcaffe2.so:_ZNK5caffe13LossParameter13IsInitializedEv
libcaffe2.so:_ZNK5caffe13LossParameter13SetCachedSizeEi
libcaffe2.so:_ZNK5caffe13LossParameter24SerializeWithCachedSizesEPN6google8protobuf2io17CodedOutputStreamE
libcaffe2.so:_ZNK5caffe13LossParameter39InternalSerializeWithCachedSizesToArrayEbPh
libcaffe2.so:_ZNK5caffe13LossParameter3NewEPN6google8protobuf5ArenaE
libcaffe2.so:_ZNK5caffe13ReLUParameter11GetMetadataEv
libcaffe2.so:_ZNK5caffe13ReLUParameter12ByteSizeLongEv
libcaffe2.so:_ZNK5caffe13ReLUParameter13IsInitializedEv
libcaffe2.so:_ZNK5caffe13ReLUParameter13SetCachedSizeEi
libcaffe2.so:_ZNK5caffe13ReLUParameter24SerializeWithCachedSizesEPN6google8protobuf2io17CodedOutputStreamE
libcaffe2.so:_ZNK5caffe13ReLUParameter39InternalSerializeWithCachedSizesToArrayEbPh
libcaffe2.so:_ZNK5caffe13ReLUParameter3NewEPN6google8protobuf5ArenaE
libcaffe2.so:_ZNK5caffe13TanHParameter11GetMetadataEv
libcaffe2.so:_ZNK5caffe13TanHParameter12ByteSizeLongEv
libcaffe2.so:_ZNK5caffe13TanHParameter13IsInitializedEv
libcaffe2.so:_ZNK5caffe13TanHParameter13SetCachedSizeEi
libcaffe2.so:_ZNK5caffe13TanHParameter24SerializeWithCachedSizesEPN6google8protobuf2io17CodedOutputStreamE
libcaffe2.so:_ZNK5caffe13TanHParameter39InternalSerializeWithCachedSizesToArrayEbPh
libcaffe2.so:_ZNK5caffe13TanHParameter3NewEPN6google8protobuf5ArenaE
libcaffe2.so:_ZNK5caffe13TileParameter11GetMetadataEv
libcaffe2.so:_ZNK5caffe13TileParameter12ByteSizeLongEv
libcaffe2.so:_ZNK5caffe13TileParameter13IsInitializedEv
libcaffe2.so:_ZNK5caffe13TileParameter13SetCachedSizeEi
libcaffe2.so:_ZNK5caffe13TileParameter24SerializeWithCachedSizesEPN6google8protobuf2io17CodedOutputStreamE
libcaffe2.so:_ZNK5caffe13TileParameter39InternalSerializeWithCachedSizesToArrayEbPh
libcaffe2.so:_ZNK5caffe13TileParameter3NewEPN6google8protobuf5ArenaE
libcaffe2.so:_ZNK5caffe14EmbedParameter11GetMetadataEv
libcaffe2.so:_ZNK5caffe14EmbedParameter12ByteSizeLongEv
libcaffe2.so:_ZNK5caffe14EmbedParameter13IsInitializedEv
libcaffe2.so:_ZNK5caffe14EmbedParameter13SetCachedSizeEi
libcaffe2.so:_ZNK5caffe14EmbedParameter24SerializeWithCachedSizesEPN6google8protobuf2io17CodedOutputStreamE
libcaffe2.so:_ZNK5caffe14EmbedParameter39InternalSerializeWithCachedSizesToArrayEbPh
libcaffe2.so:_ZNK5caffe14EmbedParameter3NewEPN6google8protobuf5ArenaE
libcaffe2.so:_ZNK5caffe14InputParameter11GetMetadataEv
libcaffe2.so:_ZNK5caffe14InputParameter12ByteSizeLongEv
libcaffe2.so:_ZNK5caffe14InputParameter13IsInitializedEv
libcaffe2.so:_ZNK5caffe14InputParameter13SetCachedSizeEi
libcaffe2.so:_ZNK5caffe14InputParameter24SerializeWithCachedSizesEPN6google8protobuf2io17CodedOutputStreamE
libcaffe2.so:_ZNK5caffe14InputParameter39InternalSerializeWithCachedSizesToArrayEbPh
libcaffe2.so:_ZNK5caffe14InputParameter3NewEPN6google8protobuf5ArenaE
libcaffe2.so:_ZNK5caffe14LayerParameter11GetMetadataEv
libcaffe2.so:_ZNK5caffe14LayerParameter12ByteSizeLongEv
libcaffe2.so:_ZNK5caffe14LayerParameter13IsInitializedEv
libcaffe2.so:_ZNK5caffe14LayerParameter13SetCachedSizeEi
libcaffe2.so:_ZNK5caffe14LayerParameter24SerializeWithCachedSizesEPN6google8protobuf2io17CodedOutputStreamE
libcaffe2.so:_ZNK5caffe14LayerParameter39InternalSerializeWithCachedSizesToArrayEbPh
libcaffe2.so:_ZNK5caffe14LayerParameter3NewEPN6google8protobuf5ArenaE
libcaffe2.so:_ZNK5caffe14PReLUParameter11GetMetadataEv
libcaffe2.so:_ZNK5caffe14PReLUParameter12ByteSizeLongEv
libcaffe2.so:_ZNK5caffe14PReLUParameter13IsInitializedEv
libcaffe2.so:_ZNK5caffe14PReLUParameter13SetCachedSizeEi
libcaffe2.so:_ZNK5caffe14PReLUParameter24SerializeWithCachedSizesEPN6google8protobuf2io17CodedOutputStreamE
libcaffe2.so:_ZNK5caffe14PReLUParameter39InternalSerializeWithCachedSizesToArrayEbPh
libcaffe2.so:_ZNK5caffe14PReLUParameter3NewEPN6google8protobuf5ArenaE
libcaffe2.so:_ZNK5caffe14PowerParameter11GetMetadataEv
libcaffe2.so:_ZNK5caffe14PowerParameter12ByteSizeLongEv
libcaffe2.so:_ZNK5caffe14PowerParameter13IsInitializedEv
libcaffe2.so:_ZNK5caffe14PowerParameter13SetCachedSizeEi
libcaffe2.so:_ZNK5caffe14PowerParameter24SerializeWithCachedSizesEPN6google8protobuf2io17CodedOutputStreamE
libcaffe2.so:_ZNK5caffe14PowerParameter39InternalSerializeWithCachedSizesToArrayEbPh
libcaffe2.so:_ZNK5caffe14PowerParameter3NewEPN6google8protobuf5ArenaE
libcaffe2.so:_ZNK5caffe14ScaleParameter11GetMetadataEv
libcaffe2.so:_ZNK5caffe14ScaleParameter12ByteSizeLongEv
libcaffe2.so:_ZNK5caffe14ScaleParameter13IsInitializedEv
libcaffe2.so:_ZNK5caffe14ScaleParameter13SetCachedSizeEi
libcaffe2.so:_ZNK5caffe14ScaleParameter24SerializeWithCachedSizesEPN6google8protobuf2io17CodedOutputStreamE
libcaffe2.so:_ZNK5caffe14ScaleParameter39InternalSerializeWithCachedSizesToArrayEbPh
libcaffe2.so:_ZNK5caffe14ScaleParameter3NewEPN6google8protobuf5ArenaE
libcaffe2.so:_ZNK5caffe14SliceParameter11GetMetadataEv
libcaffe2.so:_ZNK5caffe14SliceParameter12ByteSizeLongEv
libcaffe2.so:_ZNK5caffe14SliceParameter13IsInitializedEv
libcaffe2.so:_ZNK5caffe14SliceParameter13SetCachedSizeEi
libcaffe2.so:_ZNK5caffe14SliceParameter24SerializeWithCachedSizesEPN6google8protobuf2io17CodedOutputStreamE
libcaffe2.so:_ZNK5caffe14SliceParameter39InternalSerializeWithCachedSizesToArrayEbPh
libcaffe2.so:_ZNK5caffe14SliceParameter3NewEPN6google8protobuf5ArenaE
libcaffe2.so:_ZNK5caffe15ArgMaxParameter11GetMetadataEv
libcaffe2.so:_ZNK5caffe15ArgMaxParameter12ByteSizeLongEv
libcaffe2.so:_ZNK5caffe15ArgMaxParameter13IsInitializedEv
libcaffe2.so:_ZNK5caffe15ArgMaxParameter13SetCachedSizeEi
libcaffe2.so:_ZNK5caffe15ArgMaxParameter24SerializeWithCachedSizesEPN6google8protobuf2io17CodedOutputStreamE
libcaffe2.so:_ZNK5caffe15ArgMaxParameter39InternalSerializeWithCachedSizesToArrayEbPh
libcaffe2.so:_ZNK5caffe15ArgMaxParameter3NewEPN6google8protobuf5ArenaE
libcaffe2.so:_ZNK5caffe15BlobProtoVector11GetMetadataEv
libcaffe2.so:_ZNK5caffe15BlobProtoVector12ByteSizeLongEv
libcaffe2.so:_ZNK5caffe15BlobProtoVector13IsInitializedEv
libcaffe2.so:_ZNK5caffe15BlobProtoVector13SetCachedSizeEi
libcaffe2.so:_ZNK5caffe15BlobProtoVector24SerializeWithCachedSizesEPN6google8protobuf2io17CodedOutputStreamE
libcaffe2.so:_ZNK5caffe15BlobProtoVector39InternalSerializeWithCachedSizesToArrayEbPh
libcaffe2.so:_ZNK5caffe15BlobProtoVector3NewEPN6google8protobuf5ArenaE
libcaffe2.so:_ZNK5caffe15ConcatParameter11GetMetadataEv
libcaffe2.so:_ZNK5caffe15ConcatParameter12ByteSizeLongEv
libcaffe2.so:_ZNK5caffe15ConcatParameter13IsInitializedEv
libcaffe2.so:_ZNK5caffe15ConcatParameter13SetCachedSizeEi
libcaffe2.so:_ZNK5caffe15ConcatParameter24SerializeWithCachedSizesEPN6google8protobuf2io17CodedOutputStreamE
libcaffe2.so:_ZNK5caffe15ConcatParameter39InternalSerializeWithCachedSizesToArrayEbPh
libcaffe2.so:_ZNK5caffe15ConcatParameter3NewEPN6google8protobuf5ArenaE
libcaffe2.so:_ZNK5caffe15FillerParameter11GetMetadataEv
libcaffe2.so:_ZNK5caffe15FillerParameter12ByteSizeLongEv
libcaffe2.so:_ZNK5caffe15FillerParameter13IsInitializedEv
libcaffe2.so:_ZNK5caffe15FillerParameter13SetCachedSizeEi
libcaffe2.so:_ZNK5caffe15FillerParameter24SerializeWithCachedSizesEPN6google8protobuf2io17CodedOutputStreamE
libcaffe2.so:_ZNK5caffe15FillerParameter39InternalSerializeWithCachedSizesToArrayEbPh
libcaffe2.so:_ZNK5caffe15FillerParameter3NewEPN6google8protobuf5ArenaE
libcaffe2.so:_ZNK5caffe15PythonParameter11GetMetadataEv
libcaffe2.so:_ZNK5caffe15PythonParameter12ByteSizeLongEv
libcaffe2.so:_ZNK5caffe15PythonParameter13IsInitializedEv
libcaffe2.so:_ZNK5caffe15PythonParameter13SetCachedSizeEi
libcaffe2.so:_ZNK5caffe15PythonParameter24SerializeWithCachedSizesEPN6google8protobuf2io17CodedOutputStreamE
libcaffe2.so:_ZNK5caffe15PythonParameter39InternalSerializeWithCachedSizesToArrayEbPh
libcaffe2.so:_ZNK5caffe15PythonParameter3NewEPN6google8protobuf5ArenaE
libcaffe2.so:_ZNK5caffe15SolverParameter11GetMetadataEv
libcaffe2.so:_ZNK5caffe15SolverParameter12ByteSizeLongEv
libcaffe2.so:_ZNK5caffe15SolverParameter13IsInitializedEv
libcaffe2.so:_ZNK5caffe15SolverParameter13SetCachedSizeEi
libcaffe2.so:_ZNK5caffe15SolverParameter24SerializeWithCachedSizesEPN6google8protobuf2io17CodedOutputStreamE
libcaffe2.so:_ZNK5caffe15SolverParameter39InternalSerializeWithCachedSizesToArrayEbPh
libcaffe2.so:_ZNK5caffe15SolverParameter3NewEPN6google8protobuf5ArenaE
libcaffe2.so:_ZNK5caffe16DropoutParameter11GetMetadataEv
libcaffe2.so:_ZNK5caffe16DropoutParameter12ByteSizeLongEv
libcaffe2.so:_ZNK5caffe16DropoutParameter13IsInitializedEv
libcaffe2.so:_ZNK5caffe16DropoutParameter13SetCachedSizeEi
libcaffe2.so:_ZNK5caffe16DropoutParameter24SerializeWithCachedSizesEPN6google8protobuf2io17CodedOutputStreamE
libcaffe2.so:_ZNK5caffe16DropoutParameter39InternalSerializeWithCachedSizesToArrayEbPh
libcaffe2.so:_ZNK5caffe16DropoutParameter3NewEPN6google8protobuf5ArenaE
libcaffe2.so:_ZNK5caffe16EltwiseParameter11GetMetadataEv
libcaffe2.so:_ZNK5caffe16EltwiseParameter12ByteSizeLongEv
libcaffe2.so:_ZNK5caffe16EltwiseParameter13IsInitializedEv
libcaffe2.so:_ZNK5caffe16EltwiseParameter13SetCachedSizeEi
libcaffe2.so:_ZNK5caffe16EltwiseParameter24SerializeWithCachedSizesEPN6google8protobuf2io17CodedOutputStreamE
libcaffe2.so:_ZNK5caffe16EltwiseParameter39InternalSerializeWithCachedSizesToArrayEbPh
libcaffe2.so:_ZNK5caffe16EltwiseParameter3NewEPN6google8protobuf5ArenaE
libcaffe2.so:_ZNK5caffe16FlattenParameter11GetMetadataEv
libcaffe2.so:_ZNK5caffe16FlattenParameter12ByteSizeLongEv
libcaffe2.so:_ZNK5caffe16FlattenParameter13IsInitializedEv
libcaffe2.so:_ZNK5caffe16FlattenParameter13SetCachedSizeEi
libcaffe2.so:_ZNK5caffe16FlattenParameter24SerializeWithCachedSizesEPN6google8protobuf2io17CodedOutputStreamE
libcaffe2.so:_ZNK5caffe16FlattenParameter39InternalSerializeWithCachedSizesToArrayEbPh
libcaffe2.so:_ZNK5caffe16FlattenParameter3NewEPN6google8protobuf5ArenaE
libcaffe2.so:_ZNK5caffe16PoolingParameter11GetMetadataEv
libcaffe2.so:_ZNK5caffe16PoolingParameter12ByteSizeLongEv
libcaffe2.so:_ZNK5caffe16PoolingParameter13IsInitializedEv
libcaffe2.so:_ZNK5caffe16PoolingParameter13SetCachedSizeEi
libcaffe2.so:_ZNK5caffe16PoolingParameter24SerializeWithCachedSizesEPN6google8protobuf2io17CodedOutputStreamE
libcaffe2.so:_ZNK5caffe16PoolingParameter39InternalSerializeWithCachedSizesToArrayEbPh
libcaffe2.so:_ZNK5caffe16PoolingParameter3NewEPN6google8protobuf5ArenaE
libcaffe2.so:_ZNK5caffe16ReshapeParameter11GetMetadataEv
libcaffe2.so:_ZNK5caffe16ReshapeParameter12ByteSizeLongEv
libcaffe2.so:_ZNK5caffe16ReshapeParameter13IsInitializedEv
libcaffe2.so:_ZNK5caffe16ReshapeParameter13SetCachedSizeEi
libcaffe2.so:_ZNK5caffe16ReshapeParameter24SerializeWithCachedSizesEPN6google8protobuf2io17CodedOutputStreamE
libcaffe2.so:_ZNK5caffe16ReshapeParameter39InternalSerializeWithCachedSizesToArrayEbPh
libcaffe2.so:_ZNK5caffe16ReshapeParameter3NewEPN6google8protobuf5ArenaE
libcaffe2.so:_ZNK5caffe16SigmoidParameter11GetMetadataEv
libcaffe2.so:_ZNK5caffe16SigmoidParameter12ByteSizeLongEv
libcaffe2.so:_ZNK5caffe16SigmoidParameter13IsInitializedEv
libcaffe2.so:_ZNK5caffe16SigmoidParameter13SetCachedSizeEi
libcaffe2.so:_ZNK5caffe16SigmoidParameter24SerializeWithCachedSizesEPN6google8protobuf2io17CodedOutputStreamE
libcaffe2.so:_ZNK5caffe16SigmoidParameter39InternalSerializeWithCachedSizesToArrayEbPh
libcaffe2.so:_ZNK5caffe16SigmoidParameter3NewEPN6google8protobuf5ArenaE
libcaffe2.so:_ZNK5caffe16SoftmaxParameter11GetMetadataEv
libcaffe2.so:_ZNK5caffe16SoftmaxParameter12ByteSizeLongEv
libcaffe2.so:_ZNK5caffe16SoftmaxParameter13IsInitializedEv
libcaffe2.so:_ZNK5caffe16SoftmaxParameter13SetCachedSizeEi
libcaffe2.so:_ZNK5caffe16SoftmaxParameter24SerializeWithCachedSizesEPN6google8protobuf2io17CodedOutputStreamE
libcaffe2.so:_ZNK5caffe16SoftmaxParameter39InternalSerializeWithCachedSizesToArrayEbPh
libcaffe2.so:_ZNK5caffe16SoftmaxParameter3NewEPN6google8protobuf5ArenaE
libcaffe2.so:_ZNK5caffe16V0LayerParameter11GetMetadataEv
libcaffe2.so:_ZNK5caffe16V0LayerParameter12ByteSizeLongEv
libcaffe2.so:_ZNK5caffe16V0LayerParameter13IsInitializedEv
libcaffe2.so:_ZNK5caffe16V0LayerParameter13SetCachedSizeEi
libcaffe2.so:_ZNK5caffe16V0LayerParameter24SerializeWithCachedSizesEPN6google8protobuf2io17CodedOutputStreamE
libcaffe2.so:_ZNK5caffe16V0LayerParameter39InternalSerializeWithCachedSizesToArrayEbPh
libcaffe2.so:_ZNK5caffe16V0LayerParameter3NewEPN6google8protobuf5ArenaE
libcaffe2.so:_ZNK5caffe16V1LayerParameter11GetMetadataEv
libcaffe2.so:_ZNK5caffe16V1LayerParameter12ByteSizeLongEv
libcaffe2.so:_ZNK5caffe16V1LayerParameter13IsInitializedEv
libcaffe2.so:_ZNK5caffe16V1LayerParameter13SetCachedSizeEi
libcaffe2.so:_ZNK5caffe16V1LayerParameter24SerializeWithCachedSizesEPN6google8protobuf2io17CodedOutputStreamE
libcaffe2.so:_ZNK5caffe16V1LayerParameter39InternalSerializeWithCachedSizesToArrayEbPh
libcaffe2.so:_ZNK5caffe16V1LayerParameter3NewEPN6google8protobuf5ArenaE
libcaffe2.so:_ZNK5caffe17AccuracyParameter11GetMetadataEv
libcaffe2.so:_ZNK5caffe17AccuracyParameter12ByteSizeLongEv
libcaffe2.so:_ZNK5caffe17AccuracyParameter13IsInitializedEv
libcaffe2.so:_ZNK5caffe17AccuracyParameter13SetCachedSizeEi
libcaffe2.so:_ZNK5caffe17AccuracyParameter24SerializeWithCachedSizesEPN6google8protobuf2io17CodedOutputStreamE
libcaffe2.so:_ZNK5caffe17AccuracyParameter39InternalSerializeWithCachedSizesToArrayEbPh
libcaffe2.so:_ZNK5caffe17AccuracyParameter3NewEPN6google8protobuf5ArenaE
libcaffe2.so:_ZNK5caffe17HDF5DataParameter11GetMetadataEv
libcaffe2.so:_ZNK5caffe17HDF5DataParameter12ByteSizeLongEv
libcaffe2.so:_ZNK5caffe17HDF5DataParameter13IsInitializedEv
libcaffe2.so:_ZNK5caffe17HDF5DataParameter13SetCachedSizeEi
libcaffe2.so:_ZNK5caffe17HDF5DataParameter24SerializeWithCachedSizesEPN6google8protobuf2io17CodedOutputStreamE
libcaffe2.so:_ZNK5caffe17HDF5DataParameter39InternalSerializeWithCachedSizesToArrayEbPh
libcaffe2.so:_ZNK5caffe17HDF5DataParameter3NewEPN6google8protobuf5ArenaE
libcaffe2.so:_ZNK5caffe18BatchNormParameter11GetMetadataEv
libcaffe2.so:_ZNK5caffe18BatchNormParameter12ByteSizeLongEv
libcaffe2.so:_ZNK5caffe18BatchNormParameter13IsInitializedEv
libcaffe2.so:_ZNK5caffe18BatchNormParameter13SetCachedSizeEi
libcaffe2.so:_ZNK5caffe18BatchNormParameter24SerializeWithCachedSizesEPN6google8protobuf2io17CodedOutputStreamE
libcaffe2.so:_ZNK5caffe18BatchNormParameter39InternalSerializeWithCachedSizesToArrayEbPh
libcaffe2.so:_ZNK5caffe18BatchNormParameter3NewEPN6google8protobuf5ArenaE
libcaffe2.so:_ZNK5caffe18DummyDataParameter11GetMetadataEv
libcaffe2.so:_ZNK5caffe18DummyDataParameter12ByteSizeLongEv
libcaffe2.so:_ZNK5caffe18DummyDataParameter13IsInitializedEv
libcaffe2.so:_ZNK5caffe18DummyDataParameter13SetCachedSizeEi
libcaffe2.so:_ZNK5caffe18DummyDataParameter24SerializeWithCachedSizesEPN6google8protobuf2io17CodedOutputStreamE
libcaffe2.so:_ZNK5caffe18DummyDataParameter39InternalSerializeWithCachedSizesToArrayEbPh
libcaffe2.so:_ZNK5caffe18DummyDataParameter3NewEPN6google8protobuf5ArenaE
libcaffe2.so:_ZNK5caffe18HingeLossParameter11GetMetadataEv
libcaffe2.so:_ZNK5caffe18HingeLossParameter12ByteSizeLongEv
libcaffe2.so:_ZNK5caffe18HingeLossParameter13IsInitializedEv
libcaffe2.so:_ZNK5caffe18HingeLossParameter13SetCachedSizeEi
libcaffe2.so:_ZNK5caffe18HingeLossParameter24SerializeWithCachedSizesEPN6google8protobuf2io17CodedOutputStreamE
libcaffe2.so:_ZNK5caffe18HingeLossParameter39InternalSerializeWithCachedSizesToArrayEbPh
libcaffe2.so:_ZNK5caffe18HingeLossParameter3NewEPN6google8protobuf5ArenaE
libcaffe2.so:_ZNK5caffe18ImageDataParameter11GetMetadataEv
libcaffe2.so:_ZNK5caffe18ImageDataParameter12ByteSizeLongEv
libcaffe2.so:_ZNK5caffe18ImageDataParameter13IsInitializedEv
libcaffe2.so:_ZNK5caffe18ImageDataParameter13SetCachedSizeEi
libcaffe2.so:_ZNK5caffe18ImageDataParameter24SerializeWithCachedSizesEPN6google8protobuf2io17CodedOutputStreamE
libcaffe2.so:_ZNK5caffe18ImageDataParameter39InternalSerializeWithCachedSizesToArrayEbPh
libcaffe2.so:_ZNK5caffe18ImageDataParameter3NewEPN6google8protobuf5ArenaE
libcaffe2.so:_ZNK5caffe18ParameterParameter11GetMetadataEv
libcaffe2.so:_ZNK5caffe18ParameterParameter12ByteSizeLongEv
libcaffe2.so:_ZNK5caffe18ParameterParameter13IsInitializedEv
libcaffe2.so:_ZNK5caffe18ParameterParameter13SetCachedSizeEi
libcaffe2.so:_ZNK5caffe18ParameterParameter24SerializeWithCachedSizesEPN6google8protobuf2io17CodedOutputStreamE
libcaffe2.so:_ZNK5caffe18ParameterParameter39InternalSerializeWithCachedSizesToArrayEbPh
libcaffe2.so:_ZNK5caffe18ParameterParameter3NewEPN6google8protobuf5ArenaE
libcaffe2.so:_ZNK5caffe18RecurrentParameter11GetMetadataEv
libcaffe2.so:_ZNK5caffe18RecurrentParameter12ByteSizeLongEv
libcaffe2.so:_ZNK5caffe18RecurrentParameter13IsInitializedEv
libcaffe2.so:_ZNK5caffe18RecurrentParameter13SetCachedSizeEi
libcaffe2.so:_ZNK5caffe18RecurrentParameter24SerializeWithCachedSizesEPN6google8protobuf2io17CodedOutputStreamE
libcaffe2.so:_ZNK5caffe18RecurrentParameter39InternalSerializeWithCachedSizesToArrayEbPh
libcaffe2.so:_ZNK5caffe18RecurrentParameter3NewEPN6google8protobuf5ArenaE
libcaffe2.so:_ZNK5caffe18ReductionParameter11GetMetadataEv
libcaffe2.so:_ZNK5caffe18ReductionParameter12ByteSizeLongEv
libcaffe2.so:_ZNK5caffe18ReductionParameter13IsInitializedEv
libcaffe2.so:_ZNK5caffe18ReductionParameter13SetCachedSizeEi
libcaffe2.so:_ZNK5caffe18ReductionParameter24SerializeWithCachedSizesEPN6google8protobuf2io17CodedOutputStreamE
libcaffe2.so:_ZNK5caffe18ReductionParameter39InternalSerializeWithCachedSizesToArrayEbPh
libcaffe2.so:_ZNK5caffe18ReductionParameter3NewEPN6google8protobuf5ArenaE
libcaffe2.so:_ZNK5caffe18ThresholdParameter11GetMetadataEv
libcaffe2.so:_ZNK5caffe18ThresholdParameter12ByteSizeLongEv
libcaffe2.so:_ZNK5caffe18ThresholdParameter13IsInitializedEv
libcaffe2.so:_ZNK5caffe18ThresholdParameter13SetCachedSizeEi
libcaffe2.so:_ZNK5caffe18ThresholdParameter24SerializeWithCachedSizesEPN6google8protobuf2io17CodedOutputStreamE
libcaffe2.so:_ZNK5caffe18ThresholdParameter39InternalSerializeWithCachedSizesToArrayEbPh
libcaffe2.so:_ZNK5caffe18ThresholdParameter3NewEPN6google8protobuf5ArenaE
libcaffe2.so:_ZNK5caffe19HDF5OutputParameter11GetMetadataEv
libcaffe2.so:_ZNK5caffe19HDF5OutputParameter12ByteSizeLongEv
libcaffe2.so:_ZNK5caffe19HDF5OutputParameter13IsInitializedEv
libcaffe2.so:_ZNK5caffe19HDF5OutputParameter13SetCachedSizeEi
libcaffe2.so:_ZNK5caffe19HDF5OutputParameter24SerializeWithCachedSizesEPN6google8protobuf2io17CodedOutputStreamE
libcaffe2.so:_ZNK5caffe19HDF5OutputParameter39InternalSerializeWithCachedSizesToArrayEbPh
libcaffe2.so:_ZNK5caffe19HDF5OutputParameter3NewEPN6google8protobuf5ArenaE
libcaffe2.so:_ZNK5caffe19MemoryDataParameter11GetMetadataEv
libcaffe2.so:_ZNK5caffe19MemoryDataParameter12ByteSizeLongEv
libcaffe2.so:_ZNK5caffe19MemoryDataParameter13IsInitializedEv
libcaffe2.so:_ZNK5caffe19MemoryDataParameter13SetCachedSizeEi
libcaffe2.so:_ZNK5caffe19MemoryDataParameter24SerializeWithCachedSizesEPN6google8protobuf2io17CodedOutputStreamE
libcaffe2.so:_ZNK5caffe19MemoryDataParameter39InternalSerializeWithCachedSizesToArrayEbPh
libcaffe2.so:_ZNK5caffe19MemoryDataParameter3NewEPN6google8protobuf5ArenaE
libcaffe2.so:_ZNK5caffe19WindowDataParameter11GetMetadataEv
libcaffe2.so:_ZNK5caffe19WindowDataParameter12ByteSizeLongEv
libcaffe2.so:_ZNK5caffe19WindowDataParameter13IsInitializedEv
libcaffe2.so:_ZNK5caffe19WindowDataParameter13SetCachedSizeEi
libcaffe2.so:_ZNK5caffe19WindowDataParameter24SerializeWithCachedSizesEPN6google8protobuf2io17CodedOutputStreamE
libcaffe2.so:_ZNK5caffe19WindowDataParameter39InternalSerializeWithCachedSizesToArrayEbPh
libcaffe2.so:_ZNK5caffe19WindowDataParameter3NewEPN6google8protobuf5ArenaE
libcaffe2.so:_ZNK5caffe20ConvolutionParameter11GetMetadataEv
libcaffe2.so:_ZNK5caffe20ConvolutionParameter12ByteSizeLongEv
libcaffe2.so:_ZNK5caffe20ConvolutionParameter13IsInitializedEv
libcaffe2.so:_ZNK5caffe20ConvolutionParameter13SetCachedSizeEi
libcaffe2.so:_ZNK5caffe20ConvolutionParameter24SerializeWithCachedSizesEPN6google8protobuf2io17CodedOutputStreamE
libcaffe2.so:_ZNK5caffe20ConvolutionParameter39InternalSerializeWithCachedSizesToArrayEbPh
libcaffe2.so:_ZNK5caffe20ConvolutionParameter3NewEPN6google8protobuf5ArenaE
libcaffe2.so:_ZNK5caffe21InfogainLossParameter11GetMetadataEv
libcaffe2.so:_ZNK5caffe21InfogainLossParameter12ByteSizeLongEv
libcaffe2.so:_ZNK5caffe21InfogainLossParameter13IsInitializedEv
libcaffe2.so:_ZNK5caffe21InfogainLossParameter13SetCachedSizeEi
libcaffe2.so:_ZNK5caffe21InfogainLossParameter24SerializeWithCachedSizesEPN6google8protobuf2io17CodedOutputStreamE
libcaffe2.so:_ZNK5caffe21InfogainLossParameter39InternalSerializeWithCachedSizesToArrayEbPh
libcaffe2.so:_ZNK5caffe21InfogainLossParameter3NewEPN6google8protobuf5ArenaE
libcaffe2.so:_ZNK5caffe21InnerProductParameter11GetMetadataEv
libcaffe2.so:_ZNK5caffe21InnerProductParameter12ByteSizeLongEv
libcaffe2.so:_ZNK5caffe21InnerProductParameter13IsInitializedEv
libcaffe2.so:_ZNK5caffe21InnerProductParameter13SetCachedSizeEi
libcaffe2.so:_ZNK5caffe21InnerProductParameter24SerializeWithCachedSizesEPN6google8protobuf2io17CodedOutputStreamE
libcaffe2.so:_ZNK5caffe21InnerProductParameter39InternalSerializeWithCachedSizesToArrayEbPh
libcaffe2.so:_ZNK5caffe21InnerProductParameter3NewEPN6google8protobuf5ArenaE
libcaffe2.so:_ZNK5caffe23TransformationParameter11GetMetadataEv
libcaffe2.so:_ZNK5caffe23TransformationParameter12ByteSizeLongEv
libcaffe2.so:_ZNK5caffe23TransformationParameter13IsInitializedEv
libcaffe2.so:_ZNK5caffe23TransformationParameter13SetCachedSizeEi
libcaffe2.so:_ZNK5caffe23TransformationParameter24SerializeWithCachedSizesEPN6google8protobuf2io17CodedOutputStreamE
libcaffe2.so:_ZNK5caffe23TransformationParameter39InternalSerializeWithCachedSizesToArrayEbPh
libcaffe2.so:_ZNK5caffe23TransformationParameter3NewEPN6google8protobuf5ArenaE
libcaffe2.so:_ZNK5caffe24ContrastiveLossParameter11GetMetadataEv
libcaffe2.so:_ZNK5caffe24ContrastiveLossParameter12ByteSizeLongEv
libcaffe2.so:_ZNK5caffe24ContrastiveLossParameter13IsInitializedEv
libcaffe2.so:_ZNK5caffe24ContrastiveLossParameter13SetCachedSizeEi
libcaffe2.so:_ZNK5caffe24ContrastiveLossParameter24SerializeWithCachedSizesEPN6google8protobuf2io17CodedOutputStreamE
libcaffe2.so:_ZNK5caffe24ContrastiveLossParameter39InternalSerializeWithCachedSizesToArrayEbPh
libcaffe2.so:_ZNK5caffe24ContrastiveLossParameter3NewEPN6google8protobuf5ArenaE
libcaffe2.so:_ZNK5caffe5Datum11GetMetadataEv
libcaffe2.so:_ZNK5caffe5Datum12ByteSizeLongEv
libcaffe2.so:_ZNK5caffe5Datum13IsInitializedEv
libcaffe2.so:_ZNK5caffe5Datum13SetCachedSizeEi
libcaffe2.so:_ZNK5caffe5Datum24SerializeWithCachedSizesEPN6google8protobuf2io17CodedOutputStreamE
libcaffe2.so:_ZNK5caffe5Datum39InternalSerializeWithCachedSizesToArrayEbPh
libcaffe2.so:_ZNK5caffe5Datum3NewEPN6google8protobuf5ArenaE
libcaffe2.so:_ZNK5caffe8NetState11GetMetadataEv
libcaffe2.so:_ZNK5caffe8NetState12ByteSizeLongEv
libcaffe2.so:_ZNK5caffe8NetState13IsInitializedEv
libcaffe2.so:_ZNK5caffe8NetState13SetCachedSizeEi
libcaffe2.so:_ZNK5caffe8NetState24SerializeWithCachedSizesEPN6google8protobuf2io17CodedOutputStreamE
libcaffe2.so:_ZNK5caffe8NetState39InternalSerializeWithCachedSizesToArrayEbPh
libcaffe2.so:_ZNK5caffe8NetState3NewEPN6google8protobuf5ArenaE
libcaffe2.so:_ZNK5caffe9BlobProto11GetMetadataEv
libcaffe2.so:_ZNK5caffe9BlobProto12ByteSizeLongEv
libcaffe2.so:_ZNK5caffe9BlobProto13IsInitializedEv
libcaffe2.so:_ZNK5caffe9BlobProto13SetCachedSizeEi
libcaffe2.so:_ZNK5caffe9BlobProto24SerializeWithCachedSizesEPN6google8protobuf2io17CodedOutputStreamE
libcaffe2.so:_ZNK5caffe9BlobProto39InternalSerializeWithCachedSizesToArrayEbPh
libcaffe2.so:_ZNK5caffe9BlobProto3NewEPN6google8protobuf5ArenaE
libcaffe2.so:_ZNK5caffe9BlobShape11GetMetadataEv
libcaffe2.so:_ZNK5caffe9BlobShape12ByteSizeLongEv
libcaffe2.so:_ZNK5caffe9BlobShape13IsInitializedEv
libcaffe2.so:_ZNK5caffe9BlobShape13SetCachedSizeEi
libcaffe2.so:_ZNK5caffe9BlobShape24SerializeWithCachedSizesEPN6google8protobuf2io17CodedOutputStreamE
libcaffe2.so:_ZNK5caffe9BlobShape39InternalSerializeWithCachedSizesToArrayEbPh
libcaffe2.so:_ZNK5caffe9BlobShape3NewEPN6google8protobuf5ArenaE
libcaffe2.so:_ZNK5caffe9ParamSpec11GetMetadataEv
libcaffe2.so:_ZNK5caffe9ParamSpec12ByteSizeLongEv
libcaffe2.so:_ZNK5caffe9ParamSpec13IsInitializedEv
libcaffe2.so:_ZNK5caffe9ParamSpec13SetCachedSizeEi
libcaffe2.so:_ZNK5caffe9ParamSpec24SerializeWithCachedSizesEPN6google8protobuf2io17CodedOutputStreamE
libcaffe2.so:_ZNK5caffe9ParamSpec39InternalSerializeWithCachedSizesToArrayEbPh
libcaffe2.so:_ZNK5caffe9ParamSpec3NewEPN6google8protobuf5ArenaE
libcaffe2.so:_ZNK6caffe210MetaNetDef11GetMetadataEv
libcaffe2.so:_ZNK6caffe210MetaNetDef12ByteSizeLongEv
libcaffe2.so:_ZNK6caffe210MetaNetDef13IsInitializedEv
libcaffe2.so:_ZNK6caffe210MetaNetDef13SetCachedSizeEi
libcaffe2.so:_ZNK6caffe210MetaNetDef24SerializeWithCachedSizesEPN6google8protobuf2io17CodedOutputStreamE
libcaffe2.so:_ZNK6caffe210MetaNetDef39InternalSerializeWithCachedSizesToArrayEbPh
libcaffe2.so:_ZNK6caffe210MetaNetDef3NewEPN6google8protobuf5ArenaE
libcaffe2.so:_ZNK6caffe210ThreadPool13getNumThreadsEv
libcaffe2.so:_ZNK6caffe211OperatorDef11GetMetadataEv
libcaffe2.so:_ZNK6caffe211OperatorDef12ByteSizeLongEv
libcaffe2.so:_ZNK6caffe211OperatorDef13IsInitializedEv
libcaffe2.so:_ZNK6caffe211OperatorDef13SetCachedSizeEi
libcaffe2.so:_ZNK6caffe211OperatorDef24SerializeWithCachedSizesEPN6google8protobuf2io17CodedOutputStreamE
libcaffe2.so:_ZNK6caffe211OperatorDef39InternalSerializeWithCachedSizesToArrayEbPh
libcaffe2.so:_ZNK6caffe211OperatorDef3NewEPN6google8protobuf5ArenaE
libcaffe2.so:_ZNK6caffe211TensorProto11GetMetadataEv
libcaffe2.so:_ZNK6caffe211TensorProto12ByteSizeLongEv
libcaffe2.so:_ZNK6caffe211TensorProto13IsInitializedEv
libcaffe2.so:_ZNK6caffe211TensorProto13SetCachedSizeEi
libcaffe2.so:_ZNK6caffe211TensorProto24SerializeWithCachedSizesEPN6google8protobuf2io17CodedOutputStreamE
libcaffe2.so:_ZNK6caffe211TensorProto39InternalSerializeWithCachedSizesToArrayEbPh
libcaffe2.so:_ZNK6caffe211TensorProto3NewEPN6google8protobuf5ArenaE
libcaffe2.so:_ZNK6caffe211TensorShape11GetMetadataEv
libcaffe2.so:_ZNK6caffe211TensorShape12ByteSizeLongEv
libcaffe2.so:_ZNK6caffe211TensorShape13IsInitializedEv
libcaffe2.so:_ZNK6caffe211TensorShape13SetCachedSizeEi
libcaffe2.so:_ZNK6caffe211TensorShape24SerializeWithCachedSizesEPN6google8protobuf2io17CodedOutputStreamE
libcaffe2.so:_ZNK6caffe211TensorShape39InternalSerializeWithCachedSizesToArrayEbPh
libcaffe2.so:_ZNK6caffe211TensorShape3NewEPN6google8protobuf5ArenaE
libcaffe2.so:_ZNK6caffe211dataset_ops10TreeWalker8fieldDimEi
libcaffe2.so:_ZNK6caffe211dataset_ops10TreeWalker8fieldPtrEi
libcaffe2.so:_ZNK6caffe212AsyncNetBase12isStreamFreeEii
libcaffe2.so:_ZNK6caffe212AsyncNetBase2opEi
libcaffe2.so:_ZNK6caffe212AsyncNetBase5eventEi
libcaffe2.so:_ZNK6caffe212AsyncNetBase5queryEi
libcaffe2.so:_ZNK6caffe212AsyncNetBase7num_opsEi
libcaffe2.so:_ZNK6caffe212AsyncNetBase7parentsEi
libcaffe2.so:_ZNK6caffe212AsyncNetBase8childrenEi
libcaffe2.so:_ZNK6caffe212AsyncNetBase8tasksNumEv
libcaffe2.so:_ZNK6caffe212AsyncNetBase9asyncWaitEiiRKSt6vectorIiSaIiEE
libcaffe2.so:_ZNK6caffe212DeviceOption11GetMetadataEv
libcaffe2.so:_ZNK6caffe212DeviceOption12ByteSizeLongEv
libcaffe2.so:_ZNK6caffe212DeviceOption13IsInitializedEv
libcaffe2.so:_ZNK6caffe212DeviceOption13SetCachedSizeEi
libcaffe2.so:_ZNK6caffe212DeviceOption24SerializeWithCachedSizesEPN6google8protobuf2io17CodedOutputStreamE
libcaffe2.so:_ZNK6caffe212DeviceOption39InternalSerializeWithCachedSizesToArrayEbPh
libcaffe2.so:_ZNK6caffe212DeviceOption3NewEPN6google8protobuf5ArenaE
libcaffe2.so:_ZNK6caffe212NNPACKConvOp17getActivationTypeEv
libcaffe2.so:_ZNK6caffe212NNPACKConvOp23getConvolutionAlgorithmEv
libcaffe2.so:_ZNK6caffe212NNPACKConvOp31getConvolutionTransformStrategyEv
libcaffe2.so:_ZNK6caffe212ProfDAGProto11GetMetadataEv
libcaffe2.so:_ZNK6caffe212ProfDAGProto12ByteSizeLongEv
libcaffe2.so:_ZNK6caffe212ProfDAGProto13IsInitializedEv
libcaffe2.so:_ZNK6caffe212ProfDAGProto13SetCachedSizeEi
libcaffe2.so:_ZNK6caffe212ProfDAGProto24SerializeWithCachedSizesEPN6google8protobuf2io17CodedOutputStreamE
libcaffe2.so:_ZNK6caffe212ProfDAGProto30RequiredFieldsByteSizeFallbackEv
libcaffe2.so:_ZNK6caffe212ProfDAGProto39InternalSerializeWithCachedSizesToArrayEbPh
libcaffe2.so:_ZNK6caffe212ProfDAGProto3NewEPN6google8protobuf5ArenaE
libcaffe2.so:_ZNK6caffe212QTensorProto11GetMetadataEv
libcaffe2.so:_ZNK6caffe212QTensorProto12ByteSizeLongEv
libcaffe2.so:_ZNK6caffe212QTensorProto13IsInitializedEv
libcaffe2.so:_ZNK6caffe212QTensorProto13SetCachedSizeEi
libcaffe2.so:_ZNK6caffe212QTensorProto24SerializeWithCachedSizesEPN6google8protobuf2io17CodedOutputStreamE
libcaffe2.so:_ZNK6caffe212QTensorProto30RequiredFieldsByteSizeFallbackEv
libcaffe2.so:_ZNK6caffe212QTensorProto39InternalSerializeWithCachedSizesToArrayEbPh
libcaffe2.so:_ZNK6caffe212QTensorProto3NewEPN6google8protobuf5ArenaE
libcaffe2.so:_ZNK6caffe212TensorProtos11GetMetadataEv
libcaffe2.so:_ZNK6caffe212TensorProtos12ByteSizeLongEv
libcaffe2.so:_ZNK6caffe212TensorProtos13IsInitializedEv
libcaffe2.so:_ZNK6caffe212TensorProtos13SetCachedSizeEi
libcaffe2.so:_ZNK6caffe212TensorProtos24SerializeWithCachedSizesEPN6google8protobuf2io17CodedOutputStreamE
libcaffe2.so:_ZNK6caffe212TensorProtos39InternalSerializeWithCachedSizesToArrayEbPh
libcaffe2.so:_ZNK6caffe212TensorProtos3NewEPN6google8protobuf5ArenaE
libcaffe2.so:_ZNK6caffe212TensorShapes11GetMetadataEv
libcaffe2.so:_ZNK6caffe212TensorShapes12ByteSizeLongEv
libcaffe2.so:_ZNK6caffe212TensorShapes13IsInitializedEv
libcaffe2.so:_ZNK6caffe212TensorShapes13SetCachedSizeEi
libcaffe2.so:_ZNK6caffe212TensorShapes24SerializeWithCachedSizesEPN6google8protobuf2io17CodedOutputStreamE
libcaffe2.so:_ZNK6caffe212TensorShapes39InternalSerializeWithCachedSizesToArrayEbPh
libcaffe2.so:_ZNK6caffe212TensorShapes3NewEPN6google8protobuf5ArenaE
libcaffe2.so:_ZNK6caffe213DBReaderProto11GetMetadataEv
libcaffe2.so:_ZNK6caffe213DBReaderProto12ByteSizeLongEv
libcaffe2.so:_ZNK6caffe213DBReaderProto13IsInitializedEv
libcaffe2.so:_ZNK6caffe213DBReaderProto13SetCachedSizeEi
libcaffe2.so:_ZNK6caffe213DBReaderProto24SerializeWithCachedSizesEPN6google8protobuf2io17CodedOutputStreamE
libcaffe2.so:_ZNK6caffe213DBReaderProto39InternalSerializeWithCachedSizesToArrayEbPh
libcaffe2.so:_ZNK6caffe213DBReaderProto3NewEPN6google8protobuf5ArenaE
libcaffe2.so:_ZNK6caffe213EnforceNotMet3msgB5cxx11Ev
libcaffe2.so:_ZNK6caffe213EnforceNotMet4whatEv
libcaffe2.so:_ZNK6caffe213EnforceNotMet6callerEv
libcaffe2.so:_ZNK6caffe213ExecutionStep11GetMetadataEv
libcaffe2.so:_ZNK6caffe213ExecutionStep12ByteSizeLongEv
libcaffe2.so:_ZNK6caffe213ExecutionStep13IsInitializedEv
libcaffe2.so:_ZNK6caffe213ExecutionStep13SetCachedSizeEi
libcaffe2.so:_ZNK6caffe213ExecutionStep24SerializeWithCachedSizesEPN6google8protobuf2io17CodedOutputStreamE
libcaffe2.so:_ZNK6caffe213ExecutionStep39InternalSerializeWithCachedSizesToArrayEbPh
libcaffe2.so:_ZNK6caffe213ExecutionStep3NewEPN6google8protobuf5ArenaE
libcaffe2.so:_ZNK6caffe213PathNodeProto11GetMetadataEv
libcaffe2.so:_ZNK6caffe213PathNodeProto12ByteSizeLongEv
libcaffe2.so:_ZNK6caffe213PathNodeProto13IsInitializedEv
libcaffe2.so:_ZNK6caffe213PathNodeProto13SetCachedSizeEi
libcaffe2.so:_ZNK6caffe213PathNodeProto24SerializeWithCachedSizesEPN6google8protobuf2io17CodedOutputStreamE
libcaffe2.so:_ZNK6caffe213PathNodeProto39InternalSerializeWithCachedSizesToArrayEbPh
libcaffe2.so:_ZNK6caffe213PathNodeProto3NewEPN6google8protobuf5ArenaE
libcaffe2.so:_ZNK6caffe213ProfDAGProtos11GetMetadataEv
libcaffe2.so:_ZNK6caffe213ProfDAGProtos12ByteSizeLongEv
libcaffe2.so:_ZNK6caffe213ProfDAGProtos13IsInitializedEv
libcaffe2.so:_ZNK6caffe213ProfDAGProtos13SetCachedSizeEi
libcaffe2.so:_ZNK6caffe213ProfDAGProtos24SerializeWithCachedSizesEPN6google8protobuf2io17CodedOutputStreamE
libcaffe2.so:_ZNK6caffe213ProfDAGProtos39InternalSerializeWithCachedSizesToArrayEbPh
libcaffe2.so:_ZNK6caffe213ProfDAGProtos3NewEPN6google8protobuf5ArenaE
libcaffe2.so:_ZNK6caffe214ArgumentHelper11HasArgumentERKNSt7__cxx1112basic_stringIcSt11char_traitsIcESaIcEEE
libcaffe2.so:_ZNK6caffe214ArgumentHelper17GetSingleArgumentINS_6NetDefEEET_RKNSt7__cxx1112basic_stringIcSt11char_traitsIcESaIcEEERKS3_
libcaffe2.so:_ZNK6caffe214ArgumentHelper17GetSingleArgumentINSt7__cxx1112basic_stringIcSt11char_traitsIcESaIcEEEEET_RKS7_RKS8_
libcaffe2.so:_ZNK6caffe214ArgumentHelper17GetSingleArgumentIaEET_RKNSt7__cxx1112basic_stringIcSt11char_traitsIcESaIcEEERKS2_
libcaffe2.so:_ZNK6caffe214ArgumentHelper17GetSingleArgumentIbEET_RKNSt7__cxx1112basic_stringIcSt11char_traitsIcESaIcEEERKS2_
libcaffe2.so:_ZNK6caffe214ArgumentHelper17GetSingleArgumentIdEET_RKNSt7__cxx1112basic_stringIcSt11char_traitsIcESaIcEEERKS2_
libcaffe2.so:_ZNK6caffe214ArgumentHelper17GetSingleArgumentIfEET_RKNSt7__cxx1112basic_stringIcSt11char_traitsIcESaIcEEERKS2_
libcaffe2.so:_ZNK6caffe214ArgumentHelper17GetSingleArgumentIhEET_RKNSt7__cxx1112basic_stringIcSt11char_traitsIcESaIcEEERKS2_
libcaffe2.so:_ZNK6caffe214ArgumentHelper17GetSingleArgumentIiEET_RKNSt7__cxx1112basic_stringIcSt11char_traitsIcESaIcEEERKS2_
libcaffe2.so:_ZNK6caffe214ArgumentHelper17GetSingleArgumentIlEET_RKNSt7__cxx1112basic_stringIcSt11char_traitsIcESaIcEEERKS2_
libcaffe2.so:_ZNK6caffe214ArgumentHelper17GetSingleArgumentImEET_RKNSt7__cxx1112basic_stringIcSt11char_traitsIcESaIcEEERKS2_
libcaffe2.so:_ZNK6caffe214ArgumentHelper17GetSingleArgumentIsEET_RKNSt7__cxx1112basic_stringIcSt11char_traitsIcESaIcEEERKS2_
libcaffe2.so:_ZNK6caffe214ArgumentHelper17GetSingleArgumentItEET_RKNSt7__cxx1112basic_stringIcSt11char_traitsIcESaIcEEERKS2_
libcaffe2.so:_ZNK6caffe214ArgumentHelper19GetRepeatedArgumentINS_6NetDefEEESt6vectorIT_SaIS4_EERKNSt7__cxx1112basic_stringIcSt11char_traitsIcESaIcEEERKS6_
libcaffe2.so:_ZNK6caffe214ArgumentHelper19GetRepeatedArgumentINSt7__cxx1112basic_stringIcSt11char_traitsIcESaIcEEEEESt6vectorIT_SaIS9_EERKS7_RKSB_
libcaffe2.so:_ZNK6caffe214ArgumentHelper19GetRepeatedArgumentIaEESt6vectorIT_SaIS3_EERKNSt7__cxx1112basic_stringIcSt11char_traitsIcESaIcEEERKS5_
libcaffe2.so:_ZNK6caffe214ArgumentHelper19GetRepeatedArgumentIbEESt6vectorIT_SaIS3_EERKNSt7__cxx1112basic_stringIcSt11char_traitsIcESaIcEEERKS5_
libcaffe2.so:_ZNK6caffe214ArgumentHelper19GetRepeatedArgumentIdEESt6vectorIT_SaIS3_EERKNSt7__cxx1112basic_stringIcSt11char_traitsIcESaIcEEERKS5_
libcaffe2.so:_ZNK6caffe214ArgumentHelper19GetRepeatedArgumentIfEESt6vectorIT_SaIS3_EERKNSt7__cxx1112basic_stringIcSt11char_traitsIcESaIcEEERKS5_
libcaffe2.so:_ZNK6caffe214ArgumentHelper19GetRepeatedArgumentIhEESt6vectorIT_SaIS3_EERKNSt7__cxx1112basic_stringIcSt11char_traitsIcESaIcEEERKS5_
libcaffe2.so:_ZNK6caffe214ArgumentHelper19GetRepeatedArgumentIiEESt6vectorIT_SaIS3_EERKNSt7__cxx1112basic_stringIcSt11char_traitsIcESaIcEEERKS5_
libcaffe2.so:_ZNK6caffe214ArgumentHelper19GetRepeatedArgumentIlEESt6vectorIT_SaIS3_EERKNSt7__cxx1112basic_stringIcSt11char_traitsIcESaIcEEERKS5_
libcaffe2.so:_ZNK6caffe214ArgumentHelper19GetRepeatedArgumentImEESt6vectorIT_SaIS3_EERKNSt7__cxx1112basic_stringIcSt11char_traitsIcESaIcEEERKS5_
libcaffe2.so:_ZNK6caffe214ArgumentHelper19GetRepeatedArgumentIsEESt6vectorIT_SaIS3_EERKNSt7__cxx1112basic_stringIcSt11char_traitsIcESaIcEEERKS5_
libcaffe2.so:_ZNK6caffe214ArgumentHelper19GetRepeatedArgumentItEESt6vectorIT_SaIS3_EERKNSt7__cxx1112basic_stringIcSt11char_traitsIcESaIcEEERKS5_
libcaffe2.so:_ZNK6caffe214ArgumentHelper23HasSingleArgumentOfTypeINS_6NetDefEEEbRKNSt7__cxx1112basic_stringIcSt11char_traitsIcESaIcEEE
libcaffe2.so:_ZNK6caffe214ArgumentHelper23HasSingleArgumentOfTypeINSt7__cxx1112basic_stringIcSt11char_traitsIcESaIcEEEEEbRKS7_
libcaffe2.so:_ZNK6caffe214ArgumentHelper23HasSingleArgumentOfTypeIaEEbRKNSt7__cxx1112basic_stringIcSt11char_traitsIcESaIcEEE
libcaffe2.so:_ZNK6caffe214ArgumentHelper23HasSingleArgumentOfTypeIbEEbRKNSt7__cxx1112basic_stringIcSt11char_traitsIcESaIcEEE
libcaffe2.so:_ZNK6caffe214ArgumentHelper23HasSingleArgumentOfTypeIdEEbRKNSt7__cxx1112basic_stringIcSt11char_traitsIcESaIcEEE
libcaffe2.so:_ZNK6caffe214ArgumentHelper23HasSingleArgumentOfTypeIfEEbRKNSt7__cxx1112basic_stringIcSt11char_traitsIcESaIcEEE
libcaffe2.so:_ZNK6caffe214ArgumentHelper23HasSingleArgumentOfTypeIhEEbRKNSt7__cxx1112basic_stringIcSt11char_traitsIcESaIcEEE
libcaffe2.so:_ZNK6caffe214ArgumentHelper23HasSingleArgumentOfTypeIiEEbRKNSt7__cxx1112basic_stringIcSt11char_traitsIcESaIcEEE
libcaffe2.so:_ZNK6caffe214ArgumentHelper23HasSingleArgumentOfTypeIlEEbRKNSt7__cxx1112basic_stringIcSt11char_traitsIcESaIcEEE
libcaffe2.so:_ZNK6caffe214ArgumentHelper23HasSingleArgumentOfTypeImEEbRKNSt7__cxx1112basic_stringIcSt11char_traitsIcESaIcEEE
libcaffe2.so:_ZNK6caffe214ArgumentHelper23HasSingleArgumentOfTypeIsEEbRKNSt7__cxx1112basic_stringIcSt11char_traitsIcESaIcEEE
libcaffe2.so:_ZNK6caffe214ArgumentHelper23HasSingleArgumentOfTypeItEEbRKNSt7__cxx1112basic_stringIcSt11char_traitsIcESaIcEEE
libcaffe2.so:_ZNK6caffe214ExecutorHelper7GetPoolERKNS_12DeviceOptionE
libcaffe2.so:_ZNK6caffe214HierarchyProto11GetMetadataEv
libcaffe2.so:_ZNK6caffe214HierarchyProto12ByteSizeLongEv
libcaffe2.so:_ZNK6caffe214HierarchyProto13IsInitializedEv
libcaffe2.so:_ZNK6caffe214HierarchyProto13SetCachedSizeEi
libcaffe2.so:_ZNK6caffe214HierarchyProto24SerializeWithCachedSizesEPN6google8protobuf2io17CodedOutputStreamE
libcaffe2.so:_ZNK6caffe214HierarchyProto39InternalSerializeWithCachedSizesToArrayEbPh
libcaffe2.so:_ZNK6caffe214HierarchyProto3NewEPN6google8protobuf5ArenaE
libcaffe2.so:_ZNK6caffe215PredictorConsts11GetMetadataEv
libcaffe2.so:_ZNK6caffe215PredictorConsts12ByteSizeLongEv
libcaffe2.so:_ZNK6caffe215PredictorConsts13IsInitializedEv
libcaffe2.so:_ZNK6caffe215PredictorConsts13SetCachedSizeEi
libcaffe2.so:_ZNK6caffe215PredictorConsts24SerializeWithCachedSizesEPN6google8protobuf2io17CodedOutputStreamE
libcaffe2.so:_ZNK6caffe215PredictorConsts39InternalSerializeWithCachedSizesToArrayEbPh
libcaffe2.so:_ZNK6caffe215PredictorConsts3NewEPN6google8protobuf5ArenaE
libcaffe2.so:_ZNK6caffe215RebatchingQueue7canReadEv
libcaffe2.so:_ZNK6caffe215RebatchingQueue8canWriteEv
libcaffe2.so:_ZNK6caffe215RebatchingQueue8capacityEv
libcaffe2.so:_ZNK6caffe215RebatchingQueue8isClosedEv
libcaffe2.so:_ZNK6caffe215RebatchingQueue8numBlobsEv
libcaffe2.so:_ZNK6caffe219GenerateProposalsOpINS_10CPUContextEE20ProposalsForOneImageERKN5Eigen5ArrayIfLi3ELi1ELi0ELi3ELi1EEERKNS3_3MapIKNS3_6MatrixIfLin1ELin1ELi1ELin1ELin1EEELi0ENS3_6StrideILi0ELi0EEEEERKNS_5utils15ConstTensorViewIfEESL_PNS4_IfLin1ELin1ELi1ELin1ELin1EEEPNS4_IfLin1ELi1ELi0ELin1ELi1EEE
libcaffe2.so:_ZNK6caffe219TensorProto_Segment11GetMetadataEv
libcaffe2.so:_ZNK6caffe219TensorProto_Segment12ByteSizeLongEv
libcaffe2.so:_ZNK6caffe219TensorProto_Segment13IsInitializedEv
libcaffe2.so:_ZNK6caffe219TensorProto_Segment13SetCachedSizeEi
libcaffe2.so:_ZNK6caffe219TensorProto_Segment24SerializeWithCachedSizesEPN6google8protobuf2io17CodedOutputStreamE
libcaffe2.so:_ZNK6caffe219TensorProto_Segment30RequiredFieldsByteSizeFallbackEv
libcaffe2.so:_ZNK6caffe219TensorProto_Segment39InternalSerializeWithCachedSizesToArrayEbPh
libcaffe2.so:_ZNK6caffe219TensorProto_Segment3NewEPN6google8protobuf5ArenaE
libcaffe2.so:_ZNK6caffe220TimeOperatorObserver7rnnCopyEPNS_12OperatorBaseEi
libcaffe2.so:_ZNK6caffe224RunCountOperatorObserver7rnnCopyEPNS_12OperatorBaseEi
libcaffe2.so:_ZNK6caffe24Blob9SerializeERKNSt7__cxx1112basic_stringIcSt11char_traitsIcESaIcEEE
libcaffe2.so:_ZNK6caffe24Blob9SerializeERKNSt7__cxx1112basic_stringIcSt11char_traitsIcESaIcEEESt8functionIFvS8_S8_EEi
libcaffe2.so:_ZNK6caffe24onnx12OnnxExporter17get_renamed_attrsB5cxx11Ev
libcaffe2.so:_ZNK6caffe24onnx12OnnxExporter21get_renamed_operatorsB5cxx11Ev
libcaffe2.so:_ZNK6caffe24onnx12OnnxExporter21get_special_operatorsB5cxx11Ev
libcaffe2.so:_ZNK6caffe24onnx12OnnxExporter24get_per_op_renamed_attrsB5cxx11Ev
libcaffe2.so:_ZNK6caffe24onnx13Caffe2Backend17get_renamed_attrsB5cxx11Ev
libcaffe2.so:_ZNK6caffe24onnx13Caffe2Backend17get_rnn_operatorsB5cxx11Ev
libcaffe2.so:_ZNK6caffe24onnx13Caffe2Backend20get_broken_operatorsB5cxx11Ev
libcaffe2.so:_ZNK6caffe24onnx13Caffe2Backend21get_renamed_operatorsB5cxx11Ev
libcaffe2.so:_ZNK6caffe24onnx13Caffe2Backend21get_special_operatorsB5cxx11Ev
libcaffe2.so:_ZNK6caffe24onnx13Caffe2Backend24get_per_op_renamed_attrsB5cxx11Ev
libcaffe2.so:_ZNK6caffe24onnx13Caffe2Backend9SupportOpENSt7__cxx1112basic_stringIcSt11char_traitsIcESaIcEEE
libcaffe2.so:_ZNK6caffe24onnx14OnnxAttributes19OnnxAttrToCaffe2ArgESt8functionIFNSt7__cxx1112basic_stringIcSt11char_traitsIcESaIcEEERKS8_EE
libcaffe2.so:_ZNK6caffe24onnx14OnnxAttributes3getIN6google8protobuf13RepeatedFieldIlEEEET_RKNSt7__cxx1112basic_stringIcSt11char_traitsIcESaIcEEE
libcaffe2.so:_ZNK6caffe24onnx14OnnxAttributes3getIN6google8protobuf16RepeatedPtrFieldINSt7__cxx1112basic_stringIcSt11char_traitsIcESaIcEEEEEEET_RKSB_
libcaffe2.so:_ZNK6caffe24onnx14OnnxAttributes3getIPKN7onnx_c211TensorProtoEEET_RKNSt7__cxx1112basic_stringIcSt11char_traitsIcESaIcEEE
libcaffe2.so:_ZNK6caffe24onnx14OnnxAttributes3getIfEET_RKNSt7__cxx1112basic_stringIcSt11char_traitsIcESaIcEEE
libcaffe2.so:_ZNK6caffe24onnx14OnnxAttributes3getIlEET_RKNSt7__cxx1112basic_stringIcSt11char_traitsIcESaIcEEE
libcaffe2.so:_ZNK6caffe26NetDef11GetMetadataEv
libcaffe2.so:_ZNK6caffe26NetDef12ByteSizeLongEv
libcaffe2.so:_ZNK6caffe26NetDef13IsInitializedEv
libcaffe2.so:_ZNK6caffe26NetDef13SetCachedSizeEi
libcaffe2.so:_ZNK6caffe26NetDef24SerializeWithCachedSizesEPN6google8protobuf2io17CodedOutputStreamE
libcaffe2.so:_ZNK6caffe26NetDef39InternalSerializeWithCachedSizesToArrayEbPh
libcaffe2.so:_ZNK6caffe26NetDef3NewEPN6google8protobuf5ArenaE
libcaffe2.so:_ZNK6caffe26script15CompilationUnit8getProtoERKNSt7__cxx1112basic_stringIcSt11char_traitsIcESaIcEEE
libcaffe2.so:_ZNK6caffe27NetsMap11GetMetadataEv
libcaffe2.so:_ZNK6caffe27NetsMap12ByteSizeLongEv
libcaffe2.so:_ZNK6caffe27NetsMap13IsInitializedEv
libcaffe2.so:_ZNK6caffe27NetsMap13SetCachedSizeEi
libcaffe2.so:_ZNK6caffe27NetsMap24SerializeWithCachedSizesEPN6google8protobuf2io17CodedOutputStreamE
libcaffe2.so:_ZNK6caffe27NetsMap30RequiredFieldsByteSizeFallbackEv
libcaffe2.so:_ZNK6caffe27NetsMap39InternalSerializeWithCachedSizesToArrayEbPh
libcaffe2.so:_ZNK6caffe27NetsMap3NewEPN6google8protobuf5ArenaE
libcaffe2.so:_ZNK6caffe27PlanDef11GetMetadataEv
libcaffe2.so:_ZNK6caffe27PlanDef12ByteSizeLongEv
libcaffe2.so:_ZNK6caffe27PlanDef13IsInitializedEv
libcaffe2.so:_ZNK6caffe27PlanDef13SetCachedSizeEi
libcaffe2.so:_ZNK6caffe27PlanDef24SerializeWithCachedSizesEPN6google8protobuf2io17CodedOutputStreamE
libcaffe2.so:_ZNK6caffe27PlanDef39InternalSerializeWithCachedSizesToArrayEbPh
libcaffe2.so:_ZNK6caffe27PlanDef3NewEPN6google8protobuf5ArenaE
libcaffe2.so:_ZNK6caffe28Argument11GetMetadataEv
libcaffe2.so:_ZNK6caffe28Argument12ByteSizeLongEv
libcaffe2.so:_ZNK6caffe28Argument13IsInitializedEv
libcaffe2.so:_ZNK6caffe28Argument13SetCachedSizeEi
libcaffe2.so:_ZNK6caffe28Argument24SerializeWithCachedSizesEPN6google8protobuf2io17CodedOutputStreamE
libcaffe2.so:_ZNK6caffe28Argument39InternalSerializeWithCachedSizesToArrayEbPh
libcaffe2.so:_ZNK6caffe28Argument3NewEPN6google8protobuf5ArenaE
libcaffe2.so:_ZNK6caffe28BlobsMap11GetMetadataEv
libcaffe2.so:_ZNK6caffe28BlobsMap12ByteSizeLongEv
libcaffe2.so:_ZNK6caffe28BlobsMap13IsInitializedEv
libcaffe2.so:_ZNK6caffe28BlobsMap13SetCachedSizeEi
libcaffe2.so:_ZNK6caffe28BlobsMap24SerializeWithCachedSizesEPN6google8protobuf2io17CodedOutputStreamE
libcaffe2.so:_ZNK6caffe28BlobsMap39InternalSerializeWithCachedSizesToArrayEbPh
libcaffe2.so:_ZNK6caffe28BlobsMap3NewEPN6google8protobuf5ArenaE
libcaffe2.so:_ZNK6caffe28OpSchema15CalculateOutputEi
libcaffe2.so:_ZNK6caffe28OpSchema6VerifyERKNS_11OperatorDefE
libcaffe2.so:_ZNK6caffe28PlansMap11GetMetadataEv
libcaffe2.so:_ZNK6caffe28PlansMap12ByteSizeLongEv
libcaffe2.so:_ZNK6caffe28PlansMap13IsInitializedEv
libcaffe2.so:_ZNK6caffe28PlansMap13SetCachedSizeEi
libcaffe2.so:_ZNK6caffe28PlansMap24SerializeWithCachedSizesEPN6google8protobuf2io17CodedOutputStreamE
libcaffe2.so:_ZNK6caffe28PlansMap30RequiredFieldsByteSizeFallbackEv
libcaffe2.so:_ZNK6caffe28PlansMap39InternalSerializeWithCachedSizesToArrayEbPh
libcaffe2.so:_ZNK6caffe28PlansMap3NewEPN6google8protobuf5ArenaE
libcaffe2.so:_ZNK6caffe29BlobProto11GetMetadataEv
libcaffe2.so:_ZNK6caffe29BlobProto12ByteSizeLongEv
libcaffe2.so:_ZNK6caffe29BlobProto13IsInitializedEv
libcaffe2.so:_ZNK6caffe29BlobProto13SetCachedSizeEi
libcaffe2.so:_ZNK6caffe29BlobProto24SerializeWithCachedSizesEPN6google8protobuf2io17CodedOutputStreamE
libcaffe2.so:_ZNK6caffe29BlobProto39InternalSerializeWithCachedSizesToArrayEbPh
libcaffe2.so:_ZNK6caffe29BlobProto3NewEPN6google8protobuf5ArenaE
libcaffe2.so:_ZNK6caffe29ModelInfo11GetMetadataEv
libcaffe2.so:_ZNK6caffe29ModelInfo12ByteSizeLongEv
libcaffe2.so:_ZNK6caffe29ModelInfo13IsInitializedEv
libcaffe2.so:_ZNK6caffe29ModelInfo13SetCachedSizeEi
libcaffe2.so:_ZNK6caffe29ModelInfo24SerializeWithCachedSizesEPN6google8protobuf2io17CodedOutputStreamE
libcaffe2.so:_ZNK6caffe29ModelInfo39InternalSerializeWithCachedSizesToArrayEbPh
libcaffe2.so:_ZNK6caffe29ModelInfo3NewEPN6google8protobuf5ArenaE
libcaffe2.so:_ZNK6caffe29NodeProto11GetMetadataEv
libcaffe2.so:_ZNK6caffe29NodeProto12ByteSizeLongEv
libcaffe2.so:_ZNK6caffe29NodeProto13IsInitializedEv
libcaffe2.so:_ZNK6caffe29NodeProto13SetCachedSizeEi
libcaffe2.so:_ZNK6caffe29NodeProto24SerializeWithCachedSizesEPN6google8protobuf2io17CodedOutputStreamE
libcaffe2.so:_ZNK6caffe29NodeProto39InternalSerializeWithCachedSizesToArrayEbPh
libcaffe2.so:_ZNK6caffe29NodeProto3NewEPN6google8protobuf5ArenaE
libcaffe2.so:_ZNK6caffe29PathProto11GetMetadataEv
libcaffe2.so:_ZNK6caffe29PathProto12ByteSizeLongEv
libcaffe2.so:_ZNK6caffe29PathProto13IsInitializedEv
libcaffe2.so:_ZNK6caffe29PathProto13SetCachedSizeEi
libcaffe2.so:_ZNK6caffe29PathProto24SerializeWithCachedSizesEPN6google8protobuf2io17CodedOutputStreamE
libcaffe2.so:_ZNK6caffe29PathProto39InternalSerializeWithCachedSizesToArrayEbPh
libcaffe2.so:_ZNK6caffe29PathProto3NewEPN6google8protobuf5ArenaE
libcaffe2.so:_ZNK6caffe29StringMap11GetMetadataEv
libcaffe2.so:_ZNK6caffe29StringMap12ByteSizeLongEv
libcaffe2.so:_ZNK6caffe29StringMap13IsInitializedEv
libcaffe2.so:_ZNK6caffe29StringMap13SetCachedSizeEi
libcaffe2.so:_ZNK6caffe29StringMap24SerializeWithCachedSizesEPN6google8protobuf2io17CodedOutputStreamE
libcaffe2.so:_ZNK6caffe29StringMap30RequiredFieldsByteSizeFallbackEv
libcaffe2.so:_ZNK6caffe29StringMap39InternalSerializeWithCachedSizesToArrayEbPh
libcaffe2.so:_ZNK6caffe29StringMap3NewEPN6google8protobuf5ArenaE
libcaffe2.so:_ZNK6caffe29TreeProto11GetMetadataEv
libcaffe2.so:_ZNK6caffe29TreeProto12ByteSizeLongEv
libcaffe2.so:_ZNK6caffe29TreeProto13IsInitializedEv
libcaffe2.so:_ZNK6caffe29TreeProto13SetCachedSizeEi
libcaffe2.so:_ZNK6caffe29TreeProto24SerializeWithCachedSizesEPN6google8protobuf2io17CodedOutputStreamE
libcaffe2.so:_ZNK6caffe29TreeProto39InternalSerializeWithCachedSizesToArrayEbPh
libcaffe2.so:_ZNK6caffe29TreeProto3NewEPN6google8protobuf5ArenaE
libcaffe2.so:_ZNK6caffe29Workspace10LocalBlobsB5cxx11Ev
libcaffe2.so:_ZNK6caffe29Workspace5BlobsB5cxx11Ev
libcaffe2.so:_ZNK6caffe29Workspace7GetBlobERKNSt7__cxx1112basic_stringIcSt11char_traitsIcESaIcEEE
libcaffe2.so:_ZNK7onnx_c210GraphProto11GetMetadataEv
libcaffe2.so:_ZNK7onnx_c210GraphProto12ByteSizeLongEv
libcaffe2.so:_ZNK7onnx_c210GraphProto13IsInitializedEv
libcaffe2.so:_ZNK7onnx_c210GraphProto13SetCachedSizeEi
libcaffe2.so:_ZNK7onnx_c210GraphProto24SerializeWithCachedSizesEPN6google8protobuf2io17CodedOutputStreamE
libcaffe2.so:_ZNK7onnx_c210GraphProto39InternalSerializeWithCachedSizesToArrayEbPh
libcaffe2.so:_ZNK7onnx_c210GraphProto3NewEPN6google8protobuf5ArenaE
libcaffe2.so:_ZNK7onnx_c210ModelProto11GetMetadataEv
libcaffe2.so:_ZNK7onnx_c210ModelProto12ByteSizeLongEv
libcaffe2.so:_ZNK7onnx_c210ModelProto13IsInitializedEv
libcaffe2.so:_ZNK7onnx_c210ModelProto13SetCachedSizeEi
libcaffe2.so:_ZNK7onnx_c210ModelProto24SerializeWithCachedSizesEPN6google8protobuf2io17CodedOutputStreamE
libcaffe2.so:_ZNK7onnx_c210ModelProto39InternalSerializeWithCachedSizesToArrayEbPh
libcaffe2.so:_ZNK7onnx_c210ModelProto3NewEPN6google8protobuf5ArenaE
libcaffe2.so:_ZNK7onnx_c211TensorProto11GetMetadataEv
libcaffe2.so:_ZNK7onnx_c211TensorProto12ByteSizeLongEv
libcaffe2.so:_ZNK7onnx_c211TensorProto13IsInitializedEv
libcaffe2.so:_ZNK7onnx_c211TensorProto13SetCachedSizeEi
libcaffe2.so:_ZNK7onnx_c211TensorProto24SerializeWithCachedSizesEPN6google8protobuf2io17CodedOutputStreamE
libcaffe2.so:_ZNK7onnx_c211TensorProto39InternalSerializeWithCachedSizesToArrayEbPh
libcaffe2.so:_ZNK7onnx_c211TensorProto3NewEPN6google8protobuf5ArenaE
libcaffe2.so:_ZNK7onnx_c214AttributeProto11GetMetadataEv
libcaffe2.so:_ZNK7onnx_c214AttributeProto12ByteSizeLongEv
libcaffe2.so:_ZNK7onnx_c214AttributeProto13IsInitializedEv
libcaffe2.so:_ZNK7onnx_c214AttributeProto13SetCachedSizeEi
libcaffe2.so:_ZNK7onnx_c214AttributeProto24SerializeWithCachedSizesEPN6google8protobuf2io17CodedOutputStreamE
libcaffe2.so:_ZNK7onnx_c214AttributeProto39InternalSerializeWithCachedSizesToArrayEbPh
libcaffe2.so:_ZNK7onnx_c214AttributeProto3NewEPN6google8protobuf5ArenaE
libcaffe2.so:_ZNK7onnx_c214ValueInfoProto11GetMetadataEv
libcaffe2.so:_ZNK7onnx_c214ValueInfoProto12ByteSizeLongEv
libcaffe2.so:_ZNK7onnx_c214ValueInfoProto13IsInitializedEv
libcaffe2.so:_ZNK7onnx_c214ValueInfoProto13SetCachedSizeEi
libcaffe2.so:_ZNK7onnx_c214ValueInfoProto24SerializeWithCachedSizesEPN6google8protobuf2io17CodedOutputStreamE
libcaffe2.so:_ZNK7onnx_c214ValueInfoProto39InternalSerializeWithCachedSizesToArrayEbPh
libcaffe2.so:_ZNK7onnx_c214ValueInfoProto3NewEPN6google8protobuf5ArenaE
libcaffe2.so:_ZNK7onnx_c216TensorShapeProto11GetMetadataEv
libcaffe2.so:_ZNK7onnx_c216TensorShapeProto12ByteSizeLongEv
libcaffe2.so:_ZNK7onnx_c216TensorShapeProto13IsInitializedEv
libcaffe2.so:_ZNK7onnx_c216TensorShapeProto13SetCachedSizeEi
libcaffe2.so:_ZNK7onnx_c216TensorShapeProto24SerializeWithCachedSizesEPN6google8protobuf2io17CodedOutputStreamE
libcaffe2.so:_ZNK7onnx_c216TensorShapeProto39InternalSerializeWithCachedSizesToArrayEbPh
libcaffe2.so:_ZNK7onnx_c216TensorShapeProto3NewEPN6google8protobuf5ArenaE
libcaffe2.so:_ZNK7onnx_c216TypeProto_Tensor11GetMetadataEv
libcaffe2.so:_ZNK7onnx_c216TypeProto_Tensor12ByteSizeLongEv
libcaffe2.so:_ZNK7onnx_c216TypeProto_Tensor13IsInitializedEv
libcaffe2.so:_ZNK7onnx_c216TypeProto_Tensor13SetCachedSizeEi
libcaffe2.so:_ZNK7onnx_c216TypeProto_Tensor24SerializeWithCachedSizesEPN6google8protobuf2io17CodedOutputStreamE
libcaffe2.so:_ZNK7onnx_c216TypeProto_Tensor39InternalSerializeWithCachedSizesToArrayEbPh
libcaffe2.so:_ZNK7onnx_c216TypeProto_Tensor3NewEPN6google8protobuf5ArenaE
libcaffe2.so:_ZNK7onnx_c218OperatorSetIdProto11GetMetadataEv
libcaffe2.so:_ZNK7onnx_c218OperatorSetIdProto12ByteSizeLongEv
libcaffe2.so:_ZNK7onnx_c218OperatorSetIdProto13IsInitializedEv
libcaffe2.so:_ZNK7onnx_c218OperatorSetIdProto13SetCachedSizeEi
libcaffe2.so:_ZNK7onnx_c218OperatorSetIdProto24SerializeWithCachedSizesEPN6google8protobuf2io17CodedOutputStreamE
libcaffe2.so:_ZNK7onnx_c218OperatorSetIdProto39InternalSerializeWithCachedSizesToArrayEbPh
libcaffe2.so:_ZNK7onnx_c218OperatorSetIdProto3NewEPN6google8protobuf5ArenaE
libcaffe2.so:_ZNK7onnx_c219TensorProto_Segment11GetMetadataEv
libcaffe2.so:_ZNK7onnx_c219TensorProto_Segment12ByteSizeLongEv
libcaffe2.so:_ZNK7onnx_c219TensorProto_Segment13IsInitializedEv
libcaffe2.so:_ZNK7onnx_c219TensorProto_Segment13SetCachedSizeEi
libcaffe2.so:_ZNK7onnx_c219TensorProto_Segment24SerializeWithCachedSizesEPN6google8protobuf2io17CodedOutputStreamE
libcaffe2.so:_ZNK7onnx_c219TensorProto_Segment39InternalSerializeWithCachedSizesToArrayEbPh
libcaffe2.so:_ZNK7onnx_c219TensorProto_Segment3NewEPN6google8protobuf5ArenaE
libcaffe2.so:_ZNK7onnx_c222StringStringEntryProto11GetMetadataEv
libcaffe2.so:_ZNK7onnx_c222StringStringEntryProto12ByteSizeLongEv
libcaffe2.so:_ZNK7onnx_c222StringStringEntryProto13IsInitializedEv
libcaffe2.so:_ZNK7onnx_c222StringStringEntryProto13SetCachedSizeEi
libcaffe2.so:_ZNK7onnx_c222StringStringEntryProto24SerializeWithCachedSizesEPN6google8protobuf2io17CodedOutputStreamE
libcaffe2.so:_ZNK7onnx_c222StringStringEntryProto39InternalSerializeWithCachedSizesToArrayEbPh
libcaffe2.so:_ZNK7onnx_c222StringStringEntryProto3NewEPN6google8protobuf5ArenaE
libcaffe2.so:_ZNK7onnx_c226TensorShapeProto_Dimension11GetMetadataEv
libcaffe2.so:_ZNK7onnx_c226TensorShapeProto_Dimension12ByteSizeLongEv
libcaffe2.so:_ZNK7onnx_c226TensorShapeProto_Dimension13IsInitializedEv
libcaffe2.so:_ZNK7onnx_c226TensorShapeProto_Dimension13SetCachedSizeEi
libcaffe2.so:_ZNK7onnx_c226TensorShapeProto_Dimension24SerializeWithCachedSizesEPN6google8protobuf2io17CodedOutputStreamE
libcaffe2.so:_ZNK7onnx_c226TensorShapeProto_Dimension39InternalSerializeWithCachedSizesToArrayEbPh
libcaffe2.so:_ZNK7onnx_c226TensorShapeProto_Dimension3NewEPN6google8protobuf5ArenaE
libcaffe2.so:_ZNK7onnx_c25Utils11StringRange10StartsWithERKS1_
libcaffe2.so:_ZNK7onnx_c25Utils11StringRange4DataEv
libcaffe2.so:_ZNK7onnx_c25Utils11StringRange4FindEc
libcaffe2.so:_ZNK7onnx_c25Utils11StringRange4SizeEv
libcaffe2.so:_ZNK7onnx_c25Utils11StringRange5EmptyEv
libcaffe2.so:_ZNK7onnx_c25Utils11StringRange8EndsWithERKS1_
libcaffe2.so:_ZNK7onnx_c25Utils11StringRangeixEm
libcaffe2.so:_ZNK7onnx_c26Symbol8toStringEv
libcaffe2.so:_ZNK7onnx_c28OpSchema15FormalParameter10GetTypeStrB5cxx11Ev
libcaffe2.so:_ZNK7onnx_c28OpSchema15FormalParameter14GetDescriptionB5cxx11Ev
libcaffe2.so:_ZNK7onnx_c28OpSchema15FormalParameter7GetNameB5cxx11Ev
libcaffe2.so:_ZNK7onnx_c28OpSchema15FormalParameter8GetTypesB5cxx11Ev
libcaffe2.so:_ZNK7onnx_c28OpSchema15FormalParameter9GetOptionEv
libcaffe2.so:_ZNK7onnx_c28OpSchema6VerifyERKNS_9NodeProtoE
libcaffe2.so:_ZNK7onnx_c29NodeProto11GetMetadataEv
libcaffe2.so:_ZNK7onnx_c29NodeProto12ByteSizeLongEv
libcaffe2.so:_ZNK7onnx_c29NodeProto13IsInitializedEv
libcaffe2.so:_ZNK7onnx_c29NodeProto13SetCachedSizeEi
libcaffe2.so:_ZNK7onnx_c29NodeProto24SerializeWithCachedSizesEPN6google8protobuf2io17CodedOutputStreamE
libcaffe2.so:_ZNK7onnx_c29NodeProto39InternalSerializeWithCachedSizesToArrayEbPh
libcaffe2.so:_ZNK7onnx_c29NodeProto3NewEPN6google8protobuf5ArenaE
libcaffe2.so:_ZNK7onnx_c29TypeProto11GetMetadataEv
libcaffe2.so:_ZNK7onnx_c29TypeProto12ByteSizeLongEv
libcaffe2.so:_ZNK7onnx_c29TypeProto13IsInitializedEv
libcaffe2.so:_ZNK7onnx_c29TypeProto13SetCachedSizeEi
libcaffe2.so:_ZNK7onnx_c29TypeProto24SerializeWithCachedSizesEPN6google8protobuf2io17CodedOutputStreamE
libcaffe2.so:_ZNK7onnx_c29TypeProto39InternalSerializeWithCachedSizesToArrayEbPh
libcaffe2.so:_ZNK7onnx_c29TypeProto3NewEPN6google8protobuf5ArenaE
libcaffe2.so:_ZTHN6caffe212AsyncNetBase16stream_counters_E
libcaffe2.so:cpuinfo_deinitialize
libcaffe2.so:cpuinfo_get_cluster
libcaffe2.so:cpuinfo_get_clusters
libcaffe2.so:cpuinfo_get_clusters_count
libcaffe2.so:cpuinfo_get_core
libcaffe2.so:cpuinfo_get_cores
libcaffe2.so:cpuinfo_get_cores_count
libcaffe2.so:cpuinfo_get_current_core
libcaffe2.so:cpuinfo_get_current_processor
libcaffe2.so:cpuinfo_get_l1d_cache
libcaffe2.so:cpuinfo_get_l1d_caches
libcaffe2.so:cpuinfo_get_l1d_caches_count
libcaffe2.so:cpuinfo_get_l1i_cache
libcaffe2.so:cpuinfo_get_l1i_caches
libcaffe2.so:cpuinfo_get_l1i_caches_count
libcaffe2.so:cpuinfo_get_l2_cache
libcaffe2.so:cpuinfo_get_l2_caches
libcaffe2.so:cpuinfo_get_l2_caches_count
libcaffe2.so:cpuinfo_get_l3_cache
libcaffe2.so:cpuinfo_get_l3_caches
libcaffe2.so:cpuinfo_get_l3_caches_count
libcaffe2.so:cpuinfo_get_l4_cache
libcaffe2.so:cpuinfo_get_l4_caches
libcaffe2.so:cpuinfo_get_l4_caches_count
libcaffe2.so:cpuinfo_get_package
libcaffe2.so:cpuinfo_get_packages
libcaffe2.so:cpuinfo_get_packages_count
libcaffe2.so:cpuinfo_get_processor
libcaffe2.so:cpuinfo_get_processors
libcaffe2.so:cpuinfo_get_processors_count
libcaffe2.so:cpuinfo_initialize
libcaffe2.so:cpuinfo_linux_detect_core_siblings
libcaffe2.so:cpuinfo_linux_detect_possible_processors
libcaffe2.so:cpuinfo_linux_detect_present_processors
libcaffe2.so:cpuinfo_linux_detect_thread_siblings
libcaffe2.so:cpuinfo_linux_get_max_possible_processor
libcaffe2.so:cpuinfo_linux_get_max_present_processor
libcaffe2.so:cpuinfo_linux_get_max_processors_count
libcaffe2.so:cpuinfo_linux_get_processor_core_id
libcaffe2.so:cpuinfo_linux_get_processor_max_frequency
libcaffe2.so:cpuinfo_linux_get_processor_min_frequency
libcaffe2.so:cpuinfo_linux_get_processor_package_id
libcaffe2.so:cpuinfo_linux_parse_cpulist
libcaffe2.so:cpuinfo_linux_parse_multiline_file
libcaffe2.so:cpuinfo_linux_parse_small_file
libcaffe2.so:cpuinfo_log_error
libcaffe2.so:cpuinfo_log_fatal
libcaffe2.so:cpuinfo_x86_decode_cache_descriptor
libcaffe2.so:cpuinfo_x86_decode_cache_properties
libcaffe2.so:cpuinfo_x86_decode_deterministic_cache_parameters
libcaffe2.so:cpuinfo_x86_decode_model_info
libcaffe2.so:cpuinfo_x86_decode_uarch
libcaffe2.so:cpuinfo_x86_decode_vendor
libcaffe2.so:cpuinfo_x86_detect_cache
libcaffe2.so:cpuinfo_x86_detect_isa
libcaffe2.so:cpuinfo_x86_detect_topology
libcaffe2.so:cpuinfo_x86_format_package_name
libcaffe2.so:cpuinfo_x86_init_processor
libcaffe2.so:cpuinfo_x86_linux_init
libcaffe2.so:cpuinfo_x86_linux_parse_proc_cpuinfo
libcaffe2.so:cpuinfo_x86_normalize_brand_string
libcaffe2.so:inplace_scaled_exp_minus_c__avx2
libcaffe2.so:max__avx
libcaffe2.so:nnp_c8gemm_conjb_only_2x2__fma3
libcaffe2.so:nnp_c8gemm_conjb_transc_only_2x2__fma3
libcaffe2.so:nnp_c8gemm_conjb_transc_upto_2x2__fma3
libcaffe2.so:nnp_c8gemm_conjb_upto_2x2__fma3
libcaffe2.so:nnp_c8gemm_only_2x2__fma3
libcaffe2.so:nnp_c8gemm_upto_2x2__fma3
libcaffe2.so:nnp_conv1x1_only_2x4__fma3
libcaffe2.so:nnp_conv1x1_upto_2x4__fma3
libcaffe2.so:nnp_convolution_inference
libcaffe2.so:nnp_deinitialize
libcaffe2.so:nnp_fft16x16_with_offset_and_store__avx2
libcaffe2.so:nnp_fft16x16_with_offset_and_stream__avx2
libcaffe2.so:nnp_fft8x8_with_offset_and_store__avx2
libcaffe2.so:nnp_fft8x8_with_offset_and_stream__avx2
libcaffe2.so:nnp_grad_relu__avx2
libcaffe2.so:nnp_ifft16x16_with_bias__avx2
libcaffe2.so:nnp_ifft16x16_with_bias_with_relu__avx2
libcaffe2.so:nnp_ifft16x16_with_offset__avx2
libcaffe2.so:nnp_ifft8x8_with_bias__avx2
libcaffe2.so:nnp_ifft8x8_with_bias_with_relu__avx2
libcaffe2.so:nnp_ifft8x8_with_offset__avx2
libcaffe2.so:nnp_initialize
libcaffe2.so:nnp_inplace_relu__avx2
libcaffe2.so:nnp_inplace_softmax__avx2
libcaffe2.so:nnp_iwt8x8_3x3_with_offset_and_store__avx2
libcaffe2.so:nnp_iwt8x8_3x3_with_offset_and_stream__avx2
libcaffe2.so:nnp_kwt8x8_3Rx3R_and_store__avx2
libcaffe2.so:nnp_kwt8x8_3Rx3R_and_stream__avx2
libcaffe2.so:nnp_kwt8x8_3x3_and_store__avx2
libcaffe2.so:nnp_kwt8x8_3x3_and_stream__avx2
libcaffe2.so:nnp_owt8x8_3x3__avx2
libcaffe2.so:nnp_owt8x8_3x3_with_bias__avx2
libcaffe2.so:nnp_owt8x8_3x3_with_bias_with_relu__avx2
libcaffe2.so:nnp_relu__avx2
libcaffe2.so:nnp_s4c6gemm_conjb_only_2x2__fma3
libcaffe2.so:nnp_s4c6gemm_conjb_transc_only_2x2__fma3
libcaffe2.so:nnp_s4c6gemm_conjb_transc_upto_2x2__fma3
libcaffe2.so:nnp_s4c6gemm_conjb_upto_2x2__fma3
libcaffe2.so:nnp_s4c6gemm_only_2x2__fma3
libcaffe2.so:nnp_s4c6gemm_upto_2x2__fma3
libcaffe2.so:nnp_s8gemm_only_3x4__fma3
libcaffe2.so:nnp_s8gemm_upto_3x4__fma3
libcaffe2.so:nnp_sdotxf1__avx2
libcaffe2.so:nnp_sdotxf2__avx2
libcaffe2.so:nnp_sdotxf3__avx2
libcaffe2.so:nnp_sdotxf4__avx2
libcaffe2.so:nnp_sdotxf5__avx2
libcaffe2.so:nnp_sdotxf6__avx2
libcaffe2.so:nnp_sdotxf7__avx2
libcaffe2.so:nnp_sdotxf8__avx2
libcaffe2.so:nnp_sgemm_only_4x24__fma3
libcaffe2.so:nnp_sgemm_upto_4x24__fma3
libcaffe2.so:nnp_shdotxf1__avx2
libcaffe2.so:nnp_shdotxf2__avx2
libcaffe2.so:nnp_shdotxf3__avx2
libcaffe2.so:nnp_shdotxf4__avx2
libcaffe2.so:nnp_shdotxf5__avx2
libcaffe2.so:nnp_shdotxf6__avx2
libcaffe2.so:nnp_shdotxf7__avx2
libcaffe2.so:nnp_shdotxf8__avx2
libcaffe2.so:nnp_softmax__avx2
libcaffe2.so:pthreadpool_compute_1d
libcaffe2.so:pthreadpool_compute_1d_tiled
libcaffe2.so:pthreadpool_compute_2d
libcaffe2.so:pthreadpool_compute_2d_tiled
libcaffe2.so:pthreadpool_get_threads_count
libcaffe2.so:scaled_exp_minus_c__avx2
libcaffe2.so:sum_exp_minus_c__avx2
libcaffe2_observers.so:_ZN6caffe215PerfNetObserver4StopEv
libcaffe2_observers.so:_ZN6caffe215PerfNetObserver5StartEv
libcaffe2_observers.so:_ZN6caffe215PerfNetObserverC1EPNS_7NetBaseE
libcaffe2_observers.so:_ZN6caffe215PerfNetObserverC2EPNS_7NetBaseE
libcaffe2_observers.so:_ZN6caffe215PerfNetObserverD0Ev
libcaffe2_observers.so:_ZN6caffe215PerfNetObserverD1Ev
libcaffe2_observers.so:_ZN6caffe215PerfNetObserverD2Ev
libcaffe2_observers.so:_ZN6caffe220PerfOperatorObserver4StopEv
libcaffe2_observers.so:_ZN6caffe220PerfOperatorObserver5StartEv
libcaffe2_observers.so:_ZN6caffe220PerfOperatorObserverC1EPNS_12OperatorBaseEPNS_15PerfNetObserverE
libcaffe2_observers.so:_ZN6caffe220PerfOperatorObserverC2EPNS_12OperatorBaseEPNS_15PerfNetObserverE
libcaffe2_observers.so:_ZN6caffe220PerfOperatorObserverD0Ev
libcaffe2_observers.so:_ZN6caffe220PerfOperatorObserverD1Ev
libcaffe2_observers.so:_ZN6caffe220PerfOperatorObserverD2Ev
libcaffe2_observers.so:_ZN6caffe224NetObserverReporterPrint11reportDelayEPNS_7NetBaseERSt3mapINSt7__cxx1112basic_stringIcSt11char_traitsIcESaIcEEEdSt4lessIS9_ESaISt4pairIKS9_dEEEPKc
libcaffe2_observers.so:_ZNK6caffe215PerfNetObserver15getObserverNameB5cxx11EPKNS_12OperatorBaseEi
libcaffe2_observers.so:_ZNK6caffe220PerfOperatorObserver15getMillisecondsEv
