lib_lightgbm.so:LGBM_BoosterAddValidData
lib_lightgbm.so:LGBM_BoosterAddValidData_R
lib_lightgbm.so:LGBM_BoosterCalcNumPredict
lib_lightgbm.so:LGBM_BoosterCalcNumPredict_R
lib_lightgbm.so:LGBM_BoosterCreate
lib_lightgbm.so:LGBM_BoosterCreateFromModelfile
lib_lightgbm.so:LGBM_BoosterCreateFromModelfile_R
lib_lightgbm.so:LGBM_BoosterCreate_R
lib_lightgbm.so:LGBM_BoosterDumpModel
lib_lightgbm.so:LGBM_BoosterDumpModel_R
lib_lightgbm.so:LGBM_BoosterFeatureImportance
lib_lightgbm.so:LGBM_BoosterFree
lib_lightgbm.so:LGBM_BoosterFree_R
lib_lightgbm.so:LGBM_BoosterGetCurrentIteration
lib_lightgbm.so:LGBM_BoosterGetCurrentIteration_R
lib_lightgbm.so:LGBM_BoosterGetEval
lib_lightgbm.so:LGBM_BoosterGetEvalCounts
lib_lightgbm.so:LGBM_BoosterGetEvalNames
lib_lightgbm.so:LGBM_BoosterGetEvalNames_R
lib_lightgbm.so:LGBM_BoosterGetEval_R
lib_lightgbm.so:LGBM_BoosterGetFeatureNames
lib_lightgbm.so:LGBM_BoosterGetLeafValue
lib_lightgbm.so:LGBM_BoosterGetNumClasses
lib_lightgbm.so:LGBM_BoosterGetNumClasses_R
lib_lightgbm.so:LGBM_BoosterGetNumFeature
lib_lightgbm.so:LGBM_BoosterGetNumPredict
lib_lightgbm.so:LGBM_BoosterGetNumPredict_R
lib_lightgbm.so:LGBM_BoosterGetPredict
lib_lightgbm.so:LGBM_BoosterGetPredict_R
lib_lightgbm.so:LGBM_BoosterLoadModelFromString
lib_lightgbm.so:LGBM_BoosterLoadModelFromString_R
lib_lightgbm.so:LGBM_BoosterMerge
lib_lightgbm.so:LGBM_BoosterMerge_R
lib_lightgbm.so:LGBM_BoosterPredictForCSC
lib_lightgbm.so:LGBM_BoosterPredictForCSC_R
lib_lightgbm.so:LGBM_BoosterPredictForCSR
lib_lightgbm.so:LGBM_BoosterPredictForFile
lib_lightgbm.so:LGBM_BoosterPredictForFile_R
lib_lightgbm.so:LGBM_BoosterPredictForMat
lib_lightgbm.so:LGBM_BoosterPredictForMat_R
lib_lightgbm.so:LGBM_BoosterResetParameter
lib_lightgbm.so:LGBM_BoosterResetParameter_R
lib_lightgbm.so:LGBM_BoosterResetTrainingData
lib_lightgbm.so:LGBM_BoosterResetTrainingData_R
lib_lightgbm.so:LGBM_BoosterRollbackOneIter
lib_lightgbm.so:LGBM_BoosterRollbackOneIter_R
lib_lightgbm.so:LGBM_BoosterSaveModel
lib_lightgbm.so:LGBM_BoosterSaveModelToString
lib_lightgbm.so:LGBM_BoosterSaveModelToString_R
lib_lightgbm.so:LGBM_BoosterSaveModel_R
lib_lightgbm.so:LGBM_BoosterSetLeafValue
lib_lightgbm.so:LGBM_BoosterUpdateOneIter
lib_lightgbm.so:LGBM_BoosterUpdateOneIterCustom
lib_lightgbm.so:LGBM_BoosterUpdateOneIterCustom_R
lib_lightgbm.so:LGBM_BoosterUpdateOneIter_R
lib_lightgbm.so:LGBM_DatasetCreateByReference
lib_lightgbm.so:LGBM_DatasetCreateFromCSC
lib_lightgbm.so:LGBM_DatasetCreateFromCSC_R
lib_lightgbm.so:LGBM_DatasetCreateFromCSR
lib_lightgbm.so:LGBM_DatasetCreateFromFile
lib_lightgbm.so:LGBM_DatasetCreateFromFile_R
lib_lightgbm.so:LGBM_DatasetCreateFromMat
lib_lightgbm.so:LGBM_DatasetCreateFromMat_R
lib_lightgbm.so:LGBM_DatasetCreateFromSampledColumn
lib_lightgbm.so:LGBM_DatasetFree
lib_lightgbm.so:LGBM_DatasetFree_R
lib_lightgbm.so:LGBM_DatasetGetFeatureNames
lib_lightgbm.so:LGBM_DatasetGetFeatureNames_R
lib_lightgbm.so:LGBM_DatasetGetField
lib_lightgbm.so:LGBM_DatasetGetFieldSize_R
lib_lightgbm.so:LGBM_DatasetGetField_R
lib_lightgbm.so:LGBM_DatasetGetNumData
lib_lightgbm.so:LGBM_DatasetGetNumData_R
lib_lightgbm.so:LGBM_DatasetGetNumFeature
lib_lightgbm.so:LGBM_DatasetGetNumFeature_R
lib_lightgbm.so:LGBM_DatasetGetSubset
lib_lightgbm.so:LGBM_DatasetGetSubset_R
lib_lightgbm.so:LGBM_DatasetPushRows
lib_lightgbm.so:LGBM_DatasetPushRowsByCSR
lib_lightgbm.so:LGBM_DatasetSaveBinary
lib_lightgbm.so:LGBM_DatasetSaveBinary_R
lib_lightgbm.so:LGBM_DatasetSetFeatureNames
lib_lightgbm.so:LGBM_DatasetSetFeatureNames_R
lib_lightgbm.so:LGBM_DatasetSetField
lib_lightgbm.so:LGBM_DatasetSetField_R
lib_lightgbm.so:LGBM_GetLastError
lib_lightgbm.so:LGBM_GetLastError_R
lib_lightgbm.so:LGBM_NetworkFree
lib_lightgbm.so:LGBM_NetworkInit
lib_lightgbm.so:LGBM_NetworkInitWithFunctions
lib_lightgbm.so:_Z10EncodeCharP8LGBM_SERPKcS0_S0_m
lib_lightgbm.so:_Z14GetPredictTypeP8LGBM_SERS0_
lib_lightgbm.so:_Z18RowFunctionFromCSRPKviPKiS0_ill
lib_lightgbm.so:_Z22IterateFunctionFromCSCPKviPKiS0_illi
lib_lightgbm.so:_Z26RowFunctionFromDenseMatricPKviiii
lib_lightgbm.so:_Z30RowPairFunctionFromDenseMatricPKviiii
lib_lightgbm.so:_ZN15CSC_RowIterator11NextNonZeroEv
lib_lightgbm.so:_ZN15CSC_RowIterator3GetEi
lib_lightgbm.so:_ZN15CSC_RowIteratorC1EPKviPKiS1_illi
lib_lightgbm.so:_ZN15CSC_RowIteratorC2EPKviPKiS1_illi
lib_lightgbm.so:_ZN8LightGBM10ConfigBase6KV2MapERSt13unordered_mapINSt7__cxx1112basic_stringIcSt11char_traitsIcESaIcEEES7_St4hashIS7_ESt8equal_toIS7_ESaISt4pairIKS7_S7_EEEPKc
lib_lightgbm.so:_ZN8LightGBM10ConfigBase7Str2MapB5cxx11EPKc
lib_lightgbm.so:_ZN8LightGBM10FindGroupsERKSt6vectorISt10unique_ptrINS_9BinMapperESt14default_deleteIS2_EESaIS5_EERKS0_IiSaIiEEPPiPKimiiib
lib_lightgbm.so:_ZN8LightGBM10NeedFilterERKSt6vectorIiSaIiEEiiNS_7BinTypeE
lib_lightgbm.so:_ZN8LightGBM10TreeConfig3SetERKSt13unordered_mapINSt7__cxx1112basic_stringIcSt11char_traitsIcESaIcEEES7_St4hashIS7_ESt8equal_toIS7_ESaISt4pairIKS7_S7_EEE
lib_lightgbm.so:_ZN8LightGBM11Application11InitPredictEv
lib_lightgbm.so:_ZN8LightGBM11Application12ConvertModelEv
lib_lightgbm.so:_ZN8LightGBM11Application14LoadParametersEiPPc
lib_lightgbm.so:_ZN8LightGBM11Application5TrainEv
lib_lightgbm.so:_ZN8LightGBM11Application7PredictEv
lib_lightgbm.so:_ZN8LightGBM11Application8LoadDataEv
lib_lightgbm.so:_ZN8LightGBM11Application9InitTrainEv
lib_lightgbm.so:_ZN8LightGBM11ApplicationC1EiPPc
lib_lightgbm.so:_ZN8LightGBM11ApplicationC2EiPPc
lib_lightgbm.so:_ZN8LightGBM11ApplicationD1Ev
lib_lightgbm.so:_ZN8LightGBM11ApplicationD2Ev
lib_lightgbm.so:_ZN8LightGBM11GetTaskTypeERKSt13unordered_mapINSt7__cxx1112basic_stringIcSt11char_traitsIcESaIcEEES6_St4hashIS6_ESt8equal_toIS6_ESaISt4pairIKS6_S6_EEEPNS_8TaskTypeE
lib_lightgbm.so:_ZN8LightGBM11TreeLearner17CreateTreeLearnerERKNSt7__cxx1112basic_stringIcSt11char_traitsIcESaIcEEES8_PKNS_10TreeConfigE
lib_lightgbm.so:_ZN8LightGBM12GetStatisticEPKcPiS2_S2_
lib_lightgbm.so:_ZN8LightGBM12MetricConfig3SetERKSt13unordered_mapINSt7__cxx1112basic_stringIcSt11char_traitsIcESaIcEEES7_St4hashIS7_ESt8equal_toIS7_ESaISt4pairIKS7_S7_EEE
lib_lightgbm.so:_ZN8LightGBM13DCGCalculator10CheckLabelEPKfi
lib_lightgbm.so:_ZN8LightGBM13DCGCalculator12CalMaxDCGAtKEiPKfi
lib_lightgbm.so:_ZN8LightGBM13DCGCalculator4InitESt6vectorIdSaIdEE
lib_lightgbm.so:_ZN8LightGBM13DCGCalculator6CalDCGERKSt6vectorIiSaIiEEPKfPKdiPS1_IdSaIdEE
lib_lightgbm.so:_ZN8LightGBM13DCGCalculator9CalDCGAtKEiPKfPKdi
lib_lightgbm.so:_ZN8LightGBM13DCGCalculator9CalMaxDCGERKSt6vectorIiSaIiEEPKfiPS1_IdSaIdEE
lib_lightgbm.so:_ZN8LightGBM13DatasetLoader12CheckDatasetEPKNS_7DatasetE
lib_lightgbm.so:_ZN8LightGBM13DatasetLoader12LoadFromFileEPKcS2_ii
lib_lightgbm.so:_ZN8LightGBM13DatasetLoader15LoadFromBinFileEPKcS2_iiPiPSt6vectorIiSaIiEE
lib_lightgbm.so:_ZN8LightGBM13DatasetLoader19CheckCanLoadFromBinB5cxx11EPKc
lib_lightgbm.so:_ZN8LightGBM13DatasetLoader20LoadTextDataToMemoryB5cxx11EPKcRKNS_8MetadataEiiPiPSt6vectorIiSaIiEE
lib_lightgbm.so:_ZN8LightGBM13DatasetLoader22CostructFromSampleDataEPPdPPiiPKimi
lib_lightgbm.so:_ZN8LightGBM13DatasetLoader22SampleTextDataFromFileB5cxx11EPKcRKNS_8MetadataEiiPiPSt6vectorIiSaIiEE
lib_lightgbm.so:_ZN8LightGBM13DatasetLoader23ExtractFeaturesFromFileEPKcPKNS_6ParserERKSt6vectorIiSaIiEEPNS_7DatasetE
lib_lightgbm.so:_ZN8LightGBM13DatasetLoader24SampleTextDataFromMemoryERKSt6vectorINSt7__cxx1112basic_stringIcSt11char_traitsIcESaIcEEESaIS7_EE
lib_lightgbm.so:_ZN8LightGBM13DatasetLoader25ExtractFeaturesFromMemoryERSt6vectorINSt7__cxx1112basic_stringIcSt11char_traitsIcESaIcEEESaIS7_EEPKNS_6ParserEPNS_7DatasetE
lib_lightgbm.so:_ZN8LightGBM13DatasetLoader31ConstructBinMappersFromTextDataEiiRKSt6vectorINSt7__cxx1112basic_stringIcSt11char_traitsIcESaIcEEESaIS7_EEPKNS_6ParserEPNS_7DatasetE
lib_lightgbm.so:_ZN8LightGBM13DatasetLoader33LoadFromFileAlignWithOtherDatasetEPKcS2_PKNS_7DatasetE
lib_lightgbm.so:_ZN8LightGBM13DatasetLoader9SetHeaderEPKc
lib_lightgbm.so:_ZN8LightGBM13DatasetLoaderC1ERKNS_8IOConfigERKSt8functionIFvRKSt6vectorISt4pairIidESaIS7_EEPdEEiPKc
lib_lightgbm.so:_ZN8LightGBM13DatasetLoaderC2ERKNS_8IOConfigERKSt8functionIFvRKSt6vectorISt4pairIidESaIS7_EEPdEEiPKc
lib_lightgbm.so:_ZN8LightGBM13DatasetLoaderD1Ev
lib_lightgbm.so:_ZN8LightGBM13DatasetLoaderD2Ev
lib_lightgbm.so:_ZN8LightGBM13GetDeviceTypeERKSt13unordered_mapINSt7__cxx1112basic_stringIcSt11char_traitsIcESaIcEEES6_St4hashIS6_ESt8equal_toIS6_ESaISt4pairIKS6_S6_EEEPS6_
lib_lightgbm.so:_ZN8LightGBM13GetMetricTypeERKSt13unordered_mapINSt7__cxx1112basic_stringIcSt11char_traitsIcESaIcEEES6_St4hashIS6_ESt8equal_toIS6_ESaISt4pairIKS6_S6_EEEPSt6vectorIS6_SaIS6_EE
lib_lightgbm.so:_ZN8LightGBM13GreedyFindBinEPKdPKiiimi
lib_lightgbm.so:_ZN8LightGBM13NetworkConfig3SetERKSt13unordered_mapINSt7__cxx1112basic_stringIcSt11char_traitsIcESaIcEEES7_St4hashIS7_ESt8equal_toIS7_ESaISt4pairIKS7_S7_EEE
lib_lightgbm.so:_ZN8LightGBM13OverallConfig18CheckParamConflictEv
lib_lightgbm.so:_ZN8LightGBM13OverallConfig3SetERKSt13unordered_mapINSt7__cxx1112basic_stringIcSt11char_traitsIcESaIcEEES7_St4hashIS7_ESt8equal_toIS7_ESaISt4pairIKS7_S7_EEE
lib_lightgbm.so:_ZN8LightGBM14BoostingConfig3SetERKSt13unordered_mapINSt7__cxx1112basic_stringIcSt11char_traitsIcESaIcEEES7_St4hashIS7_ESt8equal_toIS7_ESaISt4pairIKS7_S7_EEE
lib_lightgbm.so:_ZN8LightGBM14GPUTreeLearner11BeforeTrainEv
lib_lightgbm.so:_ZN8LightGBM14GPUTreeLearner11GetBuildLogERKNSt7__cxx1112basic_stringIcSt11char_traitsIcESaIcEEE
lib_lightgbm.so:_ZN8LightGBM14GPUTreeLearner12GPUHistogramEib
lib_lightgbm.so:_ZN8LightGBM14GPUTreeLearner14FindBestSplitsEv
lib_lightgbm.so:_ZN8LightGBM14GPUTreeLearner15BuildGPUKernelsEv
lib_lightgbm.so:_ZN8LightGBM14GPUTreeLearner17AllocateGPUMemoryEv
lib_lightgbm.so:_ZN8LightGBM14GPUTreeLearner17ResetTrainingDataEPKNS_7DatasetE
lib_lightgbm.so:_ZN8LightGBM14GPUTreeLearner19BeforeFindBestSplitEPKNS_4TreeEii
lib_lightgbm.so:_ZN8LightGBM14GPUTreeLearner19ConstructHistogramsERKSt6vectorIaSaIaEEb
lib_lightgbm.so:_ZN8LightGBM14GPUTreeLearner20SetupKernelArgumentsEv
lib_lightgbm.so:_ZN8LightGBM14GPUTreeLearner26GetNumWorkgroupsPerFeatureEi
lib_lightgbm.so:_ZN8LightGBM14GPUTreeLearner27ConstructGPUHistogramsAsyncERKSt6vectorIaSaIaEEPKiiPKfS9_PfSA_
lib_lightgbm.so:_ZN8LightGBM14GPUTreeLearner4InitEPKNS_7DatasetEb
lib_lightgbm.so:_ZN8LightGBM14GPUTreeLearner5SplitEPNS_4TreeEiPiS3_
lib_lightgbm.so:_ZN8LightGBM14GPUTreeLearner5TrainEPKfS2_b
lib_lightgbm.so:_ZN8LightGBM14GPUTreeLearner7InitGPUEii
lib_lightgbm.so:_ZN8LightGBM14GPUTreeLearnerC1EPKNS_10TreeConfigE
lib_lightgbm.so:_ZN8LightGBM14GPUTreeLearnerC2EPKNS_10TreeConfigE
lib_lightgbm.so:_ZN8LightGBM14GPUTreeLearnerD0Ev
lib_lightgbm.so:_ZN8LightGBM14GPUTreeLearnerD1Ev
lib_lightgbm.so:_ZN8LightGBM14GPUTreeLearnerD2Ev
lib_lightgbm.so:_ZN8LightGBM15GetBoostingTypeERKSt13unordered_mapINSt7__cxx1112basic_stringIcSt11char_traitsIcESaIcEEES6_St4hashIS6_ESt8equal_toIS6_ESaISt4pairIKS6_S6_EEEPS6_
lib_lightgbm.so:_ZN8LightGBM15ObjectiveConfig3SetERKSt13unordered_mapINSt7__cxx1112basic_stringIcSt11char_traitsIcESaIcEEES7_St4hashIS7_ESt8equal_toIS7_ESaISt4pairIKS7_S7_EEE
lib_lightgbm.so:_ZN8LightGBM16GetConfilctCountERKSt6vectorIbSaIbEEPKiii
lib_lightgbm.so:_ZN8LightGBM16GetObjectiveTypeERKSt13unordered_mapINSt7__cxx1112basic_stringIcSt11char_traitsIcESaIcEEES6_St4hashIS6_ESt8equal_toIS6_ESaISt4pairIKS6_S6_EEEPS6_
lib_lightgbm.so:_ZN8LightGBM17GetLabelIdxForCSVERNSt7__cxx1112basic_stringIcSt11char_traitsIcESaIcEEEii
lib_lightgbm.so:_ZN8LightGBM17GetLabelIdxForTSVERNSt7__cxx1112basic_stringIcSt11char_traitsIcESaIcEEEii
lib_lightgbm.so:_ZN8LightGBM17ObjectiveFunction23CreateObjectiveFunctionERKNSt7__cxx1112basic_stringIcSt11char_traitsIcESaIcEEE
lib_lightgbm.so:_ZN8LightGBM17ObjectiveFunction23CreateObjectiveFunctionERKNSt7__cxx1112basic_stringIcSt11char_traitsIcESaIcEEERKNS_15ObjectiveConfigE
lib_lightgbm.so:_ZN8LightGBM17SerialTreeLearner11BeforeTrainEv
lib_lightgbm.so:_ZN8LightGBM17SerialTreeLearner11ResetConfigEPKNS_10TreeConfigE
lib_lightgbm.so:_ZN8LightGBM17SerialTreeLearner14FindBestSplitsEv
lib_lightgbm.so:_ZN8LightGBM17SerialTreeLearner17FitByExistingTreeEPKNS_4TreeERKSt6vectorIiSaIiEEPKfSA_
lib_lightgbm.so:_ZN8LightGBM17SerialTreeLearner17ResetTrainingDataEPKNS_7DatasetE
lib_lightgbm.so:_ZN8LightGBM17SerialTreeLearner19BeforeFindBestSplitEPKNS_4TreeEii
lib_lightgbm.so:_ZN8LightGBM17SerialTreeLearner19ConstructHistogramsERKSt6vectorIaSaIaEEb
lib_lightgbm.so:_ZN8LightGBM17SerialTreeLearner28FindBestSplitsFromHistogramsERKSt6vectorIaSaIaEEb
lib_lightgbm.so:_ZN8LightGBM17SerialTreeLearner4InitEPKNS_7DatasetEb
lib_lightgbm.so:_ZN8LightGBM17SerialTreeLearner5SplitEPNS_4TreeEiPiS3_
lib_lightgbm.so:_ZN8LightGBM17SerialTreeLearner5TrainEPKfS2_b
lib_lightgbm.so:_ZN8LightGBM17SerialTreeLearnerC1EPKNS_10TreeConfigE
lib_lightgbm.so:_ZN8LightGBM17SerialTreeLearnerC2EPKNS_10TreeConfigE
lib_lightgbm.so:_ZN8LightGBM17SerialTreeLearnerD0Ev
lib_lightgbm.so:_ZN8LightGBM17SerialTreeLearnerD1Ev
lib_lightgbm.so:_ZN8LightGBM17SerialTreeLearnerD2Ev
lib_lightgbm.so:_ZN8LightGBM18GetTreeLearnerTypeERKSt13unordered_mapINSt7__cxx1112basic_stringIcSt11char_traitsIcESaIcEEES6_St4hashIS6_ESt8equal_toIS6_ESaISt4pairIKS6_S6_EEEPS6_
lib_lightgbm.so:_ZN8LightGBM19FastFeatureBundlingERSt6vectorISt10unique_ptrINS_9BinMapperESt14default_deleteIS2_EESaIS5_EEPPiPKimRKS0_IiSaIiEEdiidbb
lib_lightgbm.so:_ZN8LightGBM19RecursiveHalvingMap9ConstructEii
lib_lightgbm.so:_ZN8LightGBM19RecursiveHalvingMapC1EiNS_24RecursiveHalvingNodeTypeEb
lib_lightgbm.so:_ZN8LightGBM19RecursiveHalvingMapC1Ev
lib_lightgbm.so:_ZN8LightGBM19RecursiveHalvingMapC2EiNS_24RecursiveHalvingNodeTypeEb
lib_lightgbm.so:_ZN8LightGBM19RecursiveHalvingMapC2Ev
lib_lightgbm.so:_ZN8LightGBM20GetLabelIdxForLibsvmERNSt7__cxx1112basic_stringIcSt11char_traitsIcESaIcEEEii
lib_lightgbm.so:_ZN8LightGBM23FindBinWithZeroAsOneBinEPKdPKiiimi
lib_lightgbm.so:_ZN8LightGBM27ObtainAutomaticInitialScoreEPKNS_17ObjectiveFunctionE
lib_lightgbm.so:_ZN8LightGBM28GetBoostingTypeFromModelFileB5cxx11EPKc
lib_lightgbm.so:_ZN8LightGBM33CreatePredictionEarlyStopInstanceERKNSt7__cxx1112basic_stringIcSt11char_traitsIcESaIcEEERKNS_25PredictionEarlyStopConfigE
lib_lightgbm.so:_ZN8LightGBM3Bin14CreateDenseBinEii
lib_lightgbm.so:_ZN8LightGBM3Bin15CreateSparseBinEii
lib_lightgbm.so:_ZN8LightGBM3Bin9CreateBinEiidbdPb
lib_lightgbm.so:_ZN8LightGBM4GBDT11ResetConfigEPKNS_14BoostingConfigE
lib_lightgbm.so:_ZN8LightGBM4GBDT11UpdateScoreEPKNS_4TreeEi
lib_lightgbm.so:_ZN8LightGBM4GBDT12GetPredictAtEiPdPl
lib_lightgbm.so:_ZN8LightGBM4GBDT12OutputMetricB5cxx11Ei
lib_lightgbm.so:_ZN8LightGBM4GBDT12TrainOneIterEPKfS2_
lib_lightgbm.so:_ZN8LightGBM4GBDT13BaggingHelperERNS_6RandomEiiPi
lib_lightgbm.so:_ZN8LightGBM4GBDT15AddValidDatasetEPKNS_7DatasetERKSt6vectorIPKNS_6MetricESaIS7_EE
lib_lightgbm.so:_ZN8LightGBM4GBDT15RollbackOneIterEv
lib_lightgbm.so:_ZN8LightGBM4GBDT16BoostFromAverageEv
lib_lightgbm.so:_ZN8LightGBM4GBDT16GetTrainingScoreEPl
lib_lightgbm.so:_ZN8LightGBM4GBDT17ResetTrainingDataEPKNS_7DatasetEPKNS_17ObjectiveFunctionERKSt6vectorIPKNS_6MetricESaISA_EE
lib_lightgbm.so:_ZN8LightGBM4GBDT18ResetBaggingConfigEPKNS_14BoostingConfigEb
lib_lightgbm.so:_ZN8LightGBM4GBDT19LoadModelFromStringEPKcm
lib_lightgbm.so:_ZN8LightGBM4GBDT25EvalAndCheckEarlyStoppingEv
lib_lightgbm.so:_ZN8LightGBM4GBDT4InitEPKNS_14BoostingConfigEPKNS_7DatasetEPKNS_17ObjectiveFunctionERKSt6vectorIPKNS_6MetricESaISD_EE
lib_lightgbm.so:_ZN8LightGBM4GBDT5TrainEiRKNSt7__cxx1112basic_stringIcSt11char_traitsIcESaIcEEE
lib_lightgbm.so:_ZN8LightGBM4GBDT7BaggingEi
lib_lightgbm.so:_ZN8LightGBM4GBDT8BoostingEv
lib_lightgbm.so:_ZN8LightGBM4GBDT9RefitTreeERKSt6vectorIS1_IiSaIiEESaIS3_EE
lib_lightgbm.so:_ZN8LightGBM4GBDTC1Ev
lib_lightgbm.so:_ZN8LightGBM4GBDTC2Ev
lib_lightgbm.so:_ZN8LightGBM4GBDTD0Ev
lib_lightgbm.so:_ZN8LightGBM4GBDTD1Ev
lib_lightgbm.so:_ZN8LightGBM4GBDTD2Ev
lib_lightgbm.so:_ZN8LightGBM4Tree10ExtendPathEPNS0_11PathElementEiddi
lib_lightgbm.so:_ZN8LightGBM4Tree10UnwindPathEPNS0_11PathElementEii
lib_lightgbm.so:_ZN8LightGBM4Tree14UnwoundPathSumEPKNS0_11PathElementEii
lib_lightgbm.so:_ZN8LightGBM4Tree16SplitCategoricalEiiiPKjiS2_iddiifNS_11MissingTypeE
lib_lightgbm.so:_ZN8LightGBM4Tree17RecomputeMaxDepthEv
lib_lightgbm.so:_ZN8LightGBM4Tree5SplitEiiijdddiifNS_11MissingTypeEb
lib_lightgbm.so:_ZN8LightGBM4TreeC1EPKcPm
lib_lightgbm.so:_ZN8LightGBM4TreeC1Ei
lib_lightgbm.so:_ZN8LightGBM4TreeC2EPKcPm
lib_lightgbm.so:_ZN8LightGBM4TreeC2Ei
lib_lightgbm.so:_ZN8LightGBM4TreeD1Ev
lib_lightgbm.so:_ZN8LightGBM4TreeD2Ev
lib_lightgbm.so:_ZN8LightGBM6Metric12CreateMetricERKNSt7__cxx1112basic_stringIcSt11char_traitsIcESaIcEEERKNS_12MetricConfigE
lib_lightgbm.so:_ZN8LightGBM6Parser12CreateParserEPKcbii
lib_lightgbm.so:_ZN8LightGBM7Dataset10CopySubsetEPKS0_PKiib
lib_lightgbm.so:_ZN8LightGBM7Dataset10FinishLoadEv
lib_lightgbm.so:_ZN8LightGBM7Dataset11CreateValidEPKS0_
lib_lightgbm.so:_ZN8LightGBM7Dataset11GetIntFieldEPKcPiPPKi
lib_lightgbm.so:_ZN8LightGBM7Dataset11SetIntFieldEPKcPKii
lib_lightgbm.so:_ZN8LightGBM7Dataset13GetFloatFieldEPKcPiPPKf
lib_lightgbm.so:_ZN8LightGBM7Dataset13SetFloatFieldEPKcPKfi
lib_lightgbm.so:_ZN8LightGBM7Dataset14GetDoubleFieldEPKcPiPPKd
lib_lightgbm.so:_ZN8LightGBM7Dataset14SaveBinaryFileEPKc
lib_lightgbm.so:_ZN8LightGBM7Dataset14SetDoubleFieldEPKcPKdi
lib_lightgbm.so:_ZN8LightGBM7Dataset21CopyFeatureMapperFromEPKS0_
lib_lightgbm.so:_ZN8LightGBM7Dataset6ReSizeEi
lib_lightgbm.so:_ZN8LightGBM7Dataset9ConstructERSt6vectorISt10unique_ptrINS_9BinMapperESt14default_deleteIS3_EESaIS6_EEPPiPKimRKNS_8IOConfigE
lib_lightgbm.so:_ZN8LightGBM7DatasetC1Ei
lib_lightgbm.so:_ZN8LightGBM7DatasetC1Ev
lib_lightgbm.so:_ZN8LightGBM7DatasetC2Ei
lib_lightgbm.so:_ZN8LightGBM7DatasetC2Ev
lib_lightgbm.so:_ZN8LightGBM7DatasetD1Ev
lib_lightgbm.so:_ZN8LightGBM7DatasetD2Ev
lib_lightgbm.so:_ZN8LightGBM7LinkersC1ENS_13NetworkConfigE
lib_lightgbm.so:_ZN8LightGBM7LinkersC2ENS_13NetworkConfigE
lib_lightgbm.so:_ZN8LightGBM7LinkersD1Ev
lib_lightgbm.so:_ZN8LightGBM7LinkersD2Ev
lib_lightgbm.so:_ZN8LightGBM7Network13AllgatherRingEPcPKiS3_S1_i
lib_lightgbm.so:_ZN8LightGBM7Network13ReduceScatterEPciiPKiS3_S1_iRKPFvPKcS1_iiE
lib_lightgbm.so:_ZN8LightGBM7Network14AllgatherBruckEPcPKiS3_S1_i
lib_lightgbm.so:_ZN8LightGBM7Network17ReduceScatterRingEPciiPKiS3_S1_iRKPFvPKcS1_iiE
lib_lightgbm.so:_ZN8LightGBM7Network20AllreduceByAllGatherEPciiS1_RKPFvPKcS1_iiE
lib_lightgbm.so:_ZN8LightGBM7Network26AllgatherRecursiveDoublingEPcPKiS3_S1_i
lib_lightgbm.so:_ZN8LightGBM7Network29ReduceScatterRecursiveHalvingEPciiPKiS3_S1_iRKPFvPKcS1_iiE
lib_lightgbm.so:_ZN8LightGBM7Network4InitENS_13NetworkConfigE
lib_lightgbm.so:_ZN8LightGBM7Network4InitEiiPFvPciiPKiS3_iS1_iRKPFvPKcS1_iiEEPFvS1_iS3_S3_iS1_iE
lib_lightgbm.so:_ZN8LightGBM7Network7DisposeEv
lib_lightgbm.so:_ZN8LightGBM7Network9AllgatherEPcPKiS3_S1_i
lib_lightgbm.so:_ZN8LightGBM7Network9AllgatherEPciS1_
lib_lightgbm.so:_ZN8LightGBM7Network9AllreduceEPciiS1_RKPFvPKcS1_iiE
lib_lightgbm.so:_ZN8LightGBM7NoGroupERKSt6vectorIiSaIiEE
lib_lightgbm.so:_ZN8LightGBM8Boosting14CreateBoostingERKNSt7__cxx1112basic_stringIcSt11char_traitsIcESaIcEEEPKc
lib_lightgbm.so:_ZN8LightGBM8Boosting18LoadFileToBoostingEPS0_PKc
lib_lightgbm.so:_ZN8LightGBM8BruckMap9ConstructEii
lib_lightgbm.so:_ZN8LightGBM8BruckMapC1Ei
lib_lightgbm.so:_ZN8LightGBM8BruckMapC1Ev
lib_lightgbm.so:_ZN8LightGBM8BruckMapC2Ei
lib_lightgbm.so:_ZN8LightGBM8BruckMapC2Ev
lib_lightgbm.so:_ZN8LightGBM8IOConfig3SetERKSt13unordered_mapINSt7__cxx1112basic_stringIcSt11char_traitsIcESaIcEEES7_St4hashIS7_ESt8equal_toIS7_ESaISt4pairIKS7_S7_EEE
lib_lightgbm.so:_ZN8LightGBM8MarkUsedERSt6vectorIbSaIbEEPKii
lib_lightgbm.so:_ZN8LightGBM8Metadata10SetWeightsEPKfi
lib_lightgbm.so:_ZN8LightGBM8Metadata11LoadWeightsEv
lib_lightgbm.so:_ZN8LightGBM8Metadata12SetInitScoreEPKdi
lib_lightgbm.so:_ZN8LightGBM8Metadata14LoadFromMemoryEPKv
lib_lightgbm.so:_ZN8LightGBM8Metadata14PartitionLabelERKSt6vectorIiSaIiEE
lib_lightgbm.so:_ZN8LightGBM8Metadata16CheckOrPartitionEiRKSt6vectorIiSaIiEE
lib_lightgbm.so:_ZN8LightGBM8Metadata16LoadInitialScoreEPKc
lib_lightgbm.so:_ZN8LightGBM8Metadata16LoadQueryWeightsEv
lib_lightgbm.so:_ZN8LightGBM8Metadata19LoadQueryBoundariesEv
lib_lightgbm.so:_ZN8LightGBM8Metadata4InitEPKcS2_
lib_lightgbm.so:_ZN8LightGBM8Metadata4InitERKS0_PKii
lib_lightgbm.so:_ZN8LightGBM8Metadata4InitEiii
lib_lightgbm.so:_ZN8LightGBM8Metadata8SetLabelEPKfi
lib_lightgbm.so:_ZN8LightGBM8Metadata8SetQueryEPKii
lib_lightgbm.so:_ZN8LightGBM8MetadataC1Ev
lib_lightgbm.so:_ZN8LightGBM8MetadataC2Ev
lib_lightgbm.so:_ZN8LightGBM8MetadataD1Ev
lib_lightgbm.so:_ZN8LightGBM8MetadataD2Ev
lib_lightgbm.so:_ZN8LightGBM9BinMapper18SizeForSpecificBinEi
lib_lightgbm.so:_ZN8LightGBM9BinMapper7FindBinEPdimiiiNS_7BinTypeEbb
lib_lightgbm.so:_ZN8LightGBM9BinMapper8CopyFromEPKc
lib_lightgbm.so:_ZN8LightGBM9BinMapperC1EPKv
lib_lightgbm.so:_ZN8LightGBM9BinMapperC1ERKS0_
lib_lightgbm.so:_ZN8LightGBM9BinMapperC1Ev
lib_lightgbm.so:_ZN8LightGBM9BinMapperC2EPKv
lib_lightgbm.so:_ZN8LightGBM9BinMapperC2ERKS0_
lib_lightgbm.so:_ZN8LightGBM9BinMapperC2Ev
lib_lightgbm.so:_ZN8LightGBM9BinMapperD1Ev
lib_lightgbm.so:_ZN8LightGBM9BinMapperD2Ev
lib_lightgbm.so:_ZNK8LightGBM17SerialTreeLearner15RenewTreeOutputEPNS_4TreeEPKNS_17ObjectiveFunctionEPKdiPKii
lib_lightgbm.so:_ZNK8LightGBM17SerialTreeLearner17FitByExistingTreeEPKNS_4TreeEPKfS5_
lib_lightgbm.so:_ZNK8LightGBM4GBDT10PredictRawEPKdPdPKNS_27PredictionEarlyStopInstanceE
lib_lightgbm.so:_ZNK8LightGBM4GBDT12PredictByMapERKSt13unordered_mapIidSt4hashIiESt8equal_toIiESaISt4pairIKidEEEPdPKNS_27PredictionEarlyStopInstanceE
lib_lightgbm.so:_ZNK8LightGBM4GBDT13EvalOneMetricEPKNS_6MetricEPKd
lib_lightgbm.so:_ZNK8LightGBM4GBDT13ModelToIfElseB5cxx11Ei
lib_lightgbm.so:_ZNK8LightGBM4GBDT14PredictContribEPKdPdPKNS_27PredictionEarlyStopInstanceE
lib_lightgbm.so:_ZNK8LightGBM4GBDT15PredictRawByMapERKSt13unordered_mapIidSt4hashIiESt8equal_toIiESaISt4pairIKidEEEPdPKNS_27PredictionEarlyStopInstanceE
lib_lightgbm.so:_ZNK8LightGBM4GBDT15SaveModelToFileEiPKc
lib_lightgbm.so:_ZNK8LightGBM4GBDT16PredictLeafIndexEPKdPd
lib_lightgbm.so:_ZNK8LightGBM4GBDT17FeatureImportanceEii
lib_lightgbm.so:_ZNK8LightGBM4GBDT17SaveModelToIfElseEiPKc
lib_lightgbm.so:_ZNK8LightGBM4GBDT17SaveModelToStringB5cxx11Ei
lib_lightgbm.so:_ZNK8LightGBM4GBDT21PredictLeafIndexByMapERKSt13unordered_mapIidSt4hashIiESt8equal_toIiESaISt4pairIKidEEEPd
lib_lightgbm.so:_ZNK8LightGBM4GBDT7PredictEPKdPdPKNS_27PredictionEarlyStopInstanceE
lib_lightgbm.so:_ZNK8LightGBM4GBDT9DumpModelB5cxx11Ei
lib_lightgbm.so:_ZNK8LightGBM4GBDT9GetEvalAtEi
lib_lightgbm.so:_ZNK8LightGBM4Tree10NodeToJSONB5cxx11Ei
lib_lightgbm.so:_ZNK8LightGBM4Tree12NodeToIfElseB5cxx11Eib
lib_lightgbm.so:_ZNK8LightGBM4Tree13ExpectedValueEv
lib_lightgbm.so:_ZNK8LightGBM4Tree17NodeToIfElseByMapB5cxx11Eib
lib_lightgbm.so:_ZNK8LightGBM4Tree20AddPredictionToScoreEPKNS_7DatasetEPKiiPd
lib_lightgbm.so:_ZNK8LightGBM4Tree20AddPredictionToScoreEPKNS_7DatasetEiPd
lib_lightgbm.so:_ZNK8LightGBM4Tree23NumericalDecisionIfElseB5cxx11Ei
lib_lightgbm.so:_ZNK8LightGBM4Tree25CategoricalDecisionIfElseB5cxx11Ei
lib_lightgbm.so:_ZNK8LightGBM4Tree6ToJSONB5cxx11Ev
lib_lightgbm.so:_ZNK8LightGBM4Tree8ToIfElseB5cxx11Eib
lib_lightgbm.so:_ZNK8LightGBM4Tree8ToStringB5cxx11Ev
lib_lightgbm.so:_ZNK8LightGBM4Tree8TreeSHAPEPKdPdiiPNS0_11PathElementEddi
lib_lightgbm.so:_ZNK8LightGBM7Dataset12FixHistogramEiddiPNS_17HistogramBinEntryE
lib_lightgbm.so:_ZNK8LightGBM7Dataset19ConstructHistogramsERKSt6vectorIaSaIaEEPKiiiRS1_ISt10unique_ptrINS_10OrderedBinESt14default_deleteIS9_EESaISC_EEPKfSH_PfSI_bPNS_17HistogramBinEntryE
lib_lightgbm.so:_ZNK8LightGBM8Metadata11SizesInByteEv
lib_lightgbm.so:_ZNK8LightGBM8Metadata16SaveBinaryToFileEP8_IO_FILE
lib_lightgbm.so:_ZNK8LightGBM9BinMapper11SizesInByteEv
lib_lightgbm.so:_ZNK8LightGBM9BinMapper16SaveBinaryToFileEP8_IO_FILE
lib_lightgbm.so:_ZNK8LightGBM9BinMapper6CopyToEPc
lib_lightgbm.so:_ZTHN8LightGBM7Network10block_len_E
lib_lightgbm.so:_ZTHN8LightGBM7Network10bruck_map_E
lib_lightgbm.so:_ZTHN8LightGBM7Network12block_start_E
lib_lightgbm.so:_ZTHN8LightGBM7Network22recursive_halving_map_E
lib_lightgbm.so:_ZTHN8LightGBM7Network7buffer_E
lib_lightgbm.so:_ZTHN8LightGBM7Network8linkers_E
