libcaffe.so.1.0.0:_ZN22protobuf_caffe_2eproto14AddDescriptorsEv
libcaffe.so.1.0.0:_ZN22protobuf_caffe_2eproto17InitDefaultsDatumEv
libcaffe.so.1.0.0:_ZN22protobuf_caffe_2eproto18AddDescriptorsImplEv
libcaffe.so.1.0.0:_ZN22protobuf_caffe_2eproto20InitDefaultsNetStateEv
libcaffe.so.1.0.0:_ZN22protobuf_caffe_2eproto21InitDefaultsBlobProtoEv
libcaffe.so.1.0.0:_ZN22protobuf_caffe_2eproto21InitDefaultsBlobShapeEv
libcaffe.so.1.0.0:_ZN22protobuf_caffe_2eproto21InitDefaultsDatumImplEv
libcaffe.so.1.0.0:_ZN22protobuf_caffe_2eproto21InitDefaultsParamSpecEv
libcaffe.so.1.0.0:_ZN22protobuf_caffe_2eproto22protobuf_RegisterTypesERKNSt7__cxx1112basic_stringIcSt11char_traitsIcESaIcEEE
libcaffe.so.1.0.0:_ZN22protobuf_caffe_2eproto23InitDefaultsSolverStateEv
libcaffe.so.1.0.0:_ZN22protobuf_caffe_2eproto24InitDefaultsELUParameterEv
libcaffe.so.1.0.0:_ZN22protobuf_caffe_2eproto24InitDefaultsExpParameterEv
libcaffe.so.1.0.0:_ZN22protobuf_caffe_2eproto24InitDefaultsLRNParameterEv
libcaffe.so.1.0.0:_ZN22protobuf_caffe_2eproto24InitDefaultsLogParameterEv
libcaffe.so.1.0.0:_ZN22protobuf_caffe_2eproto24InitDefaultsMVNParameterEv
libcaffe.so.1.0.0:_ZN22protobuf_caffe_2eproto24InitDefaultsNetParameterEv
libcaffe.so.1.0.0:_ZN22protobuf_caffe_2eproto24InitDefaultsNetStateImplEv
libcaffe.so.1.0.0:_ZN22protobuf_caffe_2eproto24InitDefaultsNetStateRuleEv
libcaffe.so.1.0.0:_ZN22protobuf_caffe_2eproto24InitDefaultsSPPParameterEv
libcaffe.so.1.0.0:_ZN22protobuf_caffe_2eproto25InitDefaultsBiasParameterEv
libcaffe.so.1.0.0:_ZN22protobuf_caffe_2eproto25InitDefaultsBlobProtoImplEv
libcaffe.so.1.0.0:_ZN22protobuf_caffe_2eproto25InitDefaultsBlobShapeImplEv
libcaffe.so.1.0.0:_ZN22protobuf_caffe_2eproto25InitDefaultsCropParameterEv
libcaffe.so.1.0.0:_ZN22protobuf_caffe_2eproto25InitDefaultsDataParameterEv
libcaffe.so.1.0.0:_ZN22protobuf_caffe_2eproto25InitDefaultsLossParameterEv
libcaffe.so.1.0.0:_ZN22protobuf_caffe_2eproto25InitDefaultsParamSpecImplEv
libcaffe.so.1.0.0:_ZN22protobuf_caffe_2eproto25InitDefaultsReLUParameterEv
libcaffe.so.1.0.0:_ZN22protobuf_caffe_2eproto25InitDefaultsTanHParameterEv
libcaffe.so.1.0.0:_ZN22protobuf_caffe_2eproto25InitDefaultsTileParameterEv
libcaffe.so.1.0.0:_ZN22protobuf_caffe_2eproto26InitDefaultsEmbedParameterEv
libcaffe.so.1.0.0:_ZN22protobuf_caffe_2eproto26InitDefaultsInputParameterEv
libcaffe.so.1.0.0:_ZN22protobuf_caffe_2eproto26InitDefaultsLayerParameterEv
libcaffe.so.1.0.0:_ZN22protobuf_caffe_2eproto26InitDefaultsPReLUParameterEv
libcaffe.so.1.0.0:_ZN22protobuf_caffe_2eproto26InitDefaultsPowerParameterEv
libcaffe.so.1.0.0:_ZN22protobuf_caffe_2eproto26InitDefaultsScaleParameterEv
libcaffe.so.1.0.0:_ZN22protobuf_caffe_2eproto26InitDefaultsSliceParameterEv
libcaffe.so.1.0.0:_ZN22protobuf_caffe_2eproto26protobuf_AssignDescriptorsEv
libcaffe.so.1.0.0:_ZN22protobuf_caffe_2eproto27InitDefaultsArgMaxParameterEv
libcaffe.so.1.0.0:_ZN22protobuf_caffe_2eproto27InitDefaultsBlobProtoVectorEv
libcaffe.so.1.0.0:_ZN22protobuf_caffe_2eproto27InitDefaultsConcatParameterEv
libcaffe.so.1.0.0:_ZN22protobuf_caffe_2eproto27InitDefaultsFillerParameterEv
libcaffe.so.1.0.0:_ZN22protobuf_caffe_2eproto27InitDefaultsPythonParameterEv
libcaffe.so.1.0.0:_ZN22protobuf_caffe_2eproto27InitDefaultsSolverParameterEv
libcaffe.so.1.0.0:_ZN22protobuf_caffe_2eproto27InitDefaultsSolverStateImplEv
libcaffe.so.1.0.0:_ZN22protobuf_caffe_2eproto28InitDefaultsDropoutParameterEv
libcaffe.so.1.0.0:_ZN22protobuf_caffe_2eproto28InitDefaultsELUParameterImplEv
libcaffe.so.1.0.0:_ZN22protobuf_caffe_2eproto28InitDefaultsEltwiseParameterEv
libcaffe.so.1.0.0:_ZN22protobuf_caffe_2eproto28InitDefaultsExpParameterImplEv
libcaffe.so.1.0.0:_ZN22protobuf_caffe_2eproto28InitDefaultsFlattenParameterEv
libcaffe.so.1.0.0:_ZN22protobuf_caffe_2eproto28InitDefaultsLRNParameterImplEv
libcaffe.so.1.0.0:_ZN22protobuf_caffe_2eproto28InitDefaultsLogParameterImplEv
libcaffe.so.1.0.0:_ZN22protobuf_caffe_2eproto28InitDefaultsMVNParameterImplEv
libcaffe.so.1.0.0:_ZN22protobuf_caffe_2eproto28InitDefaultsNetParameterImplEv
libcaffe.so.1.0.0:_ZN22protobuf_caffe_2eproto28InitDefaultsNetStateRuleImplEv
libcaffe.so.1.0.0:_ZN22protobuf_caffe_2eproto28InitDefaultsPoolingParameterEv
libcaffe.so.1.0.0:_ZN22protobuf_caffe_2eproto28InitDefaultsReshapeParameterEv
libcaffe.so.1.0.0:_ZN22protobuf_caffe_2eproto28InitDefaultsSPPParameterImplEv
libcaffe.so.1.0.0:_ZN22protobuf_caffe_2eproto28InitDefaultsSigmoidParameterEv
libcaffe.so.1.0.0:_ZN22protobuf_caffe_2eproto28InitDefaultsSoftmaxParameterEv
libcaffe.so.1.0.0:_ZN22protobuf_caffe_2eproto28InitDefaultsV0LayerParameterEv
libcaffe.so.1.0.0:_ZN22protobuf_caffe_2eproto28InitDefaultsV1LayerParameterEv
libcaffe.so.1.0.0:_ZN22protobuf_caffe_2eproto29InitDefaultsAccuracyParameterEv
libcaffe.so.1.0.0:_ZN22protobuf_caffe_2eproto29InitDefaultsBiasParameterImplEv
libcaffe.so.1.0.0:_ZN22protobuf_caffe_2eproto29InitDefaultsCropParameterImplEv
libcaffe.so.1.0.0:_ZN22protobuf_caffe_2eproto29InitDefaultsDataParameterImplEv
libcaffe.so.1.0.0:_ZN22protobuf_caffe_2eproto29InitDefaultsHDF5DataParameterEv
libcaffe.so.1.0.0:_ZN22protobuf_caffe_2eproto29InitDefaultsLossParameterImplEv
libcaffe.so.1.0.0:_ZN22protobuf_caffe_2eproto29InitDefaultsReLUParameterImplEv
libcaffe.so.1.0.0:_ZN22protobuf_caffe_2eproto29InitDefaultsTanHParameterImplEv
libcaffe.so.1.0.0:_ZN22protobuf_caffe_2eproto29InitDefaultsTileParameterImplEv
libcaffe.so.1.0.0:_ZN22protobuf_caffe_2eproto30InitDefaultsBatchNormParameterEv
libcaffe.so.1.0.0:_ZN22protobuf_caffe_2eproto30InitDefaultsDummyDataParameterEv
libcaffe.so.1.0.0:_ZN22protobuf_caffe_2eproto30InitDefaultsEmbedParameterImplEv
libcaffe.so.1.0.0:_ZN22protobuf_caffe_2eproto30InitDefaultsHingeLossParameterEv
libcaffe.so.1.0.0:_ZN22protobuf_caffe_2eproto30InitDefaultsImageDataParameterEv
libcaffe.so.1.0.0:_ZN22protobuf_caffe_2eproto30InitDefaultsInputParameterImplEv
libcaffe.so.1.0.0:_ZN22protobuf_caffe_2eproto30InitDefaultsLayerParameterImplEv
libcaffe.so.1.0.0:_ZN22protobuf_caffe_2eproto30InitDefaultsPReLUParameterImplEv
libcaffe.so.1.0.0:_ZN22protobuf_caffe_2eproto30InitDefaultsParameterParameterEv
libcaffe.so.1.0.0:_ZN22protobuf_caffe_2eproto30InitDefaultsPowerParameterImplEv
libcaffe.so.1.0.0:_ZN22protobuf_caffe_2eproto30InitDefaultsRecurrentParameterEv
libcaffe.so.1.0.0:_ZN22protobuf_caffe_2eproto30InitDefaultsReductionParameterEv
libcaffe.so.1.0.0:_ZN22protobuf_caffe_2eproto30InitDefaultsScaleParameterImplEv
libcaffe.so.1.0.0:_ZN22protobuf_caffe_2eproto30InitDefaultsSliceParameterImplEv
libcaffe.so.1.0.0:_ZN22protobuf_caffe_2eproto30InitDefaultsThresholdParameterEv
libcaffe.so.1.0.0:_ZN22protobuf_caffe_2eproto30protobuf_AssignDescriptorsOnceEv
libcaffe.so.1.0.0:_ZN22protobuf_caffe_2eproto31InitDefaultsArgMaxParameterImplEv
libcaffe.so.1.0.0:_ZN22protobuf_caffe_2eproto31InitDefaultsBlobProtoVectorImplEv
libcaffe.so.1.0.0:_ZN22protobuf_caffe_2eproto31InitDefaultsConcatParameterImplEv
libcaffe.so.1.0.0:_ZN22protobuf_caffe_2eproto31InitDefaultsFillerParameterImplEv
libcaffe.so.1.0.0:_ZN22protobuf_caffe_2eproto31InitDefaultsHDF5OutputParameterEv
libcaffe.so.1.0.0:_ZN22protobuf_caffe_2eproto31InitDefaultsMemoryDataParameterEv
libcaffe.so.1.0.0:_ZN22protobuf_caffe_2eproto31InitDefaultsPythonParameterImplEv
libcaffe.so.1.0.0:_ZN22protobuf_caffe_2eproto31InitDefaultsSolverParameterImplEv
libcaffe.so.1.0.0:_ZN22protobuf_caffe_2eproto31InitDefaultsWindowDataParameterEv
libcaffe.so.1.0.0:_ZN22protobuf_caffe_2eproto32InitDefaultsConvolutionParameterEv
libcaffe.so.1.0.0:_ZN22protobuf_caffe_2eproto32InitDefaultsDropoutParameterImplEv
libcaffe.so.1.0.0:_ZN22protobuf_caffe_2eproto32InitDefaultsEltwiseParameterImplEv
libcaffe.so.1.0.0:_ZN22protobuf_caffe_2eproto32InitDefaultsFlattenParameterImplEv
libcaffe.so.1.0.0:_ZN22protobuf_caffe_2eproto32InitDefaultsPoolingParameterImplEv
libcaffe.so.1.0.0:_ZN22protobuf_caffe_2eproto32InitDefaultsReshapeParameterImplEv
libcaffe.so.1.0.0:_ZN22protobuf_caffe_2eproto32InitDefaultsSigmoidParameterImplEv
libcaffe.so.1.0.0:_ZN22protobuf_caffe_2eproto32InitDefaultsSoftmaxParameterImplEv
libcaffe.so.1.0.0:_ZN22protobuf_caffe_2eproto32InitDefaultsV0LayerParameterImplEv
libcaffe.so.1.0.0:_ZN22protobuf_caffe_2eproto32InitDefaultsV1LayerParameterImplEv
libcaffe.so.1.0.0:_ZN22protobuf_caffe_2eproto33InitDefaultsAccuracyParameterImplEv
libcaffe.so.1.0.0:_ZN22protobuf_caffe_2eproto33InitDefaultsHDF5DataParameterImplEv
libcaffe.so.1.0.0:_ZN22protobuf_caffe_2eproto33InitDefaultsInfogainLossParameterEv
libcaffe.so.1.0.0:_ZN22protobuf_caffe_2eproto33InitDefaultsInnerProductParameterEv
libcaffe.so.1.0.0:_ZN22protobuf_caffe_2eproto34InitDefaultsBatchNormParameterImplEv
libcaffe.so.1.0.0:_ZN22protobuf_caffe_2eproto34InitDefaultsDummyDataParameterImplEv
libcaffe.so.1.0.0:_ZN22protobuf_caffe_2eproto34InitDefaultsHingeLossParameterImplEv
libcaffe.so.1.0.0:_ZN22protobuf_caffe_2eproto34InitDefaultsImageDataParameterImplEv
libcaffe.so.1.0.0:_ZN22protobuf_caffe_2eproto34InitDefaultsParameterParameterImplEv
libcaffe.so.1.0.0:_ZN22protobuf_caffe_2eproto34InitDefaultsRecurrentParameterImplEv
libcaffe.so.1.0.0:_ZN22protobuf_caffe_2eproto34InitDefaultsReductionParameterImplEv
libcaffe.so.1.0.0:_ZN22protobuf_caffe_2eproto34InitDefaultsThresholdParameterImplEv
libcaffe.so.1.0.0:_ZN22protobuf_caffe_2eproto35InitDefaultsHDF5OutputParameterImplEv
libcaffe.so.1.0.0:_ZN22protobuf_caffe_2eproto35InitDefaultsMemoryDataParameterImplEv
libcaffe.so.1.0.0:_ZN22protobuf_caffe_2eproto35InitDefaultsTransformationParameterEv
libcaffe.so.1.0.0:_ZN22protobuf_caffe_2eproto35InitDefaultsWindowDataParameterImplEv
libcaffe.so.1.0.0:_ZN22protobuf_caffe_2eproto36InitDefaultsContrastiveLossParameterEv
libcaffe.so.1.0.0:_ZN22protobuf_caffe_2eproto36InitDefaultsConvolutionParameterImplEv
libcaffe.so.1.0.0:_ZN22protobuf_caffe_2eproto37InitDefaultsInfogainLossParameterImplEv
libcaffe.so.1.0.0:_ZN22protobuf_caffe_2eproto37InitDefaultsInnerProductParameterImplEv
libcaffe.so.1.0.0:_ZN22protobuf_caffe_2eproto39InitDefaultsTransformationParameterImplEv
libcaffe.so.1.0.0:_ZN22protobuf_caffe_2eproto40InitDefaultsContrastiveLossParameterImplEv
libcaffe.so.1.0.0:_ZN5caffe10GlobalInitEPiPPPc
libcaffe.so.1.0.0:_ZN5caffe10caffe_axpyIdEEviT_PKS1_PS1_
libcaffe.so.1.0.0:_ZN5caffe10caffe_axpyIfEEviT_PKS1_PS1_
libcaffe.so.1.0.0:_ZN5caffe10caffe_powxIdEEviPKT_S1_PS1_
libcaffe.so.1.0.0:_ZN5caffe10caffe_powxIfEEviPKT_S1_PS1_
libcaffe.so.1.0.0:_ZN5caffe10caffe_scalIdEEviT_PS1_
libcaffe.so.1.0.0:_ZN5caffe10caffe_scalIfEEviT_PS1_
libcaffe.so.1.0.0:_ZN5caffe10caffe_sqrtIdEEviPKT_PS1_
libcaffe.so.1.0.0:_ZN5caffe10caffe_sqrtIfEEviPKT_PS1_
libcaffe.so.1.0.0:_ZN5caffe11DecodeDatumEPNS_5DatumEb
libcaffe.so.1.0.0:_ZN5caffe11SolverState10SharedCtorEv
libcaffe.so.1.0.0:_ZN5caffe11SolverState10SharedDtorEv
libcaffe.so.1.0.0:_ZN5caffe11SolverState10descriptorEv
libcaffe.so.1.0.0:_ZN5caffe11SolverState12InternalSwapEPS0_
libcaffe.so.1.0.0:_ZN5caffe11SolverState16default_instanceEv
libcaffe.so.1.0.0:_ZN5caffe11SolverState21InitAsDefaultInstanceEv
libcaffe.so.1.0.0:_ZN5caffe11SolverState27MergePartialFromCodedStreamEPN6google8protobuf2io16CodedInputStreamE
libcaffe.so.1.0.0:_ZN5caffe11SolverState4SwapEPS0_
libcaffe.so.1.0.0:_ZN5caffe11SolverState5ClearEv
libcaffe.so.1.0.0:_ZN5caffe11SolverState8CopyFromERKN6google8protobuf7MessageE
libcaffe.so.1.0.0:_ZN5caffe11SolverState8CopyFromERKS0_
libcaffe.so.1.0.0:_ZN5caffe11SolverState9MergeFromERKN6google8protobuf7MessageE
libcaffe.so.1.0.0:_ZN5caffe11SolverState9MergeFromERKS0_
libcaffe.so.1.0.0:_ZN5caffe11SolverStateC1ERKS0_
libcaffe.so.1.0.0:_ZN5caffe11SolverStateC1Ev
libcaffe.so.1.0.0:_ZN5caffe11SolverStateC2ERKS0_
libcaffe.so.1.0.0:_ZN5caffe11SolverStateC2Ev
libcaffe.so.1.0.0:_ZN5caffe11SolverStateD0Ev
libcaffe.so.1.0.0:_ZN5caffe11SolverStateD1Ev
libcaffe.so.1.0.0:_ZN5caffe11SolverStateD2Ev
libcaffe.so.1.0.0:_ZN5caffe12CVMatToDatumERKN2cv3MatEPNS_5DatumE
libcaffe.so.1.0.0:_ZN5caffe12ELUParameter10SharedCtorEv
libcaffe.so.1.0.0:_ZN5caffe12ELUParameter10SharedDtorEv
libcaffe.so.1.0.0:_ZN5caffe12ELUParameter10descriptorEv
libcaffe.so.1.0.0:_ZN5caffe12ELUParameter12InternalSwapEPS0_
libcaffe.so.1.0.0:_ZN5caffe12ELUParameter16default_instanceEv
libcaffe.so.1.0.0:_ZN5caffe12ELUParameter21InitAsDefaultInstanceEv
libcaffe.so.1.0.0:_ZN5caffe12ELUParameter27MergePartialFromCodedStreamEPN6google8protobuf2io16CodedInputStreamE
libcaffe.so.1.0.0:_ZN5caffe12ELUParameter4SwapEPS0_
libcaffe.so.1.0.0:_ZN5caffe12ELUParameter5ClearEv
libcaffe.so.1.0.0:_ZN5caffe12ELUParameter8CopyFromERKN6google8protobuf7MessageE
libcaffe.so.1.0.0:_ZN5caffe12ELUParameter8CopyFromERKS0_
libcaffe.so.1.0.0:_ZN5caffe12ELUParameter9MergeFromERKN6google8protobuf7MessageE
libcaffe.so.1.0.0:_ZN5caffe12ELUParameter9MergeFromERKS0_
libcaffe.so.1.0.0:_ZN5caffe12ELUParameterC1ERKS0_
libcaffe.so.1.0.0:_ZN5caffe12ELUParameterC1Ev
libcaffe.so.1.0.0:_ZN5caffe12ELUParameterC2ERKS0_
libcaffe.so.1.0.0:_ZN5caffe12ELUParameterC2Ev
libcaffe.so.1.0.0:_ZN5caffe12ELUParameterD0Ev
libcaffe.so.1.0.0:_ZN5caffe12ELUParameterD1Ev
libcaffe.so.1.0.0:_ZN5caffe12ELUParameterD2Ev
libcaffe.so.1.0.0:_ZN5caffe12ExpParameter10SharedCtorEv
libcaffe.so.1.0.0:_ZN5caffe12ExpParameter10SharedDtorEv
libcaffe.so.1.0.0:_ZN5caffe12ExpParameter10descriptorEv
libcaffe.so.1.0.0:_ZN5caffe12ExpParameter12InternalSwapEPS0_
libcaffe.so.1.0.0:_ZN5caffe12ExpParameter16default_instanceEv
libcaffe.so.1.0.0:_ZN5caffe12ExpParameter21InitAsDefaultInstanceEv
libcaffe.so.1.0.0:_ZN5caffe12ExpParameter27MergePartialFromCodedStreamEPN6google8protobuf2io16CodedInputStreamE
libcaffe.so.1.0.0:_ZN5caffe12ExpParameter4SwapEPS0_
libcaffe.so.1.0.0:_ZN5caffe12ExpParameter5ClearEv
libcaffe.so.1.0.0:_ZN5caffe12ExpParameter8CopyFromERKN6google8protobuf7MessageE
libcaffe.so.1.0.0:_ZN5caffe12ExpParameter8CopyFromERKS0_
libcaffe.so.1.0.0:_ZN5caffe12ExpParameter9MergeFromERKN6google8protobuf7MessageE
libcaffe.so.1.0.0:_ZN5caffe12ExpParameter9MergeFromERKS0_
libcaffe.so.1.0.0:_ZN5caffe12ExpParameterC1ERKS0_
libcaffe.so.1.0.0:_ZN5caffe12ExpParameterC1Ev
libcaffe.so.1.0.0:_ZN5caffe12ExpParameterC2ERKS0_
libcaffe.so.1.0.0:_ZN5caffe12ExpParameterC2Ev
libcaffe.so.1.0.0:_ZN5caffe12ExpParameterD0Ev
libcaffe.so.1.0.0:_ZN5caffe12ExpParameterD1Ev
libcaffe.so.1.0.0:_ZN5caffe12ExpParameterD2Ev
libcaffe.so.1.0.0:_ZN5caffe12InsertSplitsERKNS_12NetParameterEPS0_
libcaffe.so.1.0.0:_ZN5caffe12LRNParameter10SharedCtorEv
libcaffe.so.1.0.0:_ZN5caffe12LRNParameter10SharedDtorEv
libcaffe.so.1.0.0:_ZN5caffe12LRNParameter10descriptorEv
libcaffe.so.1.0.0:_ZN5caffe12LRNParameter12InternalSwapEPS0_
libcaffe.so.1.0.0:_ZN5caffe12LRNParameter16default_instanceEv
libcaffe.so.1.0.0:_ZN5caffe12LRNParameter21InitAsDefaultInstanceEv
libcaffe.so.1.0.0:_ZN5caffe12LRNParameter27MergePartialFromCodedStreamEPN6google8protobuf2io16CodedInputStreamE
libcaffe.so.1.0.0:_ZN5caffe12LRNParameter4SwapEPS0_
libcaffe.so.1.0.0:_ZN5caffe12LRNParameter5ClearEv
libcaffe.so.1.0.0:_ZN5caffe12LRNParameter8CopyFromERKN6google8protobuf7MessageE
libcaffe.so.1.0.0:_ZN5caffe12LRNParameter8CopyFromERKS0_
libcaffe.so.1.0.0:_ZN5caffe12LRNParameter9MergeFromERKN6google8protobuf7MessageE
libcaffe.so.1.0.0:_ZN5caffe12LRNParameter9MergeFromERKS0_
libcaffe.so.1.0.0:_ZN5caffe12LRNParameterC1ERKS0_
libcaffe.so.1.0.0:_ZN5caffe12LRNParameterC1Ev
libcaffe.so.1.0.0:_ZN5caffe12LRNParameterC2ERKS0_
libcaffe.so.1.0.0:_ZN5caffe12LRNParameterC2Ev
libcaffe.so.1.0.0:_ZN5caffe12LRNParameterD0Ev
libcaffe.so.1.0.0:_ZN5caffe12LRNParameterD1Ev
libcaffe.so.1.0.0:_ZN5caffe12LRNParameterD2Ev
libcaffe.so.1.0.0:_ZN5caffe12LogParameter10SharedCtorEv
libcaffe.so.1.0.0:_ZN5caffe12LogParameter10SharedDtorEv
libcaffe.so.1.0.0:_ZN5caffe12LogParameter10descriptorEv
libcaffe.so.1.0.0:_ZN5caffe12LogParameter12InternalSwapEPS0_
libcaffe.so.1.0.0:_ZN5caffe12LogParameter16default_instanceEv
libcaffe.so.1.0.0:_ZN5caffe12LogParameter21InitAsDefaultInstanceEv
libcaffe.so.1.0.0:_ZN5caffe12LogParameter27MergePartialFromCodedStreamEPN6google8protobuf2io16CodedInputStreamE
libcaffe.so.1.0.0:_ZN5caffe12LogParameter4SwapEPS0_
libcaffe.so.1.0.0:_ZN5caffe12LogParameter5ClearEv
libcaffe.so.1.0.0:_ZN5caffe12LogParameter8CopyFromERKN6google8protobuf7MessageE
libcaffe.so.1.0.0:_ZN5caffe12LogParameter8CopyFromERKS0_
libcaffe.so.1.0.0:_ZN5caffe12LogParameter9MergeFromERKN6google8protobuf7MessageE
libcaffe.so.1.0.0:_ZN5caffe12LogParameter9MergeFromERKS0_
libcaffe.so.1.0.0:_ZN5caffe12LogParameterC1ERKS0_
libcaffe.so.1.0.0:_ZN5caffe12LogParameterC1Ev
libcaffe.so.1.0.0:_ZN5caffe12LogParameterC2ERKS0_
libcaffe.so.1.0.0:_ZN5caffe12LogParameterC2Ev
libcaffe.so.1.0.0:_ZN5caffe12LogParameterD0Ev
libcaffe.so.1.0.0:_ZN5caffe12LogParameterD1Ev
libcaffe.so.1.0.0:_ZN5caffe12LogParameterD2Ev
libcaffe.so.1.0.0:_ZN5caffe12MVNParameter10SharedCtorEv
libcaffe.so.1.0.0:_ZN5caffe12MVNParameter10SharedDtorEv
libcaffe.so.1.0.0:_ZN5caffe12MVNParameter10descriptorEv
libcaffe.so.1.0.0:_ZN5caffe12MVNParameter12InternalSwapEPS0_
libcaffe.so.1.0.0:_ZN5caffe12MVNParameter16default_instanceEv
libcaffe.so.1.0.0:_ZN5caffe12MVNParameter21InitAsDefaultInstanceEv
libcaffe.so.1.0.0:_ZN5caffe12MVNParameter27MergePartialFromCodedStreamEPN6google8protobuf2io16CodedInputStreamE
libcaffe.so.1.0.0:_ZN5caffe12MVNParameter4SwapEPS0_
libcaffe.so.1.0.0:_ZN5caffe12MVNParameter5ClearEv
libcaffe.so.1.0.0:_ZN5caffe12MVNParameter8CopyFromERKN6google8protobuf7MessageE
libcaffe.so.1.0.0:_ZN5caffe12MVNParameter8CopyFromERKS0_
libcaffe.so.1.0.0:_ZN5caffe12MVNParameter9MergeFromERKN6google8protobuf7MessageE
libcaffe.so.1.0.0:_ZN5caffe12MVNParameter9MergeFromERKS0_
libcaffe.so.1.0.0:_ZN5caffe12MVNParameterC1ERKS0_
libcaffe.so.1.0.0:_ZN5caffe12MVNParameterC1Ev
libcaffe.so.1.0.0:_ZN5caffe12MVNParameterC2ERKS0_
libcaffe.so.1.0.0:_ZN5caffe12MVNParameterC2Ev
libcaffe.so.1.0.0:_ZN5caffe12MVNParameterD0Ev
libcaffe.so.1.0.0:_ZN5caffe12MVNParameterD1Ev
libcaffe.so.1.0.0:_ZN5caffe12MVNParameterD2Ev
libcaffe.so.1.0.0:_ZN5caffe12NetParameter10SharedCtorEv
libcaffe.so.1.0.0:_ZN5caffe12NetParameter10SharedDtorEv
libcaffe.so.1.0.0:_ZN5caffe12NetParameter10descriptorEv
libcaffe.so.1.0.0:_ZN5caffe12NetParameter12InternalSwapEPS0_
libcaffe.so.1.0.0:_ZN5caffe12NetParameter16default_instanceEv
libcaffe.so.1.0.0:_ZN5caffe12NetParameter21InitAsDefaultInstanceEv
libcaffe.so.1.0.0:_ZN5caffe12NetParameter27MergePartialFromCodedStreamEPN6google8protobuf2io16CodedInputStreamE
libcaffe.so.1.0.0:_ZN5caffe12NetParameter4SwapEPS0_
libcaffe.so.1.0.0:_ZN5caffe12NetParameter5ClearEv
libcaffe.so.1.0.0:_ZN5caffe12NetParameter8CopyFromERKN6google8protobuf7MessageE
libcaffe.so.1.0.0:_ZN5caffe12NetParameter8CopyFromERKS0_
libcaffe.so.1.0.0:_ZN5caffe12NetParameter9MergeFromERKN6google8protobuf7MessageE
libcaffe.so.1.0.0:_ZN5caffe12NetParameter9MergeFromERKS0_
libcaffe.so.1.0.0:_ZN5caffe12NetParameterC1ERKS0_
libcaffe.so.1.0.0:_ZN5caffe12NetParameterC1Ev
libcaffe.so.1.0.0:_ZN5caffe12NetParameterC2ERKS0_
libcaffe.so.1.0.0:_ZN5caffe12NetParameterC2Ev
libcaffe.so.1.0.0:_ZN5caffe12NetParameterD0Ev
libcaffe.so.1.0.0:_ZN5caffe12NetParameterD1Ev
libcaffe.so.1.0.0:_ZN5caffe12NetParameterD2Ev
libcaffe.so.1.0.0:_ZN5caffe12NetStateRule10SharedCtorEv
libcaffe.so.1.0.0:_ZN5caffe12NetStateRule10SharedDtorEv
libcaffe.so.1.0.0:_ZN5caffe12NetStateRule10descriptorEv
libcaffe.so.1.0.0:_ZN5caffe12NetStateRule12InternalSwapEPS0_
libcaffe.so.1.0.0:_ZN5caffe12NetStateRule16default_instanceEv
libcaffe.so.1.0.0:_ZN5caffe12NetStateRule21InitAsDefaultInstanceEv
libcaffe.so.1.0.0:_ZN5caffe12NetStateRule27MergePartialFromCodedStreamEPN6google8protobuf2io16CodedInputStreamE
libcaffe.so.1.0.0:_ZN5caffe12NetStateRule4SwapEPS0_
libcaffe.so.1.0.0:_ZN5caffe12NetStateRule5ClearEv
libcaffe.so.1.0.0:_ZN5caffe12NetStateRule8CopyFromERKN6google8protobuf7MessageE
libcaffe.so.1.0.0:_ZN5caffe12NetStateRule8CopyFromERKS0_
libcaffe.so.1.0.0:_ZN5caffe12NetStateRule9MergeFromERKN6google8protobuf7MessageE
libcaffe.so.1.0.0:_ZN5caffe12NetStateRule9MergeFromERKS0_
libcaffe.so.1.0.0:_ZN5caffe12NetStateRuleC1ERKS0_
libcaffe.so.1.0.0:_ZN5caffe12NetStateRuleC1Ev
libcaffe.so.1.0.0:_ZN5caffe12NetStateRuleC2ERKS0_
libcaffe.so.1.0.0:_ZN5caffe12NetStateRuleC2Ev
libcaffe.so.1.0.0:_ZN5caffe12NetStateRuleD0Ev
libcaffe.so.1.0.0:_ZN5caffe12NetStateRuleD1Ev
libcaffe.so.1.0.0:_ZN5caffe12NetStateRuleD2Ev
libcaffe.so.1.0.0:_ZN5caffe12SPPParameter10SharedCtorEv
libcaffe.so.1.0.0:_ZN5caffe12SPPParameter10SharedDtorEv
libcaffe.so.1.0.0:_ZN5caffe12SPPParameter10descriptorEv
libcaffe.so.1.0.0:_ZN5caffe12SPPParameter12InternalSwapEPS0_
libcaffe.so.1.0.0:_ZN5caffe12SPPParameter16default_instanceEv
libcaffe.so.1.0.0:_ZN5caffe12SPPParameter21InitAsDefaultInstanceEv
libcaffe.so.1.0.0:_ZN5caffe12SPPParameter27MergePartialFromCodedStreamEPN6google8protobuf2io16CodedInputStreamE
libcaffe.so.1.0.0:_ZN5caffe12SPPParameter4SwapEPS0_
libcaffe.so.1.0.0:_ZN5caffe12SPPParameter5ClearEv
libcaffe.so.1.0.0:_ZN5caffe12SPPParameter8CopyFromERKN6google8protobuf7MessageE
libcaffe.so.1.0.0:_ZN5caffe12SPPParameter8CopyFromERKS0_
libcaffe.so.1.0.0:_ZN5caffe12SPPParameter9MergeFromERKN6google8protobuf7MessageE
libcaffe.so.1.0.0:_ZN5caffe12SPPParameter9MergeFromERKS0_
libcaffe.so.1.0.0:_ZN5caffe12SPPParameterC1ERKS0_
libcaffe.so.1.0.0:_ZN5caffe12SPPParameterC1Ev
libcaffe.so.1.0.0:_ZN5caffe12SPPParameterC2ERKS0_
libcaffe.so.1.0.0:_ZN5caffe12SPPParameterC2Ev
libcaffe.so.1.0.0:_ZN5caffe12SPPParameterD0Ev
libcaffe.so.1.0.0:_ZN5caffe12SPPParameterD1Ev
libcaffe.so.1.0.0:_ZN5caffe12SPPParameterD2Ev
libcaffe.so.1.0.0:_ZN5caffe12SyncedMemory12check_deviceEv
libcaffe.so.1.0.0:_ZN5caffe12SyncedMemory12set_cpu_dataEPv
libcaffe.so.1.0.0:_ZN5caffe12SyncedMemory12set_gpu_dataEPv
libcaffe.so.1.0.0:_ZN5caffe12SyncedMemory16mutable_cpu_dataEv
libcaffe.so.1.0.0:_ZN5caffe12SyncedMemory16mutable_gpu_dataEv
libcaffe.so.1.0.0:_ZN5caffe12SyncedMemory8cpu_dataEv
libcaffe.so.1.0.0:_ZN5caffe12SyncedMemory8gpu_dataEv
libcaffe.so.1.0.0:_ZN5caffe12SyncedMemoryC1Em
libcaffe.so.1.0.0:_ZN5caffe12SyncedMemoryC1Ev
libcaffe.so.1.0.0:_ZN5caffe12SyncedMemoryC2Em
libcaffe.so.1.0.0:_ZN5caffe12SyncedMemoryC2Ev
libcaffe.so.1.0.0:_ZN5caffe12SyncedMemoryD1Ev
libcaffe.so.1.0.0:_ZN5caffe12SyncedMemoryD2Ev
libcaffe.so.1.0.0:_ZN5caffe12UpgradeV0NetERKNS_12NetParameterEPS0_
libcaffe.so.1.0.0:_ZN5caffe12UpgradeV1NetERKNS_12NetParameterEPS0_
libcaffe.so.1.0.0:_ZN5caffe13BiasParameter10SharedCtorEv
libcaffe.so.1.0.0:_ZN5caffe13BiasParameter10SharedDtorEv
libcaffe.so.1.0.0:_ZN5caffe13BiasParameter10descriptorEv
libcaffe.so.1.0.0:_ZN5caffe13BiasParameter12InternalSwapEPS0_
libcaffe.so.1.0.0:_ZN5caffe13BiasParameter16default_instanceEv
libcaffe.so.1.0.0:_ZN5caffe13BiasParameter21InitAsDefaultInstanceEv
libcaffe.so.1.0.0:_ZN5caffe13BiasParameter27MergePartialFromCodedStreamEPN6google8protobuf2io16CodedInputStreamE
libcaffe.so.1.0.0:_ZN5caffe13BiasParameter4SwapEPS0_
libcaffe.so.1.0.0:_ZN5caffe13BiasParameter5ClearEv
libcaffe.so.1.0.0:_ZN5caffe13BiasParameter8CopyFromERKN6google8protobuf7MessageE
libcaffe.so.1.0.0:_ZN5caffe13BiasParameter8CopyFromERKS0_
libcaffe.so.1.0.0:_ZN5caffe13BiasParameter9MergeFromERKN6google8protobuf7MessageE
libcaffe.so.1.0.0:_ZN5caffe13BiasParameter9MergeFromERKS0_
libcaffe.so.1.0.0:_ZN5caffe13BiasParameterC1ERKS0_
libcaffe.so.1.0.0:_ZN5caffe13BiasParameterC1Ev
libcaffe.so.1.0.0:_ZN5caffe13BiasParameterC2ERKS0_
libcaffe.so.1.0.0:_ZN5caffe13BiasParameterC2Ev
libcaffe.so.1.0.0:_ZN5caffe13BiasParameterD0Ev
libcaffe.so.1.0.0:_ZN5caffe13BiasParameterD1Ev
libcaffe.so.1.0.0:_ZN5caffe13BiasParameterD2Ev
libcaffe.so.1.0.0:_ZN5caffe13CropParameter10SharedCtorEv
libcaffe.so.1.0.0:_ZN5caffe13CropParameter10SharedDtorEv
libcaffe.so.1.0.0:_ZN5caffe13CropParameter10descriptorEv
libcaffe.so.1.0.0:_ZN5caffe13CropParameter12InternalSwapEPS0_
libcaffe.so.1.0.0:_ZN5caffe13CropParameter16default_instanceEv
libcaffe.so.1.0.0:_ZN5caffe13CropParameter21InitAsDefaultInstanceEv
libcaffe.so.1.0.0:_ZN5caffe13CropParameter27MergePartialFromCodedStreamEPN6google8protobuf2io16CodedInputStreamE
libcaffe.so.1.0.0:_ZN5caffe13CropParameter4SwapEPS0_
libcaffe.so.1.0.0:_ZN5caffe13CropParameter5ClearEv
libcaffe.so.1.0.0:_ZN5caffe13CropParameter8CopyFromERKN6google8protobuf7MessageE
libcaffe.so.1.0.0:_ZN5caffe13CropParameter8CopyFromERKS0_
libcaffe.so.1.0.0:_ZN5caffe13CropParameter9MergeFromERKN6google8protobuf7MessageE
libcaffe.so.1.0.0:_ZN5caffe13CropParameter9MergeFromERKS0_
libcaffe.so.1.0.0:_ZN5caffe13CropParameterC1ERKS0_
libcaffe.so.1.0.0:_ZN5caffe13CropParameterC1Ev
libcaffe.so.1.0.0:_ZN5caffe13CropParameterC2ERKS0_
libcaffe.so.1.0.0:_ZN5caffe13CropParameterC2Ev
libcaffe.so.1.0.0:_ZN5caffe13CropParameterD0Ev
libcaffe.so.1.0.0:_ZN5caffe13CropParameterD1Ev
libcaffe.so.1.0.0:_ZN5caffe13CropParameterD2Ev
libcaffe.so.1.0.0:_ZN5caffe13DataParameter10SharedCtorEv
libcaffe.so.1.0.0:_ZN5caffe13DataParameter10SharedDtorEv
libcaffe.so.1.0.0:_ZN5caffe13DataParameter10descriptorEv
libcaffe.so.1.0.0:_ZN5caffe13DataParameter12InternalSwapEPS0_
libcaffe.so.1.0.0:_ZN5caffe13DataParameter16default_instanceEv
libcaffe.so.1.0.0:_ZN5caffe13DataParameter21InitAsDefaultInstanceEv
libcaffe.so.1.0.0:_ZN5caffe13DataParameter27MergePartialFromCodedStreamEPN6google8protobuf2io16CodedInputStreamE
libcaffe.so.1.0.0:_ZN5caffe13DataParameter4SwapEPS0_
libcaffe.so.1.0.0:_ZN5caffe13DataParameter5ClearEv
libcaffe.so.1.0.0:_ZN5caffe13DataParameter8CopyFromERKN6google8protobuf7MessageE
libcaffe.so.1.0.0:_ZN5caffe13DataParameter8CopyFromERKS0_
libcaffe.so.1.0.0:_ZN5caffe13DataParameter9MergeFromERKN6google8protobuf7MessageE
libcaffe.so.1.0.0:_ZN5caffe13DataParameter9MergeFromERKS0_
libcaffe.so.1.0.0:_ZN5caffe13DataParameterC1ERKS0_
libcaffe.so.1.0.0:_ZN5caffe13DataParameterC1Ev
libcaffe.so.1.0.0:_ZN5caffe13DataParameterC2ERKS0_
libcaffe.so.1.0.0:_ZN5caffe13DataParameterC2Ev
libcaffe.so.1.0.0:_ZN5caffe13DataParameterD0Ev
libcaffe.so.1.0.0:_ZN5caffe13DataParameterD1Ev
libcaffe.so.1.0.0:_ZN5caffe13DataParameterD2Ev
libcaffe.so.1.0.0:_ZN5caffe13LossParameter10SharedCtorEv
libcaffe.so.1.0.0:_ZN5caffe13LossParameter10SharedDtorEv
libcaffe.so.1.0.0:_ZN5caffe13LossParameter10descriptorEv
libcaffe.so.1.0.0:_ZN5caffe13LossParameter12InternalSwapEPS0_
libcaffe.so.1.0.0:_ZN5caffe13LossParameter16default_instanceEv
libcaffe.so.1.0.0:_ZN5caffe13LossParameter21InitAsDefaultInstanceEv
libcaffe.so.1.0.0:_ZN5caffe13LossParameter27MergePartialFromCodedStreamEPN6google8protobuf2io16CodedInputStreamE
libcaffe.so.1.0.0:_ZN5caffe13LossParameter4SwapEPS0_
libcaffe.so.1.0.0:_ZN5caffe13LossParameter5ClearEv
libcaffe.so.1.0.0:_ZN5caffe13LossParameter8CopyFromERKN6google8protobuf7MessageE
libcaffe.so.1.0.0:_ZN5caffe13LossParameter8CopyFromERKS0_
libcaffe.so.1.0.0:_ZN5caffe13LossParameter9MergeFromERKN6google8protobuf7MessageE
libcaffe.so.1.0.0:_ZN5caffe13LossParameter9MergeFromERKS0_
libcaffe.so.1.0.0:_ZN5caffe13LossParameterC1ERKS0_
libcaffe.so.1.0.0:_ZN5caffe13LossParameterC1Ev
libcaffe.so.1.0.0:_ZN5caffe13LossParameterC2ERKS0_
libcaffe.so.1.0.0:_ZN5caffe13LossParameterC2Ev
libcaffe.so.1.0.0:_ZN5caffe13LossParameterD0Ev
libcaffe.so.1.0.0:_ZN5caffe13LossParameterD1Ev
libcaffe.so.1.0.0:_ZN5caffe13LossParameterD2Ev
libcaffe.so.1.0.0:_ZN5caffe13Phase_IsValidEi
libcaffe.so.1.0.0:_ZN5caffe13ReLUParameter10SharedCtorEv
libcaffe.so.1.0.0:_ZN5caffe13ReLUParameter10SharedDtorEv
libcaffe.so.1.0.0:_ZN5caffe13ReLUParameter10descriptorEv
libcaffe.so.1.0.0:_ZN5caffe13ReLUParameter12InternalSwapEPS0_
libcaffe.so.1.0.0:_ZN5caffe13ReLUParameter16default_instanceEv
libcaffe.so.1.0.0:_ZN5caffe13ReLUParameter21InitAsDefaultInstanceEv
libcaffe.so.1.0.0:_ZN5caffe13ReLUParameter27MergePartialFromCodedStreamEPN6google8protobuf2io16CodedInputStreamE
libcaffe.so.1.0.0:_ZN5caffe13ReLUParameter4SwapEPS0_
libcaffe.so.1.0.0:_ZN5caffe13ReLUParameter5ClearEv
libcaffe.so.1.0.0:_ZN5caffe13ReLUParameter8CopyFromERKN6google8protobuf7MessageE
libcaffe.so.1.0.0:_ZN5caffe13ReLUParameter8CopyFromERKS0_
libcaffe.so.1.0.0:_ZN5caffe13ReLUParameter9MergeFromERKN6google8protobuf7MessageE
libcaffe.so.1.0.0:_ZN5caffe13ReLUParameter9MergeFromERKS0_
libcaffe.so.1.0.0:_ZN5caffe13ReLUParameterC1ERKS0_
libcaffe.so.1.0.0:_ZN5caffe13ReLUParameterC1Ev
libcaffe.so.1.0.0:_ZN5caffe13ReLUParameterC2ERKS0_
libcaffe.so.1.0.0:_ZN5caffe13ReLUParameterC2Ev
libcaffe.so.1.0.0:_ZN5caffe13ReLUParameterD0Ev
libcaffe.so.1.0.0:_ZN5caffe13ReLUParameterD1Ev
libcaffe.so.1.0.0:_ZN5caffe13ReLUParameterD2Ev
libcaffe.so.1.0.0:_ZN5caffe13SignalHandler17GetActionFunctionEv
libcaffe.so.1.0.0:_ZN5caffe13SignalHandlerC1ENS_12SolverAction4EnumES2_
libcaffe.so.1.0.0:_ZN5caffe13SignalHandlerC2ENS_12SolverAction4EnumES2_
libcaffe.so.1.0.0:_ZN5caffe13SignalHandlerD1Ev
libcaffe.so.1.0.0:_ZN5caffe13SignalHandlerD2Ev
libcaffe.so.1.0.0:_ZN5caffe13SplitBlobNameERKNSt7__cxx1112basic_stringIcSt11char_traitsIcESaIcEEES7_ii
libcaffe.so.1.0.0:_ZN5caffe13TanHParameter10SharedCtorEv
libcaffe.so.1.0.0:_ZN5caffe13TanHParameter10SharedDtorEv
libcaffe.so.1.0.0:_ZN5caffe13TanHParameter10descriptorEv
libcaffe.so.1.0.0:_ZN5caffe13TanHParameter12InternalSwapEPS0_
libcaffe.so.1.0.0:_ZN5caffe13TanHParameter16default_instanceEv
libcaffe.so.1.0.0:_ZN5caffe13TanHParameter21InitAsDefaultInstanceEv
libcaffe.so.1.0.0:_ZN5caffe13TanHParameter27MergePartialFromCodedStreamEPN6google8protobuf2io16CodedInputStreamE
libcaffe.so.1.0.0:_ZN5caffe13TanHParameter4SwapEPS0_
libcaffe.so.1.0.0:_ZN5caffe13TanHParameter5ClearEv
libcaffe.so.1.0.0:_ZN5caffe13TanHParameter8CopyFromERKN6google8protobuf7MessageE
libcaffe.so.1.0.0:_ZN5caffe13TanHParameter8CopyFromERKS0_
libcaffe.so.1.0.0:_ZN5caffe13TanHParameter9MergeFromERKN6google8protobuf7MessageE
libcaffe.so.1.0.0:_ZN5caffe13TanHParameter9MergeFromERKS0_
libcaffe.so.1.0.0:_ZN5caffe13TanHParameterC1ERKS0_
libcaffe.so.1.0.0:_ZN5caffe13TanHParameterC1Ev
libcaffe.so.1.0.0:_ZN5caffe13TanHParameterC2ERKS0_
libcaffe.so.1.0.0:_ZN5caffe13TanHParameterC2Ev
libcaffe.so.1.0.0:_ZN5caffe13TanHParameterD0Ev
libcaffe.so.1.0.0:_ZN5caffe13TanHParameterD1Ev
libcaffe.so.1.0.0:_ZN5caffe13TanHParameterD2Ev
libcaffe.so.1.0.0:_ZN5caffe13TileParameter10SharedCtorEv
libcaffe.so.1.0.0:_ZN5caffe13TileParameter10SharedDtorEv
libcaffe.so.1.0.0:_ZN5caffe13TileParameter10descriptorEv
libcaffe.so.1.0.0:_ZN5caffe13TileParameter12InternalSwapEPS0_
libcaffe.so.1.0.0:_ZN5caffe13TileParameter16default_instanceEv
libcaffe.so.1.0.0:_ZN5caffe13TileParameter21InitAsDefaultInstanceEv
libcaffe.so.1.0.0:_ZN5caffe13TileParameter27MergePartialFromCodedStreamEPN6google8protobuf2io16CodedInputStreamE
libcaffe.so.1.0.0:_ZN5caffe13TileParameter4SwapEPS0_
libcaffe.so.1.0.0:_ZN5caffe13TileParameter5ClearEv
libcaffe.so.1.0.0:_ZN5caffe13TileParameter8CopyFromERKN6google8protobuf7MessageE
libcaffe.so.1.0.0:_ZN5caffe13TileParameter8CopyFromERKS0_
libcaffe.so.1.0.0:_ZN5caffe13TileParameter9MergeFromERKN6google8protobuf7MessageE
libcaffe.so.1.0.0:_ZN5caffe13TileParameter9MergeFromERKS0_
libcaffe.so.1.0.0:_ZN5caffe13TileParameterC1ERKS0_
libcaffe.so.1.0.0:_ZN5caffe13TileParameterC1Ev
libcaffe.so.1.0.0:_ZN5caffe13TileParameterC2ERKS0_
libcaffe.so.1.0.0:_ZN5caffe13TileParameterC2Ev
libcaffe.so.1.0.0:_ZN5caffe13TileParameterD0Ev
libcaffe.so.1.0.0:_ZN5caffe13TileParameterD1Ev
libcaffe.so.1.0.0:_ZN5caffe13TileParameterD2Ev
libcaffe.so.1.0.0:_ZN5caffe13hdf5_load_intEiRKNSt7__cxx1112basic_stringIcSt11char_traitsIcESaIcEEE
libcaffe.so.1.0.0:_ZN5caffe13hdf5_save_intEiRKNSt7__cxx1112basic_stringIcSt11char_traitsIcESaIcEEEi
libcaffe.so.1.0.0:_ZN5caffe14EmbedParameter10SharedCtorEv
libcaffe.so.1.0.0:_ZN5caffe14EmbedParameter10SharedDtorEv
libcaffe.so.1.0.0:_ZN5caffe14EmbedParameter10descriptorEv
libcaffe.so.1.0.0:_ZN5caffe14EmbedParameter12InternalSwapEPS0_
libcaffe.so.1.0.0:_ZN5caffe14EmbedParameter16default_instanceEv
libcaffe.so.1.0.0:_ZN5caffe14EmbedParameter21InitAsDefaultInstanceEv
libcaffe.so.1.0.0:_ZN5caffe14EmbedParameter27MergePartialFromCodedStreamEPN6google8protobuf2io16CodedInputStreamE
libcaffe.so.1.0.0:_ZN5caffe14EmbedParameter4SwapEPS0_
libcaffe.so.1.0.0:_ZN5caffe14EmbedParameter5ClearEv
libcaffe.so.1.0.0:_ZN5caffe14EmbedParameter8CopyFromERKN6google8protobuf7MessageE
libcaffe.so.1.0.0:_ZN5caffe14EmbedParameter8CopyFromERKS0_
libcaffe.so.1.0.0:_ZN5caffe14EmbedParameter9MergeFromERKN6google8protobuf7MessageE
libcaffe.so.1.0.0:_ZN5caffe14EmbedParameter9MergeFromERKS0_
libcaffe.so.1.0.0:_ZN5caffe14EmbedParameterC1ERKS0_
libcaffe.so.1.0.0:_ZN5caffe14EmbedParameterC1Ev
libcaffe.so.1.0.0:_ZN5caffe14EmbedParameterC2ERKS0_
libcaffe.so.1.0.0:_ZN5caffe14EmbedParameterC2Ev
libcaffe.so.1.0.0:_ZN5caffe14EmbedParameterD0Ev
libcaffe.so.1.0.0:_ZN5caffe14EmbedParameterD1Ev
libcaffe.so.1.0.0:_ZN5caffe14EmbedParameterD2Ev
libcaffe.so.1.0.0:_ZN5caffe14InputParameter10SharedCtorEv
libcaffe.so.1.0.0:_ZN5caffe14InputParameter10SharedDtorEv
libcaffe.so.1.0.0:_ZN5caffe14InputParameter10descriptorEv
libcaffe.so.1.0.0:_ZN5caffe14InputParameter12InternalSwapEPS0_
libcaffe.so.1.0.0:_ZN5caffe14InputParameter16default_instanceEv
libcaffe.so.1.0.0:_ZN5caffe14InputParameter21InitAsDefaultInstanceEv
libcaffe.so.1.0.0:_ZN5caffe14InputParameter27MergePartialFromCodedStreamEPN6google8protobuf2io16CodedInputStreamE
libcaffe.so.1.0.0:_ZN5caffe14InputParameter4SwapEPS0_
libcaffe.so.1.0.0:_ZN5caffe14InputParameter5ClearEv
libcaffe.so.1.0.0:_ZN5caffe14InputParameter8CopyFromERKN6google8protobuf7MessageE
libcaffe.so.1.0.0:_ZN5caffe14InputParameter8CopyFromERKS0_
libcaffe.so.1.0.0:_ZN5caffe14InputParameter9MergeFromERKN6google8protobuf7MessageE
libcaffe.so.1.0.0:_ZN5caffe14InputParameter9MergeFromERKS0_
libcaffe.so.1.0.0:_ZN5caffe14InputParameterC1ERKS0_
libcaffe.so.1.0.0:_ZN5caffe14InputParameterC1Ev
libcaffe.so.1.0.0:_ZN5caffe14InputParameterC2ERKS0_
libcaffe.so.1.0.0:_ZN5caffe14InputParameterC2Ev
libcaffe.so.1.0.0:_ZN5caffe14InputParameterD0Ev
libcaffe.so.1.0.0:_ZN5caffe14InputParameterD1Ev
libcaffe.so.1.0.0:_ZN5caffe14InputParameterD2Ev
libcaffe.so.1.0.0:_ZN5caffe14InternalThread18StopInternalThreadEv
libcaffe.so.1.0.0:_ZN5caffe14InternalThread19StartInternalThreadEv
libcaffe.so.1.0.0:_ZN5caffe14InternalThread5entryEiNS_5Caffe4BrewEiiib
libcaffe.so.1.0.0:_ZN5caffe14InternalThread9must_stopEv
libcaffe.so.1.0.0:_ZN5caffe14InternalThreadD0Ev
libcaffe.so.1.0.0:_ZN5caffe14InternalThreadD1Ev
libcaffe.so.1.0.0:_ZN5caffe14InternalThreadD2Ev
libcaffe.so.1.0.0:_ZN5caffe14LayerParameter10SharedCtorEv
libcaffe.so.1.0.0:_ZN5caffe14LayerParameter10SharedDtorEv
libcaffe.so.1.0.0:_ZN5caffe14LayerParameter10descriptorEv
libcaffe.so.1.0.0:_ZN5caffe14LayerParameter12InternalSwapEPS0_
libcaffe.so.1.0.0:_ZN5caffe14LayerParameter16default_instanceEv
libcaffe.so.1.0.0:_ZN5caffe14LayerParameter21InitAsDefaultInstanceEv
libcaffe.so.1.0.0:_ZN5caffe14LayerParameter27MergePartialFromCodedStreamEPN6google8protobuf2io16CodedInputStreamE
libcaffe.so.1.0.0:_ZN5caffe14LayerParameter4SwapEPS0_
libcaffe.so.1.0.0:_ZN5caffe14LayerParameter5ClearEv
libcaffe.so.1.0.0:_ZN5caffe14LayerParameter8CopyFromERKN6google8protobuf7MessageE
libcaffe.so.1.0.0:_ZN5caffe14LayerParameter8CopyFromERKS0_
libcaffe.so.1.0.0:_ZN5caffe14LayerParameter9MergeFromERKN6google8protobuf7MessageE
libcaffe.so.1.0.0:_ZN5caffe14LayerParameter9MergeFromERKS0_
libcaffe.so.1.0.0:_ZN5caffe14LayerParameterC1ERKS0_
libcaffe.so.1.0.0:_ZN5caffe14LayerParameterC1Ev
libcaffe.so.1.0.0:_ZN5caffe14LayerParameterC2ERKS0_
libcaffe.so.1.0.0:_ZN5caffe14LayerParameterC2Ev
libcaffe.so.1.0.0:_ZN5caffe14LayerParameterD0Ev
libcaffe.so.1.0.0:_ZN5caffe14LayerParameterD1Ev
libcaffe.so.1.0.0:_ZN5caffe14LayerParameterD2Ev
libcaffe.so.1.0.0:_ZN5caffe14PReLUParameter10SharedCtorEv
libcaffe.so.1.0.0:_ZN5caffe14PReLUParameter10SharedDtorEv
libcaffe.so.1.0.0:_ZN5caffe14PReLUParameter10descriptorEv
libcaffe.so.1.0.0:_ZN5caffe14PReLUParameter12InternalSwapEPS0_
libcaffe.so.1.0.0:_ZN5caffe14PReLUParameter16default_instanceEv
libcaffe.so.1.0.0:_ZN5caffe14PReLUParameter21InitAsDefaultInstanceEv
libcaffe.so.1.0.0:_ZN5caffe14PReLUParameter27MergePartialFromCodedStreamEPN6google8protobuf2io16CodedInputStreamE
libcaffe.so.1.0.0:_ZN5caffe14PReLUParameter4SwapEPS0_
libcaffe.so.1.0.0:_ZN5caffe14PReLUParameter5ClearEv
libcaffe.so.1.0.0:_ZN5caffe14PReLUParameter8CopyFromERKN6google8protobuf7MessageE
libcaffe.so.1.0.0:_ZN5caffe14PReLUParameter8CopyFromERKS0_
libcaffe.so.1.0.0:_ZN5caffe14PReLUParameter9MergeFromERKN6google8protobuf7MessageE
libcaffe.so.1.0.0:_ZN5caffe14PReLUParameter9MergeFromERKS0_
libcaffe.so.1.0.0:_ZN5caffe14PReLUParameterC1ERKS0_
libcaffe.so.1.0.0:_ZN5caffe14PReLUParameterC1Ev
libcaffe.so.1.0.0:_ZN5caffe14PReLUParameterC2ERKS0_
libcaffe.so.1.0.0:_ZN5caffe14PReLUParameterC2Ev
libcaffe.so.1.0.0:_ZN5caffe14PReLUParameterD0Ev
libcaffe.so.1.0.0:_ZN5caffe14PReLUParameterD1Ev
libcaffe.so.1.0.0:_ZN5caffe14PReLUParameterD2Ev
libcaffe.so.1.0.0:_ZN5caffe14PowerParameter10SharedCtorEv
libcaffe.so.1.0.0:_ZN5caffe14PowerParameter10SharedDtorEv
libcaffe.so.1.0.0:_ZN5caffe14PowerParameter10descriptorEv
libcaffe.so.1.0.0:_ZN5caffe14PowerParameter12InternalSwapEPS0_
libcaffe.so.1.0.0:_ZN5caffe14PowerParameter16default_instanceEv
libcaffe.so.1.0.0:_ZN5caffe14PowerParameter21InitAsDefaultInstanceEv
libcaffe.so.1.0.0:_ZN5caffe14PowerParameter27MergePartialFromCodedStreamEPN6google8protobuf2io16CodedInputStreamE
libcaffe.so.1.0.0:_ZN5caffe14PowerParameter4SwapEPS0_
libcaffe.so.1.0.0:_ZN5caffe14PowerParameter5ClearEv
libcaffe.so.1.0.0:_ZN5caffe14PowerParameter8CopyFromERKN6google8protobuf7MessageE
libcaffe.so.1.0.0:_ZN5caffe14PowerParameter8CopyFromERKS0_
libcaffe.so.1.0.0:_ZN5caffe14PowerParameter9MergeFromERKN6google8protobuf7MessageE
libcaffe.so.1.0.0:_ZN5caffe14PowerParameter9MergeFromERKS0_
libcaffe.so.1.0.0:_ZN5caffe14PowerParameterC1ERKS0_
libcaffe.so.1.0.0:_ZN5caffe14PowerParameterC1Ev
libcaffe.so.1.0.0:_ZN5caffe14PowerParameterC2ERKS0_
libcaffe.so.1.0.0:_ZN5caffe14PowerParameterC2Ev
libcaffe.so.1.0.0:_ZN5caffe14PowerParameterD0Ev
libcaffe.so.1.0.0:_ZN5caffe14PowerParameterD1Ev
libcaffe.so.1.0.0:_ZN5caffe14PowerParameterD2Ev
libcaffe.so.1.0.0:_ZN5caffe14ScaleParameter10SharedCtorEv
libcaffe.so.1.0.0:_ZN5caffe14ScaleParameter10SharedDtorEv
libcaffe.so.1.0.0:_ZN5caffe14ScaleParameter10descriptorEv
libcaffe.so.1.0.0:_ZN5caffe14ScaleParameter12InternalSwapEPS0_
libcaffe.so.1.0.0:_ZN5caffe14ScaleParameter16default_instanceEv
libcaffe.so.1.0.0:_ZN5caffe14ScaleParameter21InitAsDefaultInstanceEv
libcaffe.so.1.0.0:_ZN5caffe14ScaleParameter27MergePartialFromCodedStreamEPN6google8protobuf2io16CodedInputStreamE
libcaffe.so.1.0.0:_ZN5caffe14ScaleParameter4SwapEPS0_
libcaffe.so.1.0.0:_ZN5caffe14ScaleParameter5ClearEv
libcaffe.so.1.0.0:_ZN5caffe14ScaleParameter8CopyFromERKN6google8protobuf7MessageE
libcaffe.so.1.0.0:_ZN5caffe14ScaleParameter8CopyFromERKS0_
libcaffe.so.1.0.0:_ZN5caffe14ScaleParameter9MergeFromERKN6google8protobuf7MessageE
libcaffe.so.1.0.0:_ZN5caffe14ScaleParameter9MergeFromERKS0_
libcaffe.so.1.0.0:_ZN5caffe14ScaleParameterC1ERKS0_
libcaffe.so.1.0.0:_ZN5caffe14ScaleParameterC1Ev
libcaffe.so.1.0.0:_ZN5caffe14ScaleParameterC2ERKS0_
libcaffe.so.1.0.0:_ZN5caffe14ScaleParameterC2Ev
libcaffe.so.1.0.0:_ZN5caffe14ScaleParameterD0Ev
libcaffe.so.1.0.0:_ZN5caffe14ScaleParameterD1Ev
libcaffe.so.1.0.0:_ZN5caffe14ScaleParameterD2Ev
libcaffe.so.1.0.0:_ZN5caffe14SliceParameter10SharedCtorEv
libcaffe.so.1.0.0:_ZN5caffe14SliceParameter10SharedDtorEv
libcaffe.so.1.0.0:_ZN5caffe14SliceParameter10descriptorEv
libcaffe.so.1.0.0:_ZN5caffe14SliceParameter12InternalSwapEPS0_
libcaffe.so.1.0.0:_ZN5caffe14SliceParameter16default_instanceEv
libcaffe.so.1.0.0:_ZN5caffe14SliceParameter21InitAsDefaultInstanceEv
libcaffe.so.1.0.0:_ZN5caffe14SliceParameter27MergePartialFromCodedStreamEPN6google8protobuf2io16CodedInputStreamE
libcaffe.so.1.0.0:_ZN5caffe14SliceParameter4SwapEPS0_
libcaffe.so.1.0.0:_ZN5caffe14SliceParameter5ClearEv
libcaffe.so.1.0.0:_ZN5caffe14SliceParameter8CopyFromERKN6google8protobuf7MessageE
libcaffe.so.1.0.0:_ZN5caffe14SliceParameter8CopyFromERKS0_
libcaffe.so.1.0.0:_ZN5caffe14SliceParameter9MergeFromERKN6google8protobuf7MessageE
libcaffe.so.1.0.0:_ZN5caffe14SliceParameter9MergeFromERKS0_
libcaffe.so.1.0.0:_ZN5caffe14SliceParameterC1ERKS0_
libcaffe.so.1.0.0:_ZN5caffe14SliceParameterC1Ev
libcaffe.so.1.0.0:_ZN5caffe14SliceParameterC2ERKS0_
libcaffe.so.1.0.0:_ZN5caffe14SliceParameterC2Ev
libcaffe.so.1.0.0:_ZN5caffe14SliceParameterD0Ev
libcaffe.so.1.0.0:_ZN5caffe14SliceParameterD1Ev
libcaffe.so.1.0.0:_ZN5caffe14SliceParameterD2Ev
libcaffe.so.1.0.0:_ZN5caffe14SplitLayerNameERKNSt7__cxx1112basic_stringIcSt11char_traitsIcESaIcEEES7_i
libcaffe.so.1.0.0:_ZN5caffe14caffe_cpu_asumIdEET_iPKS1_
libcaffe.so.1.0.0:_ZN5caffe14caffe_cpu_asumIfEET_iPKS1_
libcaffe.so.1.0.0:_ZN5caffe14caffe_cpu_gemmIdEEv15CBLAS_TRANSPOSES1_iiiT_PKS2_S4_S2_PS2_
libcaffe.so.1.0.0:_ZN5caffe14caffe_cpu_gemmIfEEv15CBLAS_TRANSPOSES1_iiiT_PKS2_S4_S2_PS2_
libcaffe.so.1.0.0:_ZN5caffe14caffe_cpu_gemvIdEEv15CBLAS_TRANSPOSEiiT_PKS2_S4_S2_PS2_
libcaffe.so.1.0.0:_ZN5caffe14caffe_cpu_gemvIfEEv15CBLAS_TRANSPOSEiiT_PKS2_S4_S2_PS2_
libcaffe.so.1.0.0:_ZN5caffe14caffe_rng_randEv
libcaffe.so.1.0.0:_ZN5caffe15ArgMaxParameter10SharedCtorEv
libcaffe.so.1.0.0:_ZN5caffe15ArgMaxParameter10SharedDtorEv
libcaffe.so.1.0.0:_ZN5caffe15ArgMaxParameter10descriptorEv
libcaffe.so.1.0.0:_ZN5caffe15ArgMaxParameter12InternalSwapEPS0_
libcaffe.so.1.0.0:_ZN5caffe15ArgMaxParameter16default_instanceEv
libcaffe.so.1.0.0:_ZN5caffe15ArgMaxParameter21InitAsDefaultInstanceEv
libcaffe.so.1.0.0:_ZN5caffe15ArgMaxParameter27MergePartialFromCodedStreamEPN6google8protobuf2io16CodedInputStreamE
libcaffe.so.1.0.0:_ZN5caffe15ArgMaxParameter4SwapEPS0_
libcaffe.so.1.0.0:_ZN5caffe15ArgMaxParameter5ClearEv
libcaffe.so.1.0.0:_ZN5caffe15ArgMaxParameter8CopyFromERKN6google8protobuf7MessageE
libcaffe.so.1.0.0:_ZN5caffe15ArgMaxParameter8CopyFromERKS0_
libcaffe.so.1.0.0:_ZN5caffe15ArgMaxParameter9MergeFromERKN6google8protobuf7MessageE
libcaffe.so.1.0.0:_ZN5caffe15ArgMaxParameter9MergeFromERKS0_
libcaffe.so.1.0.0:_ZN5caffe15ArgMaxParameterC1ERKS0_
libcaffe.so.1.0.0:_ZN5caffe15ArgMaxParameterC1Ev
libcaffe.so.1.0.0:_ZN5caffe15ArgMaxParameterC2ERKS0_
libcaffe.so.1.0.0:_ZN5caffe15ArgMaxParameterC2Ev
libcaffe.so.1.0.0:_ZN5caffe15ArgMaxParameterD0Ev
libcaffe.so.1.0.0:_ZN5caffe15ArgMaxParameterD1Ev
libcaffe.so.1.0.0:_ZN5caffe15ArgMaxParameterD2Ev
libcaffe.so.1.0.0:_ZN5caffe15BlobProtoVector10SharedCtorEv
libcaffe.so.1.0.0:_ZN5caffe15BlobProtoVector10SharedDtorEv
libcaffe.so.1.0.0:_ZN5caffe15BlobProtoVector10descriptorEv
libcaffe.so.1.0.0:_ZN5caffe15BlobProtoVector12InternalSwapEPS0_
libcaffe.so.1.0.0:_ZN5caffe15BlobProtoVector16default_instanceEv
libcaffe.so.1.0.0:_ZN5caffe15BlobProtoVector21InitAsDefaultInstanceEv
libcaffe.so.1.0.0:_ZN5caffe15BlobProtoVector27MergePartialFromCodedStreamEPN6google8protobuf2io16CodedInputStreamE
libcaffe.so.1.0.0:_ZN5caffe15BlobProtoVector4SwapEPS0_
libcaffe.so.1.0.0:_ZN5caffe15BlobProtoVector5ClearEv
libcaffe.so.1.0.0:_ZN5caffe15BlobProtoVector8CopyFromERKN6google8protobuf7MessageE
libcaffe.so.1.0.0:_ZN5caffe15BlobProtoVector8CopyFromERKS0_
libcaffe.so.1.0.0:_ZN5caffe15BlobProtoVector9MergeFromERKN6google8protobuf7MessageE
libcaffe.so.1.0.0:_ZN5caffe15BlobProtoVector9MergeFromERKS0_
libcaffe.so.1.0.0:_ZN5caffe15BlobProtoVectorC1ERKS0_
libcaffe.so.1.0.0:_ZN5caffe15BlobProtoVectorC1Ev
libcaffe.so.1.0.0:_ZN5caffe15BlobProtoVectorC2ERKS0_
libcaffe.so.1.0.0:_ZN5caffe15BlobProtoVectorC2Ev
libcaffe.so.1.0.0:_ZN5caffe15BlobProtoVectorD0Ev
libcaffe.so.1.0.0:_ZN5caffe15BlobProtoVectorD1Ev
libcaffe.so.1.0.0:_ZN5caffe15BlobProtoVectorD2Ev
libcaffe.so.1.0.0:_ZN5caffe15ConcatParameter10SharedCtorEv
libcaffe.so.1.0.0:_ZN5caffe15ConcatParameter10SharedDtorEv
libcaffe.so.1.0.0:_ZN5caffe15ConcatParameter10descriptorEv
libcaffe.so.1.0.0:_ZN5caffe15ConcatParameter12InternalSwapEPS0_
libcaffe.so.1.0.0:_ZN5caffe15ConcatParameter16default_instanceEv
libcaffe.so.1.0.0:_ZN5caffe15ConcatParameter21InitAsDefaultInstanceEv
libcaffe.so.1.0.0:_ZN5caffe15ConcatParameter27MergePartialFromCodedStreamEPN6google8protobuf2io16CodedInputStreamE
libcaffe.so.1.0.0:_ZN5caffe15ConcatParameter4SwapEPS0_
libcaffe.so.1.0.0:_ZN5caffe15ConcatParameter5ClearEv
libcaffe.so.1.0.0:_ZN5caffe15ConcatParameter8CopyFromERKN6google8protobuf7MessageE
libcaffe.so.1.0.0:_ZN5caffe15ConcatParameter8CopyFromERKS0_
libcaffe.so.1.0.0:_ZN5caffe15ConcatParameter9MergeFromERKN6google8protobuf7MessageE
libcaffe.so.1.0.0:_ZN5caffe15ConcatParameter9MergeFromERKS0_
libcaffe.so.1.0.0:_ZN5caffe15ConcatParameterC1ERKS0_
libcaffe.so.1.0.0:_ZN5caffe15ConcatParameterC1Ev
libcaffe.so.1.0.0:_ZN5caffe15ConcatParameterC2ERKS0_
libcaffe.so.1.0.0:_ZN5caffe15ConcatParameterC2Ev
libcaffe.so.1.0.0:_ZN5caffe15ConcatParameterD0Ev
libcaffe.so.1.0.0:_ZN5caffe15ConcatParameterD1Ev
libcaffe.so.1.0.0:_ZN5caffe15ConcatParameterD2Ev
libcaffe.so.1.0.0:_ZN5caffe15FillerParameter10SharedCtorEv
libcaffe.so.1.0.0:_ZN5caffe15FillerParameter10SharedDtorEv
libcaffe.so.1.0.0:_ZN5caffe15FillerParameter10descriptorEv
libcaffe.so.1.0.0:_ZN5caffe15FillerParameter12InternalSwapEPS0_
libcaffe.so.1.0.0:_ZN5caffe15FillerParameter16default_instanceEv
libcaffe.so.1.0.0:_ZN5caffe15FillerParameter21InitAsDefaultInstanceEv
libcaffe.so.1.0.0:_ZN5caffe15FillerParameter27MergePartialFromCodedStreamEPN6google8protobuf2io16CodedInputStreamE
libcaffe.so.1.0.0:_ZN5caffe15FillerParameter4SwapEPS0_
libcaffe.so.1.0.0:_ZN5caffe15FillerParameter5ClearEv
libcaffe.so.1.0.0:_ZN5caffe15FillerParameter8CopyFromERKN6google8protobuf7MessageE
libcaffe.so.1.0.0:_ZN5caffe15FillerParameter8CopyFromERKS0_
libcaffe.so.1.0.0:_ZN5caffe15FillerParameter9MergeFromERKN6google8protobuf7MessageE
libcaffe.so.1.0.0:_ZN5caffe15FillerParameter9MergeFromERKS0_
libcaffe.so.1.0.0:_ZN5caffe15FillerParameterC1ERKS0_
libcaffe.so.1.0.0:_ZN5caffe15FillerParameterC1Ev
libcaffe.so.1.0.0:_ZN5caffe15FillerParameterC2ERKS0_
libcaffe.so.1.0.0:_ZN5caffe15FillerParameterC2Ev
libcaffe.so.1.0.0:_ZN5caffe15FillerParameterD0Ev
libcaffe.so.1.0.0:_ZN5caffe15FillerParameterD1Ev
libcaffe.so.1.0.0:_ZN5caffe15FillerParameterD2Ev
libcaffe.so.1.0.0:_ZN5caffe15NetNeedsUpgradeERKNS_12NetParameterE
libcaffe.so.1.0.0:_ZN5caffe15PythonParameter10SharedCtorEv
libcaffe.so.1.0.0:_ZN5caffe15PythonParameter10SharedDtorEv
libcaffe.so.1.0.0:_ZN5caffe15PythonParameter10descriptorEv
libcaffe.so.1.0.0:_ZN5caffe15PythonParameter12InternalSwapEPS0_
libcaffe.so.1.0.0:_ZN5caffe15PythonParameter16default_instanceEv
libcaffe.so.1.0.0:_ZN5caffe15PythonParameter21InitAsDefaultInstanceEv
libcaffe.so.1.0.0:_ZN5caffe15PythonParameter27MergePartialFromCodedStreamEPN6google8protobuf2io16CodedInputStreamE
libcaffe.so.1.0.0:_ZN5caffe15PythonParameter4SwapEPS0_
libcaffe.so.1.0.0:_ZN5caffe15PythonParameter5ClearEv
libcaffe.so.1.0.0:_ZN5caffe15PythonParameter8CopyFromERKN6google8protobuf7MessageE
libcaffe.so.1.0.0:_ZN5caffe15PythonParameter8CopyFromERKS0_
libcaffe.so.1.0.0:_ZN5caffe15PythonParameter9MergeFromERKN6google8protobuf7MessageE
libcaffe.so.1.0.0:_ZN5caffe15PythonParameter9MergeFromERKS0_
libcaffe.so.1.0.0:_ZN5caffe15PythonParameterC1ERKS0_
libcaffe.so.1.0.0:_ZN5caffe15PythonParameterC1Ev
libcaffe.so.1.0.0:_ZN5caffe15PythonParameterC2ERKS0_
libcaffe.so.1.0.0:_ZN5caffe15PythonParameterC2Ev
libcaffe.so.1.0.0:_ZN5caffe15PythonParameterD0Ev
libcaffe.so.1.0.0:_ZN5caffe15PythonParameterD1Ev
libcaffe.so.1.0.0:_ZN5caffe15PythonParameterD2Ev
libcaffe.so.1.0.0:_ZN5caffe15ReadFileToDatumERKNSt7__cxx1112basic_stringIcSt11char_traitsIcESaIcEEEiPNS_5DatumE
libcaffe.so.1.0.0:_ZN5caffe15SolverParameter10SharedCtorEv
libcaffe.so.1.0.0:_ZN5caffe15SolverParameter10SharedDtorEv
libcaffe.so.1.0.0:_ZN5caffe15SolverParameter10descriptorEv
libcaffe.so.1.0.0:_ZN5caffe15SolverParameter12InternalSwapEPS0_
libcaffe.so.1.0.0:_ZN5caffe15SolverParameter16default_instanceEv
libcaffe.so.1.0.0:_ZN5caffe15SolverParameter21InitAsDefaultInstanceEv
libcaffe.so.1.0.0:_ZN5caffe15SolverParameter27MergePartialFromCodedStreamEPN6google8protobuf2io16CodedInputStreamE
libcaffe.so.1.0.0:_ZN5caffe15SolverParameter4SwapEPS0_
libcaffe.so.1.0.0:_ZN5caffe15SolverParameter5ClearEv
libcaffe.so.1.0.0:_ZN5caffe15SolverParameter8CopyFromERKN6google8protobuf7MessageE
libcaffe.so.1.0.0:_ZN5caffe15SolverParameter8CopyFromERKS0_
libcaffe.so.1.0.0:_ZN5caffe15SolverParameter9MergeFromERKN6google8protobuf7MessageE
libcaffe.so.1.0.0:_ZN5caffe15SolverParameter9MergeFromERKS0_
libcaffe.so.1.0.0:_ZN5caffe15SolverParameterC1ERKS0_
libcaffe.so.1.0.0:_ZN5caffe15SolverParameterC1Ev
libcaffe.so.1.0.0:_ZN5caffe15SolverParameterC2ERKS0_
libcaffe.so.1.0.0:_ZN5caffe15SolverParameterC2Ev
libcaffe.so.1.0.0:_ZN5caffe15SolverParameterD0Ev
libcaffe.so.1.0.0:_ZN5caffe15SolverParameterD1Ev
libcaffe.so.1.0.0:_ZN5caffe15SolverParameterD2Ev
libcaffe.so.1.0.0:_ZN5caffe15UpgradeNetInputEPNS_12NetParameterE
libcaffe.so.1.0.0:_ZN5caffe15caffe_cpu_axpbyIdEEviT_PKS1_S1_PS1_
libcaffe.so.1.0.0:_ZN5caffe15caffe_cpu_axpbyIfEEviT_PKS1_S1_PS1_
libcaffe.so.1.0.0:_ZN5caffe15caffe_cpu_scaleIdEEviT_PKS1_PS1_
libcaffe.so.1.0.0:_ZN5caffe15caffe_cpu_scaleIfEEviT_PKS1_PS1_
libcaffe.so.1.0.0:_ZN5caffe15cluster_seedgenEv
libcaffe.so.1.0.0:_ZN5caffe16DropoutParameter10SharedCtorEv
libcaffe.so.1.0.0:_ZN5caffe16DropoutParameter10SharedDtorEv
libcaffe.so.1.0.0:_ZN5caffe16DropoutParameter10descriptorEv
libcaffe.so.1.0.0:_ZN5caffe16DropoutParameter12InternalSwapEPS0_
libcaffe.so.1.0.0:_ZN5caffe16DropoutParameter16default_instanceEv
libcaffe.so.1.0.0:_ZN5caffe16DropoutParameter21InitAsDefaultInstanceEv
libcaffe.so.1.0.0:_ZN5caffe16DropoutParameter27MergePartialFromCodedStreamEPN6google8protobuf2io16CodedInputStreamE
libcaffe.so.1.0.0:_ZN5caffe16DropoutParameter4SwapEPS0_
libcaffe.so.1.0.0:_ZN5caffe16DropoutParameter5ClearEv
libcaffe.so.1.0.0:_ZN5caffe16DropoutParameter8CopyFromERKN6google8protobuf7MessageE
libcaffe.so.1.0.0:_ZN5caffe16DropoutParameter8CopyFromERKS0_
libcaffe.so.1.0.0:_ZN5caffe16DropoutParameter9MergeFromERKN6google8protobuf7MessageE
libcaffe.so.1.0.0:_ZN5caffe16DropoutParameter9MergeFromERKS0_
libcaffe.so.1.0.0:_ZN5caffe16DropoutParameterC1ERKS0_
libcaffe.so.1.0.0:_ZN5caffe16DropoutParameterC1Ev
libcaffe.so.1.0.0:_ZN5caffe16DropoutParameterC2ERKS0_
libcaffe.so.1.0.0:_ZN5caffe16DropoutParameterC2Ev
libcaffe.so.1.0.0:_ZN5caffe16DropoutParameterD0Ev
libcaffe.so.1.0.0:_ZN5caffe16DropoutParameterD1Ev
libcaffe.so.1.0.0:_ZN5caffe16DropoutParameterD2Ev
libcaffe.so.1.0.0:_ZN5caffe16EltwiseParameter10SharedCtorEv
libcaffe.so.1.0.0:_ZN5caffe16EltwiseParameter10SharedDtorEv
libcaffe.so.1.0.0:_ZN5caffe16EltwiseParameter10descriptorEv
libcaffe.so.1.0.0:_ZN5caffe16EltwiseParameter12InternalSwapEPS0_
libcaffe.so.1.0.0:_ZN5caffe16EltwiseParameter16default_instanceEv
libcaffe.so.1.0.0:_ZN5caffe16EltwiseParameter21InitAsDefaultInstanceEv
libcaffe.so.1.0.0:_ZN5caffe16EltwiseParameter27MergePartialFromCodedStreamEPN6google8protobuf2io16CodedInputStreamE
libcaffe.so.1.0.0:_ZN5caffe16EltwiseParameter4SwapEPS0_
libcaffe.so.1.0.0:_ZN5caffe16EltwiseParameter5ClearEv
libcaffe.so.1.0.0:_ZN5caffe16EltwiseParameter8CopyFromERKN6google8protobuf7MessageE
libcaffe.so.1.0.0:_ZN5caffe16EltwiseParameter8CopyFromERKS0_
libcaffe.so.1.0.0:_ZN5caffe16EltwiseParameter9MergeFromERKN6google8protobuf7MessageE
libcaffe.so.1.0.0:_ZN5caffe16EltwiseParameter9MergeFromERKS0_
libcaffe.so.1.0.0:_ZN5caffe16EltwiseParameterC1ERKS0_
libcaffe.so.1.0.0:_ZN5caffe16EltwiseParameterC1Ev
libcaffe.so.1.0.0:_ZN5caffe16EltwiseParameterC2ERKS0_
libcaffe.so.1.0.0:_ZN5caffe16EltwiseParameterC2Ev
libcaffe.so.1.0.0:_ZN5caffe16EltwiseParameterD0Ev
libcaffe.so.1.0.0:_ZN5caffe16EltwiseParameterD1Ev
libcaffe.so.1.0.0:_ZN5caffe16EltwiseParameterD2Ev
libcaffe.so.1.0.0:_ZN5caffe16FlattenParameter10SharedCtorEv
libcaffe.so.1.0.0:_ZN5caffe16FlattenParameter10SharedDtorEv
libcaffe.so.1.0.0:_ZN5caffe16FlattenParameter10descriptorEv
libcaffe.so.1.0.0:_ZN5caffe16FlattenParameter12InternalSwapEPS0_
libcaffe.so.1.0.0:_ZN5caffe16FlattenParameter16default_instanceEv
libcaffe.so.1.0.0:_ZN5caffe16FlattenParameter21InitAsDefaultInstanceEv
libcaffe.so.1.0.0:_ZN5caffe16FlattenParameter27MergePartialFromCodedStreamEPN6google8protobuf2io16CodedInputStreamE
libcaffe.so.1.0.0:_ZN5caffe16FlattenParameter4SwapEPS0_
libcaffe.so.1.0.0:_ZN5caffe16FlattenParameter5ClearEv
libcaffe.so.1.0.0:_ZN5caffe16FlattenParameter8CopyFromERKN6google8protobuf7MessageE
libcaffe.so.1.0.0:_ZN5caffe16FlattenParameter8CopyFromERKS0_
libcaffe.so.1.0.0:_ZN5caffe16FlattenParameter9MergeFromERKN6google8protobuf7MessageE
libcaffe.so.1.0.0:_ZN5caffe16FlattenParameter9MergeFromERKS0_
libcaffe.so.1.0.0:_ZN5caffe16FlattenParameterC1ERKS0_
libcaffe.so.1.0.0:_ZN5caffe16FlattenParameterC1Ev
libcaffe.so.1.0.0:_ZN5caffe16FlattenParameterC2ERKS0_
libcaffe.so.1.0.0:_ZN5caffe16FlattenParameterC2Ev
libcaffe.so.1.0.0:_ZN5caffe16FlattenParameterD0Ev
libcaffe.so.1.0.0:_ZN5caffe16FlattenParameterD1Ev
libcaffe.so.1.0.0:_ZN5caffe16FlattenParameterD2Ev
libcaffe.so.1.0.0:_ZN5caffe16Phase_descriptorEv
libcaffe.so.1.0.0:_ZN5caffe16PoolingParameter10SharedCtorEv
libcaffe.so.1.0.0:_ZN5caffe16PoolingParameter10SharedDtorEv
libcaffe.so.1.0.0:_ZN5caffe16PoolingParameter10descriptorEv
libcaffe.so.1.0.0:_ZN5caffe16PoolingParameter12InternalSwapEPS0_
libcaffe.so.1.0.0:_ZN5caffe16PoolingParameter16default_instanceEv
libcaffe.so.1.0.0:_ZN5caffe16PoolingParameter21InitAsDefaultInstanceEv
libcaffe.so.1.0.0:_ZN5caffe16PoolingParameter27MergePartialFromCodedStreamEPN6google8protobuf2io16CodedInputStreamE
libcaffe.so.1.0.0:_ZN5caffe16PoolingParameter4SwapEPS0_
libcaffe.so.1.0.0:_ZN5caffe16PoolingParameter5ClearEv
libcaffe.so.1.0.0:_ZN5caffe16PoolingParameter8CopyFromERKN6google8protobuf7MessageE
libcaffe.so.1.0.0:_ZN5caffe16PoolingParameter8CopyFromERKS0_
libcaffe.so.1.0.0:_ZN5caffe16PoolingParameter9MergeFromERKN6google8protobuf7MessageE
libcaffe.so.1.0.0:_ZN5caffe16PoolingParameter9MergeFromERKS0_
libcaffe.so.1.0.0:_ZN5caffe16PoolingParameterC1ERKS0_
libcaffe.so.1.0.0:_ZN5caffe16PoolingParameterC1Ev
libcaffe.so.1.0.0:_ZN5caffe16PoolingParameterC2ERKS0_
libcaffe.so.1.0.0:_ZN5caffe16PoolingParameterC2Ev
libcaffe.so.1.0.0:_ZN5caffe16PoolingParameterD0Ev
libcaffe.so.1.0.0:_ZN5caffe16PoolingParameterD1Ev
libcaffe.so.1.0.0:_ZN5caffe16PoolingParameterD2Ev
libcaffe.so.1.0.0:_ZN5caffe16ReadImageToCVMatERKNSt7__cxx1112basic_stringIcSt11char_traitsIcESaIcEEE
libcaffe.so.1.0.0:_ZN5caffe16ReadImageToCVMatERKNSt7__cxx1112basic_stringIcSt11char_traitsIcESaIcEEEb
libcaffe.so.1.0.0:_ZN5caffe16ReadImageToCVMatERKNSt7__cxx1112basic_stringIcSt11char_traitsIcESaIcEEEii
libcaffe.so.1.0.0:_ZN5caffe16ReadImageToCVMatERKNSt7__cxx1112basic_stringIcSt11char_traitsIcESaIcEEEiib
libcaffe.so.1.0.0:_ZN5caffe16ReadImageToDatumERKNSt7__cxx1112basic_stringIcSt11char_traitsIcESaIcEEEiiibS7_PNS_5DatumE
libcaffe.so.1.0.0:_ZN5caffe16ReshapeParameter10SharedCtorEv
libcaffe.so.1.0.0:_ZN5caffe16ReshapeParameter10SharedDtorEv
libcaffe.so.1.0.0:_ZN5caffe16ReshapeParameter10descriptorEv
libcaffe.so.1.0.0:_ZN5caffe16ReshapeParameter12InternalSwapEPS0_
libcaffe.so.1.0.0:_ZN5caffe16ReshapeParameter16default_instanceEv
libcaffe.so.1.0.0:_ZN5caffe16ReshapeParameter21InitAsDefaultInstanceEv
libcaffe.so.1.0.0:_ZN5caffe16ReshapeParameter27MergePartialFromCodedStreamEPN6google8protobuf2io16CodedInputStreamE
libcaffe.so.1.0.0:_ZN5caffe16ReshapeParameter4SwapEPS0_
libcaffe.so.1.0.0:_ZN5caffe16ReshapeParameter5ClearEv
libcaffe.so.1.0.0:_ZN5caffe16ReshapeParameter8CopyFromERKN6google8protobuf7MessageE
libcaffe.so.1.0.0:_ZN5caffe16ReshapeParameter8CopyFromERKS0_
libcaffe.so.1.0.0:_ZN5caffe16ReshapeParameter9MergeFromERKN6google8protobuf7MessageE
libcaffe.so.1.0.0:_ZN5caffe16ReshapeParameter9MergeFromERKS0_
libcaffe.so.1.0.0:_ZN5caffe16ReshapeParameterC1ERKS0_
libcaffe.so.1.0.0:_ZN5caffe16ReshapeParameterC1Ev
libcaffe.so.1.0.0:_ZN5caffe16ReshapeParameterC2ERKS0_
libcaffe.so.1.0.0:_ZN5caffe16ReshapeParameterC2Ev
libcaffe.so.1.0.0:_ZN5caffe16ReshapeParameterD0Ev
libcaffe.so.1.0.0:_ZN5caffe16ReshapeParameterD1Ev
libcaffe.so.1.0.0:_ZN5caffe16ReshapeParameterD2Ev
libcaffe.so.1.0.0:_ZN5caffe16SigmoidParameter10SharedCtorEv
libcaffe.so.1.0.0:_ZN5caffe16SigmoidParameter10SharedDtorEv
libcaffe.so.1.0.0:_ZN5caffe16SigmoidParameter10descriptorEv
libcaffe.so.1.0.0:_ZN5caffe16SigmoidParameter12InternalSwapEPS0_
libcaffe.so.1.0.0:_ZN5caffe16SigmoidParameter16default_instanceEv
libcaffe.so.1.0.0:_ZN5caffe16SigmoidParameter21InitAsDefaultInstanceEv
libcaffe.so.1.0.0:_ZN5caffe16SigmoidParameter27MergePartialFromCodedStreamEPN6google8protobuf2io16CodedInputStreamE
libcaffe.so.1.0.0:_ZN5caffe16SigmoidParameter4SwapEPS0_
libcaffe.so.1.0.0:_ZN5caffe16SigmoidParameter5ClearEv
libcaffe.so.1.0.0:_ZN5caffe16SigmoidParameter8CopyFromERKN6google8protobuf7MessageE
libcaffe.so.1.0.0:_ZN5caffe16SigmoidParameter8CopyFromERKS0_
libcaffe.so.1.0.0:_ZN5caffe16SigmoidParameter9MergeFromERKN6google8protobuf7MessageE
libcaffe.so.1.0.0:_ZN5caffe16SigmoidParameter9MergeFromERKS0_
libcaffe.so.1.0.0:_ZN5caffe16SigmoidParameterC1ERKS0_
libcaffe.so.1.0.0:_ZN5caffe16SigmoidParameterC1Ev
libcaffe.so.1.0.0:_ZN5caffe16SigmoidParameterC2ERKS0_
libcaffe.so.1.0.0:_ZN5caffe16SigmoidParameterC2Ev
libcaffe.so.1.0.0:_ZN5caffe16SigmoidParameterD0Ev
libcaffe.so.1.0.0:_ZN5caffe16SigmoidParameterD1Ev
libcaffe.so.1.0.0:_ZN5caffe16SigmoidParameterD2Ev
libcaffe.so.1.0.0:_ZN5caffe16SoftmaxParameter10SharedCtorEv
libcaffe.so.1.0.0:_ZN5caffe16SoftmaxParameter10SharedDtorEv
libcaffe.so.1.0.0:_ZN5caffe16SoftmaxParameter10descriptorEv
libcaffe.so.1.0.0:_ZN5caffe16SoftmaxParameter12InternalSwapEPS0_
libcaffe.so.1.0.0:_ZN5caffe16SoftmaxParameter16default_instanceEv
libcaffe.so.1.0.0:_ZN5caffe16SoftmaxParameter21InitAsDefaultInstanceEv
libcaffe.so.1.0.0:_ZN5caffe16SoftmaxParameter27MergePartialFromCodedStreamEPN6google8protobuf2io16CodedInputStreamE
libcaffe.so.1.0.0:_ZN5caffe16SoftmaxParameter4SwapEPS0_
libcaffe.so.1.0.0:_ZN5caffe16SoftmaxParameter5ClearEv
libcaffe.so.1.0.0:_ZN5caffe16SoftmaxParameter8CopyFromERKN6google8protobuf7MessageE
libcaffe.so.1.0.0:_ZN5caffe16SoftmaxParameter8CopyFromERKS0_
libcaffe.so.1.0.0:_ZN5caffe16SoftmaxParameter9MergeFromERKN6google8protobuf7MessageE
libcaffe.so.1.0.0:_ZN5caffe16SoftmaxParameter9MergeFromERKS0_
libcaffe.so.1.0.0:_ZN5caffe16SoftmaxParameterC1ERKS0_
libcaffe.so.1.0.0:_ZN5caffe16SoftmaxParameterC1Ev
libcaffe.so.1.0.0:_ZN5caffe16SoftmaxParameterC2ERKS0_
libcaffe.so.1.0.0:_ZN5caffe16SoftmaxParameterC2Ev
libcaffe.so.1.0.0:_ZN5caffe16SoftmaxParameterD0Ev
libcaffe.so.1.0.0:_ZN5caffe16SoftmaxParameterD1Ev
libcaffe.so.1.0.0:_ZN5caffe16SoftmaxParameterD2Ev
libcaffe.so.1.0.0:_ZN5caffe16V0LayerParameter10SharedCtorEv
libcaffe.so.1.0.0:_ZN5caffe16V0LayerParameter10SharedDtorEv
libcaffe.so.1.0.0:_ZN5caffe16V0LayerParameter10descriptorEv
libcaffe.so.1.0.0:_ZN5caffe16V0LayerParameter12InternalSwapEPS0_
libcaffe.so.1.0.0:_ZN5caffe16V0LayerParameter16default_instanceEv
libcaffe.so.1.0.0:_ZN5caffe16V0LayerParameter21InitAsDefaultInstanceEv
libcaffe.so.1.0.0:_ZN5caffe16V0LayerParameter27MergePartialFromCodedStreamEPN6google8protobuf2io16CodedInputStreamE
libcaffe.so.1.0.0:_ZN5caffe16V0LayerParameter4SwapEPS0_
libcaffe.so.1.0.0:_ZN5caffe16V0LayerParameter5ClearEv
libcaffe.so.1.0.0:_ZN5caffe16V0LayerParameter8CopyFromERKN6google8protobuf7MessageE
libcaffe.so.1.0.0:_ZN5caffe16V0LayerParameter8CopyFromERKS0_
libcaffe.so.1.0.0:_ZN5caffe16V0LayerParameter9MergeFromERKN6google8protobuf7MessageE
libcaffe.so.1.0.0:_ZN5caffe16V0LayerParameter9MergeFromERKS0_
libcaffe.so.1.0.0:_ZN5caffe16V0LayerParameterC1ERKS0_
libcaffe.so.1.0.0:_ZN5caffe16V0LayerParameterC1Ev
libcaffe.so.1.0.0:_ZN5caffe16V0LayerParameterC2ERKS0_
libcaffe.so.1.0.0:_ZN5caffe16V0LayerParameterC2Ev
libcaffe.so.1.0.0:_ZN5caffe16V0LayerParameterD0Ev
libcaffe.so.1.0.0:_ZN5caffe16V0LayerParameterD1Ev
libcaffe.so.1.0.0:_ZN5caffe16V0LayerParameterD2Ev
libcaffe.so.1.0.0:_ZN5caffe16V1LayerParameter10SharedCtorEv
libcaffe.so.1.0.0:_ZN5caffe16V1LayerParameter10SharedDtorEv
libcaffe.so.1.0.0:_ZN5caffe16V1LayerParameter10descriptorEv
libcaffe.so.1.0.0:_ZN5caffe16V1LayerParameter12InternalSwapEPS0_
libcaffe.so.1.0.0:_ZN5caffe16V1LayerParameter16default_instanceEv
libcaffe.so.1.0.0:_ZN5caffe16V1LayerParameter21InitAsDefaultInstanceEv
libcaffe.so.1.0.0:_ZN5caffe16V1LayerParameter27MergePartialFromCodedStreamEPN6google8protobuf2io16CodedInputStreamE
libcaffe.so.1.0.0:_ZN5caffe16V1LayerParameter4SwapEPS0_
libcaffe.so.1.0.0:_ZN5caffe16V1LayerParameter5ClearEv
libcaffe.so.1.0.0:_ZN5caffe16V1LayerParameter8CopyFromERKN6google8protobuf7MessageE
libcaffe.so.1.0.0:_ZN5caffe16V1LayerParameter8CopyFromERKS0_
libcaffe.so.1.0.0:_ZN5caffe16V1LayerParameter9MergeFromERKN6google8protobuf7MessageE
libcaffe.so.1.0.0:_ZN5caffe16V1LayerParameter9MergeFromERKS0_
libcaffe.so.1.0.0:_ZN5caffe16V1LayerParameterC1ERKS0_
libcaffe.so.1.0.0:_ZN5caffe16V1LayerParameterC1Ev
libcaffe.so.1.0.0:_ZN5caffe16V1LayerParameterC2ERKS0_
libcaffe.so.1.0.0:_ZN5caffe16V1LayerParameterC2Ev
libcaffe.so.1.0.0:_ZN5caffe16V1LayerParameterD0Ev
libcaffe.so.1.0.0:_ZN5caffe16V1LayerParameterD1Ev
libcaffe.so.1.0.0:_ZN5caffe16V1LayerParameterD2Ev
libcaffe.so.1.0.0:_ZN5caffe16caffe_add_scalarIdEEviT_PS1_
libcaffe.so.1.0.0:_ZN5caffe16caffe_add_scalarIfEEviT_PS1_
libcaffe.so.1.0.0:_ZN5caffe16hdf5_load_stringEiRKNSt7__cxx1112basic_stringIcSt11char_traitsIcESaIcEEE
libcaffe.so.1.0.0:_ZN5caffe16hdf5_save_stringEiRKNSt7__cxx1112basic_stringIcSt11char_traitsIcESaIcEEES7_
libcaffe.so.1.0.0:_ZN5caffe17AccuracyParameter10SharedCtorEv
libcaffe.so.1.0.0:_ZN5caffe17AccuracyParameter10SharedDtorEv
libcaffe.so.1.0.0:_ZN5caffe17AccuracyParameter10descriptorEv
libcaffe.so.1.0.0:_ZN5caffe17AccuracyParameter12InternalSwapEPS0_
libcaffe.so.1.0.0:_ZN5caffe17AccuracyParameter16default_instanceEv
libcaffe.so.1.0.0:_ZN5caffe17AccuracyParameter21InitAsDefaultInstanceEv
libcaffe.so.1.0.0:_ZN5caffe17AccuracyParameter27MergePartialFromCodedStreamEPN6google8protobuf2io16CodedInputStreamE
libcaffe.so.1.0.0:_ZN5caffe17AccuracyParameter4SwapEPS0_
libcaffe.so.1.0.0:_ZN5caffe17AccuracyParameter5ClearEv
libcaffe.so.1.0.0:_ZN5caffe17AccuracyParameter8CopyFromERKN6google8protobuf7MessageE
libcaffe.so.1.0.0:_ZN5caffe17AccuracyParameter8CopyFromERKS0_
libcaffe.so.1.0.0:_ZN5caffe17AccuracyParameter9MergeFromERKN6google8protobuf7MessageE
libcaffe.so.1.0.0:_ZN5caffe17AccuracyParameter9MergeFromERKS0_
libcaffe.so.1.0.0:_ZN5caffe17AccuracyParameterC1ERKS0_
libcaffe.so.1.0.0:_ZN5caffe17AccuracyParameterC1Ev
libcaffe.so.1.0.0:_ZN5caffe17AccuracyParameterC2ERKS0_
libcaffe.so.1.0.0:_ZN5caffe17AccuracyParameterC2Ev
libcaffe.so.1.0.0:_ZN5caffe17AccuracyParameterD0Ev
libcaffe.so.1.0.0:_ZN5caffe17AccuracyParameterD1Ev
libcaffe.so.1.0.0:_ZN5caffe17AccuracyParameterD2Ev
libcaffe.so.1.0.0:_ZN5caffe17DecodeDatumNativeEPNS_5DatumE
libcaffe.so.1.0.0:_ZN5caffe17HDF5DataParameter10SharedCtorEv
libcaffe.so.1.0.0:_ZN5caffe17HDF5DataParameter10SharedDtorEv
libcaffe.so.1.0.0:_ZN5caffe17HDF5DataParameter10descriptorEv
libcaffe.so.1.0.0:_ZN5caffe17HDF5DataParameter12InternalSwapEPS0_
libcaffe.so.1.0.0:_ZN5caffe17HDF5DataParameter16default_instanceEv
libcaffe.so.1.0.0:_ZN5caffe17HDF5DataParameter21InitAsDefaultInstanceEv
libcaffe.so.1.0.0:_ZN5caffe17HDF5DataParameter27MergePartialFromCodedStreamEPN6google8protobuf2io16CodedInputStreamE
libcaffe.so.1.0.0:_ZN5caffe17HDF5DataParameter4SwapEPS0_
libcaffe.so.1.0.0:_ZN5caffe17HDF5DataParameter5ClearEv
libcaffe.so.1.0.0:_ZN5caffe17HDF5DataParameter8CopyFromERKN6google8protobuf7MessageE
libcaffe.so.1.0.0:_ZN5caffe17HDF5DataParameter8CopyFromERKS0_
libcaffe.so.1.0.0:_ZN5caffe17HDF5DataParameter9MergeFromERKN6google8protobuf7MessageE
libcaffe.so.1.0.0:_ZN5caffe17HDF5DataParameter9MergeFromERKS0_
libcaffe.so.1.0.0:_ZN5caffe17HDF5DataParameterC1ERKS0_
libcaffe.so.1.0.0:_ZN5caffe17HDF5DataParameterC1Ev
libcaffe.so.1.0.0:_ZN5caffe17HDF5DataParameterC2ERKS0_
libcaffe.so.1.0.0:_ZN5caffe17HDF5DataParameterC2Ev
libcaffe.so.1.0.0:_ZN5caffe17HDF5DataParameterD0Ev
libcaffe.so.1.0.0:_ZN5caffe17HDF5DataParameterD1Ev
libcaffe.so.1.0.0:_ZN5caffe17HDF5DataParameterD2Ev
libcaffe.so.1.0.0:_ZN5caffe17UpgradeSolverTypeEPNS_15SolverParameterE
libcaffe.so.1.0.0:_ZN5caffe18BatchNormParameter10SharedCtorEv
libcaffe.so.1.0.0:_ZN5caffe18BatchNormParameter10SharedDtorEv
libcaffe.so.1.0.0:_ZN5caffe18BatchNormParameter10descriptorEv
libcaffe.so.1.0.0:_ZN5caffe18BatchNormParameter12InternalSwapEPS0_
libcaffe.so.1.0.0:_ZN5caffe18BatchNormParameter16default_instanceEv
libcaffe.so.1.0.0:_ZN5caffe18BatchNormParameter21InitAsDefaultInstanceEv
libcaffe.so.1.0.0:_ZN5caffe18BatchNormParameter27MergePartialFromCodedStreamEPN6google8protobuf2io16CodedInputStreamE
libcaffe.so.1.0.0:_ZN5caffe18BatchNormParameter4SwapEPS0_
libcaffe.so.1.0.0:_ZN5caffe18BatchNormParameter5ClearEv
libcaffe.so.1.0.0:_ZN5caffe18BatchNormParameter8CopyFromERKN6google8protobuf7MessageE
libcaffe.so.1.0.0:_ZN5caffe18BatchNormParameter8CopyFromERKS0_
libcaffe.so.1.0.0:_ZN5caffe18BatchNormParameter9MergeFromERKN6google8protobuf7MessageE
libcaffe.so.1.0.0:_ZN5caffe18BatchNormParameter9MergeFromERKS0_
libcaffe.so.1.0.0:_ZN5caffe18BatchNormParameterC1ERKS0_
libcaffe.so.1.0.0:_ZN5caffe18BatchNormParameterC1Ev
libcaffe.so.1.0.0:_ZN5caffe18BatchNormParameterC2ERKS0_
libcaffe.so.1.0.0:_ZN5caffe18BatchNormParameterC2Ev
libcaffe.so.1.0.0:_ZN5caffe18BatchNormParameterD0Ev
libcaffe.so.1.0.0:_ZN5caffe18BatchNormParameterD1Ev
libcaffe.so.1.0.0:_ZN5caffe18BatchNormParameterD2Ev
libcaffe.so.1.0.0:_ZN5caffe18DecodeDatumToCVMatERKNS_5DatumEb
libcaffe.so.1.0.0:_ZN5caffe18DummyDataParameter10SharedCtorEv
libcaffe.so.1.0.0:_ZN5caffe18DummyDataParameter10SharedDtorEv
libcaffe.so.1.0.0:_ZN5caffe18DummyDataParameter10descriptorEv
libcaffe.so.1.0.0:_ZN5caffe18DummyDataParameter12InternalSwapEPS0_
libcaffe.so.1.0.0:_ZN5caffe18DummyDataParameter16default_instanceEv
libcaffe.so.1.0.0:_ZN5caffe18DummyDataParameter21InitAsDefaultInstanceEv
libcaffe.so.1.0.0:_ZN5caffe18DummyDataParameter27MergePartialFromCodedStreamEPN6google8protobuf2io16CodedInputStreamE
libcaffe.so.1.0.0:_ZN5caffe18DummyDataParameter4SwapEPS0_
libcaffe.so.1.0.0:_ZN5caffe18DummyDataParameter5ClearEv
libcaffe.so.1.0.0:_ZN5caffe18DummyDataParameter8CopyFromERKN6google8protobuf7MessageE
libcaffe.so.1.0.0:_ZN5caffe18DummyDataParameter8CopyFromERKS0_
libcaffe.so.1.0.0:_ZN5caffe18DummyDataParameter9MergeFromERKN6google8protobuf7MessageE
libcaffe.so.1.0.0:_ZN5caffe18DummyDataParameter9MergeFromERKS0_
libcaffe.so.1.0.0:_ZN5caffe18DummyDataParameterC1ERKS0_
libcaffe.so.1.0.0:_ZN5caffe18DummyDataParameterC1Ev
libcaffe.so.1.0.0:_ZN5caffe18DummyDataParameterC2ERKS0_
libcaffe.so.1.0.0:_ZN5caffe18DummyDataParameterC2Ev
libcaffe.so.1.0.0:_ZN5caffe18DummyDataParameterD0Ev
libcaffe.so.1.0.0:_ZN5caffe18DummyDataParameterD1Ev
libcaffe.so.1.0.0:_ZN5caffe18DummyDataParameterD2Ev
libcaffe.so.1.0.0:_ZN5caffe18HingeLossParameter10SharedCtorEv
libcaffe.so.1.0.0:_ZN5caffe18HingeLossParameter10SharedDtorEv
libcaffe.so.1.0.0:_ZN5caffe18HingeLossParameter10descriptorEv
libcaffe.so.1.0.0:_ZN5caffe18HingeLossParameter12InternalSwapEPS0_
libcaffe.so.1.0.0:_ZN5caffe18HingeLossParameter16default_instanceEv
libcaffe.so.1.0.0:_ZN5caffe18HingeLossParameter21InitAsDefaultInstanceEv
libcaffe.so.1.0.0:_ZN5caffe18HingeLossParameter27MergePartialFromCodedStreamEPN6google8protobuf2io16CodedInputStreamE
libcaffe.so.1.0.0:_ZN5caffe18HingeLossParameter4SwapEPS0_
libcaffe.so.1.0.0:_ZN5caffe18HingeLossParameter5ClearEv
libcaffe.so.1.0.0:_ZN5caffe18HingeLossParameter8CopyFromERKN6google8protobuf7MessageE
libcaffe.so.1.0.0:_ZN5caffe18HingeLossParameter8CopyFromERKS0_
libcaffe.so.1.0.0:_ZN5caffe18HingeLossParameter9MergeFromERKN6google8protobuf7MessageE
libcaffe.so.1.0.0:_ZN5caffe18HingeLossParameter9MergeFromERKS0_
libcaffe.so.1.0.0:_ZN5caffe18HingeLossParameterC1ERKS0_
libcaffe.so.1.0.0:_ZN5caffe18HingeLossParameterC1Ev
libcaffe.so.1.0.0:_ZN5caffe18HingeLossParameterC2ERKS0_
libcaffe.so.1.0.0:_ZN5caffe18HingeLossParameterC2Ev
libcaffe.so.1.0.0:_ZN5caffe18HingeLossParameterD0Ev
libcaffe.so.1.0.0:_ZN5caffe18HingeLossParameterD1Ev
libcaffe.so.1.0.0:_ZN5caffe18HingeLossParameterD2Ev
libcaffe.so.1.0.0:_ZN5caffe18ImageDataParameter10SharedCtorEv
libcaffe.so.1.0.0:_ZN5caffe18ImageDataParameter10SharedDtorEv
libcaffe.so.1.0.0:_ZN5caffe18ImageDataParameter10descriptorEv
libcaffe.so.1.0.0:_ZN5caffe18ImageDataParameter12InternalSwapEPS0_
libcaffe.so.1.0.0:_ZN5caffe18ImageDataParameter16default_instanceEv
libcaffe.so.1.0.0:_ZN5caffe18ImageDataParameter21InitAsDefaultInstanceEv
libcaffe.so.1.0.0:_ZN5caffe18ImageDataParameter27MergePartialFromCodedStreamEPN6google8protobuf2io16CodedInputStreamE
libcaffe.so.1.0.0:_ZN5caffe18ImageDataParameter4SwapEPS0_
libcaffe.so.1.0.0:_ZN5caffe18ImageDataParameter5ClearEv
libcaffe.so.1.0.0:_ZN5caffe18ImageDataParameter8CopyFromERKN6google8protobuf7MessageE
libcaffe.so.1.0.0:_ZN5caffe18ImageDataParameter8CopyFromERKS0_
libcaffe.so.1.0.0:_ZN5caffe18ImageDataParameter9MergeFromERKN6google8protobuf7MessageE
libcaffe.so.1.0.0:_ZN5caffe18ImageDataParameter9MergeFromERKS0_
libcaffe.so.1.0.0:_ZN5caffe18ImageDataParameterC1ERKS0_
libcaffe.so.1.0.0:_ZN5caffe18ImageDataParameterC1Ev
libcaffe.so.1.0.0:_ZN5caffe18ImageDataParameterC2ERKS0_
libcaffe.so.1.0.0:_ZN5caffe18ImageDataParameterC2Ev
libcaffe.so.1.0.0:_ZN5caffe18ImageDataParameterD0Ev
libcaffe.so.1.0.0:_ZN5caffe18ImageDataParameterD1Ev
libcaffe.so.1.0.0:_ZN5caffe18ImageDataParameterD2Ev
libcaffe.so.1.0.0:_ZN5caffe18ParameterParameter10SharedCtorEv
libcaffe.so.1.0.0:_ZN5caffe18ParameterParameter10SharedDtorEv
libcaffe.so.1.0.0:_ZN5caffe18ParameterParameter10descriptorEv
libcaffe.so.1.0.0:_ZN5caffe18ParameterParameter12InternalSwapEPS0_
libcaffe.so.1.0.0:_ZN5caffe18ParameterParameter16default_instanceEv
libcaffe.so.1.0.0:_ZN5caffe18ParameterParameter21InitAsDefaultInstanceEv
libcaffe.so.1.0.0:_ZN5caffe18ParameterParameter27MergePartialFromCodedStreamEPN6google8protobuf2io16CodedInputStreamE
libcaffe.so.1.0.0:_ZN5caffe18ParameterParameter4SwapEPS0_
libcaffe.so.1.0.0:_ZN5caffe18ParameterParameter5ClearEv
libcaffe.so.1.0.0:_ZN5caffe18ParameterParameter8CopyFromERKN6google8protobuf7MessageE
libcaffe.so.1.0.0:_ZN5caffe18ParameterParameter8CopyFromERKS0_
libcaffe.so.1.0.0:_ZN5caffe18ParameterParameter9MergeFromERKN6google8protobuf7MessageE
libcaffe.so.1.0.0:_ZN5caffe18ParameterParameter9MergeFromERKS0_
libcaffe.so.1.0.0:_ZN5caffe18ParameterParameterC1ERKS0_
libcaffe.so.1.0.0:_ZN5caffe18ParameterParameterC1Ev
libcaffe.so.1.0.0:_ZN5caffe18ParameterParameterC2ERKS0_
libcaffe.so.1.0.0:_ZN5caffe18ParameterParameterC2Ev
libcaffe.so.1.0.0:_ZN5caffe18ParameterParameterD0Ev
libcaffe.so.1.0.0:_ZN5caffe18ParameterParameterD1Ev
libcaffe.so.1.0.0:_ZN5caffe18ParameterParameterD2Ev
libcaffe.so.1.0.0:_ZN5caffe18RecurrentParameter10SharedCtorEv
libcaffe.so.1.0.0:_ZN5caffe18RecurrentParameter10SharedDtorEv
libcaffe.so.1.0.0:_ZN5caffe18RecurrentParameter10descriptorEv
libcaffe.so.1.0.0:_ZN5caffe18RecurrentParameter12InternalSwapEPS0_
libcaffe.so.1.0.0:_ZN5caffe18RecurrentParameter16default_instanceEv
libcaffe.so.1.0.0:_ZN5caffe18RecurrentParameter21InitAsDefaultInstanceEv
libcaffe.so.1.0.0:_ZN5caffe18RecurrentParameter27MergePartialFromCodedStreamEPN6google8protobuf2io16CodedInputStreamE
libcaffe.so.1.0.0:_ZN5caffe18RecurrentParameter4SwapEPS0_
libcaffe.so.1.0.0:_ZN5caffe18RecurrentParameter5ClearEv
libcaffe.so.1.0.0:_ZN5caffe18RecurrentParameter8CopyFromERKN6google8protobuf7MessageE
libcaffe.so.1.0.0:_ZN5caffe18RecurrentParameter8CopyFromERKS0_
libcaffe.so.1.0.0:_ZN5caffe18RecurrentParameter9MergeFromERKN6google8protobuf7MessageE
libcaffe.so.1.0.0:_ZN5caffe18RecurrentParameter9MergeFromERKS0_
libcaffe.so.1.0.0:_ZN5caffe18RecurrentParameterC1ERKS0_
libcaffe.so.1.0.0:_ZN5caffe18RecurrentParameterC1Ev
libcaffe.so.1.0.0:_ZN5caffe18RecurrentParameterC2ERKS0_
libcaffe.so.1.0.0:_ZN5caffe18RecurrentParameterC2Ev
libcaffe.so.1.0.0:_ZN5caffe18RecurrentParameterD0Ev
libcaffe.so.1.0.0:_ZN5caffe18RecurrentParameterD1Ev
libcaffe.so.1.0.0:_ZN5caffe18RecurrentParameterD2Ev
libcaffe.so.1.0.0:_ZN5caffe18ReductionParameter10SharedCtorEv
libcaffe.so.1.0.0:_ZN5caffe18ReductionParameter10SharedDtorEv
libcaffe.so.1.0.0:_ZN5caffe18ReductionParameter10descriptorEv
libcaffe.so.1.0.0:_ZN5caffe18ReductionParameter12InternalSwapEPS0_
libcaffe.so.1.0.0:_ZN5caffe18ReductionParameter16default_instanceEv
libcaffe.so.1.0.0:_ZN5caffe18ReductionParameter21InitAsDefaultInstanceEv
libcaffe.so.1.0.0:_ZN5caffe18ReductionParameter27MergePartialFromCodedStreamEPN6google8protobuf2io16CodedInputStreamE
libcaffe.so.1.0.0:_ZN5caffe18ReductionParameter4SwapEPS0_
libcaffe.so.1.0.0:_ZN5caffe18ReductionParameter5ClearEv
libcaffe.so.1.0.0:_ZN5caffe18ReductionParameter8CopyFromERKN6google8protobuf7MessageE
libcaffe.so.1.0.0:_ZN5caffe18ReductionParameter8CopyFromERKS0_
libcaffe.so.1.0.0:_ZN5caffe18ReductionParameter9MergeFromERKN6google8protobuf7MessageE
libcaffe.so.1.0.0:_ZN5caffe18ReductionParameter9MergeFromERKS0_
libcaffe.so.1.0.0:_ZN5caffe18ReductionParameterC1ERKS0_
libcaffe.so.1.0.0:_ZN5caffe18ReductionParameterC1Ev
libcaffe.so.1.0.0:_ZN5caffe18ReductionParameterC2ERKS0_
libcaffe.so.1.0.0:_ZN5caffe18ReductionParameterC2Ev
libcaffe.so.1.0.0:_ZN5caffe18ReductionParameterD0Ev
libcaffe.so.1.0.0:_ZN5caffe18ReductionParameterD1Ev
libcaffe.so.1.0.0:_ZN5caffe18ReductionParameterD2Ev
libcaffe.so.1.0.0:_ZN5caffe18ThresholdParameter10SharedCtorEv
libcaffe.so.1.0.0:_ZN5caffe18ThresholdParameter10SharedDtorEv
libcaffe.so.1.0.0:_ZN5caffe18ThresholdParameter10descriptorEv
libcaffe.so.1.0.0:_ZN5caffe18ThresholdParameter12InternalSwapEPS0_
libcaffe.so.1.0.0:_ZN5caffe18ThresholdParameter16default_instanceEv
libcaffe.so.1.0.0:_ZN5caffe18ThresholdParameter21InitAsDefaultInstanceEv
libcaffe.so.1.0.0:_ZN5caffe18ThresholdParameter27MergePartialFromCodedStreamEPN6google8protobuf2io16CodedInputStreamE
libcaffe.so.1.0.0:_ZN5caffe18ThresholdParameter4SwapEPS0_
libcaffe.so.1.0.0:_ZN5caffe18ThresholdParameter5ClearEv
libcaffe.so.1.0.0:_ZN5caffe18ThresholdParameter8CopyFromERKN6google8protobuf7MessageE
libcaffe.so.1.0.0:_ZN5caffe18ThresholdParameter8CopyFromERKS0_
libcaffe.so.1.0.0:_ZN5caffe18ThresholdParameter9MergeFromERKN6google8protobuf7MessageE
libcaffe.so.1.0.0:_ZN5caffe18ThresholdParameter9MergeFromERKS0_
libcaffe.so.1.0.0:_ZN5caffe18ThresholdParameterC1ERKS0_
libcaffe.so.1.0.0:_ZN5caffe18ThresholdParameterC1Ev
libcaffe.so.1.0.0:_ZN5caffe18ThresholdParameterC2ERKS0_
libcaffe.so.1.0.0:_ZN5caffe18ThresholdParameterC2Ev
libcaffe.so.1.0.0:_ZN5caffe18ThresholdParameterD0Ev
libcaffe.so.1.0.0:_ZN5caffe18ThresholdParameterD1Ev
libcaffe.so.1.0.0:_ZN5caffe18ThresholdParameterD2Ev
libcaffe.so.1.0.0:_ZN5caffe18UpgradeNetAsNeededERKNSt7__cxx1112basic_stringIcSt11char_traitsIcESaIcEEEPNS_12NetParameterE
libcaffe.so.1.0.0:_ZN5caffe18UpgradeV0LayerTypeERKNSt7__cxx1112basic_stringIcSt11char_traitsIcESaIcEEE
libcaffe.so.1.0.0:_ZN5caffe18UpgradeV1LayerTypeENS_26V1LayerParameter_LayerTypeE
libcaffe.so.1.0.0:_ZN5caffe18hdf5_get_num_linksEi
libcaffe.so.1.0.0:_ZN5caffe19ConfigureSplitLayerERKNSt7__cxx1112basic_stringIcSt11char_traitsIcESaIcEEES7_iifPNS_14LayerParameterE
libcaffe.so.1.0.0:_ZN5caffe19HDF5OutputParameter10SharedCtorEv
libcaffe.so.1.0.0:_ZN5caffe19HDF5OutputParameter10SharedDtorEv
libcaffe.so.1.0.0:_ZN5caffe19HDF5OutputParameter10descriptorEv
libcaffe.so.1.0.0:_ZN5caffe19HDF5OutputParameter12InternalSwapEPS0_
libcaffe.so.1.0.0:_ZN5caffe19HDF5OutputParameter16default_instanceEv
libcaffe.so.1.0.0:_ZN5caffe19HDF5OutputParameter21InitAsDefaultInstanceEv
libcaffe.so.1.0.0:_ZN5caffe19HDF5OutputParameter27MergePartialFromCodedStreamEPN6google8protobuf2io16CodedInputStreamE
libcaffe.so.1.0.0:_ZN5caffe19HDF5OutputParameter4SwapEPS0_
libcaffe.so.1.0.0:_ZN5caffe19HDF5OutputParameter5ClearEv
libcaffe.so.1.0.0:_ZN5caffe19HDF5OutputParameter8CopyFromERKN6google8protobuf7MessageE
libcaffe.so.1.0.0:_ZN5caffe19HDF5OutputParameter8CopyFromERKS0_
libcaffe.so.1.0.0:_ZN5caffe19HDF5OutputParameter9MergeFromERKN6google8protobuf7MessageE
libcaffe.so.1.0.0:_ZN5caffe19HDF5OutputParameter9MergeFromERKS0_
libcaffe.so.1.0.0:_ZN5caffe19HDF5OutputParameterC1ERKS0_
libcaffe.so.1.0.0:_ZN5caffe19HDF5OutputParameterC1Ev
libcaffe.so.1.0.0:_ZN5caffe19HDF5OutputParameterC2ERKS0_
libcaffe.so.1.0.0:_ZN5caffe19HDF5OutputParameterC2Ev
libcaffe.so.1.0.0:_ZN5caffe19HDF5OutputParameterD0Ev
libcaffe.so.1.0.0:_ZN5caffe19HDF5OutputParameterD1Ev
libcaffe.so.1.0.0:_ZN5caffe19HDF5OutputParameterD2Ev
libcaffe.so.1.0.0:_ZN5caffe19MemoryDataParameter10SharedCtorEv
libcaffe.so.1.0.0:_ZN5caffe19MemoryDataParameter10SharedDtorEv
libcaffe.so.1.0.0:_ZN5caffe19MemoryDataParameter10descriptorEv
libcaffe.so.1.0.0:_ZN5caffe19MemoryDataParameter12InternalSwapEPS0_
libcaffe.so.1.0.0:_ZN5caffe19MemoryDataParameter16default_instanceEv
libcaffe.so.1.0.0:_ZN5caffe19MemoryDataParameter21InitAsDefaultInstanceEv
libcaffe.so.1.0.0:_ZN5caffe19MemoryDataParameter27MergePartialFromCodedStreamEPN6google8protobuf2io16CodedInputStreamE
libcaffe.so.1.0.0:_ZN5caffe19MemoryDataParameter4SwapEPS0_
libcaffe.so.1.0.0:_ZN5caffe19MemoryDataParameter5ClearEv
libcaffe.so.1.0.0:_ZN5caffe19MemoryDataParameter8CopyFromERKN6google8protobuf7MessageE
libcaffe.so.1.0.0:_ZN5caffe19MemoryDataParameter8CopyFromERKS0_
libcaffe.so.1.0.0:_ZN5caffe19MemoryDataParameter9MergeFromERKN6google8protobuf7MessageE
libcaffe.so.1.0.0:_ZN5caffe19MemoryDataParameter9MergeFromERKS0_
libcaffe.so.1.0.0:_ZN5caffe19MemoryDataParameterC1ERKS0_
libcaffe.so.1.0.0:_ZN5caffe19MemoryDataParameterC1Ev
libcaffe.so.1.0.0:_ZN5caffe19MemoryDataParameterC2ERKS0_
libcaffe.so.1.0.0:_ZN5caffe19MemoryDataParameterC2Ev
libcaffe.so.1.0.0:_ZN5caffe19MemoryDataParameterD0Ev
libcaffe.so.1.0.0:_ZN5caffe19MemoryDataParameterD1Ev
libcaffe.so.1.0.0:_ZN5caffe19MemoryDataParameterD2Ev
libcaffe.so.1.0.0:_ZN5caffe19NetNeedsDataUpgradeERKNS_12NetParameterE
libcaffe.so.1.0.0:_ZN5caffe19UpgradeNetBatchNormEPNS_12NetParameterE
libcaffe.so.1.0.0:_ZN5caffe19WindowDataParameter10SharedCtorEv
libcaffe.so.1.0.0:_ZN5caffe19WindowDataParameter10SharedDtorEv
libcaffe.so.1.0.0:_ZN5caffe19WindowDataParameter10descriptorEv
libcaffe.so.1.0.0:_ZN5caffe19WindowDataParameter12InternalSwapEPS0_
libcaffe.so.1.0.0:_ZN5caffe19WindowDataParameter16default_instanceEv
libcaffe.so.1.0.0:_ZN5caffe19WindowDataParameter21InitAsDefaultInstanceEv
libcaffe.so.1.0.0:_ZN5caffe19WindowDataParameter27MergePartialFromCodedStreamEPN6google8protobuf2io16CodedInputStreamE
libcaffe.so.1.0.0:_ZN5caffe19WindowDataParameter4SwapEPS0_
libcaffe.so.1.0.0:_ZN5caffe19WindowDataParameter5ClearEv
libcaffe.so.1.0.0:_ZN5caffe19WindowDataParameter8CopyFromERKN6google8protobuf7MessageE
libcaffe.so.1.0.0:_ZN5caffe19WindowDataParameter8CopyFromERKS0_
libcaffe.so.1.0.0:_ZN5caffe19WindowDataParameter9MergeFromERKN6google8protobuf7MessageE
libcaffe.so.1.0.0:_ZN5caffe19WindowDataParameter9MergeFromERKS0_
libcaffe.so.1.0.0:_ZN5caffe19WindowDataParameterC1ERKS0_
libcaffe.so.1.0.0:_ZN5caffe19WindowDataParameterC1Ev
libcaffe.so.1.0.0:_ZN5caffe19WindowDataParameterC2ERKS0_
libcaffe.so.1.0.0:_ZN5caffe19WindowDataParameterC2Ev
libcaffe.so.1.0.0:_ZN5caffe19WindowDataParameterD0Ev
libcaffe.so.1.0.0:_ZN5caffe19WindowDataParameterD1Ev
libcaffe.so.1.0.0:_ZN5caffe19WindowDataParameterD2Ev
libcaffe.so.1.0.0:_ZN5caffe20ConvolutionParameter10SharedCtorEv
libcaffe.so.1.0.0:_ZN5caffe20ConvolutionParameter10SharedDtorEv
libcaffe.so.1.0.0:_ZN5caffe20ConvolutionParameter10descriptorEv
libcaffe.so.1.0.0:_ZN5caffe20ConvolutionParameter12InternalSwapEPS0_
libcaffe.so.1.0.0:_ZN5caffe20ConvolutionParameter16default_instanceEv
libcaffe.so.1.0.0:_ZN5caffe20ConvolutionParameter21InitAsDefaultInstanceEv
libcaffe.so.1.0.0:_ZN5caffe20ConvolutionParameter27MergePartialFromCodedStreamEPN6google8protobuf2io16CodedInputStreamE
libcaffe.so.1.0.0:_ZN5caffe20ConvolutionParameter4SwapEPS0_
libcaffe.so.1.0.0:_ZN5caffe20ConvolutionParameter5ClearEv
libcaffe.so.1.0.0:_ZN5caffe20ConvolutionParameter8CopyFromERKN6google8protobuf7MessageE
libcaffe.so.1.0.0:_ZN5caffe20ConvolutionParameter8CopyFromERKS0_
libcaffe.so.1.0.0:_ZN5caffe20ConvolutionParameter9MergeFromERKN6google8protobuf7MessageE
libcaffe.so.1.0.0:_ZN5caffe20ConvolutionParameter9MergeFromERKS0_
libcaffe.so.1.0.0:_ZN5caffe20ConvolutionParameterC1ERKS0_
libcaffe.so.1.0.0:_ZN5caffe20ConvolutionParameterC1Ev
libcaffe.so.1.0.0:_ZN5caffe20ConvolutionParameterC2ERKS0_
libcaffe.so.1.0.0:_ZN5caffe20ConvolutionParameterC2Ev
libcaffe.so.1.0.0:_ZN5caffe20ConvolutionParameterD0Ev
libcaffe.so.1.0.0:_ZN5caffe20ConvolutionParameterD1Ev
libcaffe.so.1.0.0:_ZN5caffe20ConvolutionParameterD2Ev
libcaffe.so.1.0.0:_ZN5caffe20NetNeedsInputUpgradeERKNS_12NetParameterE
libcaffe.so.1.0.0:_ZN5caffe20WriteProtoToTextFileERKN6google8protobuf7MessageEPKc
libcaffe.so.1.0.0:_ZN5caffe20hdf5_get_name_by_idxB5cxx11Eii
libcaffe.so.1.0.0:_ZN5caffe20hdf5_load_nd_datasetIdEEviPKciiPNS_4BlobIT_EEb
libcaffe.so.1.0.0:_ZN5caffe20hdf5_load_nd_datasetIfEEviPKciiPNS_4BlobIT_EEb
libcaffe.so.1.0.0:_ZN5caffe20hdf5_save_nd_datasetIdEEviRKNSt7__cxx1112basic_stringIcSt11char_traitsIcESaIcEEERKNS_4BlobIT_EEb
libcaffe.so.1.0.0:_ZN5caffe20hdf5_save_nd_datasetIfEEviRKNSt7__cxx1112basic_stringIcSt11char_traitsIcESaIcEEERKNS_4BlobIT_EEb
libcaffe.so.1.0.0:_ZN5caffe21InfogainLossParameter10SharedCtorEv
libcaffe.so.1.0.0:_ZN5caffe21InfogainLossParameter10SharedDtorEv
libcaffe.so.1.0.0:_ZN5caffe21InfogainLossParameter10descriptorEv
libcaffe.so.1.0.0:_ZN5caffe21InfogainLossParameter12InternalSwapEPS0_
libcaffe.so.1.0.0:_ZN5caffe21InfogainLossParameter16default_instanceEv
libcaffe.so.1.0.0:_ZN5caffe21InfogainLossParameter21InitAsDefaultInstanceEv
libcaffe.so.1.0.0:_ZN5caffe21InfogainLossParameter27MergePartialFromCodedStreamEPN6google8protobuf2io16CodedInputStreamE
libcaffe.so.1.0.0:_ZN5caffe21InfogainLossParameter4SwapEPS0_
libcaffe.so.1.0.0:_ZN5caffe21InfogainLossParameter5ClearEv
libcaffe.so.1.0.0:_ZN5caffe21InfogainLossParameter8CopyFromERKN6google8protobuf7MessageE
libcaffe.so.1.0.0:_ZN5caffe21InfogainLossParameter8CopyFromERKS0_
libcaffe.so.1.0.0:_ZN5caffe21InfogainLossParameter9MergeFromERKN6google8protobuf7MessageE
libcaffe.so.1.0.0:_ZN5caffe21InfogainLossParameter9MergeFromERKS0_
libcaffe.so.1.0.0:_ZN5caffe21InfogainLossParameterC1ERKS0_
libcaffe.so.1.0.0:_ZN5caffe21InfogainLossParameterC1Ev
libcaffe.so.1.0.0:_ZN5caffe21InfogainLossParameterC2ERKS0_
libcaffe.so.1.0.0:_ZN5caffe21InfogainLossParameterC2Ev
libcaffe.so.1.0.0:_ZN5caffe21InfogainLossParameterD0Ev
libcaffe.so.1.0.0:_ZN5caffe21InfogainLossParameterD1Ev
libcaffe.so.1.0.0:_ZN5caffe21InfogainLossParameterD2Ev
libcaffe.so.1.0.0:_ZN5caffe21InnerProductParameter10SharedCtorEv
libcaffe.so.1.0.0:_ZN5caffe21InnerProductParameter10SharedDtorEv
libcaffe.so.1.0.0:_ZN5caffe21InnerProductParameter10descriptorEv
libcaffe.so.1.0.0:_ZN5caffe21InnerProductParameter12InternalSwapEPS0_
libcaffe.so.1.0.0:_ZN5caffe21InnerProductParameter16default_instanceEv
libcaffe.so.1.0.0:_ZN5caffe21InnerProductParameter21InitAsDefaultInstanceEv
libcaffe.so.1.0.0:_ZN5caffe21InnerProductParameter27MergePartialFromCodedStreamEPN6google8protobuf2io16CodedInputStreamE
libcaffe.so.1.0.0:_ZN5caffe21InnerProductParameter4SwapEPS0_
libcaffe.so.1.0.0:_ZN5caffe21InnerProductParameter5ClearEv
libcaffe.so.1.0.0:_ZN5caffe21InnerProductParameter8CopyFromERKN6google8protobuf7MessageE
libcaffe.so.1.0.0:_ZN5caffe21InnerProductParameter8CopyFromERKS0_
libcaffe.so.1.0.0:_ZN5caffe21InnerProductParameter9MergeFromERKN6google8protobuf7MessageE
libcaffe.so.1.0.0:_ZN5caffe21InnerProductParameter9MergeFromERKS0_
libcaffe.so.1.0.0:_ZN5caffe21InnerProductParameterC1ERKS0_
libcaffe.so.1.0.0:_ZN5caffe21InnerProductParameterC1Ev
libcaffe.so.1.0.0:_ZN5caffe21InnerProductParameterC2ERKS0_
libcaffe.so.1.0.0:_ZN5caffe21InnerProductParameterC2Ev
libcaffe.so.1.0.0:_ZN5caffe21InnerProductParameterD0Ev
libcaffe.so.1.0.0:_ZN5caffe21InnerProductParameterD1Ev
libcaffe.so.1.0.0:_ZN5caffe21InnerProductParameterD2Ev
libcaffe.so.1.0.0:_ZN5caffe21NetNeedsV0ToV1UpgradeERKNS_12NetParameterE
libcaffe.so.1.0.0:_ZN5caffe21NetNeedsV1ToV2UpgradeERKNS_12NetParameterE
libcaffe.so.1.0.0:_ZN5caffe21ReadProtoFromTextFileEPKcPN6google8protobuf7MessageE
libcaffe.so.1.0.0:_ZN5caffe21UpgradeSolverAsNeededERKNSt7__cxx1112basic_stringIcSt11char_traitsIcESaIcEEEPNS_15SolverParameterE
libcaffe.so.1.0.0:_ZN5caffe21caffe_cpu_strided_dotIdEET_iPKS1_iS3_i
libcaffe.so.1.0.0:_ZN5caffe21caffe_cpu_strided_dotIfEET_iPKS1_iS3_i
libcaffe.so.1.0.0:_ZN5caffe22SolverNeedsTypeUpgradeERKNS_15SolverParameterE
libcaffe.so.1.0.0:_ZN5caffe22UpgradeV0PaddingLayersERKNS_12NetParameterEPS0_
libcaffe.so.1.0.0:_ZN5caffe22WriteProtoToBinaryFileERKN6google8protobuf7MessageEPKc
libcaffe.so.1.0.0:_ZN5caffe23ReadProtoFromBinaryFileEPKcPN6google8protobuf7MessageE
libcaffe.so.1.0.0:_ZN5caffe23TransformationParameter10SharedCtorEv
libcaffe.so.1.0.0:_ZN5caffe23TransformationParameter10SharedDtorEv
libcaffe.so.1.0.0:_ZN5caffe23TransformationParameter10descriptorEv
libcaffe.so.1.0.0:_ZN5caffe23TransformationParameter12InternalSwapEPS0_
libcaffe.so.1.0.0:_ZN5caffe23TransformationParameter16default_instanceEv
libcaffe.so.1.0.0:_ZN5caffe23TransformationParameter21InitAsDefaultInstanceEv
libcaffe.so.1.0.0:_ZN5caffe23TransformationParameter27MergePartialFromCodedStreamEPN6google8protobuf2io16CodedInputStreamE
libcaffe.so.1.0.0:_ZN5caffe23TransformationParameter4SwapEPS0_
libcaffe.so.1.0.0:_ZN5caffe23TransformationParameter5ClearEv
libcaffe.so.1.0.0:_ZN5caffe23TransformationParameter8CopyFromERKN6google8protobuf7MessageE
libcaffe.so.1.0.0:_ZN5caffe23TransformationParameter8CopyFromERKS0_
libcaffe.so.1.0.0:_ZN5caffe23TransformationParameter9MergeFromERKN6google8protobuf7MessageE
libcaffe.so.1.0.0:_ZN5caffe23TransformationParameter9MergeFromERKS0_
libcaffe.so.1.0.0:_ZN5caffe23TransformationParameterC1ERKS0_
libcaffe.so.1.0.0:_ZN5caffe23TransformationParameterC1Ev
libcaffe.so.1.0.0:_ZN5caffe23TransformationParameterC2ERKS0_
libcaffe.so.1.0.0:_ZN5caffe23TransformationParameterC2Ev
libcaffe.so.1.0.0:_ZN5caffe23TransformationParameterD0Ev
libcaffe.so.1.0.0:_ZN5caffe23TransformationParameterD1Ev
libcaffe.so.1.0.0:_ZN5caffe23TransformationParameterD2Ev
libcaffe.so.1.0.0:_ZN5caffe23UpgradeV0LayerParameterERKNS_16V1LayerParameterEPS0_
libcaffe.so.1.0.0:_ZN5caffe23UpgradeV1LayerParameterERKNS_16V1LayerParameterEPNS_14LayerParameterE
libcaffe.so.1.0.0:_ZN5caffe24ContrastiveLossParameter10SharedCtorEv
libcaffe.so.1.0.0:_ZN5caffe24ContrastiveLossParameter10SharedDtorEv
libcaffe.so.1.0.0:_ZN5caffe24ContrastiveLossParameter10descriptorEv
libcaffe.so.1.0.0:_ZN5caffe24ContrastiveLossParameter12InternalSwapEPS0_
libcaffe.so.1.0.0:_ZN5caffe24ContrastiveLossParameter16default_instanceEv
libcaffe.so.1.0.0:_ZN5caffe24ContrastiveLossParameter21InitAsDefaultInstanceEv
libcaffe.so.1.0.0:_ZN5caffe24ContrastiveLossParameter27MergePartialFromCodedStreamEPN6google8protobuf2io16CodedInputStreamE
libcaffe.so.1.0.0:_ZN5caffe24ContrastiveLossParameter4SwapEPS0_
libcaffe.so.1.0.0:_ZN5caffe24ContrastiveLossParameter5ClearEv
libcaffe.so.1.0.0:_ZN5caffe24ContrastiveLossParameter8CopyFromERKN6google8protobuf7MessageE
libcaffe.so.1.0.0:_ZN5caffe24ContrastiveLossParameter8CopyFromERKS0_
libcaffe.so.1.0.0:_ZN5caffe24ContrastiveLossParameter9MergeFromERKN6google8protobuf7MessageE
libcaffe.so.1.0.0:_ZN5caffe24ContrastiveLossParameter9MergeFromERKS0_
libcaffe.so.1.0.0:_ZN5caffe24ContrastiveLossParameterC1ERKS0_
libcaffe.so.1.0.0:_ZN5caffe24ContrastiveLossParameterC1Ev
libcaffe.so.1.0.0:_ZN5caffe24ContrastiveLossParameterC2ERKS0_
libcaffe.so.1.0.0:_ZN5caffe24ContrastiveLossParameterC2Ev
libcaffe.so.1.0.0:_ZN5caffe24ContrastiveLossParameterD0Ev
libcaffe.so.1.0.0:_ZN5caffe24ContrastiveLossParameterD1Ev
libcaffe.so.1.0.0:_ZN5caffe24ContrastiveLossParameterD2Ev
libcaffe.so.1.0.0:_ZN5caffe24DataParameter_DB_IsValidEi
libcaffe.so.1.0.0:_ZN5caffe24DecodeDatumToCVMatNativeERKNS_5DatumE
libcaffe.so.1.0.0:_ZN5caffe24NetNeedsBatchNormUpgradeERKNS_12NetParameterE
libcaffe.so.1.0.0:_ZN5caffe27DataParameter_DB_descriptorEv
libcaffe.so.1.0.0:_ZN5caffe27LRNParameter_Engine_IsValidEi
libcaffe.so.1.0.0:_ZN5caffe27SPPParameter_Engine_IsValidEi
libcaffe.so.1.0.0:_ZN5caffe28ReLUParameter_Engine_IsValidEi
libcaffe.so.1.0.0:_ZN5caffe28TanHParameter_Engine_IsValidEi
libcaffe.so.1.0.0:_ZN5caffe28UpgradeNetDataTransformationEPNS_12NetParameterE
libcaffe.so.1.0.0:_ZN5caffe2db15LMDBTransaction13DoubleMapSizeEv
libcaffe.so.1.0.0:_ZN5caffe2db15LMDBTransaction3PutERKNSt7__cxx1112basic_stringIcSt11char_traitsIcESaIcEEES9_
libcaffe.so.1.0.0:_ZN5caffe2db15LMDBTransaction6CommitEv
libcaffe.so.1.0.0:_ZN5caffe2db4LMDB14NewTransactionEv
libcaffe.so.1.0.0:_ZN5caffe2db4LMDB4OpenERKNSt7__cxx1112basic_stringIcSt11char_traitsIcESaIcEEENS0_4ModeE
libcaffe.so.1.0.0:_ZN5caffe2db4LMDB9NewCursorEv
libcaffe.so.1.0.0:_ZN5caffe2db5GetDBENS_16DataParameter_DBE
libcaffe.so.1.0.0:_ZN5caffe2db5GetDBERKNSt7__cxx1112basic_stringIcSt11char_traitsIcESaIcEEE
libcaffe.so.1.0.0:_ZN5caffe2db7LevelDB4OpenERKNSt7__cxx1112basic_stringIcSt11char_traitsIcESaIcEEENS0_4ModeE
libcaffe.so.1.0.0:_ZN5caffe30LRNParameter_Engine_descriptorEv
libcaffe.so.1.0.0:_ZN5caffe30ParamSpec_DimCheckMode_IsValidEi
libcaffe.so.1.0.0:_ZN5caffe30ReadNetParamsFromTextFileOrDieERKNSt7__cxx1112basic_stringIcSt11char_traitsIcESaIcEEEPNS_12NetParameterE
libcaffe.so.1.0.0:_ZN5caffe30SPPParameter_Engine_descriptorEv
libcaffe.so.1.0.0:_ZN5caffe31HingeLossParameter_Norm_IsValidEi
libcaffe.so.1.0.0:_ZN5caffe31LRNParameter_NormRegion_IsValidEi
libcaffe.so.1.0.0:_ZN5caffe31PoolingParameter_Engine_IsValidEi
libcaffe.so.1.0.0:_ZN5caffe31ReLUParameter_Engine_descriptorEv
libcaffe.so.1.0.0:_ZN5caffe31SPPParameter_PoolMethod_IsValidEi
libcaffe.so.1.0.0:_ZN5caffe31SigmoidParameter_Engine_IsValidEi
libcaffe.so.1.0.0:_ZN5caffe31SoftmaxParameter_Engine_IsValidEi
libcaffe.so.1.0.0:_ZN5caffe31TanHParameter_Engine_descriptorEv
libcaffe.so.1.0.0:_ZN5caffe32ReadNetParamsFromBinaryFileOrDieERKNSt7__cxx1112basic_stringIcSt11char_traitsIcESaIcEEEPNS_12NetParameterE
libcaffe.so.1.0.0:_ZN5caffe33ParamSpec_DimCheckMode_descriptorEv
libcaffe.so.1.0.0:_ZN5caffe33ReadSolverParamsFromTextFileOrDieERKNSt7__cxx1112basic_stringIcSt11char_traitsIcESaIcEEEPNS_15SolverParameterE
libcaffe.so.1.0.0:_ZN5caffe34EltwiseParameter_EltwiseOp_IsValidEi
libcaffe.so.1.0.0:_ZN5caffe34HingeLossParameter_Norm_descriptorEv
libcaffe.so.1.0.0:_ZN5caffe34LRNParameter_NormRegion_descriptorEv
libcaffe.so.1.0.0:_ZN5caffe34PoolingParameter_Engine_descriptorEv
libcaffe.so.1.0.0:_ZN5caffe34SPPParameter_PoolMethod_descriptorEv
libcaffe.so.1.0.0:_ZN5caffe34SigmoidParameter_Engine_descriptorEv
libcaffe.so.1.0.0:_ZN5caffe34SoftmaxParameter_Engine_descriptorEv
libcaffe.so.1.0.0:_ZN5caffe34SolverParameter_SolverMode_IsValidEi
libcaffe.so.1.0.0:_ZN5caffe34SolverParameter_SolverType_IsValidEi
libcaffe.so.1.0.0:_ZN5caffe34V1LayerParameter_LayerType_IsValidEi
libcaffe.so.1.0.0:_ZN5caffe35ConvolutionParameter_Engine_IsValidEi
libcaffe.so.1.0.0:_ZN5caffe35PoolingParameter_PoolMethod_IsValidEi
libcaffe.so.1.0.0:_ZN5caffe35V0LayerParameter_PoolMethod_IsValidEi
libcaffe.so.1.0.0:_ZN5caffe36FillerParameter_VarianceNorm_IsValidEi
libcaffe.so.1.0.0:_ZN5caffe37EltwiseParameter_EltwiseOp_descriptorEv
libcaffe.so.1.0.0:_ZN5caffe37SolverParameter_SolverMode_descriptorEv
libcaffe.so.1.0.0:_ZN5caffe37SolverParameter_SolverType_descriptorEv
libcaffe.so.1.0.0:_ZN5caffe37V1LayerParameter_DimCheckMode_IsValidEi
libcaffe.so.1.0.0:_ZN5caffe37V1LayerParameter_LayerType_descriptorEv
libcaffe.so.1.0.0:_ZN5caffe38ConvolutionParameter_Engine_descriptorEv
libcaffe.so.1.0.0:_ZN5caffe38PoolingParameter_PoolMethod_descriptorEv
libcaffe.so.1.0.0:_ZN5caffe38ReductionParameter_ReductionOp_IsValidEi
libcaffe.so.1.0.0:_ZN5caffe38SolverParameter_SnapshotFormat_IsValidEi
libcaffe.so.1.0.0:_ZN5caffe38V0LayerParameter_PoolMethod_descriptorEv
libcaffe.so.1.0.0:_ZN5caffe39FillerParameter_VarianceNorm_descriptorEv
libcaffe.so.1.0.0:_ZN5caffe39LossParameter_NormalizationMode_IsValidEi
libcaffe.so.1.0.0:_ZN5caffe40V1LayerParameter_DimCheckMode_descriptorEv
libcaffe.so.1.0.0:_ZN5caffe41ReductionParameter_ReductionOp_descriptorEv
libcaffe.so.1.0.0:_ZN5caffe41SolverParameter_SnapshotFormat_descriptorEv
libcaffe.so.1.0.0:_ZN5caffe42LossParameter_NormalizationMode_descriptorEv
libcaffe.so.1.0.0:_ZN5caffe4BlobIiE10scale_dataEi
libcaffe.so.1.0.0:_ZN5caffe4BlobIiE10scale_diffEi
libcaffe.so.1.0.0:_ZN5caffe4BlobIiE6UpdateEv
libcaffe.so.1.0.0:_ZN5caffe4BlobIjE10scale_dataEj
libcaffe.so.1.0.0:_ZN5caffe4BlobIjE10scale_diffEj
libcaffe.so.1.0.0:_ZN5caffe4BlobIjE6UpdateEv
libcaffe.so.1.0.0:_ZN5caffe5Caffe10FindDeviceEi
libcaffe.so.1.0.0:_ZN5caffe5Caffe11CheckDeviceEi
libcaffe.so.1.0.0:_ZN5caffe5Caffe11DeviceQueryEv
libcaffe.so.1.0.0:_ZN5caffe5Caffe15set_random_seedEj
libcaffe.so.1.0.0:_ZN5caffe5Caffe3GetEv
libcaffe.so.1.0.0:_ZN5caffe5Caffe3RNG9generatorEv
libcaffe.so.1.0.0:_ZN5caffe5Caffe3RNGC1Ej
libcaffe.so.1.0.0:_ZN5caffe5Caffe3RNGC1Ev
libcaffe.so.1.0.0:_ZN5caffe5Caffe3RNGC2Ej
libcaffe.so.1.0.0:_ZN5caffe5Caffe3RNGC2Ev
libcaffe.so.1.0.0:_ZN5caffe5Caffe3RNGaSERKS1_
libcaffe.so.1.0.0:_ZN5caffe5Caffe9SetDeviceEi
libcaffe.so.1.0.0:_ZN5caffe5CaffeC1Ev
libcaffe.so.1.0.0:_ZN5caffe5CaffeC2Ev
libcaffe.so.1.0.0:_ZN5caffe5CaffeD1Ev
libcaffe.so.1.0.0:_ZN5caffe5CaffeD2Ev
libcaffe.so.1.0.0:_ZN5caffe5Datum10SharedCtorEv
libcaffe.so.1.0.0:_ZN5caffe5Datum10SharedDtorEv
libcaffe.so.1.0.0:_ZN5caffe5Datum10descriptorEv
libcaffe.so.1.0.0:_ZN5caffe5Datum12InternalSwapEPS0_
libcaffe.so.1.0.0:_ZN5caffe5Datum16default_instanceEv
libcaffe.so.1.0.0:_ZN5caffe5Datum21InitAsDefaultInstanceEv
libcaffe.so.1.0.0:_ZN5caffe5Datum27MergePartialFromCodedStreamEPN6google8protobuf2io16CodedInputStreamE
libcaffe.so.1.0.0:_ZN5caffe5Datum4SwapEPS0_
libcaffe.so.1.0.0:_ZN5caffe5Datum5ClearEv
libcaffe.so.1.0.0:_ZN5caffe5Datum8CopyFromERKN6google8protobuf7MessageE
libcaffe.so.1.0.0:_ZN5caffe5Datum8CopyFromERKS0_
libcaffe.so.1.0.0:_ZN5caffe5Datum9MergeFromERKN6google8protobuf7MessageE
libcaffe.so.1.0.0:_ZN5caffe5Datum9MergeFromERKS0_
libcaffe.so.1.0.0:_ZN5caffe5DatumC1ERKS0_
libcaffe.so.1.0.0:_ZN5caffe5DatumC1Ev
libcaffe.so.1.0.0:_ZN5caffe5DatumC2ERKS0_
libcaffe.so.1.0.0:_ZN5caffe5DatumC2Ev
libcaffe.so.1.0.0:_ZN5caffe5DatumD0Ev
libcaffe.so.1.0.0:_ZN5caffe5DatumD1Ev
libcaffe.so.1.0.0:_ZN5caffe5DatumD2Ev
libcaffe.so.1.0.0:_ZN5caffe5Timer12MicroSecondsEv
libcaffe.so.1.0.0:_ZN5caffe5Timer12MilliSecondsEv
libcaffe.so.1.0.0:_ZN5caffe5Timer4InitEv
libcaffe.so.1.0.0:_ZN5caffe5Timer4StopEv
libcaffe.so.1.0.0:_ZN5caffe5Timer5StartEv
libcaffe.so.1.0.0:_ZN5caffe5Timer7SecondsEv
libcaffe.so.1.0.0:_ZN5caffe5TimerC1Ev
libcaffe.so.1.0.0:_ZN5caffe5TimerC2Ev
libcaffe.so.1.0.0:_ZN5caffe5TimerD0Ev
libcaffe.so.1.0.0:_ZN5caffe5TimerD1Ev
libcaffe.so.1.0.0:_ZN5caffe5TimerD2Ev
libcaffe.so.1.0.0:_ZN5caffe8CPUTimer12MicroSecondsEv
libcaffe.so.1.0.0:_ZN5caffe8CPUTimer12MilliSecondsEv
libcaffe.so.1.0.0:_ZN5caffe8CPUTimer4StopEv
libcaffe.so.1.0.0:_ZN5caffe8CPUTimer5StartEv
libcaffe.so.1.0.0:_ZN5caffe8CPUTimerC1Ev
libcaffe.so.1.0.0:_ZN5caffe8CPUTimerC2Ev
libcaffe.so.1.0.0:_ZN5caffe8NetState10SharedCtorEv
libcaffe.so.1.0.0:_ZN5caffe8NetState10SharedDtorEv
libcaffe.so.1.0.0:_ZN5caffe8NetState10descriptorEv
libcaffe.so.1.0.0:_ZN5caffe8NetState12InternalSwapEPS0_
libcaffe.so.1.0.0:_ZN5caffe8NetState16default_instanceEv
libcaffe.so.1.0.0:_ZN5caffe8NetState21InitAsDefaultInstanceEv
libcaffe.so.1.0.0:_ZN5caffe8NetState27MergePartialFromCodedStreamEPN6google8protobuf2io16CodedInputStreamE
libcaffe.so.1.0.0:_ZN5caffe8NetState4SwapEPS0_
libcaffe.so.1.0.0:_ZN5caffe8NetState5ClearEv
libcaffe.so.1.0.0:_ZN5caffe8NetState8CopyFromERKN6google8protobuf7MessageE
libcaffe.so.1.0.0:_ZN5caffe8NetState8CopyFromERKS0_
libcaffe.so.1.0.0:_ZN5caffe8NetState9MergeFromERKN6google8protobuf7MessageE
libcaffe.so.1.0.0:_ZN5caffe8NetState9MergeFromERKS0_
libcaffe.so.1.0.0:_ZN5caffe8NetStateC1ERKS0_
libcaffe.so.1.0.0:_ZN5caffe8NetStateC1Ev
libcaffe.so.1.0.0:_ZN5caffe8NetStateC2ERKS0_
libcaffe.so.1.0.0:_ZN5caffe8NetStateC2Ev
libcaffe.so.1.0.0:_ZN5caffe8NetStateD0Ev
libcaffe.so.1.0.0:_ZN5caffe8NetStateD1Ev
libcaffe.so.1.0.0:_ZN5caffe8NetStateD2Ev
libcaffe.so.1.0.0:_ZN5caffe9BlobProto10SharedCtorEv
libcaffe.so.1.0.0:_ZN5caffe9BlobProto10SharedDtorEv
libcaffe.so.1.0.0:_ZN5caffe9BlobProto10descriptorEv
libcaffe.so.1.0.0:_ZN5caffe9BlobProto12InternalSwapEPS0_
libcaffe.so.1.0.0:_ZN5caffe9BlobProto16default_instanceEv
libcaffe.so.1.0.0:_ZN5caffe9BlobProto21InitAsDefaultInstanceEv
libcaffe.so.1.0.0:_ZN5caffe9BlobProto27MergePartialFromCodedStreamEPN6google8protobuf2io16CodedInputStreamE
libcaffe.so.1.0.0:_ZN5caffe9BlobProto4SwapEPS0_
libcaffe.so.1.0.0:_ZN5caffe9BlobProto5ClearEv
libcaffe.so.1.0.0:_ZN5caffe9BlobProto8CopyFromERKN6google8protobuf7MessageE
libcaffe.so.1.0.0:_ZN5caffe9BlobProto8CopyFromERKS0_
libcaffe.so.1.0.0:_ZN5caffe9BlobProto9MergeFromERKN6google8protobuf7MessageE
libcaffe.so.1.0.0:_ZN5caffe9BlobProto9MergeFromERKS0_
libcaffe.so.1.0.0:_ZN5caffe9BlobProtoC1ERKS0_
libcaffe.so.1.0.0:_ZN5caffe9BlobProtoC1Ev
libcaffe.so.1.0.0:_ZN5caffe9BlobProtoC2ERKS0_
libcaffe.so.1.0.0:_ZN5caffe9BlobProtoC2Ev
libcaffe.so.1.0.0:_ZN5caffe9BlobProtoD0Ev
libcaffe.so.1.0.0:_ZN5caffe9BlobProtoD1Ev
libcaffe.so.1.0.0:_ZN5caffe9BlobProtoD2Ev
libcaffe.so.1.0.0:_ZN5caffe9BlobShape10SharedCtorEv
libcaffe.so.1.0.0:_ZN5caffe9BlobShape10SharedDtorEv
libcaffe.so.1.0.0:_ZN5caffe9BlobShape10descriptorEv
libcaffe.so.1.0.0:_ZN5caffe9BlobShape12InternalSwapEPS0_
libcaffe.so.1.0.0:_ZN5caffe9BlobShape16default_instanceEv
libcaffe.so.1.0.0:_ZN5caffe9BlobShape21InitAsDefaultInstanceEv
libcaffe.so.1.0.0:_ZN5caffe9BlobShape27MergePartialFromCodedStreamEPN6google8protobuf2io16CodedInputStreamE
libcaffe.so.1.0.0:_ZN5caffe9BlobShape4SwapEPS0_
libcaffe.so.1.0.0:_ZN5caffe9BlobShape5ClearEv
libcaffe.so.1.0.0:_ZN5caffe9BlobShape8CopyFromERKN6google8protobuf7MessageE
libcaffe.so.1.0.0:_ZN5caffe9BlobShape8CopyFromERKS0_
libcaffe.so.1.0.0:_ZN5caffe9BlobShape9MergeFromERKN6google8protobuf7MessageE
libcaffe.so.1.0.0:_ZN5caffe9BlobShape9MergeFromERKS0_
libcaffe.so.1.0.0:_ZN5caffe9BlobShapeC1ERKS0_
libcaffe.so.1.0.0:_ZN5caffe9BlobShapeC1Ev
libcaffe.so.1.0.0:_ZN5caffe9BlobShapeC2ERKS0_
libcaffe.so.1.0.0:_ZN5caffe9BlobShapeC2Ev
libcaffe.so.1.0.0:_ZN5caffe9BlobShapeD0Ev
libcaffe.so.1.0.0:_ZN5caffe9BlobShapeD1Ev
libcaffe.so.1.0.0:_ZN5caffe9BlobShapeD2Ev
libcaffe.so.1.0.0:_ZN5caffe9ParamSpec10SharedCtorEv
libcaffe.so.1.0.0:_ZN5caffe9ParamSpec10SharedDtorEv
libcaffe.so.1.0.0:_ZN5caffe9ParamSpec10descriptorEv
libcaffe.so.1.0.0:_ZN5caffe9ParamSpec12InternalSwapEPS0_
libcaffe.so.1.0.0:_ZN5caffe9ParamSpec16default_instanceEv
libcaffe.so.1.0.0:_ZN5caffe9ParamSpec21InitAsDefaultInstanceEv
libcaffe.so.1.0.0:_ZN5caffe9ParamSpec27MergePartialFromCodedStreamEPN6google8protobuf2io16CodedInputStreamE
libcaffe.so.1.0.0:_ZN5caffe9ParamSpec4SwapEPS0_
libcaffe.so.1.0.0:_ZN5caffe9ParamSpec5ClearEv
libcaffe.so.1.0.0:_ZN5caffe9ParamSpec8CopyFromERKN6google8protobuf7MessageE
libcaffe.so.1.0.0:_ZN5caffe9ParamSpec8CopyFromERKS0_
libcaffe.so.1.0.0:_ZN5caffe9ParamSpec9MergeFromERKN6google8protobuf7MessageE
libcaffe.so.1.0.0:_ZN5caffe9ParamSpec9MergeFromERKS0_
libcaffe.so.1.0.0:_ZN5caffe9ParamSpecC1ERKS0_
libcaffe.so.1.0.0:_ZN5caffe9ParamSpecC1Ev
libcaffe.so.1.0.0:_ZN5caffe9ParamSpecC2ERKS0_
libcaffe.so.1.0.0:_ZN5caffe9ParamSpecC2Ev
libcaffe.so.1.0.0:_ZN5caffe9ParamSpecD0Ev
libcaffe.so.1.0.0:_ZN5caffe9ParamSpecD1Ev
libcaffe.so.1.0.0:_ZN5caffe9ParamSpecD2Ev
libcaffe.so.1.0.0:_ZN5caffe9caffe_absIdEEviPKT_PS1_
libcaffe.so.1.0.0:_ZN5caffe9caffe_absIfEEviPKT_PS1_
libcaffe.so.1.0.0:_ZN5caffe9caffe_addIdEEviPKT_S3_PS1_
libcaffe.so.1.0.0:_ZN5caffe9caffe_addIfEEviPKT_S3_PS1_
libcaffe.so.1.0.0:_ZN5caffe9caffe_divIdEEviPKT_S3_PS1_
libcaffe.so.1.0.0:_ZN5caffe9caffe_divIfEEviPKT_S3_PS1_
libcaffe.so.1.0.0:_ZN5caffe9caffe_expIdEEviPKT_PS1_
libcaffe.so.1.0.0:_ZN5caffe9caffe_expIfEEviPKT_PS1_
libcaffe.so.1.0.0:_ZN5caffe9caffe_logIdEEviPKT_PS1_
libcaffe.so.1.0.0:_ZN5caffe9caffe_logIfEEviPKT_PS1_
libcaffe.so.1.0.0:_ZN5caffe9caffe_mulIdEEviPKT_S3_PS1_
libcaffe.so.1.0.0:_ZN5caffe9caffe_mulIfEEviPKT_S3_PS1_
libcaffe.so.1.0.0:_ZN5caffe9caffe_sqrIdEEviPKT_PS1_
libcaffe.so.1.0.0:_ZN5caffe9caffe_sqrIfEEviPKT_PS1_
libcaffe.so.1.0.0:_ZN5caffe9caffe_subIdEEviPKT_S3_PS1_
libcaffe.so.1.0.0:_ZN5caffe9caffe_subIfEEviPKT_S3_PS1_
libcaffe.so.1.0.0:_ZNK5caffe11SolverState11GetMetadataEv
libcaffe.so.1.0.0:_ZNK5caffe11SolverState12ByteSizeLongEv
libcaffe.so.1.0.0:_ZNK5caffe11SolverState13IsInitializedEv
libcaffe.so.1.0.0:_ZNK5caffe11SolverState13SetCachedSizeEi
libcaffe.so.1.0.0:_ZNK5caffe11SolverState24SerializeWithCachedSizesEPN6google8protobuf2io17CodedOutputStreamE
libcaffe.so.1.0.0:_ZNK5caffe11SolverState39InternalSerializeWithCachedSizesToArrayEbPh
libcaffe.so.1.0.0:_ZNK5caffe11SolverState3NewEPN6google8protobuf5ArenaE
libcaffe.so.1.0.0:_ZNK5caffe12ELUParameter11GetMetadataEv
libcaffe.so.1.0.0:_ZNK5caffe12ELUParameter12ByteSizeLongEv
libcaffe.so.1.0.0:_ZNK5caffe12ELUParameter13IsInitializedEv
libcaffe.so.1.0.0:_ZNK5caffe12ELUParameter13SetCachedSizeEi
libcaffe.so.1.0.0:_ZNK5caffe12ELUParameter24SerializeWithCachedSizesEPN6google8protobuf2io17CodedOutputStreamE
libcaffe.so.1.0.0:_ZNK5caffe12ELUParameter39InternalSerializeWithCachedSizesToArrayEbPh
libcaffe.so.1.0.0:_ZNK5caffe12ELUParameter3NewEPN6google8protobuf5ArenaE
libcaffe.so.1.0.0:_ZNK5caffe12ExpParameter11GetMetadataEv
libcaffe.so.1.0.0:_ZNK5caffe12ExpParameter12ByteSizeLongEv
libcaffe.so.1.0.0:_ZNK5caffe12ExpParameter13IsInitializedEv
libcaffe.so.1.0.0:_ZNK5caffe12ExpParameter13SetCachedSizeEi
libcaffe.so.1.0.0:_ZNK5caffe12ExpParameter24SerializeWithCachedSizesEPN6google8protobuf2io17CodedOutputStreamE
libcaffe.so.1.0.0:_ZNK5caffe12ExpParameter39InternalSerializeWithCachedSizesToArrayEbPh
libcaffe.so.1.0.0:_ZNK5caffe12ExpParameter3NewEPN6google8protobuf5ArenaE
libcaffe.so.1.0.0:_ZNK5caffe12LRNParameter11GetMetadataEv
libcaffe.so.1.0.0:_ZNK5caffe12LRNParameter12ByteSizeLongEv
libcaffe.so.1.0.0:_ZNK5caffe12LRNParameter13IsInitializedEv
libcaffe.so.1.0.0:_ZNK5caffe12LRNParameter13SetCachedSizeEi
libcaffe.so.1.0.0:_ZNK5caffe12LRNParameter24SerializeWithCachedSizesEPN6google8protobuf2io17CodedOutputStreamE
libcaffe.so.1.0.0:_ZNK5caffe12LRNParameter39InternalSerializeWithCachedSizesToArrayEbPh
libcaffe.so.1.0.0:_ZNK5caffe12LRNParameter3NewEPN6google8protobuf5ArenaE
libcaffe.so.1.0.0:_ZNK5caffe12LogParameter11GetMetadataEv
libcaffe.so.1.0.0:_ZNK5caffe12LogParameter12ByteSizeLongEv
libcaffe.so.1.0.0:_ZNK5caffe12LogParameter13IsInitializedEv
libcaffe.so.1.0.0:_ZNK5caffe12LogParameter13SetCachedSizeEi
libcaffe.so.1.0.0:_ZNK5caffe12LogParameter24SerializeWithCachedSizesEPN6google8protobuf2io17CodedOutputStreamE
libcaffe.so.1.0.0:_ZNK5caffe12LogParameter39InternalSerializeWithCachedSizesToArrayEbPh
libcaffe.so.1.0.0:_ZNK5caffe12LogParameter3NewEPN6google8protobuf5ArenaE
libcaffe.so.1.0.0:_ZNK5caffe12MVNParameter11GetMetadataEv
libcaffe.so.1.0.0:_ZNK5caffe12MVNParameter12ByteSizeLongEv
libcaffe.so.1.0.0:_ZNK5caffe12MVNParameter13IsInitializedEv
libcaffe.so.1.0.0:_ZNK5caffe12MVNParameter13SetCachedSizeEi
libcaffe.so.1.0.0:_ZNK5caffe12MVNParameter24SerializeWithCachedSizesEPN6google8protobuf2io17CodedOutputStreamE
libcaffe.so.1.0.0:_ZNK5caffe12MVNParameter39InternalSerializeWithCachedSizesToArrayEbPh
libcaffe.so.1.0.0:_ZNK5caffe12MVNParameter3NewEPN6google8protobuf5ArenaE
libcaffe.so.1.0.0:_ZNK5caffe12NetParameter11GetMetadataEv
libcaffe.so.1.0.0:_ZNK5caffe12NetParameter12ByteSizeLongEv
libcaffe.so.1.0.0:_ZNK5caffe12NetParameter13IsInitializedEv
libcaffe.so.1.0.0:_ZNK5caffe12NetParameter13SetCachedSizeEi
libcaffe.so.1.0.0:_ZNK5caffe12NetParameter24SerializeWithCachedSizesEPN6google8protobuf2io17CodedOutputStreamE
libcaffe.so.1.0.0:_ZNK5caffe12NetParameter39InternalSerializeWithCachedSizesToArrayEbPh
libcaffe.so.1.0.0:_ZNK5caffe12NetParameter3NewEPN6google8protobuf5ArenaE
libcaffe.so.1.0.0:_ZNK5caffe12NetStateRule11GetMetadataEv
libcaffe.so.1.0.0:_ZNK5caffe12NetStateRule12ByteSizeLongEv
libcaffe.so.1.0.0:_ZNK5caffe12NetStateRule13IsInitializedEv
libcaffe.so.1.0.0:_ZNK5caffe12NetStateRule13SetCachedSizeEi
libcaffe.so.1.0.0:_ZNK5caffe12NetStateRule24SerializeWithCachedSizesEPN6google8protobuf2io17CodedOutputStreamE
libcaffe.so.1.0.0:_ZNK5caffe12NetStateRule39InternalSerializeWithCachedSizesToArrayEbPh
libcaffe.so.1.0.0:_ZNK5caffe12NetStateRule3NewEPN6google8protobuf5ArenaE
libcaffe.so.1.0.0:_ZNK5caffe12SPPParameter11GetMetadataEv
libcaffe.so.1.0.0:_ZNK5caffe12SPPParameter12ByteSizeLongEv
libcaffe.so.1.0.0:_ZNK5caffe12SPPParameter13IsInitializedEv
libcaffe.so.1.0.0:_ZNK5caffe12SPPParameter13SetCachedSizeEi
libcaffe.so.1.0.0:_ZNK5caffe12SPPParameter24SerializeWithCachedSizesEPN6google8protobuf2io17CodedOutputStreamE
libcaffe.so.1.0.0:_ZNK5caffe12SPPParameter39InternalSerializeWithCachedSizesToArrayEbPh
libcaffe.so.1.0.0:_ZNK5caffe12SPPParameter3NewEPN6google8protobuf5ArenaE
libcaffe.so.1.0.0:_ZNK5caffe13BiasParameter11GetMetadataEv
libcaffe.so.1.0.0:_ZNK5caffe13BiasParameter12ByteSizeLongEv
libcaffe.so.1.0.0:_ZNK5caffe13BiasParameter13IsInitializedEv
libcaffe.so.1.0.0:_ZNK5caffe13BiasParameter13SetCachedSizeEi
libcaffe.so.1.0.0:_ZNK5caffe13BiasParameter24SerializeWithCachedSizesEPN6google8protobuf2io17CodedOutputStreamE
libcaffe.so.1.0.0:_ZNK5caffe13BiasParameter39InternalSerializeWithCachedSizesToArrayEbPh
libcaffe.so.1.0.0:_ZNK5caffe13BiasParameter3NewEPN6google8protobuf5ArenaE
libcaffe.so.1.0.0:_ZNK5caffe13CropParameter11GetMetadataEv
libcaffe.so.1.0.0:_ZNK5caffe13CropParameter12ByteSizeLongEv
libcaffe.so.1.0.0:_ZNK5caffe13CropParameter13IsInitializedEv
libcaffe.so.1.0.0:_ZNK5caffe13CropParameter13SetCachedSizeEi
libcaffe.so.1.0.0:_ZNK5caffe13CropParameter24SerializeWithCachedSizesEPN6google8protobuf2io17CodedOutputStreamE
libcaffe.so.1.0.0:_ZNK5caffe13CropParameter39InternalSerializeWithCachedSizesToArrayEbPh
libcaffe.so.1.0.0:_ZNK5caffe13CropParameter3NewEPN6google8protobuf5ArenaE
libcaffe.so.1.0.0:_ZNK5caffe13DataParameter11GetMetadataEv
libcaffe.so.1.0.0:_ZNK5caffe13DataParameter12ByteSizeLongEv
libcaffe.so.1.0.0:_ZNK5caffe13DataParameter13IsInitializedEv
libcaffe.so.1.0.0:_ZNK5caffe13DataParameter13SetCachedSizeEi
libcaffe.so.1.0.0:_ZNK5caffe13DataParameter24SerializeWithCachedSizesEPN6google8protobuf2io17CodedOutputStreamE
libcaffe.so.1.0.0:_ZNK5caffe13DataParameter39InternalSerializeWithCachedSizesToArrayEbPh
libcaffe.so.1.0.0:_ZNK5caffe13DataParameter3NewEPN6google8protobuf5ArenaE
libcaffe.so.1.0.0:_ZNK5caffe13LossParameter11GetMetadataEv
libcaffe.so.1.0.0:_ZNK5caffe13LossParameter12ByteSizeLongEv
libcaffe.so.1.0.0:_ZNK5caffe13LossParameter13IsInitializedEv
libcaffe.so.1.0.0:_ZNK5caffe13LossParameter13SetCachedSizeEi
libcaffe.so.1.0.0:_ZNK5caffe13LossParameter24SerializeWithCachedSizesEPN6google8protobuf2io17CodedOutputStreamE
libcaffe.so.1.0.0:_ZNK5caffe13LossParameter39InternalSerializeWithCachedSizesToArrayEbPh
libcaffe.so.1.0.0:_ZNK5caffe13LossParameter3NewEPN6google8protobuf5ArenaE
libcaffe.so.1.0.0:_ZNK5caffe13ReLUParameter11GetMetadataEv
libcaffe.so.1.0.0:_ZNK5caffe13ReLUParameter12ByteSizeLongEv
libcaffe.so.1.0.0:_ZNK5caffe13ReLUParameter13IsInitializedEv
libcaffe.so.1.0.0:_ZNK5caffe13ReLUParameter13SetCachedSizeEi
libcaffe.so.1.0.0:_ZNK5caffe13ReLUParameter24SerializeWithCachedSizesEPN6google8protobuf2io17CodedOutputStreamE
libcaffe.so.1.0.0:_ZNK5caffe13ReLUParameter39InternalSerializeWithCachedSizesToArrayEbPh
libcaffe.so.1.0.0:_ZNK5caffe13ReLUParameter3NewEPN6google8protobuf5ArenaE
libcaffe.so.1.0.0:_ZNK5caffe13SignalHandler15CheckForSignalsEv
libcaffe.so.1.0.0:_ZNK5caffe13TanHParameter11GetMetadataEv
libcaffe.so.1.0.0:_ZNK5caffe13TanHParameter12ByteSizeLongEv
libcaffe.so.1.0.0:_ZNK5caffe13TanHParameter13IsInitializedEv
libcaffe.so.1.0.0:_ZNK5caffe13TanHParameter13SetCachedSizeEi
libcaffe.so.1.0.0:_ZNK5caffe13TanHParameter24SerializeWithCachedSizesEPN6google8protobuf2io17CodedOutputStreamE
libcaffe.so.1.0.0:_ZNK5caffe13TanHParameter39InternalSerializeWithCachedSizesToArrayEbPh
libcaffe.so.1.0.0:_ZNK5caffe13TanHParameter3NewEPN6google8protobuf5ArenaE
libcaffe.so.1.0.0:_ZNK5caffe13TileParameter11GetMetadataEv
libcaffe.so.1.0.0:_ZNK5caffe13TileParameter12ByteSizeLongEv
libcaffe.so.1.0.0:_ZNK5caffe13TileParameter13IsInitializedEv
libcaffe.so.1.0.0:_ZNK5caffe13TileParameter13SetCachedSizeEi
libcaffe.so.1.0.0:_ZNK5caffe13TileParameter24SerializeWithCachedSizesEPN6google8protobuf2io17CodedOutputStreamE
libcaffe.so.1.0.0:_ZNK5caffe13TileParameter39InternalSerializeWithCachedSizesToArrayEbPh
libcaffe.so.1.0.0:_ZNK5caffe13TileParameter3NewEPN6google8protobuf5ArenaE
libcaffe.so.1.0.0:_ZNK5caffe14EmbedParameter11GetMetadataEv
libcaffe.so.1.0.0:_ZNK5caffe14EmbedParameter12ByteSizeLongEv
libcaffe.so.1.0.0:_ZNK5caffe14EmbedParameter13IsInitializedEv
libcaffe.so.1.0.0:_ZNK5caffe14EmbedParameter13SetCachedSizeEi
libcaffe.so.1.0.0:_ZNK5caffe14EmbedParameter24SerializeWithCachedSizesEPN6google8protobuf2io17CodedOutputStreamE
libcaffe.so.1.0.0:_ZNK5caffe14EmbedParameter39InternalSerializeWithCachedSizesToArrayEbPh
libcaffe.so.1.0.0:_ZNK5caffe14EmbedParameter3NewEPN6google8protobuf5ArenaE
libcaffe.so.1.0.0:_ZNK5caffe14InputParameter11GetMetadataEv
libcaffe.so.1.0.0:_ZNK5caffe14InputParameter12ByteSizeLongEv
libcaffe.so.1.0.0:_ZNK5caffe14InputParameter13IsInitializedEv
libcaffe.so.1.0.0:_ZNK5caffe14InputParameter13SetCachedSizeEi
libcaffe.so.1.0.0:_ZNK5caffe14InputParameter24SerializeWithCachedSizesEPN6google8protobuf2io17CodedOutputStreamE
libcaffe.so.1.0.0:_ZNK5caffe14InputParameter39InternalSerializeWithCachedSizesToArrayEbPh
libcaffe.so.1.0.0:_ZNK5caffe14InputParameter3NewEPN6google8protobuf5ArenaE
libcaffe.so.1.0.0:_ZNK5caffe14InternalThread10is_startedEv
libcaffe.so.1.0.0:_ZNK5caffe14LayerParameter11GetMetadataEv
libcaffe.so.1.0.0:_ZNK5caffe14LayerParameter12ByteSizeLongEv
libcaffe.so.1.0.0:_ZNK5caffe14LayerParameter13IsInitializedEv
libcaffe.so.1.0.0:_ZNK5caffe14LayerParameter13SetCachedSizeEi
libcaffe.so.1.0.0:_ZNK5caffe14LayerParameter24SerializeWithCachedSizesEPN6google8protobuf2io17CodedOutputStreamE
libcaffe.so.1.0.0:_ZNK5caffe14LayerParameter39InternalSerializeWithCachedSizesToArrayEbPh
libcaffe.so.1.0.0:_ZNK5caffe14LayerParameter3NewEPN6google8protobuf5ArenaE
libcaffe.so.1.0.0:_ZNK5caffe14PReLUParameter11GetMetadataEv
libcaffe.so.1.0.0:_ZNK5caffe14PReLUParameter12ByteSizeLongEv
libcaffe.so.1.0.0:_ZNK5caffe14PReLUParameter13IsInitializedEv
libcaffe.so.1.0.0:_ZNK5caffe14PReLUParameter13SetCachedSizeEi
libcaffe.so.1.0.0:_ZNK5caffe14PReLUParameter24SerializeWithCachedSizesEPN6google8protobuf2io17CodedOutputStreamE
libcaffe.so.1.0.0:_ZNK5caffe14PReLUParameter39InternalSerializeWithCachedSizesToArrayEbPh
libcaffe.so.1.0.0:_ZNK5caffe14PReLUParameter3NewEPN6google8protobuf5ArenaE
libcaffe.so.1.0.0:_ZNK5caffe14PowerParameter11GetMetadataEv
libcaffe.so.1.0.0:_ZNK5caffe14PowerParameter12ByteSizeLongEv
libcaffe.so.1.0.0:_ZNK5caffe14PowerParameter13IsInitializedEv
libcaffe.so.1.0.0:_ZNK5caffe14PowerParameter13SetCachedSizeEi
libcaffe.so.1.0.0:_ZNK5caffe14PowerParameter24SerializeWithCachedSizesEPN6google8protobuf2io17CodedOutputStreamE
libcaffe.so.1.0.0:_ZNK5caffe14PowerParameter39InternalSerializeWithCachedSizesToArrayEbPh
libcaffe.so.1.0.0:_ZNK5caffe14PowerParameter3NewEPN6google8protobuf5ArenaE
libcaffe.so.1.0.0:_ZNK5caffe14ScaleParameter11GetMetadataEv
libcaffe.so.1.0.0:_ZNK5caffe14ScaleParameter12ByteSizeLongEv
libcaffe.so.1.0.0:_ZNK5caffe14ScaleParameter13IsInitializedEv
libcaffe.so.1.0.0:_ZNK5caffe14ScaleParameter13SetCachedSizeEi
libcaffe.so.1.0.0:_ZNK5caffe14ScaleParameter24SerializeWithCachedSizesEPN6google8protobuf2io17CodedOutputStreamE
libcaffe.so.1.0.0:_ZNK5caffe14ScaleParameter39InternalSerializeWithCachedSizesToArrayEbPh
libcaffe.so.1.0.0:_ZNK5caffe14ScaleParameter3NewEPN6google8protobuf5ArenaE
libcaffe.so.1.0.0:_ZNK5caffe14SliceParameter11GetMetadataEv
libcaffe.so.1.0.0:_ZNK5caffe14SliceParameter12ByteSizeLongEv
libcaffe.so.1.0.0:_ZNK5caffe14SliceParameter13IsInitializedEv
libcaffe.so.1.0.0:_ZNK5caffe14SliceParameter13SetCachedSizeEi
libcaffe.so.1.0.0:_ZNK5caffe14SliceParameter24SerializeWithCachedSizesEPN6google8protobuf2io17CodedOutputStreamE
libcaffe.so.1.0.0:_ZNK5caffe14SliceParameter39InternalSerializeWithCachedSizesToArrayEbPh
libcaffe.so.1.0.0:_ZNK5caffe14SliceParameter3NewEPN6google8protobuf5ArenaE
libcaffe.so.1.0.0:_ZNK5caffe15ArgMaxParameter11GetMetadataEv
libcaffe.so.1.0.0:_ZNK5caffe15ArgMaxParameter12ByteSizeLongEv
libcaffe.so.1.0.0:_ZNK5caffe15ArgMaxParameter13IsInitializedEv
libcaffe.so.1.0.0:_ZNK5caffe15ArgMaxParameter13SetCachedSizeEi
libcaffe.so.1.0.0:_ZNK5caffe15ArgMaxParameter24SerializeWithCachedSizesEPN6google8protobuf2io17CodedOutputStreamE
libcaffe.so.1.0.0:_ZNK5caffe15ArgMaxParameter39InternalSerializeWithCachedSizesToArrayEbPh
libcaffe.so.1.0.0:_ZNK5caffe15ArgMaxParameter3NewEPN6google8protobuf5ArenaE
libcaffe.so.1.0.0:_ZNK5caffe15BlobProtoVector11GetMetadataEv
libcaffe.so.1.0.0:_ZNK5caffe15BlobProtoVector12ByteSizeLongEv
libcaffe.so.1.0.0:_ZNK5caffe15BlobProtoVector13IsInitializedEv
libcaffe.so.1.0.0:_ZNK5caffe15BlobProtoVector13SetCachedSizeEi
libcaffe.so.1.0.0:_ZNK5caffe15BlobProtoVector24SerializeWithCachedSizesEPN6google8protobuf2io17CodedOutputStreamE
libcaffe.so.1.0.0:_ZNK5caffe15BlobProtoVector39InternalSerializeWithCachedSizesToArrayEbPh
libcaffe.so.1.0.0:_ZNK5caffe15BlobProtoVector3NewEPN6google8protobuf5ArenaE
libcaffe.so.1.0.0:_ZNK5caffe15ConcatParameter11GetMetadataEv
libcaffe.so.1.0.0:_ZNK5caffe15ConcatParameter12ByteSizeLongEv
libcaffe.so.1.0.0:_ZNK5caffe15ConcatParameter13IsInitializedEv
libcaffe.so.1.0.0:_ZNK5caffe15ConcatParameter13SetCachedSizeEi
libcaffe.so.1.0.0:_ZNK5caffe15ConcatParameter24SerializeWithCachedSizesEPN6google8protobuf2io17CodedOutputStreamE
libcaffe.so.1.0.0:_ZNK5caffe15ConcatParameter39InternalSerializeWithCachedSizesToArrayEbPh
libcaffe.so.1.0.0:_ZNK5caffe15ConcatParameter3NewEPN6google8protobuf5ArenaE
libcaffe.so.1.0.0:_ZNK5caffe15FillerParameter11GetMetadataEv
libcaffe.so.1.0.0:_ZNK5caffe15FillerParameter12ByteSizeLongEv
libcaffe.so.1.0.0:_ZNK5caffe15FillerParameter13IsInitializedEv
libcaffe.so.1.0.0:_ZNK5caffe15FillerParameter13SetCachedSizeEi
libcaffe.so.1.0.0:_ZNK5caffe15FillerParameter24SerializeWithCachedSizesEPN6google8protobuf2io17CodedOutputStreamE
libcaffe.so.1.0.0:_ZNK5caffe15FillerParameter39InternalSerializeWithCachedSizesToArrayEbPh
libcaffe.so.1.0.0:_ZNK5caffe15FillerParameter3NewEPN6google8protobuf5ArenaE
libcaffe.so.1.0.0:_ZNK5caffe15PythonParameter11GetMetadataEv
libcaffe.so.1.0.0:_ZNK5caffe15PythonParameter12ByteSizeLongEv
libcaffe.so.1.0.0:_ZNK5caffe15PythonParameter13IsInitializedEv
libcaffe.so.1.0.0:_ZNK5caffe15PythonParameter13SetCachedSizeEi
libcaffe.so.1.0.0:_ZNK5caffe15PythonParameter24SerializeWithCachedSizesEPN6google8protobuf2io17CodedOutputStreamE
libcaffe.so.1.0.0:_ZNK5caffe15PythonParameter39InternalSerializeWithCachedSizesToArrayEbPh
libcaffe.so.1.0.0:_ZNK5caffe15PythonParameter3NewEPN6google8protobuf5ArenaE
libcaffe.so.1.0.0:_ZNK5caffe15SolverParameter11GetMetadataEv
libcaffe.so.1.0.0:_ZNK5caffe15SolverParameter12ByteSizeLongEv
libcaffe.so.1.0.0:_ZNK5caffe15SolverParameter13IsInitializedEv
libcaffe.so.1.0.0:_ZNK5caffe15SolverParameter13SetCachedSizeEi
libcaffe.so.1.0.0:_ZNK5caffe15SolverParameter24SerializeWithCachedSizesEPN6google8protobuf2io17CodedOutputStreamE
libcaffe.so.1.0.0:_ZNK5caffe15SolverParameter39InternalSerializeWithCachedSizesToArrayEbPh
libcaffe.so.1.0.0:_ZNK5caffe15SolverParameter3NewEPN6google8protobuf5ArenaE
libcaffe.so.1.0.0:_ZNK5caffe16DropoutParameter11GetMetadataEv
libcaffe.so.1.0.0:_ZNK5caffe16DropoutParameter12ByteSizeLongEv
libcaffe.so.1.0.0:_ZNK5caffe16DropoutParameter13IsInitializedEv
libcaffe.so.1.0.0:_ZNK5caffe16DropoutParameter13SetCachedSizeEi
libcaffe.so.1.0.0:_ZNK5caffe16DropoutParameter24SerializeWithCachedSizesEPN6google8protobuf2io17CodedOutputStreamE
libcaffe.so.1.0.0:_ZNK5caffe16DropoutParameter39InternalSerializeWithCachedSizesToArrayEbPh
libcaffe.so.1.0.0:_ZNK5caffe16DropoutParameter3NewEPN6google8protobuf5ArenaE
libcaffe.so.1.0.0:_ZNK5caffe16EltwiseParameter11GetMetadataEv
libcaffe.so.1.0.0:_ZNK5caffe16EltwiseParameter12ByteSizeLongEv
libcaffe.so.1.0.0:_ZNK5caffe16EltwiseParameter13IsInitializedEv
libcaffe.so.1.0.0:_ZNK5caffe16EltwiseParameter13SetCachedSizeEi
libcaffe.so.1.0.0:_ZNK5caffe16EltwiseParameter24SerializeWithCachedSizesEPN6google8protobuf2io17CodedOutputStreamE
libcaffe.so.1.0.0:_ZNK5caffe16EltwiseParameter39InternalSerializeWithCachedSizesToArrayEbPh
libcaffe.so.1.0.0:_ZNK5caffe16EltwiseParameter3NewEPN6google8protobuf5ArenaE
libcaffe.so.1.0.0:_ZNK5caffe16FlattenParameter11GetMetadataEv
libcaffe.so.1.0.0:_ZNK5caffe16FlattenParameter12ByteSizeLongEv
libcaffe.so.1.0.0:_ZNK5caffe16FlattenParameter13IsInitializedEv
libcaffe.so.1.0.0:_ZNK5caffe16FlattenParameter13SetCachedSizeEi
libcaffe.so.1.0.0:_ZNK5caffe16FlattenParameter24SerializeWithCachedSizesEPN6google8protobuf2io17CodedOutputStreamE
libcaffe.so.1.0.0:_ZNK5caffe16FlattenParameter39InternalSerializeWithCachedSizesToArrayEbPh
libcaffe.so.1.0.0:_ZNK5caffe16FlattenParameter3NewEPN6google8protobuf5ArenaE
libcaffe.so.1.0.0:_ZNK5caffe16PoolingParameter11GetMetadataEv
libcaffe.so.1.0.0:_ZNK5caffe16PoolingParameter12ByteSizeLongEv
libcaffe.so.1.0.0:_ZNK5caffe16PoolingParameter13IsInitializedEv
libcaffe.so.1.0.0:_ZNK5caffe16PoolingParameter13SetCachedSizeEi
libcaffe.so.1.0.0:_ZNK5caffe16PoolingParameter24SerializeWithCachedSizesEPN6google8protobuf2io17CodedOutputStreamE
libcaffe.so.1.0.0:_ZNK5caffe16PoolingParameter39InternalSerializeWithCachedSizesToArrayEbPh
libcaffe.so.1.0.0:_ZNK5caffe16PoolingParameter3NewEPN6google8protobuf5ArenaE
libcaffe.so.1.0.0:_ZNK5caffe16ReshapeParameter11GetMetadataEv
libcaffe.so.1.0.0:_ZNK5caffe16ReshapeParameter12ByteSizeLongEv
libcaffe.so.1.0.0:_ZNK5caffe16ReshapeParameter13IsInitializedEv
libcaffe.so.1.0.0:_ZNK5caffe16ReshapeParameter13SetCachedSizeEi
libcaffe.so.1.0.0:_ZNK5caffe16ReshapeParameter24SerializeWithCachedSizesEPN6google8protobuf2io17CodedOutputStreamE
libcaffe.so.1.0.0:_ZNK5caffe16ReshapeParameter39InternalSerializeWithCachedSizesToArrayEbPh
libcaffe.so.1.0.0:_ZNK5caffe16ReshapeParameter3NewEPN6google8protobuf5ArenaE
libcaffe.so.1.0.0:_ZNK5caffe16SigmoidParameter11GetMetadataEv
libcaffe.so.1.0.0:_ZNK5caffe16SigmoidParameter12ByteSizeLongEv
libcaffe.so.1.0.0:_ZNK5caffe16SigmoidParameter13IsInitializedEv
libcaffe.so.1.0.0:_ZNK5caffe16SigmoidParameter13SetCachedSizeEi
libcaffe.so.1.0.0:_ZNK5caffe16SigmoidParameter24SerializeWithCachedSizesEPN6google8protobuf2io17CodedOutputStreamE
libcaffe.so.1.0.0:_ZNK5caffe16SigmoidParameter39InternalSerializeWithCachedSizesToArrayEbPh
libcaffe.so.1.0.0:_ZNK5caffe16SigmoidParameter3NewEPN6google8protobuf5ArenaE
libcaffe.so.1.0.0:_ZNK5caffe16SoftmaxParameter11GetMetadataEv
libcaffe.so.1.0.0:_ZNK5caffe16SoftmaxParameter12ByteSizeLongEv
libcaffe.so.1.0.0:_ZNK5caffe16SoftmaxParameter13IsInitializedEv
libcaffe.so.1.0.0:_ZNK5caffe16SoftmaxParameter13SetCachedSizeEi
libcaffe.so.1.0.0:_ZNK5caffe16SoftmaxParameter24SerializeWithCachedSizesEPN6google8protobuf2io17CodedOutputStreamE
libcaffe.so.1.0.0:_ZNK5caffe16SoftmaxParameter39InternalSerializeWithCachedSizesToArrayEbPh
libcaffe.so.1.0.0:_ZNK5caffe16SoftmaxParameter3NewEPN6google8protobuf5ArenaE
libcaffe.so.1.0.0:_ZNK5caffe16V0LayerParameter11GetMetadataEv
libcaffe.so.1.0.0:_ZNK5caffe16V0LayerParameter12ByteSizeLongEv
libcaffe.so.1.0.0:_ZNK5caffe16V0LayerParameter13IsInitializedEv
libcaffe.so.1.0.0:_ZNK5caffe16V0LayerParameter13SetCachedSizeEi
libcaffe.so.1.0.0:_ZNK5caffe16V0LayerParameter24SerializeWithCachedSizesEPN6google8protobuf2io17CodedOutputStreamE
libcaffe.so.1.0.0:_ZNK5caffe16V0LayerParameter39InternalSerializeWithCachedSizesToArrayEbPh
libcaffe.so.1.0.0:_ZNK5caffe16V0LayerParameter3NewEPN6google8protobuf5ArenaE
libcaffe.so.1.0.0:_ZNK5caffe16V1LayerParameter11GetMetadataEv
libcaffe.so.1.0.0:_ZNK5caffe16V1LayerParameter12ByteSizeLongEv
libcaffe.so.1.0.0:_ZNK5caffe16V1LayerParameter13IsInitializedEv
libcaffe.so.1.0.0:_ZNK5caffe16V1LayerParameter13SetCachedSizeEi
libcaffe.so.1.0.0:_ZNK5caffe16V1LayerParameter24SerializeWithCachedSizesEPN6google8protobuf2io17CodedOutputStreamE
libcaffe.so.1.0.0:_ZNK5caffe16V1LayerParameter39InternalSerializeWithCachedSizesToArrayEbPh
libcaffe.so.1.0.0:_ZNK5caffe16V1LayerParameter3NewEPN6google8protobuf5ArenaE
libcaffe.so.1.0.0:_ZNK5caffe17AccuracyParameter11GetMetadataEv
libcaffe.so.1.0.0:_ZNK5caffe17AccuracyParameter12ByteSizeLongEv
libcaffe.so.1.0.0:_ZNK5caffe17AccuracyParameter13IsInitializedEv
libcaffe.so.1.0.0:_ZNK5caffe17AccuracyParameter13SetCachedSizeEi
libcaffe.so.1.0.0:_ZNK5caffe17AccuracyParameter24SerializeWithCachedSizesEPN6google8protobuf2io17CodedOutputStreamE
libcaffe.so.1.0.0:_ZNK5caffe17AccuracyParameter39InternalSerializeWithCachedSizesToArrayEbPh
libcaffe.so.1.0.0:_ZNK5caffe17AccuracyParameter3NewEPN6google8protobuf5ArenaE
libcaffe.so.1.0.0:_ZNK5caffe17HDF5DataParameter11GetMetadataEv
libcaffe.so.1.0.0:_ZNK5caffe17HDF5DataParameter12ByteSizeLongEv
libcaffe.so.1.0.0:_ZNK5caffe17HDF5DataParameter13IsInitializedEv
libcaffe.so.1.0.0:_ZNK5caffe17HDF5DataParameter13SetCachedSizeEi
libcaffe.so.1.0.0:_ZNK5caffe17HDF5DataParameter24SerializeWithCachedSizesEPN6google8protobuf2io17CodedOutputStreamE
libcaffe.so.1.0.0:_ZNK5caffe17HDF5DataParameter39InternalSerializeWithCachedSizesToArrayEbPh
libcaffe.so.1.0.0:_ZNK5caffe17HDF5DataParameter3NewEPN6google8protobuf5ArenaE
libcaffe.so.1.0.0:_ZNK5caffe18BatchNormParameter11GetMetadataEv
libcaffe.so.1.0.0:_ZNK5caffe18BatchNormParameter12ByteSizeLongEv
libcaffe.so.1.0.0:_ZNK5caffe18BatchNormParameter13IsInitializedEv
libcaffe.so.1.0.0:_ZNK5caffe18BatchNormParameter13SetCachedSizeEi
libcaffe.so.1.0.0:_ZNK5caffe18BatchNormParameter24SerializeWithCachedSizesEPN6google8protobuf2io17CodedOutputStreamE
libcaffe.so.1.0.0:_ZNK5caffe18BatchNormParameter39InternalSerializeWithCachedSizesToArrayEbPh
libcaffe.so.1.0.0:_ZNK5caffe18BatchNormParameter3NewEPN6google8protobuf5ArenaE
libcaffe.so.1.0.0:_ZNK5caffe18DummyDataParameter11GetMetadataEv
libcaffe.so.1.0.0:_ZNK5caffe18DummyDataParameter12ByteSizeLongEv
libcaffe.so.1.0.0:_ZNK5caffe18DummyDataParameter13IsInitializedEv
libcaffe.so.1.0.0:_ZNK5caffe18DummyDataParameter13SetCachedSizeEi
libcaffe.so.1.0.0:_ZNK5caffe18DummyDataParameter24SerializeWithCachedSizesEPN6google8protobuf2io17CodedOutputStreamE
libcaffe.so.1.0.0:_ZNK5caffe18DummyDataParameter39InternalSerializeWithCachedSizesToArrayEbPh
libcaffe.so.1.0.0:_ZNK5caffe18DummyDataParameter3NewEPN6google8protobuf5ArenaE
libcaffe.so.1.0.0:_ZNK5caffe18HingeLossParameter11GetMetadataEv
libcaffe.so.1.0.0:_ZNK5caffe18HingeLossParameter12ByteSizeLongEv
libcaffe.so.1.0.0:_ZNK5caffe18HingeLossParameter13IsInitializedEv
libcaffe.so.1.0.0:_ZNK5caffe18HingeLossParameter13SetCachedSizeEi
libcaffe.so.1.0.0:_ZNK5caffe18HingeLossParameter24SerializeWithCachedSizesEPN6google8protobuf2io17CodedOutputStreamE
libcaffe.so.1.0.0:_ZNK5caffe18HingeLossParameter39InternalSerializeWithCachedSizesToArrayEbPh
libcaffe.so.1.0.0:_ZNK5caffe18HingeLossParameter3NewEPN6google8protobuf5ArenaE
libcaffe.so.1.0.0:_ZNK5caffe18ImageDataParameter11GetMetadataEv
libcaffe.so.1.0.0:_ZNK5caffe18ImageDataParameter12ByteSizeLongEv
libcaffe.so.1.0.0:_ZNK5caffe18ImageDataParameter13IsInitializedEv
libcaffe.so.1.0.0:_ZNK5caffe18ImageDataParameter13SetCachedSizeEi
libcaffe.so.1.0.0:_ZNK5caffe18ImageDataParameter24SerializeWithCachedSizesEPN6google8protobuf2io17CodedOutputStreamE
libcaffe.so.1.0.0:_ZNK5caffe18ImageDataParameter39InternalSerializeWithCachedSizesToArrayEbPh
libcaffe.so.1.0.0:_ZNK5caffe18ImageDataParameter3NewEPN6google8protobuf5ArenaE
libcaffe.so.1.0.0:_ZNK5caffe18ParameterParameter11GetMetadataEv
libcaffe.so.1.0.0:_ZNK5caffe18ParameterParameter12ByteSizeLongEv
libcaffe.so.1.0.0:_ZNK5caffe18ParameterParameter13IsInitializedEv
libcaffe.so.1.0.0:_ZNK5caffe18ParameterParameter13SetCachedSizeEi
libcaffe.so.1.0.0:_ZNK5caffe18ParameterParameter24SerializeWithCachedSizesEPN6google8protobuf2io17CodedOutputStreamE
libcaffe.so.1.0.0:_ZNK5caffe18ParameterParameter39InternalSerializeWithCachedSizesToArrayEbPh
libcaffe.so.1.0.0:_ZNK5caffe18ParameterParameter3NewEPN6google8protobuf5ArenaE
libcaffe.so.1.0.0:_ZNK5caffe18RecurrentParameter11GetMetadataEv
libcaffe.so.1.0.0:_ZNK5caffe18RecurrentParameter12ByteSizeLongEv
libcaffe.so.1.0.0:_ZNK5caffe18RecurrentParameter13IsInitializedEv
libcaffe.so.1.0.0:_ZNK5caffe18RecurrentParameter13SetCachedSizeEi
libcaffe.so.1.0.0:_ZNK5caffe18RecurrentParameter24SerializeWithCachedSizesEPN6google8protobuf2io17CodedOutputStreamE
libcaffe.so.1.0.0:_ZNK5caffe18RecurrentParameter39InternalSerializeWithCachedSizesToArrayEbPh
libcaffe.so.1.0.0:_ZNK5caffe18RecurrentParameter3NewEPN6google8protobuf5ArenaE
libcaffe.so.1.0.0:_ZNK5caffe18ReductionParameter11GetMetadataEv
libcaffe.so.1.0.0:_ZNK5caffe18ReductionParameter12ByteSizeLongEv
libcaffe.so.1.0.0:_ZNK5caffe18ReductionParameter13IsInitializedEv
libcaffe.so.1.0.0:_ZNK5caffe18ReductionParameter13SetCachedSizeEi
libcaffe.so.1.0.0:_ZNK5caffe18ReductionParameter24SerializeWithCachedSizesEPN6google8protobuf2io17CodedOutputStreamE
libcaffe.so.1.0.0:_ZNK5caffe18ReductionParameter39InternalSerializeWithCachedSizesToArrayEbPh
libcaffe.so.1.0.0:_ZNK5caffe18ReductionParameter3NewEPN6google8protobuf5ArenaE
libcaffe.so.1.0.0:_ZNK5caffe18ThresholdParameter11GetMetadataEv
libcaffe.so.1.0.0:_ZNK5caffe18ThresholdParameter12ByteSizeLongEv
libcaffe.so.1.0.0:_ZNK5caffe18ThresholdParameter13IsInitializedEv
libcaffe.so.1.0.0:_ZNK5caffe18ThresholdParameter13SetCachedSizeEi
libcaffe.so.1.0.0:_ZNK5caffe18ThresholdParameter24SerializeWithCachedSizesEPN6google8protobuf2io17CodedOutputStreamE
libcaffe.so.1.0.0:_ZNK5caffe18ThresholdParameter39InternalSerializeWithCachedSizesToArrayEbPh
libcaffe.so.1.0.0:_ZNK5caffe18ThresholdParameter3NewEPN6google8protobuf5ArenaE
libcaffe.so.1.0.0:_ZNK5caffe19HDF5OutputParameter11GetMetadataEv
libcaffe.so.1.0.0:_ZNK5caffe19HDF5OutputParameter12ByteSizeLongEv
libcaffe.so.1.0.0:_ZNK5caffe19HDF5OutputParameter13IsInitializedEv
libcaffe.so.1.0.0:_ZNK5caffe19HDF5OutputParameter13SetCachedSizeEi
libcaffe.so.1.0.0:_ZNK5caffe19HDF5OutputParameter24SerializeWithCachedSizesEPN6google8protobuf2io17CodedOutputStreamE
libcaffe.so.1.0.0:_ZNK5caffe19HDF5OutputParameter39InternalSerializeWithCachedSizesToArrayEbPh
libcaffe.so.1.0.0:_ZNK5caffe19HDF5OutputParameter3NewEPN6google8protobuf5ArenaE
libcaffe.so.1.0.0:_ZNK5caffe19MemoryDataParameter11GetMetadataEv
libcaffe.so.1.0.0:_ZNK5caffe19MemoryDataParameter12ByteSizeLongEv
libcaffe.so.1.0.0:_ZNK5caffe19MemoryDataParameter13IsInitializedEv
libcaffe.so.1.0.0:_ZNK5caffe19MemoryDataParameter13SetCachedSizeEi
libcaffe.so.1.0.0:_ZNK5caffe19MemoryDataParameter24SerializeWithCachedSizesEPN6google8protobuf2io17CodedOutputStreamE
libcaffe.so.1.0.0:_ZNK5caffe19MemoryDataParameter39InternalSerializeWithCachedSizesToArrayEbPh
libcaffe.so.1.0.0:_ZNK5caffe19MemoryDataParameter3NewEPN6google8protobuf5ArenaE
libcaffe.so.1.0.0:_ZNK5caffe19WindowDataParameter11GetMetadataEv
libcaffe.so.1.0.0:_ZNK5caffe19WindowDataParameter12ByteSizeLongEv
libcaffe.so.1.0.0:_ZNK5caffe19WindowDataParameter13IsInitializedEv
libcaffe.so.1.0.0:_ZNK5caffe19WindowDataParameter13SetCachedSizeEi
libcaffe.so.1.0.0:_ZNK5caffe19WindowDataParameter24SerializeWithCachedSizesEPN6google8protobuf2io17CodedOutputStreamE
libcaffe.so.1.0.0:_ZNK5caffe19WindowDataParameter39InternalSerializeWithCachedSizesToArrayEbPh
libcaffe.so.1.0.0:_ZNK5caffe19WindowDataParameter3NewEPN6google8protobuf5ArenaE
libcaffe.so.1.0.0:_ZNK5caffe20ConvolutionParameter11GetMetadataEv
libcaffe.so.1.0.0:_ZNK5caffe20ConvolutionParameter12ByteSizeLongEv
libcaffe.so.1.0.0:_ZNK5caffe20ConvolutionParameter13IsInitializedEv
libcaffe.so.1.0.0:_ZNK5caffe20ConvolutionParameter13SetCachedSizeEi
libcaffe.so.1.0.0:_ZNK5caffe20ConvolutionParameter24SerializeWithCachedSizesEPN6google8protobuf2io17CodedOutputStreamE
libcaffe.so.1.0.0:_ZNK5caffe20ConvolutionParameter39InternalSerializeWithCachedSizesToArrayEbPh
libcaffe.so.1.0.0:_ZNK5caffe20ConvolutionParameter3NewEPN6google8protobuf5ArenaE
libcaffe.so.1.0.0:_ZNK5caffe21InfogainLossParameter11GetMetadataEv
libcaffe.so.1.0.0:_ZNK5caffe21InfogainLossParameter12ByteSizeLongEv
libcaffe.so.1.0.0:_ZNK5caffe21InfogainLossParameter13IsInitializedEv
libcaffe.so.1.0.0:_ZNK5caffe21InfogainLossParameter13SetCachedSizeEi
libcaffe.so.1.0.0:_ZNK5caffe21InfogainLossParameter24SerializeWithCachedSizesEPN6google8protobuf2io17CodedOutputStreamE
libcaffe.so.1.0.0:_ZNK5caffe21InfogainLossParameter39InternalSerializeWithCachedSizesToArrayEbPh
libcaffe.so.1.0.0:_ZNK5caffe21InfogainLossParameter3NewEPN6google8protobuf5ArenaE
libcaffe.so.1.0.0:_ZNK5caffe21InnerProductParameter11GetMetadataEv
libcaffe.so.1.0.0:_ZNK5caffe21InnerProductParameter12ByteSizeLongEv
libcaffe.so.1.0.0:_ZNK5caffe21InnerProductParameter13IsInitializedEv
libcaffe.so.1.0.0:_ZNK5caffe21InnerProductParameter13SetCachedSizeEi
libcaffe.so.1.0.0:_ZNK5caffe21InnerProductParameter24SerializeWithCachedSizesEPN6google8protobuf2io17CodedOutputStreamE
libcaffe.so.1.0.0:_ZNK5caffe21InnerProductParameter39InternalSerializeWithCachedSizesToArrayEbPh
libcaffe.so.1.0.0:_ZNK5caffe21InnerProductParameter3NewEPN6google8protobuf5ArenaE
libcaffe.so.1.0.0:_ZNK5caffe23TransformationParameter11GetMetadataEv
libcaffe.so.1.0.0:_ZNK5caffe23TransformationParameter12ByteSizeLongEv
libcaffe.so.1.0.0:_ZNK5caffe23TransformationParameter13IsInitializedEv
libcaffe.so.1.0.0:_ZNK5caffe23TransformationParameter13SetCachedSizeEi
libcaffe.so.1.0.0:_ZNK5caffe23TransformationParameter24SerializeWithCachedSizesEPN6google8protobuf2io17CodedOutputStreamE
libcaffe.so.1.0.0:_ZNK5caffe23TransformationParameter39InternalSerializeWithCachedSizesToArrayEbPh
libcaffe.so.1.0.0:_ZNK5caffe23TransformationParameter3NewEPN6google8protobuf5ArenaE
libcaffe.so.1.0.0:_ZNK5caffe24ContrastiveLossParameter11GetMetadataEv
libcaffe.so.1.0.0:_ZNK5caffe24ContrastiveLossParameter12ByteSizeLongEv
libcaffe.so.1.0.0:_ZNK5caffe24ContrastiveLossParameter13IsInitializedEv
libcaffe.so.1.0.0:_ZNK5caffe24ContrastiveLossParameter13SetCachedSizeEi
libcaffe.so.1.0.0:_ZNK5caffe24ContrastiveLossParameter24SerializeWithCachedSizesEPN6google8protobuf2io17CodedOutputStreamE
libcaffe.so.1.0.0:_ZNK5caffe24ContrastiveLossParameter39InternalSerializeWithCachedSizesToArrayEbPh
libcaffe.so.1.0.0:_ZNK5caffe24ContrastiveLossParameter3NewEPN6google8protobuf5ArenaE
libcaffe.so.1.0.0:_ZNK5caffe4BlobIdE7ToProtoEPNS_9BlobProtoEb
libcaffe.so.1.0.0:_ZNK5caffe4BlobIfE7ToProtoEPNS_9BlobProtoEb
libcaffe.so.1.0.0:_ZNK5caffe4BlobIiE10sumsq_dataEv
libcaffe.so.1.0.0:_ZNK5caffe4BlobIiE10sumsq_diffEv
libcaffe.so.1.0.0:_ZNK5caffe4BlobIiE9asum_dataEv
libcaffe.so.1.0.0:_ZNK5caffe4BlobIiE9asum_diffEv
libcaffe.so.1.0.0:_ZNK5caffe4BlobIjE10sumsq_dataEv
libcaffe.so.1.0.0:_ZNK5caffe4BlobIjE10sumsq_diffEv
libcaffe.so.1.0.0:_ZNK5caffe4BlobIjE9asum_dataEv
libcaffe.so.1.0.0:_ZNK5caffe4BlobIjE9asum_diffEv
libcaffe.so.1.0.0:_ZNK5caffe5Datum11GetMetadataEv
libcaffe.so.1.0.0:_ZNK5caffe5Datum12ByteSizeLongEv
libcaffe.so.1.0.0:_ZNK5caffe5Datum13IsInitializedEv
libcaffe.so.1.0.0:_ZNK5caffe5Datum13SetCachedSizeEi
libcaffe.so.1.0.0:_ZNK5caffe5Datum24SerializeWithCachedSizesEPN6google8protobuf2io17CodedOutputStreamE
libcaffe.so.1.0.0:_ZNK5caffe5Datum39InternalSerializeWithCachedSizesToArrayEbPh
libcaffe.so.1.0.0:_ZNK5caffe5Datum3NewEPN6google8protobuf5ArenaE
libcaffe.so.1.0.0:_ZNK5caffe8NetState11GetMetadataEv
libcaffe.so.1.0.0:_ZNK5caffe8NetState12ByteSizeLongEv
libcaffe.so.1.0.0:_ZNK5caffe8NetState13IsInitializedEv
libcaffe.so.1.0.0:_ZNK5caffe8NetState13SetCachedSizeEi
libcaffe.so.1.0.0:_ZNK5caffe8NetState24SerializeWithCachedSizesEPN6google8protobuf2io17CodedOutputStreamE
libcaffe.so.1.0.0:_ZNK5caffe8NetState39InternalSerializeWithCachedSizesToArrayEbPh
libcaffe.so.1.0.0:_ZNK5caffe8NetState3NewEPN6google8protobuf5ArenaE
libcaffe.so.1.0.0:_ZNK5caffe9BlobProto11GetMetadataEv
libcaffe.so.1.0.0:_ZNK5caffe9BlobProto12ByteSizeLongEv
libcaffe.so.1.0.0:_ZNK5caffe9BlobProto13IsInitializedEv
libcaffe.so.1.0.0:_ZNK5caffe9BlobProto13SetCachedSizeEi
libcaffe.so.1.0.0:_ZNK5caffe9BlobProto24SerializeWithCachedSizesEPN6google8protobuf2io17CodedOutputStreamE
libcaffe.so.1.0.0:_ZNK5caffe9BlobProto39InternalSerializeWithCachedSizesToArrayEbPh
libcaffe.so.1.0.0:_ZNK5caffe9BlobProto3NewEPN6google8protobuf5ArenaE
libcaffe.so.1.0.0:_ZNK5caffe9BlobShape11GetMetadataEv
libcaffe.so.1.0.0:_ZNK5caffe9BlobShape12ByteSizeLongEv
libcaffe.so.1.0.0:_ZNK5caffe9BlobShape13IsInitializedEv
libcaffe.so.1.0.0:_ZNK5caffe9BlobShape13SetCachedSizeEi
libcaffe.so.1.0.0:_ZNK5caffe9BlobShape24SerializeWithCachedSizesEPN6google8protobuf2io17CodedOutputStreamE
libcaffe.so.1.0.0:_ZNK5caffe9BlobShape39InternalSerializeWithCachedSizesToArrayEbPh
libcaffe.so.1.0.0:_ZNK5caffe9BlobShape3NewEPN6google8protobuf5ArenaE
libcaffe.so.1.0.0:_ZNK5caffe9ParamSpec11GetMetadataEv
libcaffe.so.1.0.0:_ZNK5caffe9ParamSpec12ByteSizeLongEv
libcaffe.so.1.0.0:_ZNK5caffe9ParamSpec13IsInitializedEv
libcaffe.so.1.0.0:_ZNK5caffe9ParamSpec13SetCachedSizeEi
libcaffe.so.1.0.0:_ZNK5caffe9ParamSpec24SerializeWithCachedSizesEPN6google8protobuf2io17CodedOutputStreamE
libcaffe.so.1.0.0:_ZNK5caffe9ParamSpec39InternalSerializeWithCachedSizesToArrayEbPh
libcaffe.so.1.0.0:_ZNK5caffe9ParamSpec3NewEPN6google8protobuf5ArenaE
