libipe.so.7.2.7:_Z10doParsePdfRN3ipe10DataSourceERi
libipe.so.7.2.7:_Z10doParseXmlRN3ipe10DataSourceERi
libipe.so.7.2.7:_Z18ipeAssertionFailedPKciS0_
libipe.so.7.2.7:_Z7doParsePN3ipe8DocumentERNS_9ImlParserERi
libipe.so.7.2.7:_Z8ipeDebugPKcz
libipe.so.7.2.7:_Z8readLineRN3ipe10DataSourceE
libipe.so.7.2.7:_Z9dctDecodeN3ipe6BufferES0_i
libipe.so.7.2.7:_Z9doParsePsRN3ipe10DataSourceERi
libipe.so.7.2.7:_ZN11CollectSegs10visitGroupEPKN3ipe5GroupE
libipe.so.7.2.7:_ZN11CollectSegs9visitPathEPKN3ipe4PathE
libipe.so.7.2.7:_ZN11CollectSegsC1ERKN3ipe6VectorEdPKNS0_4PageEi
libipe.so.7.2.7:_ZN11CollectSegsC2ERKN3ipe6VectorEdPKNS0_4PageEi
libipe.so.7.2.7:_ZN14PsStreamParser9pdfStreamEi
libipe.so.7.2.7:_ZN14PsStreamParserC1ERN3ipe10DataSourceER8PsSource
libipe.so.7.2.7:_ZN14PsStreamParserC2ERN3ipe10DataSourceER8PsSource
libipe.so.7.2.7:_ZN15PdfStreamParser9pdfStreamEi
libipe.so.7.2.7:_ZN15PdfStreamParserC1ERN3ipe7PdfFileERNS0_10DataSourceE
libipe.so.7.2.7:_ZN15PdfStreamParserC2ERN3ipe7PdfFileERNS0_10DataSourceE
libipe.so.7.2.7:_ZN17DecorationPainter10doDrawPathEN3ipe9TPathModeE
libipe.so.7.2.7:_ZN17DecorationPainter11doClosePathEv
libipe.so.7.2.7:_ZN17DecorationPainter5adaptERKN3ipe6VectorE
libipe.so.7.2.7:_ZN17DecorationPainter5doPopEv
libipe.so.7.2.7:_ZN17DecorationPainter6doPushEv
libipe.so.7.2.7:_ZN17DecorationPainter8doLineToERKN3ipe6VectorE
libipe.so.7.2.7:_ZN17DecorationPainter8doMoveToERKN3ipe6VectorE
libipe.so.7.2.7:_ZN17DecorationPainter9doCurveToERKN3ipe6VectorES3_S3_
libipe.so.7.2.7:_ZN17DecorationPainter9doNewPathEv
libipe.so.7.2.7:_ZN17DecorationPainterC1ERN3ipe7PainterERKNS0_6VectorEdd
libipe.so.7.2.7:_ZN17DecorationPainterC2ERN3ipe7PainterERKNS0_6VectorEdd
libipe.so.7.2.7:_ZN19StandardStyleSource7getCharEv
libipe.so.7.2.7:_ZN3ipe10DataSourceD0Ev
libipe.so.7.2.7:_ZN3ipe10DataSourceD1Ev
libipe.so.7.2.7:_ZN3ipe10DataSourceD2Ev
libipe.so.7.2.7:_ZN3ipe10FileSource7getCharEv
libipe.so.7.2.7:_ZN3ipe10FileSourceC1EP8_IO_FILE
libipe.so.7.2.7:_ZN3ipe10FileSourceC2EP8_IO_FILE
libipe.so.7.2.7:_ZN3ipe10FileStream10putCStringEPKc
libipe.so.7.2.7:_ZN3ipe10FileStream6putRawEPKci
libipe.so.7.2.7:_ZN3ipe10FileStream7putCharEc
libipe.so.7.2.7:_ZN3ipe10FileStream9putStringENS_6StringE
libipe.so.7.2.7:_ZN3ipe10FileStreamC1EP8_IO_FILE
libipe.so.7.2.7:_ZN3ipe10FileStreamC2EP8_IO_FILE
libipe.so.7.2.7:_ZN3ipe10PdfPainter10doDrawPathENS_9TPathModeE
libipe.so.7.2.7:_ZN3ipe10PdfPainter10doDrawTextEPKNS_4TextE
libipe.so.7.2.7:_ZN3ipe10PdfPainter11doClosePathEv
libipe.so.7.2.7:_ZN3ipe10PdfPainter11drawOpacityEv
libipe.so.7.2.7:_ZN3ipe10PdfPainter12doDrawBitmapENS_6BitmapE
libipe.so.7.2.7:_ZN3ipe10PdfPainter12doDrawSymbolENS_9AttributeE
libipe.so.7.2.7:_ZN3ipe10PdfPainter13doAddClipPathEv
libipe.so.7.2.7:_ZN3ipe10PdfPainter14drawAttributesEv
libipe.so.7.2.7:_ZN3ipe10PdfPainter5doPopEv
libipe.so.7.2.7:_ZN3ipe10PdfPainter6doPushEv
libipe.so.7.2.7:_ZN3ipe10PdfPainter8doLineToERKNS_6VectorE
libipe.so.7.2.7:_ZN3ipe10PdfPainter8doMoveToERKNS_6VectorE
libipe.so.7.2.7:_ZN3ipe10PdfPainter9doCurveToERKNS_6VectorES3_S3_
libipe.so.7.2.7:_ZN3ipe10PdfPainter9doNewPathEv
libipe.so.7.2.7:_ZN3ipe10PdfPainter9drawColorERNS_6StreamENS_5ColorEPKcS5_
libipe.so.7.2.7:_ZN3ipe10PdfPainterC1EPKNS_7CascadeERNS_6StreamE
libipe.so.7.2.7:_ZN3ipe10PdfPainterC2EPKNS_7CascadeERNS_6StreamE
libipe.so.7.2.7:_ZN3ipe10Repository3getEv
libipe.so.7.2.7:_ZN3ipe10Repository7cleanupEv
libipe.so.7.2.7:_ZN3ipe10Repository7toIndexENS_6StringE
libipe.so.7.2.7:_ZN3ipe10RepositoryC1Ev
libipe.so.7.2.7:_ZN3ipe10RepositoryC2Ev
libipe.so.7.2.7:_ZN3ipe10StyleSheet10setLineCapENS_8TLineCapE
libipe.so.7.2.7:_ZN3ipe10StyleSheet11addGradientENS_9AttributeERKNS_8GradientE
libipe.so.7.2.7:_ZN3ipe10StyleSheet11setFillRuleENS_9TFillRuleE
libipe.so.7.2.7:_ZN3ipe10StyleSheet11setLineJoinENS_9TLineJoinE
libipe.so.7.2.7:_ZN3ipe10StyleSheet13setTitleStyleERKNS0_10TitleStyleE
libipe.so.7.2.7:_ZN3ipe10StyleSheet14setTextPaddingERKNS_11TextPaddingE
libipe.so.7.2.7:_ZN3ipe10StyleSheet18setPageNumberStyleERKNS0_15PageNumberStyleE
libipe.so.7.2.7:_ZN3ipe10StyleSheet3addENS_4KindENS_9AttributeES2_
libipe.so.7.2.7:_ZN3ipe10StyleSheet6removeENS_4KindENS_9AttributeE
libipe.so.7.2.7:_ZN3ipe10StyleSheet8standardEv
libipe.so.7.2.7:_ZN3ipe10StyleSheet9addEffectENS_9AttributeERKNS_6EffectE
libipe.so.7.2.7:_ZN3ipe10StyleSheet9addSymbolENS_9AttributeERKNS_6SymbolE
libipe.so.7.2.7:_ZN3ipe10StyleSheet9addTilingENS_9AttributeERKNS_6TilingE
libipe.so.7.2.7:_ZN3ipe10StyleSheet9setLayoutERKNS_6LayoutE
libipe.so.7.2.7:_ZN3ipe10StyleSheetC1Ev
libipe.so.7.2.7:_ZN3ipe10StyleSheetC2Ev
libipe.so.7.2.7:_ZN3ipe11BBoxPainter10doDrawPathENS_9TPathModeE
libipe.so.7.2.7:_ZN3ipe11BBoxPainter10doDrawTextEPKNS_4TextE
libipe.so.7.2.7:_ZN3ipe11BBoxPainter12doDrawBitmapENS_6BitmapE
libipe.so.7.2.7:_ZN3ipe11BBoxPainter13doAddClipPathEv
libipe.so.7.2.7:_ZN3ipe11BBoxPainter5doPopEv
libipe.so.7.2.7:_ZN3ipe11BBoxPainter6doPushEv
libipe.so.7.2.7:_ZN3ipe11BBoxPainter8doLineToERKNS_6VectorE
libipe.so.7.2.7:_ZN3ipe11BBoxPainter8doMoveToERKNS_6VectorE
libipe.so.7.2.7:_ZN3ipe11BBoxPainter9doCurveToERKNS_6VectorES3_S3_
libipe.so.7.2.7:_ZN3ipe11BBoxPainter9doNewPathEv
libipe.so.7.2.7:_ZN3ipe11BBoxPainterC1EPKNS_7CascadeE
libipe.so.7.2.7:_ZN3ipe11BBoxPainterC2EPKNS_7CascadeE
libipe.so.7.2.7:_ZN3ipe12Base64Source7getCharEv
libipe.so.7.2.7:_ZN3ipe12Base64SourceC1ERNS_10DataSourceE
libipe.so.7.2.7:_ZN3ipe12Base64SourceC2ERNS_10DataSourceE
libipe.so.7.2.7:_ZN3ipe12Base64Stream5closeEv
libipe.so.7.2.7:_ZN3ipe12Base64Stream7putCharEc
libipe.so.7.2.7:_ZN3ipe12Base64StreamC1ERNS_6StreamE
libipe.so.7.2.7:_ZN3ipe12Base64StreamC2ERNS_6StreamE
libipe.so.7.2.7:_ZN3ipe12BitmapFinder10visitGroupEPKNS_5GroupE
libipe.so.7.2.7:_ZN3ipe12BitmapFinder10visitImageEPKNS_5ImageE
libipe.so.7.2.7:_ZN3ipe12BitmapFinder8scanPageEPKNS_4PageE
libipe.so.7.2.7:_ZN3ipe12BufferSource11setPositionEi
libipe.so.7.2.7:_ZN3ipe12BufferSource7getCharEv
libipe.so.7.2.7:_ZN3ipe12BufferSourceC1ERKNS_6BufferE
libipe.so.7.2.7:_ZN3ipe12BufferSourceC2ERKNS_6BufferE
libipe.so.7.2.7:_ZN3ipe12ClosedSplineC1ERKSt6vectorINS_6VectorESaIS2_EE
libipe.so.7.2.7:_ZN3ipe12ClosedSplineC2ERKSt6vectorINS_6VectorESaIS2_EE
libipe.so.7.2.7:_ZN3ipe12CurveSegmentC1ENS0_4TypeEiPKNS_6VectorEPKNS_6MatrixE
libipe.so.7.2.7:_ZN3ipe12CurveSegmentC2ENS0_4TypeEiPKNS_6VectorEPKNS_6MatrixE
libipe.so.7.2.7:_ZN3ipe12IpeletHelperD0Ev
libipe.so.7.2.7:_ZN3ipe12IpeletHelperD1Ev
libipe.so.7.2.7:_ZN3ipe12IpeletHelperD2Ev
libipe.so.7.2.7:_ZN3ipe12PdfResources11addIndirectEPKNS_6PdfObjEPNS_7PdfFileE
libipe.so.7.2.7:_ZN3ipe12PdfResources13addPageNumberERNS0_11SPageNumberE
libipe.so.7.2.7:_ZN3ipe12PdfResources13addToResourceEPNS_7PdfDictENS_6StringEPKNS_6PdfObjEPNS_7PdfFileE
libipe.so.7.2.7:_ZN3ipe12PdfResources3addEiPNS_7PdfFileE
libipe.so.7.2.7:_ZN3ipe12PdfResources7collectEPKNS_7PdfDictEPNS_7PdfFileE
libipe.so.7.2.7:_ZN3ipe12PdfResourcesC1Ev
libipe.so.7.2.7:_ZN3ipe12PdfResourcesC2Ev
libipe.so.7.2.7:_ZN3ipe12StringStream10putCStringEPKc
libipe.so.7.2.7:_ZN3ipe12StringStream6putRawEPKci
libipe.so.7.2.7:_ZN3ipe12StringStream7putCharEc
libipe.so.7.2.7:_ZN3ipe12StringStream9putStringENS_6StringE
libipe.so.7.2.7:_ZN3ipe12StringStreamC1ERNS_6StringE
libipe.so.7.2.7:_ZN3ipe12StringStreamC2ERNS_6StringE
libipe.so.7.2.7:_ZN3ipe13AllAttributesC1Ev
libipe.so.7.2.7:_ZN3ipe13AllAttributesC2Ev
libipe.so.7.2.7:_ZN3ipe13DeflateStream5closeEv
libipe.so.7.2.7:_ZN3ipe13DeflateStream7deflateEPKciRii
libipe.so.7.2.7:_ZN3ipe13DeflateStream7putCharEc
libipe.so.7.2.7:_ZN3ipe13DeflateStreamC1ERNS_6StreamEi
libipe.so.7.2.7:_ZN3ipe13DeflateStreamC2ERNS_6StreamEi
libipe.so.7.2.7:_ZN3ipe13DeflateStreamD0Ev
libipe.so.7.2.7:_ZN3ipe13DeflateStreamD1Ev
libipe.so.7.2.7:_ZN3ipe13DeflateStreamD2Ev
libipe.so.7.2.7:_ZN3ipe13InflateSource10fillBufferEv
libipe.so.7.2.7:_ZN3ipe13InflateSource7getCharEv
libipe.so.7.2.7:_ZN3ipe13InflateSourceC1ERNS_10DataSourceE
libipe.so.7.2.7:_ZN3ipe13InflateSourceC2ERNS_10DataSourceE
libipe.so.7.2.7:_ZN3ipe13InflateSourceD0Ev
libipe.so.7.2.7:_ZN3ipe13InflateSourceD1Ev
libipe.so.7.2.7:_ZN3ipe13InflateSourceD2Ev
libipe.so.7.2.7:_ZN3ipe13ObjectFactory11createImageENS_6StringERKNS_13XmlAttributesENS_6BitmapE
libipe.so.7.2.7:_ZN3ipe13ObjectFactory12createObjectENS_6StringERKNS_13XmlAttributesES1_
libipe.so.7.2.7:_ZN3ipe13XmlAttributes3addENS_6StringES1_
libipe.so.7.2.7:_ZN3ipe13XmlAttributes5clearEv
libipe.so.7.2.7:_ZN3ipe13XmlAttributesC1Ev
libipe.so.7.2.7:_ZN3ipe13XmlAttributesC2Ev
libipe.so.7.2.7:_ZN3ipe21TextCollectingVisitor10visitGroupEPKNS_5GroupE
libipe.so.7.2.7:_ZN3ipe21TextCollectingVisitor14visitReferenceEPKNS_9ReferenceE
libipe.so.7.2.7:_ZN3ipe21TextCollectingVisitor9visitTextEPKNS_4TextE
libipe.so.7.2.7:_ZN3ipe21TextCollectingVisitorC1EPNSt7__cxx114listINS_5Latex5STextESaIS4_EEE
libipe.so.7.2.7:_ZN3ipe21TextCollectingVisitorC2EPNSt7__cxx114listINS_5Latex5STextESaIS4_EEE
libipe.so.7.2.7:_ZN3ipe3ArcC1ERKNS_6MatrixERKNS_6VectorES6_
libipe.so.7.2.7:_ZN3ipe3ArcC2ERKNS_6MatrixERKNS_6VectorES6_
libipe.so.7.2.7:_ZN3ipe3Lex10getHexByteEv
libipe.so.7.2.7:_ZN3ipe3Lex12getHexNumberEv
libipe.so.7.2.7:_ZN3ipe3Lex14skipWhitespaceEv
libipe.so.7.2.7:_ZN3ipe3Lex5tokenEv
libipe.so.7.2.7:_ZN3ipe3Lex6getIntEv
libipe.so.7.2.7:_ZN3ipe3Lex8getFixedEv
libipe.so.7.2.7:_ZN3ipe3Lex9getDoubleEv
libipe.so.7.2.7:_ZN3ipe3Lex9nextTokenEv
libipe.so.7.2.7:_ZN3ipe3LexC1ENS_6StringE
libipe.so.7.2.7:_ZN3ipe3LexC2ENS_6StringE
libipe.so.7.2.7:_ZN3ipe4Line10intersectsERKS0_RNS_6VectorE
libipe.so.7.2.7:_ZN3ipe4Line7throughERKNS_6VectorES3_
libipe.so.7.2.7:_ZN3ipe4LineC1ERKNS_6VectorES3_
libipe.so.7.2.7:_ZN3ipe4LineC2ERKNS_6VectorES3_
libipe.so.7.2.7:_ZN3ipe4Page10clearViewsEv
libipe.so.7.2.7:_ZN3ipe4Page10insertViewEiNS_6StringE
libipe.so.7.2.7:_ZN3ipe4Page10removeViewEi
libipe.so.7.2.7:_ZN3ipe4Page10setSectionEibNS_6StringE
libipe.so.7.2.7:_ZN3ipe4Page10setVisibleEiNS_6StringEb
libipe.so.7.2.7:_ZN3ipe4Page11deselectAllEv
libipe.so.7.2.7:_ZN3ipe4Page11removeLayerENS_6StringE
libipe.so.7.2.7:_ZN3ipe4Page11renameLayerENS_6StringES1_
libipe.so.7.2.7:_ZN3ipe4Page11setSnappingEib
libipe.so.7.2.7:_ZN3ipe4Page12setAttributeEiNS_8PropertyENS_9AttributeE
libipe.so.7.2.7:_ZN3ipe4Page13setMarkedViewEib
libipe.so.7.2.7:_ZN3ipe4Page15applyTitleStyleEPKNS_7CascadeE
libipe.so.7.2.7:_ZN3ipe4Page22ensurePrimarySelectionEv
libipe.so.7.2.7:_ZN3ipe4Page5basicEv
libipe.so.7.2.7:_ZN3ipe4Page6SLayerC1ENS_6StringE
libipe.so.7.2.7:_ZN3ipe4Page6SLayerC2ENS_6StringE
libipe.so.7.2.7:_ZN3ipe4Page6appendENS_7TSelectEiPNS_6ObjectE
libipe.so.7.2.7:_ZN3ipe4Page6insertEiNS_7TSelectEiPNS_6ObjectE
libipe.so.7.2.7:_ZN3ipe4Page6removeEi
libipe.so.7.2.7:_ZN3ipe4Page7SObjectC1ERKS1_
libipe.so.7.2.7:_ZN3ipe4Page7SObjectC1Ev
libipe.so.7.2.7:_ZN3ipe4Page7SObjectC2ERKS1_
libipe.so.7.2.7:_ZN3ipe4Page7SObjectC2Ev
libipe.so.7.2.7:_ZN3ipe4Page7SObjectD1Ev
libipe.so.7.2.7:_ZN3ipe4Page7SObjectD2Ev
libipe.so.7.2.7:_ZN3ipe4Page7SObjectaSERKS1_
libipe.so.7.2.7:_ZN3ipe4Page7replaceEiPNS_6ObjectE
libipe.so.7.2.7:_ZN3ipe4Page8addLayerENS_6StringE
libipe.so.7.2.7:_ZN3ipe4Page8addLayerEv
libipe.so.7.2.7:_ZN3ipe4Page8setNotesENS_6StringE
libipe.so.7.2.7:_ZN3ipe4Page8setTitleENS_6StringE
libipe.so.7.2.7:_ZN3ipe4Page9moveLayerEii
libipe.so.7.2.7:_ZN3ipe4Page9setActiveEiNS_6StringE
libipe.so.7.2.7:_ZN3ipe4Page9setEffectEiNS_9AttributeE
libipe.so.7.2.7:_ZN3ipe4Page9setLockedEib
libipe.so.7.2.7:_ZN3ipe4Page9setMarkedEb
libipe.so.7.2.7:_ZN3ipe4Page9transformEiRKNS_6MatrixE
libipe.so.7.2.7:_ZN3ipe4PageC1Ev
libipe.so.7.2.7:_ZN3ipe4PageC2Ev
libipe.so.7.2.7:_ZN3ipe4Path10setLineCapENS_8TLineCapE
libipe.so.7.2.7:_ZN3ipe4Path10setOpacityENS_9AttributeE
libipe.so.7.2.7:_ZN3ipe4Path11setFillRuleENS_9TFillRuleE
libipe.so.7.2.7:_ZN3ipe4Path11setGradientENS_9AttributeE
libipe.so.7.2.7:_ZN3ipe4Path11setLineJoinENS_9TLineJoinE
libipe.so.7.2.7:_ZN3ipe4Path11setPathModeENS_9TPathModeE
libipe.so.7.2.7:_ZN3ipe4Path12setAttributeENS_8PropertyENS_9AttributeE
libipe.so.7.2.7:_ZN3ipe4Path12setDashStyleENS_9AttributeE
libipe.so.7.2.7:_ZN3ipe4Path13makeArrowDataEv
libipe.so.7.2.7:_ZN3ipe4Path4initERKNS_13AllAttributesEb
libipe.so.7.2.7:_ZN3ipe4Path6asPathEv
libipe.so.7.2.7:_ZN3ipe4Path6createERKNS_13XmlAttributesENS_6StringE
libipe.so.7.2.7:_ZN3ipe4Path6setPenENS_9AttributeE
libipe.so.7.2.7:_ZN3ipe4Path7setFillENS_9AttributeE
libipe.so.7.2.7:_ZN3ipe4Path8setArrowEbNS_9AttributeES1_
libipe.so.7.2.7:_ZN3ipe4Path8setShapeERKNS_5ShapeE
libipe.so.7.2.7:_ZN3ipe4Path9drawArrowERNS_7PainterENS_6VectorENS_5AngleENS_9AttributeES5_d
libipe.so.7.2.7:_ZN3ipe4Path9setRarrowEbNS_9AttributeES1_
libipe.so.7.2.7:_ZN3ipe4Path9setStrokeENS_9AttributeE
libipe.so.7.2.7:_ZN3ipe4Path9setTilingENS_9AttributeE
libipe.so.7.2.7:_ZN3ipe4PathC1ERKNS_13AllAttributesERKNS_5ShapeEb
libipe.so.7.2.7:_ZN3ipe4PathC1ERKNS_13XmlAttributesE
libipe.so.7.2.7:_ZN3ipe4PathC2ERKNS_13AllAttributesERKNS_5ShapeEb
libipe.so.7.2.7:_ZN3ipe4PathC2ERKNS_13XmlAttributesE
libipe.so.7.2.7:_ZN3ipe4Rect6clipToERKS0_
libipe.so.7.2.7:_ZN3ipe4Rect7addRectERKS0_
libipe.so.7.2.7:_ZN3ipe4Rect8addPointERKNS_6VectorE
libipe.so.7.2.7:_ZN3ipe4RectC1ERKNS_6VectorES3_
libipe.so.7.2.7:_ZN3ipe4RectC2ERKNS_6VectorES3_
libipe.so.7.2.7:_ZN3ipe4Snap7setEdgeERKNS_6VectorEPKNS_4PageEi
libipe.so.7.2.7:_ZN3ipe4Text10makeHAlignENS_6StringENS_20THorizontalAlignmentE
libipe.so.7.2.7:_ZN3ipe4Text10makeVAlignENS_6StringENS_18TVerticalAlignmentE
libipe.so.7.2.7:_ZN3ipe4Text10setOpacityENS_9AttributeE
libipe.so.7.2.7:_ZN3ipe4Text11setTextTypeENS0_8TextTypeE
libipe.so.7.2.7:_ZN3ipe4Text12setAttributeENS_8PropertyENS_9AttributeE
libipe.so.7.2.7:_ZN3ipe4Text13saveAlignmentERNS_6StreamENS_20THorizontalAlignmentENS_18TVerticalAlignmentE
libipe.so.7.2.7:_ZN3ipe4Text20setVerticalAlignmentENS_18TVerticalAlignmentE
libipe.so.7.2.7:_ZN3ipe4Text22setHorizontalAlignmentENS_20THorizontalAlignmentE
libipe.so.7.2.7:_ZN3ipe4Text6asTextEv
libipe.so.7.2.7:_ZN3ipe4Text7setSizeENS_9AttributeE
libipe.so.7.2.7:_ZN3ipe4Text7setTextENS_6StringE
libipe.so.7.2.7:_ZN3ipe4Text8setStyleENS_9AttributeE
libipe.so.7.2.7:_ZN3ipe4Text8setWidthEd
libipe.so.7.2.7:_ZN3ipe4Text9setStrokeENS_9AttributeE
libipe.so.7.2.7:_ZN3ipe4TextC1ERKNS_13AllAttributesENS_6StringERKNS_6VectorENS0_8TextTypeEd
libipe.so.7.2.7:_ZN3ipe4TextC1ERKNS_13XmlAttributesENS_6StringE
libipe.so.7.2.7:_ZN3ipe4TextC1ERKS0_
libipe.so.7.2.7:_ZN3ipe4TextC1Ev
libipe.so.7.2.7:_ZN3ipe4TextC2ERKNS_13AllAttributesENS_6StringERKNS_6VectorENS0_8TextTypeEd
libipe.so.7.2.7:_ZN3ipe4TextC2ERKNS_13XmlAttributesENS_6StringE
libipe.so.7.2.7:_ZN3ipe4TextC2ERKS0_
libipe.so.7.2.7:_ZN3ipe4TextC2Ev
libipe.so.7.2.7:_ZN3ipe4TextD0Ev
libipe.so.7.2.7:_ZN3ipe4TextD1Ev
libipe.so.7.2.7:_ZN3ipe4TextD2Ev
libipe.so.7.2.7:_ZN3ipe4Tool11mouseButtonEib
libipe.so.7.2.7:_ZN3ipe4Tool3keyENS_6StringEi
libipe.so.7.2.7:_ZN3ipe4Tool9mouseMoveEv
libipe.so.7.2.7:_ZN3ipe4ToolC1EPNS_10CanvasBaseE
libipe.so.7.2.7:_ZN3ipe4ToolC2EPNS_10CanvasBaseE
libipe.so.7.2.7:_ZN3ipe4ToolD0Ev
libipe.so.7.2.7:_ZN3ipe4ToolD1Ev
libipe.so.7.2.7:_ZN3ipe4ToolD2Ev
libipe.so.7.2.7:_ZN3ipe5Angle9normalizeEd
libipe.so.7.2.7:_ZN3ipe5ColorC1ENS_6StringE
libipe.so.7.2.7:_ZN3ipe5ColorC1Eiii
libipe.so.7.2.7:_ZN3ipe5ColorC2ENS_6StringE
libipe.so.7.2.7:_ZN3ipe5ColorC2Eiii
libipe.so.7.2.7:_ZN3ipe5Curve12appendSplineERKSt6vectorINS_6VectorESaIS2_EENS_12CurveSegment4TypeE
libipe.so.7.2.7:_ZN3ipe5Curve13appendSegmentERKNS_6VectorES3_
libipe.so.7.2.7:_ZN3ipe5Curve9appendArcERKNS_6MatrixERKNS_6VectorES6_
libipe.so.7.2.7:_ZN3ipe5Curve9setClosedEb
libipe.so.7.2.7:_ZN3ipe5CurveC1Ev
libipe.so.7.2.7:_ZN3ipe5CurveC2Ev
libipe.so.7.2.7:_ZN3ipe5Fixed10fromDoubleEd
libipe.so.7.2.7:_ZN3ipe5Group12setAttributeENS_8PropertyENS_9AttributeE
libipe.so.7.2.7:_ZN3ipe5Group6detachEv
libipe.so.7.2.7:_ZN3ipe5Group6setUrlENS_6StringE
libipe.so.7.2.7:_ZN3ipe5Group7asGroupEv
libipe.so.7.2.7:_ZN3ipe5Group7setClipERKNS_5ShapeE
libipe.so.7.2.7:_ZN3ipe5Group9push_backEPNS_6ObjectE
libipe.so.7.2.7:_ZN3ipe5GroupC1ERKNS_13XmlAttributesE
libipe.so.7.2.7:_ZN3ipe5GroupC1ERKS0_
libipe.so.7.2.7:_ZN3ipe5GroupC1Ev
libipe.so.7.2.7:_ZN3ipe5GroupC2ERKNS_13XmlAttributesE
libipe.so.7.2.7:_ZN3ipe5GroupC2ERKS0_
libipe.so.7.2.7:_ZN3ipe5GroupC2Ev
libipe.so.7.2.7:_ZN3ipe5GroupD0Ev
libipe.so.7.2.7:_ZN3ipe5GroupD1Ev
libipe.so.7.2.7:_ZN3ipe5GroupD2Ev
libipe.so.7.2.7:_ZN3ipe5GroupaSERKS0_
libipe.so.7.2.7:_ZN3ipe5Image4initERKNS_13XmlAttributesE
libipe.so.7.2.7:_ZN3ipe5Image7asImageEv
libipe.so.7.2.7:_ZN3ipe5ImageC1ERKNS_13XmlAttributesENS_6BitmapE
libipe.so.7.2.7:_ZN3ipe5ImageC1ERKNS_13XmlAttributesENS_6StringE
libipe.so.7.2.7:_ZN3ipe5ImageC1ERKNS_4RectENS_6BitmapE
libipe.so.7.2.7:_ZN3ipe5ImageC2ERKNS_13XmlAttributesENS_6BitmapE
libipe.so.7.2.7:_ZN3ipe5ImageC2ERKNS_13XmlAttributesENS_6StringE
libipe.so.7.2.7:_ZN3ipe5ImageC2ERKNS_4RectENS_6BitmapE
libipe.so.7.2.7:_ZN3ipe5Latex10scanObjectEPKNS_6ObjectE
libipe.so.7.2.7:_ZN3ipe5Latex13addPageNumberEiiii
libipe.so.7.2.7:_ZN3ipe5Latex13takeResourcesEv
libipe.so.7.2.7:_ZN3ipe5Latex17createLatexSourceERNS_6StreamENS_6StringE
libipe.so.7.2.7:_ZN3ipe5Latex17updateTextObjectsEv
libipe.so.7.2.7:_ZN3ipe5Latex4warnENS_6StringE
libipe.so.7.2.7:_ZN3ipe5Latex7readPdfERNS_10DataSourceE
libipe.so.7.2.7:_ZN3ipe5Latex8getXFormENS_6StringEPKNS_7PdfDictE
libipe.so.7.2.7:_ZN3ipe5Latex8scanPageEPNS_4PageE
libipe.so.7.2.7:_ZN3ipe5LatexC1EPKNS_7CascadeENS_9LatexTypeE
libipe.so.7.2.7:_ZN3ipe5LatexC2EPKNS_7CascadeENS_9LatexTypeE
libipe.so.7.2.7:_ZN3ipe5LatexD1Ev
libipe.so.7.2.7:_ZN3ipe5LatexD2Ev
libipe.so.7.2.7:_ZN3ipe5Shape13appendSubPathEPNS_7SubPathE
libipe.so.7.2.7:_ZN3ipe5Shape3ImpD1Ev
libipe.so.7.2.7:_ZN3ipe5Shape3ImpD2Ev
libipe.so.7.2.7:_ZN3ipe5Shape4loadENS_6StringE
libipe.so.7.2.7:_ZN3ipe5ShapeC1ERKNS_4RectE
libipe.so.7.2.7:_ZN3ipe5ShapeC1ERKNS_6VectorEd
libipe.so.7.2.7:_ZN3ipe5ShapeC1ERKNS_6VectorEddd
libipe.so.7.2.7:_ZN3ipe5ShapeC1ERKNS_7SegmentE
libipe.so.7.2.7:_ZN3ipe5ShapeC1ERKS0_
libipe.so.7.2.7:_ZN3ipe5ShapeC1Ev
libipe.so.7.2.7:_ZN3ipe5ShapeC2ERKNS_4RectE
libipe.so.7.2.7:_ZN3ipe5ShapeC2ERKNS_6VectorEd
libipe.so.7.2.7:_ZN3ipe5ShapeC2ERKNS_6VectorEddd
libipe.so.7.2.7:_ZN3ipe5ShapeC2ERKNS_7SegmentE
libipe.so.7.2.7:_ZN3ipe5ShapeC2ERKS0_
libipe.so.7.2.7:_ZN3ipe5ShapeC2Ev
libipe.so.7.2.7:_ZN3ipe5ShapeD1Ev
libipe.so.7.2.7:_ZN3ipe5ShapeD2Ev
libipe.so.7.2.7:_ZN3ipe5ShapeaSERKS0_
libipe.so.7.2.7:_ZN3ipe6Bezier10quadBezierERKNS_6VectorES3_S3_
libipe.so.7.2.7:_ZN3ipe6Bezier12closedSplineEiPKNS_6VectorERSt6vectorIS0_SaIS0_EE
libipe.so.7.2.7:_ZN3ipe6Bezier6splineEiPKNS_6VectorERSt6vectorIS0_SaIS0_EE
libipe.so.7.2.7:_ZN3ipe6Bezier8distanceERKNS_6VectorEd
libipe.so.7.2.7:_ZN3ipe6Bezier9oldSplineEiPKNS_6VectorERSt6vectorIS0_SaIS0_EE
libipe.so.7.2.7:_ZN3ipe6Bitmap11MRenderDataD0Ev
libipe.so.7.2.7:_ZN3ipe6Bitmap11MRenderDataD1Ev
libipe.so.7.2.7:_ZN3ipe6Bitmap11MRenderDataD2Ev
libipe.so.7.2.7:_ZN3ipe6Bitmap11setColorKeyEi
libipe.so.7.2.7:_ZN3ipe6Bitmap12readJpegInfoEP8_IO_FILERiS3_RNS_6VectorERNS0_11TColorSpaceES3_
libipe.so.7.2.7:_ZN3ipe6Bitmap15computeChecksumEv
libipe.so.7.2.7:_ZN3ipe6Bitmap4initERKNS_13XmlAttributesE
libipe.so.7.2.7:_ZN3ipe6Bitmap7readPNGEPKcbRNS_6VectorERS2_
libipe.so.7.2.7:_ZN3ipe6Bitmap8readJpegEPKcRNS_6VectorERS2_
libipe.so.7.2.7:_ZN3ipe6BitmapC1ERKNS_13XmlAttributesENS_6BufferE
libipe.so.7.2.7:_ZN3ipe6BitmapC1ERKNS_13XmlAttributesENS_6StringE
libipe.so.7.2.7:_ZN3ipe6BitmapC1ERKS0_
libipe.so.7.2.7:_ZN3ipe6BitmapC1EiiNS0_11TColorSpaceEiNS_6BufferENS0_7TFilterEb
libipe.so.7.2.7:_ZN3ipe6BitmapC1Ev
libipe.so.7.2.7:_ZN3ipe6BitmapC2ERKNS_13XmlAttributesENS_6BufferE
libipe.so.7.2.7:_ZN3ipe6BitmapC2ERKNS_13XmlAttributesENS_6StringE
libipe.so.7.2.7:_ZN3ipe6BitmapC2ERKS0_
libipe.so.7.2.7:_ZN3ipe6BitmapC2EiiNS0_11TColorSpaceEiNS_6BufferENS0_7TFilterEb
libipe.so.7.2.7:_ZN3ipe6BitmapC2Ev
libipe.so.7.2.7:_ZN3ipe6BitmapD1Ev
libipe.so.7.2.7:_ZN3ipe6BitmapD2Ev
libipe.so.7.2.7:_ZN3ipe6BitmapaSERKS0_
libipe.so.7.2.7:_ZN3ipe6BufferC1EOS0_
libipe.so.7.2.7:_ZN3ipe6BufferC1EPKci
libipe.so.7.2.7:_ZN3ipe6BufferC1ERKS0_
libipe.so.7.2.7:_ZN3ipe6BufferC1Ei
libipe.so.7.2.7:_ZN3ipe6BufferC2EOS0_
libipe.so.7.2.7:_ZN3ipe6BufferC2EPKci
libipe.so.7.2.7:_ZN3ipe6BufferC2ERKS0_
libipe.so.7.2.7:_ZN3ipe6BufferC2Ei
libipe.so.7.2.7:_ZN3ipe6BufferD1Ev
libipe.so.7.2.7:_ZN3ipe6BufferD2Ev
libipe.so.7.2.7:_ZN3ipe6BufferaSEOS0_
libipe.so.7.2.7:_ZN3ipe6BufferaSERKS0_
libipe.so.7.2.7:_ZN3ipe6EffectC1Ev
libipe.so.7.2.7:_ZN3ipe6EffectC2Ev
libipe.so.7.2.7:_ZN3ipe6IpeletD0Ev
libipe.so.7.2.7:_ZN3ipe6IpeletD1Ev
libipe.so.7.2.7:_ZN3ipe6IpeletD2Ev
libipe.so.7.2.7:_ZN3ipe6LinearC1ENS_5AngleE
libipe.so.7.2.7:_ZN3ipe6LinearC1ENS_6StringE
libipe.so.7.2.7:_ZN3ipe6LinearC2ENS_5AngleE
libipe.so.7.2.7:_ZN3ipe6LinearC2ENS_6StringE
libipe.so.7.2.7:_ZN3ipe6MatrixC1ENS_6StringE
libipe.so.7.2.7:_ZN3ipe6MatrixC2ENS_6StringE
libipe.so.7.2.7:_ZN3ipe6Object11asReferenceEv
libipe.so.7.2.7:_ZN3ipe6Object11checkSymbolENS_4KindENS_9AttributeEPKNS_7CascadeERSt6vectorIS2_SaIS2_EE
libipe.so.7.2.7:_ZN3ipe6Object12setAttributeENS_8PropertyENS_9AttributeE
libipe.so.7.2.7:_ZN3ipe6Object18setTransformationsENS_16TTransformationsE
libipe.so.7.2.7:_ZN3ipe6Object6asPathEv
libipe.so.7.2.7:_ZN3ipe6Object6asTextEv
libipe.so.7.2.7:_ZN3ipe6Object7asGroupEv
libipe.so.7.2.7:_ZN3ipe6Object7asImageEv
libipe.so.7.2.7:_ZN3ipe6Object9setMatrixERKNS_6MatrixE
libipe.so.7.2.7:_ZN3ipe6Object9setPinnedENS_7TPinnedE
libipe.so.7.2.7:_ZN3ipe6ObjectC1ERKNS_13AllAttributesE
libipe.so.7.2.7:_ZN3ipe6ObjectC1ERKNS_13XmlAttributesE
libipe.so.7.2.7:_ZN3ipe6ObjectC1ERKS0_
libipe.so.7.2.7:_ZN3ipe6ObjectC1Ev
libipe.so.7.2.7:_ZN3ipe6ObjectC2ERKNS_13AllAttributesE
libipe.so.7.2.7:_ZN3ipe6ObjectC2ERKNS_13XmlAttributesE
libipe.so.7.2.7:_ZN3ipe6ObjectC2ERKS0_
libipe.so.7.2.7:_ZN3ipe6ObjectC2Ev
libipe.so.7.2.7:_ZN3ipe6ObjectD0Ev
libipe.so.7.2.7:_ZN3ipe6ObjectD1Ev
libipe.so.7.2.7:_ZN3ipe6ObjectD2Ev
libipe.so.7.2.7:_ZN3ipe6PdfObjD0Ev
libipe.so.7.2.7:_ZN3ipe6PdfObjD1Ev
libipe.so.7.2.7:_ZN3ipe6PdfObjD2Ev
libipe.so.7.2.7:_ZN3ipe6Stream10putCStringEPKc
libipe.so.7.2.7:_ZN3ipe6Stream10putHexByteEc
libipe.so.7.2.7:_ZN3ipe6Stream12putXmlStringENS_6StringE
libipe.so.7.2.7:_ZN3ipe6Stream5closeEv
libipe.so.7.2.7:_ZN3ipe6Stream6putRawEPKci
libipe.so.7.2.7:_ZN3ipe6Stream9putStringENS_6StringE
libipe.so.7.2.7:_ZN3ipe6StreamD0Ev
libipe.so.7.2.7:_ZN3ipe6StreamD1Ev
libipe.so.7.2.7:_ZN3ipe6StreamD2Ev
libipe.so.7.2.7:_ZN3ipe6StreamlsEd
libipe.so.7.2.7:_ZN3ipe6StreamlsEi
libipe.so.7.2.7:_ZN3ipe6String11emptyStringEv
libipe.so.7.2.7:_ZN3ipe6String5eraseEv
libipe.so.7.2.7:_ZN3ipe6String6appendEPKc
libipe.so.7.2.7:_ZN3ipe6String6appendERKS0_
libipe.so.7.2.7:_ZN3ipe6String6appendEc
libipe.so.7.2.7:_ZN3ipe6String6detachEi
libipe.so.7.2.7:_ZN3ipe6String8withDataEPci
libipe.so.7.2.7:_ZN3ipe6StringC1EPKc
libipe.so.7.2.7:_ZN3ipe6StringC1EPKci
libipe.so.7.2.7:_ZN3ipe6StringC1ERKS0_
libipe.so.7.2.7:_ZN3ipe6StringC1ERKS0_ii
libipe.so.7.2.7:_ZN3ipe6StringC1Ev
libipe.so.7.2.7:_ZN3ipe6StringC2EPKc
libipe.so.7.2.7:_ZN3ipe6StringC2EPKci
libipe.so.7.2.7:_ZN3ipe6StringC2ERKS0_
libipe.so.7.2.7:_ZN3ipe6StringC2ERKS0_ii
libipe.so.7.2.7:_ZN3ipe6StringC2Ev
libipe.so.7.2.7:_ZN3ipe6StringD1Ev
libipe.so.7.2.7:_ZN3ipe6StringD2Ev
libipe.so.7.2.7:_ZN3ipe6StringaSERKS0_
libipe.so.7.2.7:_ZN3ipe6SymbolC1EPNS_6ObjectE
libipe.so.7.2.7:_ZN3ipe6SymbolC1ERKS0_
libipe.so.7.2.7:_ZN3ipe6SymbolC1Ev
libipe.so.7.2.7:_ZN3ipe6SymbolC2EPNS_6ObjectE
libipe.so.7.2.7:_ZN3ipe6SymbolC2ERKS0_
libipe.so.7.2.7:_ZN3ipe6SymbolC2Ev
libipe.so.7.2.7:_ZN3ipe6SymbolD1Ev
libipe.so.7.2.7:_ZN3ipe6SymbolD2Ev
libipe.so.7.2.7:_ZN3ipe6SymbolaSERKS0_
libipe.so.7.2.7:_ZN3ipe6VectorC1ENS_5AngleE
libipe.so.7.2.7:_ZN3ipe6VectorC2ENS_5AngleE
libipe.so.7.2.7:_ZN3ipe7Cascade6insertEiPNS_10StyleSheetE
libipe.so.7.2.7:_ZN3ipe7Cascade6removeEi
libipe.so.7.2.7:_ZN3ipe7CascadeC1ERKS0_
libipe.so.7.2.7:_ZN3ipe7CascadeC1Ev
libipe.so.7.2.7:_ZN3ipe7CascadeC2ERKS0_
libipe.so.7.2.7:_ZN3ipe7CascadeC2Ev
libipe.so.7.2.7:_ZN3ipe7CascadeD1Ev
libipe.so.7.2.7:_ZN3ipe7CascadeD2Ev
libipe.so.7.2.7:_ZN3ipe7CascadeaSERKS0_
libipe.so.7.2.7:_ZN3ipe7EllipseC1ERKNS_6MatrixE
libipe.so.7.2.7:_ZN3ipe7EllipseC2ERKNS_6MatrixE
libipe.so.7.2.7:_ZN3ipe7Painter10doDrawPathENS_9TPathModeE
libipe.so.7.2.7:_ZN3ipe7Painter10doDrawTextEPKNS_4TextE
libipe.so.7.2.7:_ZN3ipe7Painter10drawBitmapENS_6BitmapE
libipe.so.7.2.7:_ZN3ipe7Painter10drawSymbolENS_9AttributeE
libipe.so.7.2.7:_ZN3ipe7Painter10pushMatrixEv
libipe.so.7.2.7:_ZN3ipe7Painter10setLineCapENS_8TLineCapE
libipe.so.7.2.7:_ZN3ipe7Painter10setOpacityENS_9AttributeE
libipe.so.7.2.7:_ZN3ipe7Painter10setSymFillENS_9AttributeE
libipe.so.7.2.7:_ZN3ipe7Painter11addClipPathEv
libipe.so.7.2.7:_ZN3ipe7Painter11doClosePathEv
libipe.so.7.2.7:_ZN3ipe7Painter11setFillRuleENS_9TFillRuleE
libipe.so.7.2.7:_ZN3ipe7Painter11setGradientENS_9AttributeE
libipe.so.7.2.7:_ZN3ipe7Painter11setLineJoinENS_9TLineJoinE
libipe.so.7.2.7:_ZN3ipe7Painter11untransformENS_16TTransformationsE
libipe.so.7.2.7:_ZN3ipe7Painter12doDrawBitmapENS_6BitmapE
libipe.so.7.2.7:_ZN3ipe7Painter12doDrawSymbolENS_9AttributeE
libipe.so.7.2.7:_ZN3ipe7Painter12setDashStyleENS_9AttributeE
libipe.so.7.2.7:_ZN3ipe7Painter12setSymStrokeENS_9AttributeE
libipe.so.7.2.7:_ZN3ipe7Painter13doAddClipPathEv
libipe.so.7.2.7:_ZN3ipe7Painter15drawArcAsBezierEd
libipe.so.7.2.7:_ZN3ipe7Painter3popEv
libipe.so.7.2.7:_ZN3ipe7Painter4pushEv
libipe.so.7.2.7:_ZN3ipe7Painter4rectERKNS_4RectE
libipe.so.7.2.7:_ZN3ipe7Painter5doPopEv
libipe.so.7.2.7:_ZN3ipe7Painter6doPushEv
libipe.so.7.2.7:_ZN3ipe7Painter6lineToERKNS_6VectorE
libipe.so.7.2.7:_ZN3ipe7Painter6moveToERKNS_6VectorE
libipe.so.7.2.7:_ZN3ipe7Painter6setPenENS_9AttributeE
libipe.so.7.2.7:_ZN3ipe7Painter7curveToERKNS_6VectorES3_S3_
libipe.so.7.2.7:_ZN3ipe7Painter7drawArcERKNS_3ArcE
libipe.so.7.2.7:_ZN3ipe7Painter7newPathEv
libipe.so.7.2.7:_ZN3ipe7Painter7setFillENS_9AttributeE
libipe.so.7.2.7:_ZN3ipe7Painter8doLineToERKNS_6VectorE
libipe.so.7.2.7:_ZN3ipe7Painter8doMoveToERKNS_6VectorE
libipe.so.7.2.7:_ZN3ipe7Painter8drawPathENS_9TPathModeE
libipe.so.7.2.7:_ZN3ipe7Painter8drawTextEPKNS_4TextE
libipe.so.7.2.7:_ZN3ipe7Painter8setStateERKNS0_5StateE
libipe.so.7.2.7:_ZN3ipe7Painter9closePathEv
libipe.so.7.2.7:_ZN3ipe7Painter9doCurveToERKNS_6VectorES3_S3_
libipe.so.7.2.7:_ZN3ipe7Painter9doDrawArcERKNS_3ArcE
libipe.so.7.2.7:_ZN3ipe7Painter9doNewPathEv
libipe.so.7.2.7:_ZN3ipe7Painter9popMatrixEv
libipe.so.7.2.7:_ZN3ipe7Painter9setStrokeENS_9AttributeE
libipe.so.7.2.7:_ZN3ipe7Painter9setSymPenENS_9AttributeE
libipe.so.7.2.7:_ZN3ipe7Painter9setTilingENS_9AttributeE
libipe.so.7.2.7:_ZN3ipe7Painter9transformERKNS_6MatrixE
libipe.so.7.2.7:_ZN3ipe7Painter9translateERKNS_6VectorE
libipe.so.7.2.7:_ZN3ipe7PainterC1EPKNS_7CascadeE
libipe.so.7.2.7:_ZN3ipe7PainterC2EPKNS_7CascadeE
libipe.so.7.2.7:_ZN3ipe7PainterD0Ev
libipe.so.7.2.7:_ZN3ipe7PainterD1Ev
libipe.so.7.2.7:_ZN3ipe7PainterD2Ev
libipe.so.7.2.7:_ZN3ipe7PdfDict3addENS_6StringEPKNS_6PdfObjE
libipe.so.7.2.7:_ZN3ipe7PdfDict9setStreamERKNS_6BufferE
libipe.so.7.2.7:_ZN3ipe7PdfDictD0Ev
libipe.so.7.2.7:_ZN3ipe7PdfDictD1Ev
libipe.so.7.2.7:_ZN3ipe7PdfDictD2Ev
libipe.so.7.2.7:_ZN3ipe7PdfFile17parseObjectStreamEPKNS_7PdfDictE
libipe.so.7.2.7:_ZN3ipe7PdfFile4takeEi
libipe.so.7.2.7:_ZN3ipe7PdfFile5parseERNS_10DataSourceE
libipe.so.7.2.7:_ZN3ipe7SubPathD0Ev
libipe.so.7.2.7:_ZN3ipe7SubPathD1Ev
libipe.so.7.2.7:_ZN3ipe7SubPathD2Ev
libipe.so.7.2.7:_ZN3ipe7Visitor10visitGroupEPKNS_5GroupE
libipe.so.7.2.7:_ZN3ipe7Visitor10visitImageEPKNS_5ImageE
libipe.so.7.2.7:_ZN3ipe7Visitor14visitReferenceEPKNS_9ReferenceE
libipe.so.7.2.7:_ZN3ipe7Visitor9visitPathEPKNS_4PathE
libipe.so.7.2.7:_ZN3ipe7Visitor9visitTextEPKNS_4TextE
libipe.so.7.2.7:_ZN3ipe7VisitorD0Ev
libipe.so.7.2.7:_ZN3ipe7VisitorD1Ev
libipe.so.7.2.7:_ZN3ipe7VisitorD2Ev
libipe.so.7.2.7:_ZN3ipe8Document10fileFormatERNS_10DataSourceE
libipe.so.7.2.7:_ZN3ipe8Document12setResourcesEPNS_12PdfResourcesE
libipe.so.7.2.7:_ZN3ipe8Document13setPropertiesERKNS0_11SPropertiesE
libipe.so.7.2.7:_ZN3ipe8Document14replaceCascadeEPNS_7CascadeE
libipe.so.7.2.7:_ZN3ipe8Document18formatFromFilenameENS_6StringE
libipe.so.7.2.7:_ZN3ipe8Document19loadWithErrorReportEPKc
libipe.so.7.2.7:_ZN3ipe8Document3setEiPNS_4PageE
libipe.so.7.2.7:_ZN3ipe8Document4loadEPKcRi
libipe.so.7.2.7:_ZN3ipe8Document4loadERNS_10DataSourceENS0_7TFormatERi
libipe.so.7.2.7:_ZN3ipe8Document6insertEiPNS_4PageE
libipe.so.7.2.7:_ZN3ipe8Document6removeEi
libipe.so.7.2.7:_ZN3ipe8Document8runLatexERNS_6StringE
libipe.so.7.2.7:_ZN3ipe8Document8runLatexEv
libipe.so.7.2.7:_ZN3ipe8Document9push_backEPNS_4PageE
libipe.so.7.2.7:_ZN3ipe8DocumentC1ERKS0_
libipe.so.7.2.7:_ZN3ipe8DocumentC1Ev
libipe.so.7.2.7:_ZN3ipe8DocumentC2ERKS0_
libipe.so.7.2.7:_ZN3ipe8DocumentC2Ev
libipe.so.7.2.7:_ZN3ipe8DocumentD1Ev
libipe.so.7.2.7:_ZN3ipe8DocumentD2Ev
libipe.so.7.2.7:_ZN3ipe8PdfArray6appendEPKNS_6PdfObjE
libipe.so.7.2.7:_ZN3ipe8PdfArrayD0Ev
libipe.so.7.2.7:_ZN3ipe8PdfArrayD1Ev
libipe.so.7.2.7:_ZN3ipe8PdfArrayD2Ev
libipe.so.7.2.7:_ZN3ipe8Platform10fileExistsENS_6StringE
libipe.so.7.2.7:_ZN3ipe8Platform10libVersionEv
libipe.so.7.2.7:_ZN3ipe8Platform13listDirectoryENS_6StringERSt6vectorIS1_SaIS1_EE
libipe.so.7.2.7:_ZN3ipe8Platform14latexDirectoryEv
libipe.so.7.2.7:_ZN3ipe8Platform16currentDirectoryEv
libipe.so.7.2.7:_ZN3ipe8Platform7initLibEi
libipe.so.7.2.7:_ZN3ipe8Platform8readFileENS_6StringE
libipe.so.7.2.7:_ZN3ipe8Platform8runLatexENS_6StringENS_9LatexTypeE
libipe.so.7.2.7:_ZN3ipe8Platform8setDebugEb
libipe.so.7.2.7:_ZN3ipe8Platform8toDoubleENS_6StringE
libipe.so.7.2.7:_ZN3ipe8Platform9latexPathEv
libipe.so.7.2.7:_ZN3ipe9A85Source7getCharEv
libipe.so.7.2.7:_ZN3ipe9A85SourceC1ERNS_10DataSourceE
libipe.so.7.2.7:_ZN3ipe9A85SourceC2ERNS_10DataSourceE
libipe.so.7.2.7:_ZN3ipe9A85Stream5closeEv
libipe.so.7.2.7:_ZN3ipe9A85Stream7putCharEc
libipe.so.7.2.7:_ZN3ipe9A85StreamC1ERNS_6StreamE
libipe.so.7.2.7:_ZN3ipe9A85StreamC2ERNS_6StreamE
libipe.so.7.2.7:_ZN3ipe9Attribute10makeScalarENS_6StringES0_
libipe.so.7.2.7:_ZN3ipe9Attribute12makeTextSizeENS_6StringE
libipe.so.7.2.7:_ZN3ipe9Attribute13makeDashStyleENS_6StringE
libipe.so.7.2.7:_ZN3ipe9Attribute6normalENS_4KindE
libipe.so.7.2.7:_ZN3ipe9Attribute9makeColorENS_6StringES0_
libipe.so.7.2.7:_ZN3ipe9AttributeC1ENS_5ColorE
libipe.so.7.2.7:_ZN3ipe9AttributeC1ENS_5FixedE
libipe.so.7.2.7:_ZN3ipe9AttributeC1EbNS_6StringE
libipe.so.7.2.7:_ZN3ipe9AttributeC1Ebi
libipe.so.7.2.7:_ZN3ipe9AttributeC2ENS_5ColorE
libipe.so.7.2.7:_ZN3ipe9AttributeC2ENS_5FixedE
libipe.so.7.2.7:_ZN3ipe9AttributeC2EbNS_6StringE
libipe.so.7.2.7:_ZN3ipe9AttributeC2Ebi
libipe.so.7.2.7:_ZN3ipe9ImlParser10parseStyleERNS_10StyleSheetE
libipe.so.7.2.7:_ZN3ipe9ImlParser11parseBitmapEv
libipe.so.7.2.7:_ZN3ipe9ImlParser11parseObjectENS_6StringEPNS_4PageEPi
libipe.so.7.2.7:_ZN3ipe9ImlParser13parseDocumentERNS_8DocumentE
libipe.so.7.2.7:_ZN3ipe9ImlParser15parseStyleSheetEv
libipe.so.7.2.7:_ZN3ipe9ImlParser18parsePageSelectionEv
libipe.so.7.2.7:_ZN3ipe9ImlParser9parsePageERNS_4PageE
libipe.so.7.2.7:_ZN3ipe9ImlParser9pdfStreamEi
libipe.so.7.2.7:_ZN3ipe9ImlParserC1ERNS_10DataSourceE
libipe.so.7.2.7:_ZN3ipe9ImlParserC2ERNS_10DataSourceE
libipe.so.7.2.7:_ZN3ipe9PdfParser10getTrailerEv
libipe.so.7.2.7:_ZN3ipe9PdfParser12getObjectDefEv
libipe.so.7.2.7:_ZN3ipe9PdfParser14skipWhiteSpaceEv
libipe.so.7.2.7:_ZN3ipe9PdfParser8getTokenEv
libipe.so.7.2.7:_ZN3ipe9PdfParser8makeDictEv
libipe.so.7.2.7:_ZN3ipe9PdfParser8skipXRefEv
libipe.so.7.2.7:_ZN3ipe9PdfParser9getObjectEv
libipe.so.7.2.7:_ZN3ipe9PdfParser9makeArrayEv
libipe.so.7.2.7:_ZN3ipe9PdfParserC1ERNS_10DataSourceE
libipe.so.7.2.7:_ZN3ipe9PdfParserC2ERNS_10DataSourceE
libipe.so.7.2.7:_ZN3ipe9PdfWriter11createPagesEv
libipe.so.7.2.7:_ZN3ipe9PdfWriter11embedBitmapENS_6BitmapE
libipe.so.7.2.7:_ZN3ipe9PdfWriter11startObjectEi
libipe.so.7.2.7:_ZN3ipe9PdfWriter11writeStringENS_6StringE
libipe.so.7.2.7:_ZN3ipe9PdfWriter12createStreamEPKcib
libipe.so.7.2.7:_ZN3ipe9PdfWriter12embedBitmapsERKNS_12BitmapFinderE
libipe.so.7.2.7:_ZN3ipe9PdfWriter13createTrailerEv
libipe.so.7.2.7:_ZN3ipe9PdfWriter13embedIpeXFormEPKNS_7PdfDictE
libipe.so.7.2.7:_ZN3ipe9PdfWriter13embedResourceENS_6StringE
libipe.so.7.2.7:_ZN3ipe9PdfWriter14createPageViewEii
libipe.so.7.2.7:_ZN3ipe9PdfWriter14embedResourcesEv
libipe.so.7.2.7:_ZN3ipe9PdfWriter15createBookmarksEv
libipe.so.7.2.7:_ZN3ipe9PdfWriter15createResourcesERKNS_12BitmapFinderE
libipe.so.7.2.7:_ZN3ipe9PdfWriter15createXmlStreamENS_6StringEb
libipe.so.7.2.7:_ZN3ipe9PdfWriter18embedLatexResourceEiNS_6StringE
libipe.so.7.2.7:_ZN3ipe9PdfWriter18embedXFormResourceEPKNS_7PdfDictE
libipe.so.7.2.7:_ZN3ipe9PdfWriter9paintViewERNS_6StreamEii
libipe.so.7.2.7:_ZN3ipe9PdfWriterC1ERNS_10TellStreamEPKNS_8DocumentEPKNS_12PdfResourcesEbiii
libipe.so.7.2.7:_ZN3ipe9PdfWriterC2ERNS_10TellStreamEPKNS_8DocumentEPKNS_12PdfResourcesEbiii
libipe.so.7.2.7:_ZN3ipe9PdfWriterD1Ev
libipe.so.7.2.7:_ZN3ipe9PdfWriterD2Ev
libipe.so.7.2.7:_ZN3ipe9Reference11asReferenceEv
libipe.so.7.2.7:_ZN3ipe9Reference12setAttributeENS_8PropertyENS_9AttributeE
libipe.so.7.2.7:_ZN3ipe9Reference13flagsFromNameENS_6StringE
libipe.so.7.2.7:_ZN3ipe9Reference6setPenENS_9AttributeE
libipe.so.7.2.7:_ZN3ipe9Reference7setFillENS_9AttributeE
libipe.so.7.2.7:_ZN3ipe9Reference7setNameENS_9AttributeE
libipe.so.7.2.7:_ZN3ipe9Reference7setSizeENS_9AttributeE
libipe.so.7.2.7:_ZN3ipe9Reference9setStrokeENS_9AttributeE
libipe.so.7.2.7:_ZN3ipe9ReferenceC1ERKNS_13AllAttributesENS_9AttributeENS_6VectorE
libipe.so.7.2.7:_ZN3ipe9ReferenceC1ERKNS_13XmlAttributesENS_6StringE
libipe.so.7.2.7:_ZN3ipe9ReferenceC2ERKNS_13AllAttributesENS_9AttributeENS_6VectorE
libipe.so.7.2.7:_ZN3ipe9ReferenceC2ERKNS_13XmlAttributesENS_6StringE
libipe.so.7.2.7:_ZN3ipe9XmlParser10parseToTagEv
libipe.so.7.2.7:_ZN3ipe9XmlParser11parsePCDATAENS_6StringERS1_
libipe.so.7.2.7:_ZN3ipe9XmlParser11parseToTagXEv
libipe.so.7.2.7:_ZN3ipe9XmlParser14skipWhitespaceEv
libipe.so.7.2.7:_ZN3ipe9XmlParser15parseAttributesERNS_13XmlAttributesEb
libipe.so.7.2.7:_ZN3ipe9XmlParserC1ERNS_10DataSourceE
libipe.so.7.2.7:_ZN3ipe9XmlParserC2ERNS_10DataSourceE
libipe.so.7.2.7:_ZN3ipe9XmlParserD0Ev
libipe.so.7.2.7:_ZN3ipe9XmlParserD1Ev
libipe.so.7.2.7:_ZN3ipe9XmlParserD2Ev
libipe.so.7.2.7:_ZN3ipelsERNS_6StreamERKNS_4RectE
libipe.so.7.2.7:_ZN3ipelsERNS_6StreamERKNS_5FixedE
libipe.so.7.2.7:_ZN3ipelsERNS_6StreamERKNS_6LinearE
libipe.so.7.2.7:_ZN3ipelsERNS_6StreamERKNS_6MatrixE
libipe.so.7.2.7:_ZN3ipelsERNS_6StreamERKNS_6VectorE
libipe.so.7.2.7:_ZN8PsSource7getCharEv
libipe.so.7.2.7:_ZN8PsSource8readLineEv
libipe.so.7.2.7:_ZN8PsSource9skipToXmlEv
libipe.so.7.2.7:_ZNK3ipe10FileStream4tellEv
libipe.so.7.2.7:_ZNK3ipe10Repository8toStringEi
libipe.so.7.2.7:_ZNK3ipe10StyleSheet10findEffectENS_9AttributeE
libipe.so.7.2.7:_ZNK3ipe10StyleSheet10findSymbolENS_9AttributeE
libipe.so.7.2.7:_ZNK3ipe10StyleSheet10findTilingENS_9AttributeE
libipe.so.7.2.7:_ZNK3ipe10StyleSheet10titleStyleEv
libipe.so.7.2.7:_ZNK3ipe10StyleSheet11textPaddingEv
libipe.so.7.2.7:_ZNK3ipe10StyleSheet12findGradientENS_9AttributeE
libipe.so.7.2.7:_ZNK3ipe10StyleSheet15pageNumberStyleEv
libipe.so.7.2.7:_ZNK3ipe10StyleSheet3hasENS_4KindENS_9AttributeE
libipe.so.7.2.7:_ZNK3ipe10StyleSheet4findENS_4KindENS_9AttributeE
libipe.so.7.2.7:_ZNK3ipe10StyleSheet6layoutEv
libipe.so.7.2.7:_ZNK3ipe10StyleSheet8allNamesENS_4KindERSt6vectorINS_9AttributeESaIS3_EE
libipe.so.7.2.7:_ZNK3ipe10StyleSheet9saveAsXmlERNS_6StreamEb
libipe.so.7.2.7:_ZNK3ipe12ClosedSpline14asClosedSplineEv
libipe.so.7.2.7:_ZNK3ipe12ClosedSpline4drawERNS_7PainterE
libipe.so.7.2.7:_ZNK3ipe12ClosedSpline4saveERNS_6StreamE
libipe.so.7.2.7:_ZNK3ipe12ClosedSpline4typeEv
libipe.so.7.2.7:_ZNK3ipe12ClosedSpline7beziersERSt6vectorINS_6BezierESaIS2_EE
libipe.so.7.2.7:_ZNK3ipe12ClosedSpline7snapBndERKNS_6VectorERKNS_6MatrixERS1_Rd
libipe.so.7.2.7:_ZNK3ipe12ClosedSpline7snapVtxERKNS_6VectorERKNS_6MatrixERS1_Rdb
libipe.so.7.2.7:_ZNK3ipe12ClosedSpline8distanceERKNS_6VectorERKNS_6MatrixEd
libipe.so.7.2.7:_ZNK3ipe12ClosedSpline9addToBBoxERNS_4RectERKNS_6MatrixEb
libipe.so.7.2.7:_ZNK3ipe12CurveSegment3arcEv
libipe.so.7.2.7:_ZNK3ipe12CurveSegment4drawERNS_7PainterE
libipe.so.7.2.7:_ZNK3ipe12CurveSegment7beziersERSt6vectorINS_6BezierESaIS2_EE
libipe.so.7.2.7:_ZNK3ipe12CurveSegment7snapBndERKNS_6VectorERKNS_6MatrixERS1_Rd
libipe.so.7.2.7:_ZNK3ipe12CurveSegment7snapVtxERKNS_6VectorERKNS_6MatrixERS1_Rdb
libipe.so.7.2.7:_ZNK3ipe12CurveSegment8distanceERKNS_6VectorERKNS_6MatrixEd
libipe.so.7.2.7:_ZNK3ipe12CurveSegment9addToBBoxERNS_4RectERKNS_6MatrixEb
libipe.so.7.2.7:_ZNK3ipe12PdfResources10pageNumberEii
libipe.so.7.2.7:_ZNK3ipe12PdfResources12findResourceENS_6StringES1_
libipe.so.7.2.7:_ZNK3ipe12PdfResources12findResourceEPKNS_7PdfDictENS_6StringES4_
libipe.so.7.2.7:_ZNK3ipe12PdfResources15resourcesOfKindENS_6StringE
libipe.so.7.2.7:_ZNK3ipe12PdfResources4showEv
libipe.so.7.2.7:_ZNK3ipe12PdfResources6objectEi
libipe.so.7.2.7:_ZNK3ipe12PdfResources7getDeepEPKNS_7PdfDictENS_6StringE
libipe.so.7.2.7:_ZNK3ipe12PdfResources7getDictEPKNS_7PdfDictENS_6StringE
libipe.so.7.2.7:_ZNK3ipe12StringStream4tellEv
libipe.so.7.2.7:_ZNK3ipe13XmlAttributes3hasENS_6StringE
libipe.so.7.2.7:_ZNK3ipe13XmlAttributes3hasENS_6StringERS1_
libipe.so.7.2.7:_ZNK3ipe13XmlAttributesixENS_6StringE
libipe.so.7.2.7:_ZNK3ipe3Arc4bboxEv
libipe.so.7.2.7:_ZNK3ipe3Arc8distanceERKNS_6VectorEd
libipe.so.7.2.7:_ZNK3ipe3Arc8distanceERKNS_6VectorEdRS1_RNS_5AngleE
libipe.so.7.2.7:_ZNK3ipe3Arc8straightEd
libipe.so.7.2.7:_ZNK3ipe3Arc9intersectERKNS_4LineERSt6vectorINS_6VectorESaIS5_EE
libipe.so.7.2.7:_ZNK3ipe3Arc9intersectERKNS_6BezierERSt6vectorINS_6VectorESaIS5_EE
libipe.so.7.2.7:_ZNK3ipe3Arc9intersectERKNS_7SegmentERSt6vectorINS_6VectorESaIS5_EE
libipe.so.7.2.7:_ZNK3ipe3Arc9intersectERKS0_RSt6vectorINS_6VectorESaIS4_EE
libipe.so.7.2.7:_ZNK3ipe3Arc9subdivideERS0_S1_
libipe.so.7.2.7:_ZNK3ipe4Line4sideERKNS_6VectorE
libipe.so.7.2.7:_ZNK3ipe4Line7projectERKNS_6VectorE
libipe.so.7.2.7:_ZNK3ipe4Line8distanceERKNS_6VectorE
libipe.so.7.2.7:_ZNK3ipe4Page12hasSelectionEv
libipe.so.7.2.7:_ZNK3ipe4Page13saveAsIpePageERNS_6StreamE
libipe.so.7.2.7:_ZNK3ipe4Page13saveSelectionERNS_6StreamE
libipe.so.7.2.7:_ZNK3ipe4Page14invalidateBBoxEi
libipe.so.7.2.7:_ZNK3ipe4Page14objSnapsInViewEii
libipe.so.7.2.7:_ZNK3ipe4Page16countMarkedViewsEv
libipe.so.7.2.7:_ZNK3ipe4Page16primarySelectionEv
libipe.so.7.2.7:_ZNK3ipe4Page4bboxEi
libipe.so.7.2.7:_ZNK3ipe4Page5titleEv
libipe.so.7.2.7:_ZNK3ipe4Page7sectionEi
libipe.so.7.2.7:_ZNK3ipe4Page7snapBndEiRKNS_6VectorERS1_Rd
libipe.so.7.2.7:_ZNK3ipe4Page7snapCtlEiRKNS_6VectorERS1_Rd
libipe.so.7.2.7:_ZNK3ipe4Page7snapVtxEiRKNS_6VectorERS1_Rd
libipe.so.7.2.7:_ZNK3ipe4Page8distanceEiRKNS_6VectorEd
libipe.so.7.2.7:_ZNK3ipe4Page8pageBBoxEPKNS_7CascadeE
libipe.so.7.2.7:_ZNK3ipe4Page8viewBBoxEPKNS_7CascadeEi
libipe.so.7.2.7:_ZNK3ipe4Page9findLayerENS_6StringE
libipe.so.7.2.7:_ZNK3ipe4Page9saveAsXmlERNS_6StreamE
libipe.so.7.2.7:_ZNK3ipe4Page9titleTextEv
libipe.so.7.2.7:_ZNK3ipe4Path10checkStyleEPKNS_7CascadeERSt6vectorINS_9AttributeESaIS5_EE
libipe.so.7.2.7:_ZNK3ipe4Path10drawSimpleERNS_7PainterE
libipe.so.7.2.7:_ZNK3ipe4Path12getAttributeENS_8PropertyE
libipe.so.7.2.7:_ZNK3ipe4Path4drawERNS_7PainterE
libipe.so.7.2.7:_ZNK3ipe4Path4typeEv
libipe.so.7.2.7:_ZNK3ipe4Path5cloneEv
libipe.so.7.2.7:_ZNK3ipe4Path6acceptERNS_7VisitorE
libipe.so.7.2.7:_ZNK3ipe4Path7snapBndERKNS_6VectorERKNS_6MatrixERS1_Rd
libipe.so.7.2.7:_ZNK3ipe4Path7snapCtlERKNS_6VectorERKNS_6MatrixERS1_Rd
libipe.so.7.2.7:_ZNK3ipe4Path7snapVtxERKNS_6VectorERKNS_6MatrixERS1_Rd
libipe.so.7.2.7:_ZNK3ipe4Path8distanceERKNS_6VectorERKNS_6MatrixEd
libipe.so.7.2.7:_ZNK3ipe4Path9addToBBoxERNS_4RectERKNS_6MatrixEb
libipe.so.7.2.7:_ZNK3ipe4Path9saveAsXmlERNS_6StreamENS_6StringE
libipe.so.7.2.7:_ZNK3ipe4Rect10intersectsERKS0_
libipe.so.7.2.7:_ZNK3ipe4Rect16certainClearanceERKNS_6VectorEd
libipe.so.7.2.7:_ZNK3ipe4Rect8containsERKNS_6VectorE
libipe.so.7.2.7:_ZNK3ipe4Rect8containsERKS0_
libipe.so.7.2.7:_ZNK3ipe4Snap10simpleSnapERNS_6VectorEPKNS_4PageEidPNS_4ToolE
libipe.so.7.2.7:_ZNK3ipe4Snap16intersectionSnapERKNS_6VectorERS1_PKNS_4PageEiRd
libipe.so.7.2.7:_ZNK3ipe4Snap23snapAngularIntersectionERNS_6VectorERKNS_4LineEPKNS_4PageEid
libipe.so.7.2.7:_ZNK3ipe4Snap4snapERNS_6VectorEPKNS_4PageEidPNS_4ToolEPS1_
libipe.so.7.2.7:_ZNK3ipe4Snap7getLineERKNS_6VectorES3_
libipe.so.7.2.7:_ZNK3ipe4Text10checkStyleEPKNS_7CascadeERSt6vectorINS_9AttributeESaIS5_EE
libipe.so.7.2.7:_ZNK3ipe4Text10drawSimpleERNS_7PainterE
libipe.so.7.2.7:_ZNK3ipe4Text12getAttributeENS_8PropertyE
libipe.so.7.2.7:_ZNK3ipe4Text13quadrilateralERKNS_6MatrixEPNS_6VectorE
libipe.so.7.2.7:_ZNK3ipe4Text4drawERNS_7PainterE
libipe.so.7.2.7:_ZNK3ipe4Text4typeEv
libipe.so.7.2.7:_ZNK3ipe4Text5alignEv
libipe.so.7.2.7:_ZNK3ipe4Text5cloneEv
libipe.so.7.2.7:_ZNK3ipe4Text6acceptERNS_7VisitorE
libipe.so.7.2.7:_ZNK3ipe4Text7snapCtlERKNS_6VectorERKNS_6MatrixERS1_Rd
libipe.so.7.2.7:_ZNK3ipe4Text8distanceERKNS_6VectorERKNS_6MatrixEd
libipe.so.7.2.7:_ZNK3ipe4Text8setXFormEPNS0_5XFormE
libipe.so.7.2.7:_ZNK3ipe4Text8textTypeEv
libipe.so.7.2.7:_ZNK3ipe4Text9addToBBoxERNS_4RectERKNS_6MatrixEb
libipe.so.7.2.7:_ZNK3ipe4Text9saveAsXmlERNS_6StreamENS_6StringE
libipe.so.7.2.7:_ZNK3ipe4Tool7snapVtxERKNS_6VectorERS1_Rdb
libipe.so.7.2.7:_ZNK3ipe5Angle11liesBetweenES0_S0_
libipe.so.7.2.7:_ZNK3ipe5Angle7degreesEv
libipe.so.7.2.7:_ZNK3ipe5Color4saveERNS_6StreamE
libipe.so.7.2.7:_ZNK3ipe5Color6isGrayEv
libipe.so.7.2.7:_ZNK3ipe5Color7saveRGBERNS_6StreamE
libipe.so.7.2.7:_ZNK3ipe5ColoreqERKS0_
libipe.so.7.2.7:_ZNK3ipe5Curve14closingSegmentEPNS_6VectorE
libipe.so.7.2.7:_ZNK3ipe5Curve4drawERNS_7PainterE
libipe.so.7.2.7:_ZNK3ipe5Curve4saveERNS_6StreamE
libipe.so.7.2.7:_ZNK3ipe5Curve4typeEv
libipe.so.7.2.7:_ZNK3ipe5Curve7asCurveEv
libipe.so.7.2.7:_ZNK3ipe5Curve7segmentEi
libipe.so.7.2.7:_ZNK3ipe5Curve7snapBndERKNS_6VectorERKNS_6MatrixERS1_Rd
libipe.so.7.2.7:_ZNK3ipe5Curve7snapVtxERKNS_6VectorERKNS_6MatrixERS1_Rdb
libipe.so.7.2.7:_ZNK3ipe5Curve8distanceERKNS_6VectorERKNS_6MatrixEd
libipe.so.7.2.7:_ZNK3ipe5Curve9addToBBoxERNS_4RectERKNS_6MatrixEb
libipe.so.7.2.7:_ZNK3ipe5Fixed4multEii
libipe.so.7.2.7:_ZNK3ipe5Group10checkStyleEPKNS_7CascadeERSt6vectorINS_9AttributeESaIS5_EE
libipe.so.7.2.7:_ZNK3ipe5Group10drawSimpleERNS_7PainterE
libipe.so.7.2.7:_ZNK3ipe5Group12getAttributeENS_8PropertyE
libipe.so.7.2.7:_ZNK3ipe5Group19saveComponentsAsXmlERNS_6StreamE
libipe.so.7.2.7:_ZNK3ipe5Group4drawERNS_7PainterE
libipe.so.7.2.7:_ZNK3ipe5Group4typeEv
libipe.so.7.2.7:_ZNK3ipe5Group5cloneEv
libipe.so.7.2.7:_ZNK3ipe5Group6acceptERNS_7VisitorE
libipe.so.7.2.7:_ZNK3ipe5Group6pinnedEv
libipe.so.7.2.7:_ZNK3ipe5Group7asGroupEv
libipe.so.7.2.7:_ZNK3ipe5Group7snapBndERKNS_6VectorERKNS_6MatrixERS1_Rd
libipe.so.7.2.7:_ZNK3ipe5Group7snapCtlERKNS_6VectorERKNS_6MatrixERS1_Rd
libipe.so.7.2.7:_ZNK3ipe5Group7snapVtxERKNS_6VectorERKNS_6MatrixERS1_Rd
libipe.so.7.2.7:_ZNK3ipe5Group8distanceERKNS_6VectorERKNS_6MatrixEd
libipe.so.7.2.7:_ZNK3ipe5Group9addToBBoxERNS_4RectERKNS_6MatrixEb
libipe.so.7.2.7:_ZNK3ipe5Group9saveAsXmlERNS_6StreamENS_6StringE
libipe.so.7.2.7:_ZNK3ipe5Image10drawSimpleERNS_7PainterE
libipe.so.7.2.7:_ZNK3ipe5Image4drawERNS_7PainterE
libipe.so.7.2.7:_ZNK3ipe5Image4typeEv
libipe.so.7.2.7:_ZNK3ipe5Image5cloneEv
libipe.so.7.2.7:_ZNK3ipe5Image6acceptERNS_7VisitorE
libipe.so.7.2.7:_ZNK3ipe5Image7snapCtlERKNS_6VectorERKNS_6MatrixERS1_Rd
libipe.so.7.2.7:_ZNK3ipe5Image8distanceERKNS_6VectorERKNS_6MatrixEd
libipe.so.7.2.7:_ZNK3ipe5Image9addToBBoxERNS_4RectERKNS_6MatrixEb
libipe.so.7.2.7:_ZNK3ipe5Image9saveAsXmlERNS_6StreamENS_6StringE
libipe.so.7.2.7:_ZNK3ipe5Shape4drawERNS_7PainterE
libipe.so.7.2.7:_ZNK3ipe5Shape4saveERNS_6StreamE
libipe.so.7.2.7:_ZNK3ipe5Shape7snapBndERKNS_6VectorERKNS_6MatrixERS1_Rd
libipe.so.7.2.7:_ZNK3ipe5Shape7snapVtxERKNS_6VectorERKNS_6MatrixERS1_Rdb
libipe.so.7.2.7:_ZNK3ipe5Shape8distanceERKNS_6VectorERKNS_6MatrixEd
libipe.so.7.2.7:_ZNK3ipe5Shape9addToBBoxERNS_4RectERKNS_6MatrixEb
libipe.so.7.2.7:_ZNK3ipe5Shape9isSegmentEv
libipe.so.7.2.7:_ZNK3ipe6Bezier11approximateEdRSt6vectorINS_6VectorESaIS2_EE
libipe.so.7.2.7:_ZNK3ipe6Bezier4bboxEv
libipe.so.7.2.7:_ZNK3ipe6Bezier4snapERKNS_6VectorERdRS1_S4_
libipe.so.7.2.7:_ZNK3ipe6Bezier5pointEd
libipe.so.7.2.7:_ZNK3ipe6Bezier7tangentEd
libipe.so.7.2.7:_ZNK3ipe6Bezier8straightEd
libipe.so.7.2.7:_ZNK3ipe6Bezier9intersectERKNS_4LineERSt6vectorINS_6VectorESaIS5_EE
libipe.so.7.2.7:_ZNK3ipe6Bezier9intersectERKNS_7SegmentERSt6vectorINS_6VectorESaIS5_EE
libipe.so.7.2.7:_ZNK3ipe6Bezier9intersectERKS0_RSt6vectorINS_6VectorESaIS4_EE
libipe.so.7.2.7:_ZNK3ipe6Bezier9subdivideERS0_S1_
libipe.so.7.2.7:_ZNK3ipe6Bitmap13setRenderDataEPNS0_11MRenderDataE
libipe.so.7.2.7:_ZNK3ipe6Bitmap5equalES0_
libipe.so.7.2.7:_ZNK3ipe6Bitmap8colorKeyEv
libipe.so.7.2.7:_ZNK3ipe6Bitmap9pixelDataEv
libipe.so.7.2.7:_ZNK3ipe6Bitmap9saveAsXmlERNS_6StreamEii
libipe.so.7.2.7:_ZNK3ipe6Effect14pageDictionaryERNS_6StreamE
libipe.so.7.2.7:_ZNK3ipe6Linear7inverseEv
libipe.so.7.2.7:_ZNK3ipe6Matrix7inverseEv
libipe.so.7.2.7:_ZNK3ipe6Object10checkStyleEPKNS_7CascadeERSt6vectorINS_9AttributeESaIS5_EE
libipe.so.7.2.7:_ZNK3ipe6Object12getAttributeENS_8PropertyE
libipe.so.7.2.7:_ZNK3ipe6Object19saveAttributesAsXmlERNS_6StreamENS_6StringE
libipe.so.7.2.7:_ZNK3ipe6Object6pinnedEv
libipe.so.7.2.7:_ZNK3ipe6Object7asGroupEv
libipe.so.7.2.7:_ZNK3ipe6Object7snapBndERKNS_6VectorERKNS_6MatrixERS1_Rd
libipe.so.7.2.7:_ZNK3ipe6Object7snapCtlERKNS_6VectorERKNS_6MatrixERS1_Rd
libipe.so.7.2.7:_ZNK3ipe6Object7snapVtxERKNS_6VectorERKNS_6MatrixERS1_Rd
libipe.so.7.2.7:_ZNK3ipe6PdfObj3refEv
libipe.so.7.2.7:_ZNK3ipe6PdfObj4dictEv
libipe.so.7.2.7:_ZNK3ipe6PdfObj4nameEv
libipe.so.7.2.7:_ZNK3ipe6PdfObj4nullEv
libipe.so.7.2.7:_ZNK3ipe6PdfObj4reprEv
libipe.so.7.2.7:_ZNK3ipe6PdfObj5arrayEv
libipe.so.7.2.7:_ZNK3ipe6PdfObj6numberEv
libipe.so.7.2.7:_ZNK3ipe6PdfObj6stringEv
libipe.so.7.2.7:_ZNK3ipe6PdfObj7booleanEv
libipe.so.7.2.7:_ZNK3ipe6PdfRef3refEv
libipe.so.7.2.7:_ZNK3ipe6PdfRef5writeERNS_6StreamEPKSt13unordered_mapIiiSt4hashIiESt8equal_toIiESaISt4pairIKiiEEEb
libipe.so.7.2.7:_ZNK3ipe6String1zEv
libipe.so.7.2.7:_ZNK3ipe6String4findEPKc
libipe.so.7.2.7:_ZNK3ipe6String4findEc
libipe.so.7.2.7:_ZNK3ipe6String5rfindEc
libipe.so.7.2.7:_ZNK3ipe6String5rightEi
libipe.so.7.2.7:_ZNK3ipe6String7getLineERi
libipe.so.7.2.7:_ZNK3ipe6String7unicodeERi
libipe.so.7.2.7:_ZNK3ipe6String9hasPrefixEPKc
libipe.so.7.2.7:_ZNK3ipe6StringeqEPKc
libipe.so.7.2.7:_ZNK3ipe6StringeqERKS0_
libipe.so.7.2.7:_ZNK3ipe6StringltERKS0_
libipe.so.7.2.7:_ZNK3ipe6StringplERKS0_
libipe.so.7.2.7:_ZNK3ipe6Vector10normalizedEv
libipe.so.7.2.7:_ZNK3ipe6Vector10orthogonalEv
libipe.so.7.2.7:_ZNK3ipe6Vector3lenEv
libipe.so.7.2.7:_ZNK3ipe6Vector4snapERKS0_RS0_Rd
libipe.so.7.2.7:_ZNK3ipe6Vector5angleEv
libipe.so.7.2.7:_ZNK3ipe6Vector9factorizeERS0_
libipe.so.7.2.7:_ZNK3ipe7Cascade10findEffectENS_9AttributeE
libipe.so.7.2.7:_ZNK3ipe7Cascade10findLayoutEv
libipe.so.7.2.7:_ZNK3ipe7Cascade10findSymbolENS_9AttributeE
libipe.so.7.2.7:_ZNK3ipe7Cascade10findTilingENS_9AttributeE
libipe.so.7.2.7:_ZNK3ipe7Cascade12findGradientENS_9AttributeE
libipe.so.7.2.7:_ZNK3ipe7Cascade12findPreambleEv
libipe.so.7.2.7:_ZNK3ipe7Cascade14findDefinitionENS_4KindENS_9AttributeE
libipe.so.7.2.7:_ZNK3ipe7Cascade14findTitleStyleEv
libipe.so.7.2.7:_ZNK3ipe7Cascade15findTextPaddingEv
libipe.so.7.2.7:_ZNK3ipe7Cascade19findPageNumberStyleEv
libipe.so.7.2.7:_ZNK3ipe7Cascade3hasENS_4KindENS_9AttributeE
libipe.so.7.2.7:_ZNK3ipe7Cascade4findENS_4KindENS_9AttributeE
libipe.so.7.2.7:_ZNK3ipe7Cascade7lineCapEv
libipe.so.7.2.7:_ZNK3ipe7Cascade8allNamesENS_4KindERSt6vectorINS_9AttributeESaIS3_EE
libipe.so.7.2.7:_ZNK3ipe7Cascade8fillRuleEv
libipe.so.7.2.7:_ZNK3ipe7Cascade8lineJoinEv
libipe.so.7.2.7:_ZNK3ipe7Cascade9saveAsXmlERNS_6StreamE
libipe.so.7.2.7:_ZNK3ipe7Ellipse4drawERNS_7PainterE
libipe.so.7.2.7:_ZNK3ipe7Ellipse4saveERNS_6StreamE
libipe.so.7.2.7:_ZNK3ipe7Ellipse4typeEv
libipe.so.7.2.7:_ZNK3ipe7Ellipse7snapBndERKNS_6VectorERKNS_6MatrixERS1_Rd
libipe.so.7.2.7:_ZNK3ipe7Ellipse7snapVtxERKNS_6VectorERKNS_6MatrixERS1_Rdb
libipe.so.7.2.7:_ZNK3ipe7Ellipse8distanceERKNS_6VectorERKNS_6MatrixEd
libipe.so.7.2.7:_ZNK3ipe7Ellipse9addToBBoxERNS_4RectERKNS_6MatrixEb
libipe.so.7.2.7:_ZNK3ipe7Ellipse9asEllipseEv
libipe.so.7.2.7:_ZNK3ipe7Painter9dashStyleERSt6vectorIdSaIdEERd
libipe.so.7.2.7:_ZNK3ipe7PdfBool5writeERNS_6StreamEPKSt13unordered_mapIiiSt4hashIiESt8equal_toIiESaISt4pairIKiiEEEb
libipe.so.7.2.7:_ZNK3ipe7PdfBool7booleanEv
libipe.so.7.2.7:_ZNK3ipe7PdfDict14getNumberArrayENS_6StringEPKNS_7PdfFileERSt6vectorIdSaIdEE
libipe.so.7.2.7:_ZNK3ipe7PdfDict3getENS_6StringEPKNS_7PdfFileE
libipe.so.7.2.7:_ZNK3ipe7PdfDict4dictEv
libipe.so.7.2.7:_ZNK3ipe7PdfDict5writeERNS_6StreamEPKSt13unordered_mapIiiSt4hashIiESt8equal_toIiESaISt4pairIKiiEEEb
libipe.so.7.2.7:_ZNK3ipe7PdfDict7inflateEv
libipe.so.7.2.7:_ZNK3ipe7PdfDict8deflatedEv
libipe.so.7.2.7:_ZNK3ipe7PdfDict8dictReprEv
libipe.so.7.2.7:_ZNK3ipe7PdfDict9dictWriteERNS_6StreamEPKSt13unordered_mapIiiSt4hashIiESt8equal_toIiESaISt4pairIKiiEEEbi
libipe.so.7.2.7:_ZNK3ipe7PdfDict9getNumberENS_6StringERdPKNS_7PdfFileE
libipe.so.7.2.7:_ZNK3ipe7PdfFile4pageEv
libipe.so.7.2.7:_ZNK3ipe7PdfFile6objectEi
libipe.so.7.2.7:_ZNK3ipe7PdfFile7catalogEv
libipe.so.7.2.7:_ZNK3ipe7PdfName4nameEv
libipe.so.7.2.7:_ZNK3ipe7PdfName5writeERNS_6StreamEPKSt13unordered_mapIiiSt4hashIiESt8equal_toIiESaISt4pairIKiiEEEb
libipe.so.7.2.7:_ZNK3ipe7PdfNull4nullEv
libipe.so.7.2.7:_ZNK3ipe7PdfNull5writeERNS_6StreamEPKSt13unordered_mapIiiSt4hashIiESt8equal_toIiESaISt4pairIKiiEEEb
libipe.so.7.2.7:_ZNK3ipe7Segment10intersectsERKNS_4LineERNS_6VectorE
libipe.so.7.2.7:_ZNK3ipe7Segment10intersectsERKS0_RNS_6VectorE
libipe.so.7.2.7:_ZNK3ipe7Segment4snapERKNS_6VectorERS1_Rd
libipe.so.7.2.7:_ZNK3ipe7Segment7projectERKNS_6VectorERS1_
libipe.so.7.2.7:_ZNK3ipe7Segment8distanceERKNS_6VectorE
libipe.so.7.2.7:_ZNK3ipe7Segment8distanceERKNS_6VectorEd
libipe.so.7.2.7:_ZNK3ipe7SubPath14asClosedSplineEv
libipe.so.7.2.7:_ZNK3ipe7SubPath6closedEv
libipe.so.7.2.7:_ZNK3ipe7SubPath7asCurveEv
libipe.so.7.2.7:_ZNK3ipe7SubPath9asEllipseEv
libipe.so.7.2.7:_ZNK3ipe8Document10checkStyleERSt6vectorINS_9AttributeESaIS2_EE
libipe.so.7.2.7:_ZNK3ipe8Document10exportViewEPKcNS0_7TFormatEjii
libipe.so.7.2.7:_ZNK3ipe8Document11exportPagesEPKcjii
libipe.so.7.2.7:_ZNK3ipe8Document11findBitmapsERNS_12BitmapFinderE
libipe.so.7.2.7:_ZNK3ipe8Document15countTotalViewsEv
libipe.so.7.2.7:_ZNK3ipe8Document4saveEPKcNS0_7TFormatEj
libipe.so.7.2.7:_ZNK3ipe8Document4saveERNS_10TellStreamENS0_7TFormatEj
libipe.so.7.2.7:_ZNK3ipe8Document9saveAsXmlERNS_6StreamEb
libipe.so.7.2.7:_ZNK3ipe8PdfArray3objEiPKNS_7PdfFileE
libipe.so.7.2.7:_ZNK3ipe8PdfArray5arrayEv
libipe.so.7.2.7:_ZNK3ipe8PdfArray5writeERNS_6StreamEPKSt13unordered_mapIiiSt4hashIiESt8equal_toIiESaISt4pairIKiiEEEb
libipe.so.7.2.7:_ZNK3ipe9Attribute5colorEv
libipe.so.7.2.7:_ZNK3ipe9Attribute6numberEv
libipe.so.7.2.7:_ZNK3ipe9Attribute6stringEv
libipe.so.7.2.7:_ZNK3ipe9PdfNumber5writeERNS_6StreamEPKSt13unordered_mapIiiSt4hashIiESt8equal_toIiESaISt4pairIKiiEEEb
libipe.so.7.2.7:_ZNK3ipe9PdfNumber6numberEv
libipe.so.7.2.7:_ZNK3ipe9PdfString5writeERNS_6StreamEPKSt13unordered_mapIiiSt4hashIiESt8equal_toIiESaISt4pairIKiiEEEb
libipe.so.7.2.7:_ZNK3ipe9PdfString6decodeEv
libipe.so.7.2.7:_ZNK3ipe9PdfString6stringEv
libipe.so.7.2.7:_ZNK3ipe9PdfWriter11hasResourceENS_6StringE
libipe.so.7.2.7:_ZNK3ipe9Reference10checkStyleEPKNS_7CascadeERSt6vectorINS_9AttributeESaIS5_EE
libipe.so.7.2.7:_ZNK3ipe9Reference10drawSimpleERNS_7PainterE
libipe.so.7.2.7:_ZNK3ipe9Reference12getAttributeENS_8PropertyE
libipe.so.7.2.7:_ZNK3ipe9Reference4drawERNS_7PainterE
libipe.so.7.2.7:_ZNK3ipe9Reference4typeEv
libipe.so.7.2.7:_ZNK3ipe9Reference5cloneEv
libipe.so.7.2.7:_ZNK3ipe9Reference6acceptERNS_7VisitorE
libipe.so.7.2.7:_ZNK3ipe9Reference7snapBndERKNS_6VectorERKNS_6MatrixERS1_Rd
libipe.so.7.2.7:_ZNK3ipe9Reference7snapVtxERKNS_6VectorERKNS_6MatrixERS1_Rd
libipe.so.7.2.7:_ZNK3ipe9Reference8distanceERKNS_6VectorERKNS_6MatrixEd
libipe.so.7.2.7:_ZNK3ipe9Reference9addToBBoxERNS_4RectERKNS_6MatrixEb
libipe.so.7.2.7:_ZNK3ipe9Reference9saveAsXmlERNS_6StreamENS_6StringE
libipe.so.7.2.7:_ZNK8PsSource5imageEi
libipecairo.so.7.2.7:_ZN3ipe12CairoPainter10doDrawPathENS_9TPathModeE
libipecairo.so.7.2.7:_ZN3ipe12CairoPainter10doDrawTextEPKNS_4TextE
libipecairo.so.7.2.7:_ZN3ipe12CairoPainter10drawGlyphsERSt6vectorI13cairo_glyph_tSaIS2_EE
libipecairo.so.7.2.7:_ZN3ipe12CairoPainter11doClosePathEv
libipecairo.so.7.2.7:_ZN3ipe12CairoPainter12doDrawBitmapENS_6BitmapE
libipecairo.so.7.2.7:_ZN3ipe12CairoPainter12findResourceENS_6StringES1_
libipecairo.so.7.2.7:_ZN3ipe12CairoPainter12opStrokeFillEbbbb
libipecairo.so.7.2.7:_ZN3ipe12CairoPainter13collectGlyphsENS_6StringERSt6vectorI13cairo_glyph_tSaIS3_EERNS_6VectorE
libipecairo.so.7.2.7:_ZN3ipe12CairoPainter13doAddClipPathEv
libipecairo.so.7.2.7:_ZN3ipe12CairoPainter3opJEv
libipecairo.so.7.2.7:_ZN3ipe12CairoPainter3opMEv
libipecairo.so.7.2.7:_ZN3ipe12CairoPainter3opQEv
libipecairo.so.7.2.7:_ZN3ipe12CairoPainter3opWEb
libipecairo.so.7.2.7:_ZN3ipe12CairoPainter3opcEv
libipecairo.so.7.2.7:_ZN3ipe12CairoPainter3opdEv
libipecairo.so.7.2.7:_ZN3ipe12CairoPainter3opgEb
libipecairo.so.7.2.7:_ZN3ipe12CairoPainter3ophEv
libipecairo.so.7.2.7:_ZN3ipe12CairoPainter3opiEv
libipecairo.so.7.2.7:_ZN3ipe12CairoPainter3opjEv
libipecairo.so.7.2.7:_ZN3ipe12CairoPainter3opkEb
libipecairo.so.7.2.7:_ZN3ipe12CairoPainter3oplEv
libipecairo.so.7.2.7:_ZN3ipe12CairoPainter3opmEv
libipecairo.so.7.2.7:_ZN3ipe12CairoPainter3opnEv
libipecairo.so.7.2.7:_ZN3ipe12CairoPainter3opqEv
libipecairo.so.7.2.7:_ZN3ipe12CairoPainter3opvEv
libipecairo.so.7.2.7:_ZN3ipe12CairoPainter3opwEv
libipecairo.so.7.2.7:_ZN3ipe12CairoPainter3opyEv
libipecairo.so.7.2.7:_ZN3ipe12CairoPainter4opBTEv
libipecairo.so.7.2.7:_ZN3ipe12CairoPainter4opDoEv
libipecairo.so.7.2.7:_ZN3ipe12CairoPainter4opETEv
libipecairo.so.7.2.7:_ZN3ipe12CairoPainter4opTJEv
libipecairo.so.7.2.7:_ZN3ipe12CairoPainter4opTcEPd
libipecairo.so.7.2.7:_ZN3ipe12CairoPainter4opTdEb
libipecairo.so.7.2.7:_ZN3ipe12CairoPainter4opTfEv
libipecairo.so.7.2.7:_ZN3ipe12CairoPainter4opTjEbb
libipecairo.so.7.2.7:_ZN3ipe12CairoPainter4opTmEv
libipecairo.so.7.2.7:_ZN3ipe12CairoPainter4opTzEv
libipecairo.so.7.2.7:_ZN3ipe12CairoPainter4opcmEv
libipecairo.so.7.2.7:_ZN3ipe12CairoPainter4opgsEv
libipecairo.so.7.2.7:_ZN3ipe12CairoPainter4opreEv
libipecairo.so.7.2.7:_ZN3ipe12CairoPainter4oprgEb
libipecairo.so.7.2.7:_ZN3ipe12CairoPainter4opshEv
libipecairo.so.7.2.7:_ZN3ipe12CairoPainter5doPopEv
libipecairo.so.7.2.7:_ZN3ipe12CairoPainter6doPushEv
libipecairo.so.7.2.7:_ZN3ipe12CairoPainter7executeEPKNS_7PdfDictE
libipecairo.so.7.2.7:_ZN3ipe12CairoPainter7opTstarEv
libipecairo.so.7.2.7:_ZN3ipe12CairoPainter8doLineToERKNS_6VectorE
libipecairo.so.7.2.7:_ZN3ipe12CairoPainter8doMoveToERKNS_6VectorE
libipecairo.so.7.2.7:_ZN3ipe12CairoPainter9clearArgsEv
libipecairo.so.7.2.7:_ZN3ipe12CairoPainter9doCurveToERKNS_6VectorES3_S3_
libipecairo.so.7.2.7:_ZN3ipe12CairoPainter9doDrawArcERKNS_3ArcE
libipecairo.so.7.2.7:_ZN3ipe12CairoPainterC1EPKNS_7CascadeEPNS_5FontsEP6_cairodb
libipecairo.so.7.2.7:_ZN3ipe12CairoPainterC2EPKNS_7CascadeEPNS_5FontsEP6_cairodb
libipecairo.so.7.2.7:_ZN3ipe4Face10glyphIndexEi
libipecairo.so.7.2.7:_ZN3ipe4Face11getCIDWidthEPKNS_7PdfDictE
libipecairo.so.7.2.7:_ZN3ipe4Face11getFontFileEPKNS_7PdfDictERNS_6BufferE
libipecairo.so.7.2.7:_ZN3ipe4Face14getSimpleWidthEPKNS_7PdfDictE
libipecairo.so.7.2.7:_ZN3ipe4Face16getType1EncodingEPKNS_7PdfDictE
libipecairo.so.7.2.7:_ZN3ipe4Face21setupTruetypeEncodingEv
libipecairo.so.7.2.7:_ZN3ipe4FaceC1EPKNS_7PdfDictEPKNS_12PdfResourcesE
libipecairo.so.7.2.7:_ZN3ipe4FaceC2EPKNS_7PdfDictEPKNS_12PdfResourcesE
libipecairo.so.7.2.7:_ZN3ipe4FaceD1Ev
libipecairo.so.7.2.7:_ZN3ipe4FaceD2Ev
libipecairo.so.7.2.7:_ZN3ipe5Fonts10screenFontEv
libipecairo.so.7.2.7:_ZN3ipe5Fonts15freetypeVersionEv
libipecairo.so.7.2.7:_ZN3ipe5Fonts3NewEPKNS_12PdfResourcesE
libipecairo.so.7.2.7:_ZN3ipe5Fonts7getFaceEPKNS_7PdfDictE
libipecairo.so.7.2.7:_ZN3ipe5FontsC1EPKNS_12PdfResourcesE
libipecairo.so.7.2.7:_ZN3ipe5FontsC2EPKNS_12PdfResourcesE
libipecairo.so.7.2.7:_ZN3ipe5FontsD1Ev
libipecairo.so.7.2.7:_ZN3ipe5FontsD2Ev
libipecairo.so.7.2.7:_ZN3ipe9Thumbnail10saveRenderENS0_12TargetFormatEPKcPKNS_4PageEidbb
libipecairo.so.7.2.7:_ZN3ipe9Thumbnail6renderEPKNS_4PageEi
libipecairo.so.7.2.7:_ZN3ipe9Thumbnail7savePNGEP14_cairo_surfacePKc
libipecairo.so.7.2.7:_ZN3ipe9ThumbnailC1EPKNS_8DocumentEi
libipecairo.so.7.2.7:_ZN3ipe9ThumbnailC2EPKNS_8DocumentEi
libipecairo.so.7.2.7:_ZN3ipe9ThumbnailD1Ev
libipecairo.so.7.2.7:_ZN3ipe9ThumbnailD2Ev
libipecairo.so.7.2.7:_ZN6Engine10screenFontEv
libipecairo.so.7.2.7:_ZN6EngineC1Ev
libipecairo.so.7.2.7:_ZN6EngineC2Ev
libipecairo.so.7.2.7:_ZN6EngineD1Ev
libipecairo.so.7.2.7:_ZN6EngineD2Ev
libipecairo.so.7.2.7:_ZNK3ipe4Face5widthEi
libipecairo.so.7.2.7:_ZNK3ipe4Face6getPdfEPKNS_7PdfDictENS_6StringE
libipecanvas.so.7.2.7:_ZN12IpeQtPainter10doDrawPathEN3ipe9TPathModeE
libipecanvas.so.7.2.7:_ZN12IpeQtPainter11doClosePathEv
libipecanvas.so.7.2.7:_ZN12IpeQtPainter8doLineToERKN3ipe6VectorE
libipecanvas.so.7.2.7:_ZN12IpeQtPainter8doMoveToERKN3ipe6VectorE
libipecanvas.so.7.2.7:_ZN12IpeQtPainter9doCurveToERKN3ipe6VectorES3_S3_
libipecanvas.so.7.2.7:_ZN12IpeQtPainter9doNewPathEv
libipecanvas.so.7.2.7:_ZN12IpeQtPainterC1EPKN3ipe7CascadeEP8QPainter
libipecanvas.so.7.2.7:_ZN12IpeQtPainterC2EPKN3ipe7CascadeEP8QPainter
libipecanvas.so.7.2.7:_ZN12IpeQtPainterD0Ev
libipecanvas.so.7.2.7:_ZN12IpeQtPainterD1Ev
libipecanvas.so.7.2.7:_ZN12IpeQtPainterD2Ev
libipecanvas.so.7.2.7:_ZN3ipe10CanvasBase10finishToolEv
libipecanvas.so.7.2.7:_ZN3ipe10CanvasBase10updateToolEv
libipecanvas.so.7.2.7:_ZN3ipe10CanvasBase11computeFifiEdd
libipecanvas.so.7.2.7:_ZN3ipe10CanvasBase11drawObjectsEP6_cairo
libipecanvas.so.7.2.7:_ZN3ipe10CanvasBase11setObserverEPNS_14CanvasObserverE
libipecanvas.so.7.2.7:_ZN3ipe10CanvasBase12setResourcesEPKNS_12PdfResourcesE
libipecanvas.so.7.2.7:_ZN3ipe10CanvasBase13setAutoOriginERKNS_6VectorE
libipecanvas.so.7.2.7:_ZN3ipe10CanvasBase14refreshSurfaceEv
libipecanvas.so.7.2.7:_ZN3ipe10CanvasBase14setCanvasStyleERKNS0_5StyleE
libipecanvas.so.7.2.7:_ZN3ipe10CanvasBase14setFifiVisibleEb
libipecanvas.so.7.2.7:_ZN3ipe10CanvasBase16selectPageOrViewEPNS_8DocumentEiiiii
libipecanvas.so.7.2.7:_ZN3ipe10CanvasBase19setSelectionVisibleEb
libipecanvas.so.7.2.7:_ZN3ipe10CanvasBase19snapToPaperAndFrameEv
libipecanvas.so.7.2.7:_ZN3ipe10CanvasBase22setAdditionalModifiersEi
libipecanvas.so.7.2.7:_ZN3ipe10CanvasBase6setPanERKNS_6VectorE
libipecanvas.so.7.2.7:_ZN3ipe10CanvasBase6updateEv
libipecanvas.so.7.2.7:_ZN3ipe10CanvasBase7setPageEPKNS_4PageEiiPKNS_7CascadeE
libipecanvas.so.7.2.7:_ZN3ipe10CanvasBase7setSnapERKNS_4SnapE
libipecanvas.so.7.2.7:_ZN3ipe10CanvasBase7setToolEPNS_4ToolE
libipecanvas.so.7.2.7:_ZN3ipe10CanvasBase7setZoomEd
libipecanvas.so.7.2.7:_ZN3ipe10CanvasBase8drawAxesEP6_cairo
libipecanvas.so.7.2.7:_ZN3ipe10CanvasBase8drawFifiEP6_cairo
libipecanvas.so.7.2.7:_ZN3ipe10CanvasBase8drawGridEP6_cairo
libipecanvas.so.7.2.7:_ZN3ipe10CanvasBase8drawToolERNS_7PainterE
libipecanvas.so.7.2.7:_ZN3ipe10CanvasBase9drawFrameEP6_cairo
libipecanvas.so.7.2.7:_ZN3ipe10CanvasBase9drawPaperEP6_cairo
libipecanvas.so.7.2.7:_ZN3ipe10CanvasBase9setDimmedEb
libipecanvas.so.7.2.7:_ZN3ipe10CanvasBaseC1Ev
libipecanvas.so.7.2.7:_ZN3ipe10CanvasBaseC2Ev
libipecanvas.so.7.2.7:_ZN3ipe10CanvasBaseD0Ev
libipecanvas.so.7.2.7:_ZN3ipe10CanvasBaseD1Ev
libipecanvas.so.7.2.7:_ZN3ipe10CanvasBaseD2Ev
libipecanvas.so.7.2.7:_ZN3ipe10SelectTool11mouseButtonEib
libipecanvas.so.7.2.7:_ZN3ipe10SelectTool3keyENS_6StringEi
libipecanvas.so.7.2.7:_ZN3ipe10SelectTool9mouseMoveEv
libipecanvas.so.7.2.7:_ZN3ipe10SelectToolC1EPNS_10CanvasBaseEPNS_4PageEidb
libipecanvas.so.7.2.7:_ZN3ipe10SelectToolC2EPNS_10CanvasBaseEPNS_4PageEidb
libipecanvas.so.7.2.7:_ZN3ipe12PageSelector11qt_metacallEN11QMetaObject4CallEiPPv
libipecanvas.so.7.2.7:_ZN3ipe12PageSelector11qt_metacastEPKc
libipecanvas.so.7.2.7:_ZN3ipe12PageSelector12pageSelectedEP15QListWidgetItem
libipecanvas.so.7.2.7:_ZN3ipe12PageSelector13selectionMadeEv
libipecanvas.so.7.2.7:_ZN3ipe12PageSelectorC1EPNS_8DocumentEiiiP7QWidget
libipecanvas.so.7.2.7:_ZN3ipe12PageSelectorC2EPNS_8DocumentEiiiP7QWidget
libipecanvas.so.7.2.7:_ZN3ipe13TransformTool11mouseButtonEib
libipecanvas.so.7.2.7:_ZN3ipe13TransformTool6reportEv
libipecanvas.so.7.2.7:_ZN3ipe13TransformTool7computeERKNS_6VectorE
libipecanvas.so.7.2.7:_ZN3ipe13TransformTool9mouseMoveEv
libipecanvas.so.7.2.7:_ZN3ipe13TransformToolC1EPNS_10CanvasBaseEPNS_4PageEiNS0_5TTypeEb
libipecanvas.so.7.2.7:_ZN3ipe13TransformToolC2EPNS_10CanvasBaseEPNS_4PageEiNS0_5TTypeEb
libipecanvas.so.7.2.7:_ZN3ipe14CanvasObserver24canvasObserverWheelMovedEdb
libipecanvas.so.7.2.7:_ZN3ipe14CanvasObserver25canvasObserverMouseActionEi
libipecanvas.so.7.2.7:_ZN3ipe14CanvasObserver25canvasObserverSizeChangedEv
libipecanvas.so.7.2.7:_ZN3ipe14CanvasObserver25canvasObserverToolChangedEb
libipecanvas.so.7.2.7:_ZN3ipe14CanvasObserver29canvasObserverPositionChangedEv
libipecanvas.so.7.2.7:_ZN3ipe14CanvasObserverD0Ev
libipecanvas.so.7.2.7:_ZN3ipe14CanvasObserverD1Ev
libipecanvas.so.7.2.7:_ZN3ipe14CanvasObserverD2Ev
libipecanvas.so.7.2.7:_ZN3ipe6Canvas10invalidateEiiii
libipecanvas.so.7.2.7:_ZN3ipe6Canvas10invalidateEv
libipecanvas.so.7.2.7:_ZN3ipe6Canvas10paintEventEP11QPaintEvent
libipecanvas.so.7.2.7:_ZN3ipe6Canvas10wheelEventEP11QWheelEvent
libipecanvas.so.7.2.7:_ZN3ipe6Canvas11mouseButtonEP11QMouseEventib
libipecanvas.so.7.2.7:_ZN3ipe6Canvas11qt_metacallEN11QMetaObject4CallEiPPv
libipecanvas.so.7.2.7:_ZN3ipe6Canvas11qt_metacastEPKc
libipecanvas.so.7.2.7:_ZN3ipe6Canvas11tabletEventEP12QTabletEvent
libipecanvas.so.7.2.7:_ZN3ipe6Canvas13keyPressEventEP9QKeyEvent
libipecanvas.so.7.2.7:_ZN3ipe6Canvas14mouseMoveEventEP11QMouseEvent
libipecanvas.so.7.2.7:_ZN3ipe6Canvas15mousePressEventEP11QMouseEvent
libipecanvas.so.7.2.7:_ZN3ipe6Canvas17mouseReleaseEventEP11QMouseEvent
libipecanvas.so.7.2.7:_ZN3ipe6Canvas21mouseDoubleClickEventEP11QMouseEvent
libipecanvas.so.7.2.7:_ZN3ipe6Canvas8drawFifiER8QPainter
libipecanvas.so.7.2.7:_ZN3ipe6Canvas9setCursorENS_10CanvasBase7TCursorEdPNS_5ColorE
libipecanvas.so.7.2.7:_ZN3ipe6CanvasC1EP7QWidget6QFlagsIN2Qt10WindowTypeEE
libipecanvas.so.7.2.7:_ZN3ipe6CanvasC2EP7QWidget6QFlagsIN2Qt10WindowTypeEE
libipecanvas.so.7.2.7:_ZN3ipe7PanTool11mouseButtonEib
libipecanvas.so.7.2.7:_ZN3ipe7PanTool9mouseMoveEv
libipecanvas.so.7.2.7:_ZN3ipe7PanToolC1EPNS_10CanvasBaseEPKNS_4PageEi
libipecanvas.so.7.2.7:_ZN3ipe7PanToolC2EPNS_10CanvasBaseEPKNS_4PageEi
libipecanvas.so.7.2.7:_ZNK3ipe10CanvasBase13simpleSnapPosEv
libipecanvas.so.7.2.7:_ZNK3ipe10CanvasBase9canvasTfmEv
libipecanvas.so.7.2.7:_ZNK3ipe10CanvasBase9devToUserERKNS_6VectorE
libipecanvas.so.7.2.7:_ZNK3ipe10CanvasBase9userToDevERKNS_6VectorE
libipecanvas.so.7.2.7:_ZNK3ipe10SelectTool4drawERNS_7PainterE
libipecanvas.so.7.2.7:_ZNK3ipe12PageSelector10metaObjectEv
libipecanvas.so.7.2.7:_ZNK3ipe13TransformTool4drawERNS_7PainterE
libipecanvas.so.7.2.7:_ZNK3ipe13TransformTool7isValidEv
libipecanvas.so.7.2.7:_ZNK3ipe6Canvas10metaObjectEv
libipecanvas.so.7.2.7:_ZNK3ipe6Canvas8sizeHintEv
libipecanvas.so.7.2.7:_ZNK3ipe7PanTool4drawERNS_7PainterE
libipecanvas.so.7.2.7:_ZThn48_N3ipe6Canvas10invalidateEiiii
libipecanvas.so.7.2.7:_ZThn48_N3ipe6Canvas10invalidateEv
libipecanvas.so.7.2.7:_ZThn48_N3ipe6Canvas9setCursorENS_10CanvasBase7TCursorEdPNS_5ColorE
libipelua.so.7.2.7:_ZN6Helper10messageBoxEPKcS1_i
libipelua.so.7.2.7:_ZN6Helper7messageEPKc
libipelua.so.7.2.7:_ZN6Helper9getStringEPKcRN3ipe6StringE
libipelua.so.7.2.7:_ZN6HelperC1EP9lua_Statei
libipelua.so.7.2.7:_ZN6HelperC2EP9lua_Statei
libipelua.so.7.2.7:_ZN6HelperD0Ev
libipelua.so.7.2.7:_ZN6HelperD1Ev
libipelua.so.7.2.7:_ZN6HelperD2Ev
libipelua.so.7.2.7:_ZN6ipelua10push_colorEP9lua_StateN3ipe5ColorE
libipelua.so.7.2.7:_ZN6ipelua10push_sheetEP9lua_StatePN3ipe10StyleSheetEb
libipelua.so.7.2.7:_ZN6ipelua11check_colorEP9lua_Statei
libipelua.so.7.2.7:_ZN6ipelua11check_layerEP9lua_StateiPN3ipe4PageE
libipelua.so.7.2.7:_ZN6ipelua11check_shapeEP9lua_Statei
libipelua.so.7.2.7:_ZN6ipelua11open_ipegeoEP9lua_State
libipelua.so.7.2.7:_ZN6ipelua11open_ipeobjEP9lua_State
libipelua.so.7.2.7:_ZN6ipelua11push_bezierEP9lua_StateRKN3ipe6BezierE
libipelua.so.7.2.7:_ZN6ipelua11push_matrixEP9lua_StateRKN3ipe6MatrixE
libipelua.so.7.2.7:_ZN6ipelua11push_objectEP9lua_StatePN3ipe6ObjectEb
libipelua.so.7.2.7:_ZN6ipelua11push_stringEP9lua_StateN3ipe6StringE
libipelua.so.7.2.7:_ZN6ipelua11push_vectorEP9lua_StateRKN3ipe6VectorE
libipelua.so.7.2.7:_ZN6ipelua11test_optionEP9lua_StateiPKPKc
libipelua.so.7.2.7:_ZN6ipelua12check_viewnoEP9lua_StateiPN3ipe4PageEi
libipelua.so.7.2.7:_ZN6ipelua12line_throughEP9lua_State
libipelua.so.7.2.7:_ZN6ipelua12open_ipeletsEP9lua_State
libipelua.so.7.2.7:_ZN6ipelua12open_ipepageEP9lua_State
libipelua.so.7.2.7:_ZN6ipelua12push_cascadeEP9lua_StatePN3ipe7CascadeEb
libipelua.so.7.2.7:_ZN6ipelua12push_segmentEP9lua_StateRKN3ipe7SegmentE
libipelua.so.7.2.7:_ZN6ipelua13line_bisectorEP9lua_State
libipelua.so.7.2.7:_ZN6ipelua13open_ipestyleEP9lua_State
libipelua.so.7.2.7:_ZN6ipelua14check_filenameEP9lua_Statei
libipelua.so.7.2.7:_ZN6ipelua14check_propertyEN3ipe8PropertyEP9lua_Statei
libipelua.so.7.2.7:_ZN6ipelua14make_metatableEP9lua_StatePKcPK8luaL_Reg
libipelua.so.7.2.7:_ZN6ipelua14push_attributeEP9lua_StateN3ipe9AttributeE
libipelua.so.7.2.7:_ZN6ipelua15arc_constructorEP9lua_State
libipelua.so.7.2.7:_ZN6ipelua15xml_constructorEP9lua_State
libipelua.so.7.2.7:_ZN6ipelua16line_constructorEP9lua_State
libipelua.so.7.2.7:_ZN6ipelua16page_constructorEP9lua_State
libipelua.so.7.2.7:_ZN6ipelua16path_constructorEP9lua_State
libipelua.so.7.2.7:_ZN6ipelua16quad_constructorEP9lua_State
libipelua.so.7.2.7:_ZN6ipelua16rect_constructorEP9lua_State
libipelua.so.7.2.7:_ZN6ipelua16text_constructorEP9lua_State
libipelua.so.7.2.7:_ZN6ipelua17group_constructorEP9lua_State
libipelua.so.7.2.7:_ZN6ipelua17sheet_constructorEP9lua_State
libipelua.so.7.2.7:_ZN6ipelua18bezier_constructorEP9lua_State
libipelua.so.7.2.7:_ZN6ipelua18ipelet_constructorEP9lua_State
libipelua.so.7.2.7:_ZN6ipelua18matrix_constructorEP9lua_State
libipelua.so.7.2.7:_ZN6ipelua18vector_constructorEP9lua_State
libipelua.so.7.2.7:_ZN6ipelua19cascade_constructorEP9lua_State
libipelua.so.7.2.7:_ZN6ipelua19check_allattributesEP9lua_StateiRN3ipe13AllAttributesE
libipelua.so.7.2.7:_ZN6ipelua19segment_constructorEP9lua_State
libipelua.so.7.2.7:_ZN6ipelua20check_bool_attributeEP9lua_Statei
libipelua.so.7.2.7:_ZN6ipelua20rotation_constructorEP9lua_State
libipelua.so.7.2.7:_ZN6ipelua21check_color_attributeEP9lua_Statei
libipelua.so.7.2.7:_ZN6ipelua21direction_constructorEP9lua_State
libipelua.so.7.2.7:_ZN6ipelua21reference_constructorEP9lua_State
libipelua.so.7.2.7:_ZN6ipelua22check_number_attributeEP9lua_Statei
libipelua.so.7.2.7:_ZN6ipelua23translation_constructorEP9lua_State
libipelua.so.7.2.7:_ZN6ipelua7is_typeEP9lua_StateiPKc
libipelua.so.7.2.7:_ZN6ipelua8push_arcEP9lua_StateRKN3ipe3ArcE
libipelua.so.7.2.7:_ZN6ipelua9push_lineEP9lua_StateRKN3ipe4LineE
libipelua.so.7.2.7:_ZN6ipelua9push_pageEP9lua_StatePN3ipe4PageEb
libipelua.so.7.2.7:_ZN6ipelua9push_rectEP9lua_StateRKN3ipe4RectE
libipelua.so.7.2.7:luaopen_ipe
libipeui.so.7.2.7:_Z10push_winidP9lua_StateP7QWidget
libipeui.so.7.2.7:_Z11check_winidP9lua_Statei
libipeui.so.7.2.7:_Z13luaopen_ipeuiP9lua_State
libipeui.so.7.2.7:_Z20luaopen_ipeui_commonP9lua_State
libipeui.so.7.2.7:_ZN10MenuAction11qt_metacallEN11QMetaObject4CallEiPPv
libipeui.so.7.2.7:_ZN10MenuAction11qt_metacastEPKc
libipeui.so.7.2.7:_ZN10MenuActionC1ERK7QStringiS2_S2_P7QWidget
libipeui.so.7.2.7:_ZN10MenuActionC2ERK7QStringiS2_S2_P7QWidget
libipeui.so.7.2.7:_ZN12EditorDialog10closeEventEP11QCloseEvent
libipeui.so.7.2.7:_ZN12EditorDialogC1EP7QWidget
libipeui.so.7.2.7:_ZN12EditorDialogC2EP7QWidget
libipeui.so.7.2.7:_ZN12EditorThread3runEv
libipeui.so.7.2.7:_ZN12EditorThreadC1ERK7QString
libipeui.so.7.2.7:_ZN12EditorThreadC2ERK7QString
libipeui.so.7.2.7:_ZN14XmlHighlighter11applyFormatERK7QStringR7QRegExpRK15QTextCharFormat
libipeui.so.7.2.7:_ZN14XmlHighlighter14highlightBlockERK7QString
libipeui.so.7.2.7:_ZN14XmlHighlighterC1EP9QTextEdit
libipeui.so.7.2.7:_ZN14XmlHighlighterC2EP9QTextEdit
libipeui.so.7.2.7:_ZN16LatexHighlighter11applyFormatERK7QStringR7QRegExpRK15QTextCharFormat
libipeui.so.7.2.7:_ZN16LatexHighlighter14highlightBlockERK7QString
libipeui.so.7.2.7:_ZN16LatexHighlighterC1EP9QTextEdit
libipeui.so.7.2.7:_ZN16LatexHighlighterC2EP9QTextEdit
libipeui.so.7.2.7:_ZN4MenuD0Ev
libipeui.so.7.2.7:_ZN4MenuD1Ev
libipeui.so.7.2.7:_ZN4MenuD2Ev
libipeui.so.7.2.7:_ZN5PMenu3addEP9lua_State
libipeui.so.7.2.7:_ZN5PMenu7executeEP9lua_State
libipeui.so.7.2.7:_ZN5PMenuC1EP7QWidget
libipeui.so.7.2.7:_ZN5PMenuC2EP7QWidget
libipeui.so.7.2.7:_ZN5PMenuD0Ev
libipeui.so.7.2.7:_ZN5PMenuD1Ev
libipeui.so.7.2.7:_ZN5PMenuD2Ev
libipeui.so.7.2.7:_ZN5Timer13setSingleShotEP9lua_State
libipeui.so.7.2.7:_ZN5Timer7callLuaEv
libipeui.so.7.2.7:_ZN5TimerC1EP9lua_StateiPKc
libipeui.so.7.2.7:_ZN5TimerC2EP9lua_StateiPKc
libipeui.so.7.2.7:_ZN5TimerD0Ev
libipeui.so.7.2.7:_ZN5TimerD1Ev
libipeui.so.7.2.7:_ZN5TimerD2Ev
libipeui.so.7.2.7:_ZN6Dialog10setEnabledEP9lua_State
libipeui.so.7.2.7:_ZN6Dialog10setStretchEP9lua_State
libipeui.so.7.2.7:_ZN6Dialog11addCheckboxEP9lua_StateRNS_8SElementE
libipeui.so.7.2.7:_ZN6Dialog11addTextEditEP9lua_StateRNS_8SElementE
libipeui.so.7.2.7:_ZN6Dialog11findElementEP9lua_Statei
libipeui.so.7.2.7:_ZN6Dialog11setUnmappedEP9lua_Statei
libipeui.so.7.2.7:_ZN6Dialog12setListItemsEP9lua_StateiRNS_8SElementE
libipeui.so.7.2.7:_ZN6Dialog13addButtonItemEP9lua_StateRNS_8SElementE
libipeui.so.7.2.7:_ZN6Dialog3addEP9lua_State
libipeui.so.7.2.7:_ZN6Dialog3getEP9lua_State
libipeui.so.7.2.7:_ZN6Dialog3setEP9lua_State
libipeui.so.7.2.7:_ZN6Dialog7addListEP9lua_StateRNS_8SElementE
libipeui.so.7.2.7:_ZN6Dialog7callLuaEi
libipeui.so.7.2.7:_ZN6Dialog7executeEP9lua_Stateii
libipeui.so.7.2.7:_ZN6Dialog8addComboEP9lua_StateRNS_8SElementE
libipeui.so.7.2.7:_ZN6Dialog8addInputEP9lua_StateRNS_8SElementE
libipeui.so.7.2.7:_ZN6Dialog8addLabelEP9lua_StateRNS_8SElementE
libipeui.so.7.2.7:_ZN6Dialog9addButtonEP9lua_State
libipeui.so.7.2.7:_ZN6DialogC1EP9lua_StateP7QWidgetPKc
libipeui.so.7.2.7:_ZN6DialogC2EP9lua_StateP7QWidgetPKc
libipeui.so.7.2.7:_ZN6DialogD0Ev
libipeui.so.7.2.7:_ZN6DialogD1Ev
libipeui.so.7.2.7:_ZN6DialogD2Ev
libipeui.so.7.2.7:_ZN6PTimer11qt_metacallEN11QMetaObject4CallEiPPv
libipeui.so.7.2.7:_ZN6PTimer11qt_metacastEPKc
libipeui.so.7.2.7:_ZN6PTimer11setIntervalEP9lua_State
libipeui.so.7.2.7:_ZN6PTimer4stopEP9lua_State
libipeui.so.7.2.7:_ZN6PTimer5startEP9lua_State
libipeui.so.7.2.7:_ZN6PTimer6activeEP9lua_State
libipeui.so.7.2.7:_ZN6PTimer7elapsedEv
libipeui.so.7.2.7:_ZN6PTimerC1EP9lua_StateiPKc
libipeui.so.7.2.7:_ZN6PTimerC2EP9lua_StateiPKc
libipeui.so.7.2.7:_ZN6PTimerD0Ev
libipeui.so.7.2.7:_ZN6PTimerD1Ev
libipeui.so.7.2.7:_ZN6PTimerD2Ev
libipeui.so.7.2.7:_ZN7PDialog10enableItemEib
libipeui.so.7.2.7:_ZN7PDialog11buildAndRunEii
libipeui.so.7.2.7:_ZN7PDialog11qt_metacallEN11QMetaObject4CallEiPPv
libipeui.so.7.2.7:_ZN7PDialog11qt_metacastEPKc
libipeui.so.7.2.7:_ZN7PDialog12acceptDialogEP9lua_State
libipeui.so.7.2.7:_ZN7PDialog13keyPressEventEP9QKeyEvent
libipeui.so.7.2.7:_ZN7PDialog14retrieveValuesEv
libipeui.so.7.2.7:_ZN7PDialog9notifyLuaEv
libipeui.so.7.2.7:_ZN7PDialog9setMappedEP9lua_Statei
libipeui.so.7.2.7:_ZN7PDialogC1EP9lua_StateP7QWidgetPKc
libipeui.so.7.2.7:_ZN7PDialogC2EP9lua_StateP7QWidgetPKc
libipeui.so.7.2.7:_ZN7PDialogD0Ev
libipeui.so.7.2.7:_ZN7PDialogD1Ev
libipeui.so.7.2.7:_ZN7PDialogD2Ev
libipeui.so.7.2.7:_ZNK10MenuAction10metaObjectEv
libipeui.so.7.2.7:_ZNK6PTimer10metaObjectEv
libipeui.so.7.2.7:_ZNK7PDialog10metaObjectEv
libipeui.so.7.2.7:_ZThn16_N6PTimer11setIntervalEP9lua_State
libipeui.so.7.2.7:_ZThn16_N6PTimer4stopEP9lua_State
libipeui.so.7.2.7:_ZThn16_N6PTimer5startEP9lua_State
libipeui.so.7.2.7:_ZThn16_N6PTimer6activeEP9lua_State
libipeui.so.7.2.7:_ZThn16_N6PTimerD0Ev
libipeui.so.7.2.7:_ZThn16_N6PTimerD1Ev
libipeui.so.7.2.7:_ZThn16_N7PDialogD0Ev
libipeui.so.7.2.7:_ZThn16_N7PDialogD1Ev
libipeui.so.7.2.7:_ZThn48_N7PDialog10enableItemEib
libipeui.so.7.2.7:_ZThn48_N7PDialog11buildAndRunEii
libipeui.so.7.2.7:_ZThn48_N7PDialog12acceptDialogEP9lua_State
libipeui.so.7.2.7:_ZThn48_N7PDialog14retrieveValuesEv
libipeui.so.7.2.7:_ZThn48_N7PDialog9setMappedEP9lua_Statei
libipeui.so.7.2.7:_ZThn48_N7PDialogD0Ev
libipeui.so.7.2.7:_ZThn48_N7PDialogD1Ev
