libInterceptorInjectionTarget.so:_ZN2NV11ProcessTree20InterceptorInjection13AfterExitData15GetCallbackListEv
libInterceptorInjectionTarget.so:_ZN2NV11ProcessTree20InterceptorInjection13AfterExitData18GetOrderedCallbackEv
libInterceptorInjectionTarget.so:_ZN2NV11ProcessTree20InterceptorInjection14BeforeForkData15GetCallbackListEv
libInterceptorInjectionTarget.so:_ZN2NV11ProcessTree20InterceptorInjection14BeforeForkData18GetOrderedCallbackEv
libInterceptorInjectionTarget.so:_ZN2NV11ProcessTree20InterceptorInjection15BeforeCloseData15GetCallbackListEv
libInterceptorInjectionTarget.so:_ZN2NV11ProcessTree20InterceptorInjection15BeforeCloseData18GetOrderedCallbackEv
libInterceptorInjectionTarget.so:_ZN2NV11ProcessTree20InterceptorInjection16BeforeExecveData15GetCallbackListEv
libInterceptorInjectionTarget.so:_ZN2NV11ProcessTree20InterceptorInjection16BeforeExecveData18GetOrderedCallbackEv
libInterceptorInjectionTarget.so:_ZN2NV11ProcessTree20InterceptorInjection19BeforeCleanExitData15GetCallbackListEv
libInterceptorInjectionTarget.so:_ZN2NV11ProcessTree20InterceptorInjection19BeforeCleanExitData18GetOrderedCallbackEv
libInterceptorInjectionTarget.so:_ZN2NV11ProcessTree20InterceptorInjection19PidOfChildFoundData15GetCallbackListEv
libInterceptorInjectionTarget.so:_ZN2NV11ProcessTree20InterceptorInjection19PidOfChildFoundData18GetOrderedCallbackEv
libInterceptorInjectionTarget.so:_ZN2NV11ProcessTree20InterceptorInjection20AfterForkInChildData15GetCallbackListEv
libInterceptorInjectionTarget.so:_ZN2NV11ProcessTree20InterceptorInjection20AfterForkInChildData18GetOrderedCallbackEv
libInterceptorInjectionTarget.so:_ZN2NV11ProcessTree20InterceptorInjection21AfterForkInParentData15GetCallbackListEv
libInterceptorInjectionTarget.so:_ZN2NV11ProcessTree20InterceptorInjection21AfterForkInParentData18GetOrderedCallbackEv
libInterceptorInjectionTarget.so:_ZN2NV11ProcessTree20InterceptorInjection22AfterCreateProcessData15GetCallbackListEv
libInterceptorInjectionTarget.so:_ZN2NV11ProcessTree20InterceptorInjection22AfterCreateProcessData18GetOrderedCallbackEv
libInterceptorInjectionTarget.so:_ZN2NV11ProcessTree20InterceptorInjection22AfterExitCodeFoundData15GetCallbackListEv
libInterceptorInjectionTarget.so:_ZN2NV11ProcessTree20InterceptorInjection22AfterExitCodeFoundData18GetOrderedCallbackEv
libInterceptorInjectionTarget.so:_ZN2NV11ProcessTree20InterceptorInjection23BeforeCatchableExitData15GetCallbackListEv
libInterceptorInjectionTarget.so:_ZN2NV11ProcessTree20InterceptorInjection23BeforeCatchableExitData18GetOrderedCallbackEv
libInterceptorInjectionTarget.so:_ZN2NV11ProcessTree20InterceptorInjection23BeforeCreateProcessData15GetCallbackListEv
libInterceptorInjectionTarget.so:_ZN2NV11ProcessTree20InterceptorInjection23BeforeCreateProcessData18GetOrderedCallbackEv
libInterceptorInjectionTarget.so:_ZN2NV11ProcessTree20InterceptorInjection24AfterExecveOnFailureData15GetCallbackListEv
libInterceptorInjectionTarget.so:_ZN2NV11ProcessTree20InterceptorInjection24AfterExecveOnFailureData18GetOrderedCallbackEv
libInterceptorInjectionTarget.so:_ZN2NV11ProcessTree20InterceptorInjection28AfterDetachUnixInjectionData15GetCallbackListEv
libInterceptorInjectionTarget.so:_ZN2NV11ProcessTree20InterceptorInjection28AfterDetachUnixInjectionData18GetOrderedCallbackEv
libInterceptorInjectionTarget.so:_ZN2NV11ProcessTree20InterceptorInjection34BeforeCatchableAllButCleanExitData15GetCallbackListEv
libInterceptorInjectionTarget.so:_ZN2NV11ProcessTree20InterceptorInjection34BeforeCatchableAllButCleanExitData18GetOrderedCallbackEv
libInterceptorInjectionTarget.so:_fini
libInterceptorInjectionTarget.so:_init
libInterceptorInjectionTarget.so:close
libInterceptorInjectionTarget.so:execv
libInterceptorInjectionTarget.so:execve
libInterceptorInjectionTarget.so:execvp
libInterceptorInjectionTarget.so:execvpe
libInterceptorInjectionTarget.so:fork
libInterceptorInjectionTarget.so:vfork
libInterceptorInjectionTarget.so:wait
libInterceptorInjectionTarget.so:waitid
libInterceptorInjectionTarget.so:waitpid
libTreeLauncherPlaceholder.so:_fini
libTreeLauncherPlaceholder.so:_init
libTreeLauncherTargetInjection.so:_fini
libTreeLauncherTargetInjection.so:_init
libTreeLauncherTargetUpdatePreloadInjection.so:_fini
libTreeLauncherTargetUpdatePreloadInjection.so:_init
