libnvinfer.so.5:_ZN8nvinfer110MatrixDims10initializeERKNS_4DimsENS_15MatrixOperationEi
libnvinfer.so.5:_ZN8nvinfer110MatrixDimsC1ERKNS_4DimsENS_15MatrixOperationES4_
libnvinfer.so.5:_ZN8nvinfer110MatrixDimsC2ERKNS_4DimsENS_15MatrixOperationES4_
libnvinfer.so.5:_ZN8nvinfer110RNNv2Layer12setCellStateERNS_7ITensorE
libnvinfer.so.5:_ZN8nvinfer110RNNv2Layer14setBiasForGateEiNS_11RNNGateTypeEbNS_7WeightsE
libnvinfer.so.5:_ZN8nvinfer110RNNv2Layer14setHiddenStateERNS_7ITensorE
libnvinfer.so.5:_ZN8nvinfer110RNNv2Layer17setWeightsForGateEiNS_11RNNGateTypeEbNS_7WeightsE
libnvinfer.so.5:_ZN8nvinfer110RNNv2Layer18setSequenceLengthsERNS_7ITensorE
libnvinfer.so.5:_ZN8nvinfer110RNNv2LayerC1EPNS_7NetworkERKSsPKPNS_7ITensorES8_mmmNS_12RNNOperationENS_12RNNInputModeENS_12RNNDirectionEPKNS_7WeightsESE_
libnvinfer.so.5:_ZN8nvinfer110RNNv2LayerC2EPNS_7NetworkERKSsPKPNS_7ITensorES8_mmmNS_12RNNOperationENS_12RNNInputModeENS_12RNNDirectionEPKNS_7WeightsESE_
libnvinfer.so.5:_ZN8nvinfer110ScaleLayerC1EPNS_7NetworkERKSsRNS_7ITensorES6_NS_9ScaleModeENS_7WeightsES8_S8_
libnvinfer.so.5:_ZN8nvinfer110ScaleLayerC2EPNS_7NetworkERKSsRNS_7ITensorES6_NS_9ScaleModeENS_7WeightsES8_S8_
libnvinfer.so.5:_ZN8nvinfer110UnaryLayerC1EPNS_7NetworkERKSsRNS_7ITensorES6_NS_14UnaryOperationE
libnvinfer.so.5:_ZN8nvinfer110UnaryLayerC2EPNS_7NetworkERKSsRNS_7ITensorES6_NS_14UnaryOperationE
libnvinfer.so.5:_ZN8nvinfer110isConstantERKNS_7WeightsEi
libnvinfer.so.5:_ZN8nvinfer111GatherLayerC1EPNS_7NetworkERKSsPKPNS_7ITensorES6_i
libnvinfer.so.5:_ZN8nvinfer111GatherLayerC2EPNS_7NetworkERKSsPKPNS_7ITensorES6_i
libnvinfer.so.5:_ZN8nvinfer111PluginLayer9getPluginEv
libnvinfer.so.5:_ZN8nvinfer111PluginLayerC1EPNS_7NetworkERKSsPKPNS_7ITensorEiS8_iRNS_7IPluginEb
libnvinfer.so.5:_ZN8nvinfer111PluginLayerC2EPNS_7NetworkERKSsPKPNS_7ITensorEiS8_iRNS_7IPluginEb
libnvinfer.so.5:_ZN8nvinfer111PluginLayerD0Ev
libnvinfer.so.5:_ZN8nvinfer111PluginLayerD1Ev
libnvinfer.so.5:_ZN8nvinfer111PluginLayerD2Ev
libnvinfer.so.5:_ZN8nvinfer111ReduceLayerC1EPNS_7NetworkERKSsRNS_7ITensorES6_NS_8ReduceOpEjb
libnvinfer.so.5:_ZN8nvinfer111ReduceLayerC2EPNS_7NetworkERKSsRNS_7ITensorES6_NS_8ReduceOpEjb
libnvinfer.so.5:_ZN8nvinfer111clampToInt8Ef
libnvinfer.so.5:_ZN8nvinfer111getLayerOpsERKNS_11ICudaEngineEi
libnvinfer.so.5:_ZN8nvinfer111getNbLayersERKNS_11ICudaEngineE
libnvinfer.so.5:_ZN8nvinfer111gieCudaFreeEPNS_13IGpuAllocatorEPvPKcS4_i
libnvinfer.so.5:_ZN8nvinfer111isSingleBitEj
libnvinfer.so.5:_ZN8nvinfer111isValidDimsERKNS_4DimsE
libnvinfer.so.5:_ZN8nvinfer111scanWeightsEPKvmRNS_14IWeightWatcherE
libnvinfer.so.5:_ZN8nvinfer111stridedGemmERKP13cublasContext17cublasOperation_tS4_mmmPKvS6_mmS6_mmS6_PvmmmNS_8DataTypeENS_11MMAlgorithmE
libnvinfer.so.5:_ZN8nvinfer112PaddingLayerC1EPNS_7NetworkERKSsRNS_7ITensorES6_NS_6DimsHWES7_
libnvinfer.so.5:_ZN8nvinfer112PaddingLayerC2EPNS_7NetworkERKSsRNS_7ITensorES6_NS_6DimsHWES7_
libnvinfer.so.5:_ZN8nvinfer112PoolingLayerC1EPNS_7NetworkERKSsRNS_7ITensorES6_NS_11PoolingTypeENS_6DimsHWE
libnvinfer.so.5:_ZN8nvinfer112PoolingLayerC2EPNS_7NetworkERKSsRNS_7ITensorES6_NS_11PoolingTypeENS_6DimsHWE
libnvinfer.so.5:_ZN8nvinfer112ShuffleLayerC1EPNS_7NetworkERKSsRNS_7ITensorES6_
libnvinfer.so.5:_ZN8nvinfer112ShuffleLayerC2EPNS_7NetworkERKSsRNS_7ITensorES6_
libnvinfer.so.5:_ZN8nvinfer112SoftMaxLayerC1EPNS_7NetworkERKSsRNS_7ITensorES6_
libnvinfer.so.5:_ZN8nvinfer112SoftMaxLayerC2EPNS_7NetworkERKSsRNS_7ITensorES6_
libnvinfer.so.5:_ZN8nvinfer112allBroadcastERKSt6vectorINS_10TensorFormESaIS1_EE
libnvinfer.so.5:_ZN8nvinfer112findFirstDimESt6bitsetILm8EE
libnvinfer.so.5:_ZN8nvinfer112formatsEqualERKNS_13RegionFormatLES2_
libnvinfer.so.5:_ZN8nvinfer112getLayerNameERKNS_11ICudaEngineEi
libnvinfer.so.5:_ZN8nvinfer112getLayerTypeERKNS_11ICudaEngineEi
libnvinfer.so.5:_ZN8nvinfer112paddedVolumeERKNS_4DimsEi
libnvinfer.so.5:_ZN8nvinfer113ConstantLayerC1EPNS_7NetworkERKSsPNS_7ITensorENS_4DimsENS_7WeightsE
libnvinfer.so.5:_ZN8nvinfer113ConstantLayerC2EPNS_7NetworkERKSsPNS_7ITensorENS_4DimsENS_7WeightsE
libnvinfer.so.5:_ZN8nvinfer113IdentityLayerC1EPNS_7NetworkERKSsRNS_7ITensorES6_
libnvinfer.so.5:_ZN8nvinfer113IdentityLayerC2EPNS_7NetworkERKSsRNS_7ITensorES6_
libnvinfer.so.5:_ZN8nvinfer113NetworkTensor11setLocationENS_14TensorLocationE
libnvinfer.so.5:_ZN8nvinfer113NetworkTensor13setDimensionsENS_4DimsE
libnvinfer.so.5:_ZN8nvinfer113NetworkTensor15setDynamicRangeEff
libnvinfer.so.5:_ZN8nvinfer113NetworkTensor23setBroadcastAcrossBatchEb
libnvinfer.so.5:_ZN8nvinfer113PluginV2Layer9getPluginEv
libnvinfer.so.5:_ZN8nvinfer113PluginV2LayerC1EPNS_7NetworkERKSsPKPNS_7ITensorEiS8_iRNS_9IPluginV2E
libnvinfer.so.5:_ZN8nvinfer113PluginV2LayerC2EPNS_7NetworkERKSsPKPNS_7ITensorEiS8_iRNS_9IPluginV2E
libnvinfer.so.5:_ZN8nvinfer113PluginV2LayerD0Ev
libnvinfer.so.5:_ZN8nvinfer113PluginV2LayerD1Ev
libnvinfer.so.5:_ZN8nvinfer113PluginV2LayerD2Ev
libnvinfer.so.5:_ZN8nvinfer113RegionFormatBC1ENS_8DataTypeERKNS_4DimsEb
libnvinfer.so.5:_ZN8nvinfer113RegionFormatBC1ERKNS_13RegionFormatLEib
libnvinfer.so.5:_ZN8nvinfer113RegionFormatBC2ENS_8DataTypeERKNS_4DimsEb
libnvinfer.so.5:_ZN8nvinfer113RegionFormatBC2ERKNS_13RegionFormatLEib
libnvinfer.so.5:_ZN8nvinfer113gieCudaMallocEPNS_13IGpuAllocatorEmPKcS3_iS3_
libnvinfer.so.5:_ZN8nvinfer113isHalfOrFloatENS_8DataTypeE
libnvinfer.so.5:_ZN8nvinfer113makeEmptyDimsEv
libnvinfer.so.5:_ZN8nvinfer114setDebugOutputERNS_17IExecutionContextEPNS_12IDebugOutputE
libnvinfer.so.5:_ZN8nvinfer114throwCaskErrorEPKcS1_iiS1_
libnvinfer.so.5:_ZN8nvinfer114throwCudaErrorEPKcS1_iiS1_
libnvinfer.so.5:_ZN8nvinfer114throwMiscErrorEPKcS1_iiS1_
libnvinfer.so.5:_ZN8nvinfer115ActivationLayerC1EPNS_7NetworkERKSsRNS_7ITensorES6_NS_14ActivationTypeE
libnvinfer.so.5:_ZN8nvinfer115ActivationLayerC2EPNS_7NetworkERKSsRNS_7ITensorES6_NS_14ActivationTypeE
libnvinfer.so.5:_ZN8nvinfer115ScopedCudaEventC1Ev
libnvinfer.so.5:_ZN8nvinfer115ScopedCudaEventC2Ev
libnvinfer.so.5:_ZN8nvinfer115ScopedCudaEventD1Ev
libnvinfer.so.5:_ZN8nvinfer115ScopedCudaEventD2Ev
libnvinfer.so.5:_ZN8nvinfer115dumpAllocationsENS_10CpuGpuPairIbEE
libnvinfer.so.5:_ZN8nvinfer115getNetworkLayerEPNS_6ILayerE
libnvinfer.so.5:_ZN8nvinfer115insertDimensionERKNS_4DimsEii
libnvinfer.so.5:_ZN8nvinfer115reportAssertionEPKcS1_i
libnvinfer.so.5:_ZN8nvinfer115roundHalfToEvenEf
libnvinfer.so.5:_ZN8nvinfer115throwCudnnErrorEPKcS1_iiS1_
libnvinfer.so.5:_ZN8nvinfer116ConvolutionLayerC1EPNS_7NetworkERKSsRNS_7ITensorES6_iNS_6DimsHWENS_7WeightsES8_
libnvinfer.so.5:_ZN8nvinfer116ConvolutionLayerC2EPNS_7NetworkERKSsRNS_7ITensorES6_iNS_6DimsHWENS_7WeightsES8_
libnvinfer.so.5:_ZN8nvinfer116ElementWiseLayerC1EPNS_7NetworkERKSsPKPNS_7ITensorES6_NS_20ElementWiseOperationE
libnvinfer.so.5:_ZN8nvinfer116ElementWiseLayerC2EPNS_7NetworkERKSsPKPNS_7ITensorES6_NS_20ElementWiseOperationE
libnvinfer.so.5:_ZN8nvinfer116ScopedCudaStream4syncEv
libnvinfer.so.5:_ZN8nvinfer116ScopedCudaStreamC1Ev
libnvinfer.so.5:_ZN8nvinfer116ScopedCudaStreamC2Ev
libnvinfer.so.5:_ZN8nvinfer116ScopedCudaStreamD1Ev
libnvinfer.so.5:_ZN8nvinfer116ScopedCudaStreamD2Ev
libnvinfer.so.5:_ZN8nvinfer116isFormulaDefaultEPKNS_24IOutputDimensionsFormulaES2_PKNS_6ILayerE
libnvinfer.so.5:_ZN8nvinfer116throwOutOfMemoryEPKcS1_i
libnvinfer.so.5:_ZN8nvinfer117CoalescedCPooling7executeEiiiiiiiiiiiiiiNS_11PoolingTypeEbPKvPvP11CUstream_st
libnvinfer.so.5:_ZN8nvinfer117convertReduceAxesEj
libnvinfer.so.5:_ZN8nvinfer117getLayerInputSizeERKNS_11ICudaEngineEm
libnvinfer.so.5:_ZN8nvinfer118ConcatenationLayerC1EPNS_7NetworkERKSsPKPNS_7ITensorEiS6_
libnvinfer.so.5:_ZN8nvinfer118ConcatenationLayerC2EPNS_7NetworkERKSsPKPNS_7ITensorEiS6_
libnvinfer.so.5:_ZN8nvinfer118DeconvolutionLayerC1EPNS_7NetworkERKSsRNS_7ITensorES6_iNS_6DimsHWENS_7WeightsES8_
libnvinfer.so.5:_ZN8nvinfer118DeconvolutionLayerC2EPNS_7NetworkERKSsRNS_7ITensorES6_iNS_6DimsHWENS_7WeightsES8_
libnvinfer.so.5:_ZN8nvinfer118GenericIMMAPooling12execute_int8EiiiiiiiiiiiiNS_11PoolingTypeEfPKvPvPKfS6_iiP11CUstream_st
libnvinfer.so.5:_ZN8nvinfer118RaggedSoftMaxLayerC1EPNS_7NetworkERKSsRNS_7ITensorES6_S6_
libnvinfer.so.5:_ZN8nvinfer118RaggedSoftMaxLayerC2EPNS_7NetworkERKSsRNS_7ITensorES6_S6_
libnvinfer.so.5:_ZN8nvinfer118ScopedCublasHandleC1ERKP11CUstream_st
libnvinfer.so.5:_ZN8nvinfer118ScopedCublasHandleC2ERKP11CUstream_st
libnvinfer.so.5:_ZN8nvinfer118ScopedCublasHandleD1Ev
libnvinfer.so.5:_ZN8nvinfer118ScopedCublasHandleD2Ev
libnvinfer.so.5:_ZN8nvinfer118getAllocatedMemoryEv
libnvinfer.so.5:_ZN8nvinfer118getLayerInputsInfoERKNS_11ICudaEngineEPSt4pairINS_4DimsENS_8DataTypeEEmm
libnvinfer.so.5:_ZN8nvinfer118getLayerOutputSizeERKNS_11ICudaEngineEm
libnvinfer.so.5:_ZN8nvinfer118isValidPermutationEiRKNS_11PermutationE
libnvinfer.so.5:_ZN8nvinfer118setupSNEOffsetsGPUEPKiPPvS2_ii
libnvinfer.so.5:_ZN8nvinfer119FullyConnectedLayerC1EPNS_7NetworkERKSsRNS_7ITensorES6_iNS_7WeightsES7_
libnvinfer.so.5:_ZN8nvinfer119FullyConnectedLayerC2EPNS_7NetworkERKSsRNS_7ITensorES6_iNS_7WeightsES7_
libnvinfer.so.5:_ZN8nvinfer119MatrixMultiplyLayer12setOperationEiNS_15MatrixOperationE
libnvinfer.so.5:_ZN8nvinfer119MatrixMultiplyLayerC1EPNS_7NetworkERKSsRNS_7ITensorES6_S6_NS_15MatrixOperationES7_
libnvinfer.so.5:_ZN8nvinfer119MatrixMultiplyLayerC2EPNS_7NetworkERKSsRNS_7ITensorES6_S6_NS_15MatrixOperationES7_
libnvinfer.so.5:_ZN8nvinfer119createRegionPitchesERKNS_4DimsEiib
libnvinfer.so.5:_ZN8nvinfer119getCHWWithExpansionERKNS_4DimsEi
libnvinfer.so.5:_ZN8nvinfer119getLayerOutputsInfoERKNS_11ICudaEngineEPSt4pairINS_4DimsENS_8DataTypeEEmm
libnvinfer.so.5:_ZN8nvinfer119getLayerWeightsSizeERKNS_11ICudaEngineEi
libnvinfer.so.5:_ZN8nvinfer119getOutputTensorNameERKSsj
libnvinfer.so.5:_ZN8nvinfer119setBackendNodeRangeERNS_8IBuilderEiii
libnvinfer.so.5:_ZN8nvinfer119setupSNEPermutationEPKiPii
libnvinfer.so.5:_ZN8nvinfer120convertReduceAxesSetESt6bitsetILm8EE
libnvinfer.so.5:_ZN8nvinfer120dumpLayerInformationEPNS_11ICudaEngineERSo
libnvinfer.so.5:_ZN8nvinfer120getLowestSetBitIndexEj
libnvinfer.so.5:_ZN8nvinfer120pluginSupportsFormatERKNS_16PluginParametersENS_8DataTypeENS_12PluginFormatE
libnvinfer.so.5:_ZN8nvinfer121CudaEngineBuildConfig13setDeviceTypeEPKNS_6ILayerENS_10DeviceTypeE
libnvinfer.so.5:_ZN8nvinfer121CudaEngineBuildConfig15resetDeviceTypeEPKNS_6ILayerE
libnvinfer.so.5:_ZN8nvinfer121getAllocationTrackingEv
libnvinfer.so.5:_ZN8nvinfer121getInternalBuildFlagsERKNS_18INetworkDefinitionE
libnvinfer.so.5:_ZN8nvinfer121getTiledPoolingKernelEj
libnvinfer.so.5:_ZN8nvinfer121setAllocationTrackingENS_10CpuGpuPairIbEE
libnvinfer.so.5:_ZN8nvinfer121setInternalBuildFlagsERNS_18INetworkDefinitionEi
libnvinfer.so.5:_ZN8nvinfer121setupSNEOffsetsWidthsEPKiPiS2_ii
libnvinfer.so.5:_ZN8nvinfer122combineIndexDimensionsEiRKNS_4DimsE
libnvinfer.so.5:_ZN8nvinfer122isDepthwiseConvolutionEiii
libnvinfer.so.5:_ZN8nvinfer122setQuantizeActivationsERNS_17IExecutionContextEb
libnvinfer.so.5:_ZN8nvinfer123GenericCHWPackedPooling13execute_half2EiiiiiiiiiiiiNS_11PoolingTypeEPKvPviiP11CUstream_st
libnvinfer.so.5:_ZN8nvinfer123GenericCHWPackedPooling16execute_int8quadEiiiiiiiiiiiiNS_11PoolingTypeEPKvPvPKfS6_iiP11CUstream_st
libnvinfer.so.5:_ZN8nvinfer123printPartialPermutationERSoRKNS_11PermutationEi
libnvinfer.so.5:_ZN8nvinfer124getNbTiledPoolingKernelsEv
libnvinfer.so.5:_ZN8nvinfer124invalidExclusiveCountingENS_11PoolingTypeEbRKNS_6DimsHWES3_
libnvinfer.so.5:_ZN8nvinfer12rt10DlaContext10initializeEPvS2_i
libnvinfer.so.5:_ZN8nvinfer12rt10DlaContext9terminateEv
libnvinfer.so.5:_ZN8nvinfer12rt10UserRegionC1ERKSsRKNS_4DimsERKNS_13RegionFormatBENS0_8BindTypeEjNS_14TensorLocationE
libnvinfer.so.5:_ZN8nvinfer12rt10UserRegionC2ERKSsRKNS_4DimsERKNS_13RegionFormatBENS0_8BindTypeEjNS_14TensorLocationE
libnvinfer.so.5:_ZN8nvinfer12rt10readStringERPKc
libnvinfer.so.5:_ZN8nvinfer12rt11RegionGuard5checkEv
libnvinfer.so.5:_ZN8nvinfer12rt11RegionGuardC1ERKSt6vectorINS0_12EngineTensorESaIS3_EERKNS0_13CommonContextE
libnvinfer.so.5:_ZN8nvinfer12rt11RegionGuardC2ERKSt6vectorINS0_12EngineTensorESaIS3_EERKNS0_13CommonContextE
libnvinfer.so.5:_ZN8nvinfer12rt11cpuReformatEPKvPvRKNS_4DimsES6_S6_RKNS_13RegionFormatBES9_PKfSB_
libnvinfer.so.5:_ZN8nvinfer12rt11matchNbDimsERKNS0_12EngineTensorES3_
libnvinfer.so.5:_ZN8nvinfer12rt11readElementEPKvNS_8DataTypeEi
libnvinfer.so.5:_ZN8nvinfer12rt12LinearRegionC1ERKSsRKNS_4DimsERKNS_13RegionFormatBERKSt6vectorIfSaIfEEi
libnvinfer.so.5:_ZN8nvinfer12rt12LinearRegionC2ERKSsRKNS_4DimsERKNS_13RegionFormatBERKSt6vectorIfSaIfEEi
libnvinfer.so.5:_ZN8nvinfer12rt12getTensorMemERKNS0_12EngineTensorERKNS0_13CommonContextE
libnvinfer.so.5:_ZN8nvinfer12rt12writeElementEPvNS_8DataTypeEid
libnvinfer.so.5:_ZN8nvinfer12rt13CommonContext9configureEP11CUstream_stiPPvS5_PKmi
libnvinfer.so.5:_ZN8nvinfer12rt13DeviceWeights7releaseEv
libnvinfer.so.5:_ZN8nvinfer12rt13DeviceWeightsD1Ev
libnvinfer.so.5:_ZN8nvinfer12rt13DeviceWeightsD2Ev
libnvinfer.so.5:_ZN8nvinfer12rt13DeviceWeightsaSEOS1_
libnvinfer.so.5:_ZN8nvinfer12rt13cudnnDataTypeENS_8DataTypeE
libnvinfer.so.5:_ZN8nvinfer12rt13serializeDimsERN18nvinferFlatBuffers11flatbuffers17FlatBufferBuilderERKNS_4DimsE
libnvinfer.so.5:_ZN8nvinfer12rt13serializeGlobEP11CUstream_stRN18nvinferFlatBuffers11flatbuffers17FlatBufferBuilderERKNS_9GpuMemoryE
libnvinfer.so.5:_ZN8nvinfer12rt14ConstantRegionC1ERKSsRKNS_4DimsERKNS_13RegionFormatBERKSt6vectorIfSaIfEE
libnvinfer.so.5:_ZN8nvinfer12rt14ConstantRegionC2ERKSsRKNS_4DimsERKNS_13RegionFormatBERKSt6vectorIfSaIfEE
libnvinfer.so.5:_ZN8nvinfer12rt14getTensorMemExERKNS0_12EngineTensorERKNS0_13CommonContextE
libnvinfer.so.5:_ZN8nvinfer12rt15HardwareContextC1Ev
libnvinfer.so.5:_ZN8nvinfer12rt15HardwareContextC2Ev
libnvinfer.so.5:_ZN8nvinfer12rt15adjustForGroupsENS0_12EngineTensorEi
libnvinfer.so.5:_ZN8nvinfer12rt15canHandleGroupsENS0_12EngineTensorEi
libnvinfer.so.5:_ZN8nvinfer12rt15convertDataTypeE15cudnnDataType_t
libnvinfer.so.5:_ZN8nvinfer12rt15deserializeDimsERKN18nvinferFlatBuffers3ifb4DimsE
libnvinfer.so.5:_ZN8nvinfer12rt15deserializeGlobERKN18nvinferFlatBuffers11flatbuffers6VectorIaEE
libnvinfer.so.5:_ZN8nvinfer12rt15serializeTensorERN18nvinferFlatBuffers11flatbuffers17FlatBufferBuilderERKNS0_12EngineTensorE
libnvinfer.so.5:_ZN8nvinfer12rt15serializeTopKOpENS_13TopKOperationE
libnvinfer.so.5:_ZN8nvinfer12rt16ExecutionContext15emitDebugTensorERNS_12IDebugOutputERKSsRKNS0_12EngineTensorES5_
libnvinfer.so.5:_ZN8nvinfer12rt16ExecutionContext15setDeviceMemoryEPv
libnvinfer.so.5:_ZN8nvinfer12rt16ExecutionContext16commonEmitTensorERNS_12IDebugOutputERKSsS5_S5_PKvRKNS_4DimsERKNS_13RegionFormatBEiSA_SA_PKf
libnvinfer.so.5:_ZN8nvinfer12rt16ExecutionContext20emitInputDebugTensorERNS_12IDebugOutputERKSsS5_iRKNS_4DimsENS_8DataTypeEPKv
libnvinfer.so.5:_ZN8nvinfer12rt16ExecutionContext23setDeviceMemoryInternalEPv
libnvinfer.so.5:_ZN8nvinfer12rt16ExecutionContext7enqueueEiPPvP11CUstream_stPP10CUevent_st
libnvinfer.so.5:_ZN8nvinfer12rt16ExecutionContext7executeEiPPv
libnvinfer.so.5:_ZN8nvinfer12rt16ExecutionContext7setNameEPKc
libnvinfer.so.5:_ZN8nvinfer12rt16ExecutionContextC1ERKNS0_6EngineEb
libnvinfer.so.5:_ZN8nvinfer12rt16ExecutionContextC2ERKNS0_6EngineEb
libnvinfer.so.5:_ZN8nvinfer12rt16ExecutionContextD0Ev
libnvinfer.so.5:_ZN8nvinfer12rt16ExecutionContextD1Ev
libnvinfer.so.5:_ZN8nvinfer12rt16ExecutionContextD2Ev
libnvinfer.so.5:_ZN8nvinfer12rt16serializeGpuHunkERN18nvinferFlatBuffers11flatbuffers17FlatBufferBuilderERKNS0_7GpuHunkE
libnvinfer.so.5:_ZN8nvinfer12rt16serializeUnaryOpENS_14UnaryOperationE
libnvinfer.so.5:_ZN8nvinfer12rt17CudaDeviceProfile11deserializeEPKN18nvinferFlatBuffers3ifb13DeviceProfileE
libnvinfer.so.5:_ZN8nvinfer12rt17CudaDeviceProfile14generateByPropE14cudaDeviceProp
libnvinfer.so.5:_ZN8nvinfer12rt17CudaDeviceProfile18generateForCurrentEv
libnvinfer.so.5:_ZN8nvinfer12rt17CudaDeviceProfile21generateByDeviceIndexEi
libnvinfer.so.5:_ZN8nvinfer12rt17createLayerParamsERN18nvinferFlatBuffers11flatbuffers17FlatBufferBuilderESt4pairINS1_3ifb11ParamsUnionENS2_6OffsetIvEEES5_INS6_10BlobsUnionES9_E
libnvinfer.so.5:_ZN8nvinfer12rt17deserializeTensorERKN18nvinferFlatBuffers3ifb6TensorERKSt13unordered_mapISsSt10unique_ptrINS0_6RegionESt14default_deleteIS8_EESt4hashISsESt8equal_toISsESaISt4pairIKSsSB_EEE
libnvinfer.so.5:_ZN8nvinfer12rt17deserializeTopKOpEN18nvinferFlatBuffers3ifb13TopKOperationE
libnvinfer.so.5:_ZN8nvinfer12rt17getConvolutionOpsERKNS_21ConvolutionParametersERKNS0_12EngineTensorES6_
libnvinfer.so.5:_ZN8nvinfer12rt17serializeBindTypeENS0_8BindTypeE
libnvinfer.so.5:_ZN8nvinfer12rt17serializeDataTypeENS_8DataTypeE
libnvinfer.so.5:_ZN8nvinfer12rt17serializeMLPBlobsERN18nvinferFlatBuffers11flatbuffers17FlatBufferBuilderERKNS0_17DeviceWeightsHunkES7_
libnvinfer.so.5:_ZN8nvinfer12rt17serializeRNNBlobsERN18nvinferFlatBuffers11flatbuffers17FlatBufferBuilderERKNS0_17DeviceWeightsHunkE
libnvinfer.so.5:_ZN8nvinfer12rt17serializeReduceOpENS_8ReduceOpE
libnvinfer.so.5:_ZN8nvinfer12rt18DlaContextResourceC1Ei
libnvinfer.so.5:_ZN8nvinfer12rt18DlaContextResourceC2Ei
libnvinfer.so.5:_ZN8nvinfer12rt18computeVectorIndexERKNS_4DimsERKNS_13RegionFormatBES3_S3_i
libnvinfer.so.5:_ZN8nvinfer12rt18deserializeGpuHunkERKN18nvinferFlatBuffers3ifb7GpuHunkE
libnvinfer.so.5:_ZN8nvinfer12rt18deserializeUnaryOpEN18nvinferFlatBuffers3ifb14UnaryOperationE
libnvinfer.so.5:_ZN8nvinfer12rt18deserializeWeightsERKN18nvinferFlatBuffers3ifb7WeightsE
libnvinfer.so.5:_ZN8nvinfer12rt18safeCudnnAddTensorEP12cudnnContextPKfRKP17cudnnTensorStructPKvS4_S8_Pvi
libnvinfer.so.5:_ZN8nvinfer12rt18serializeCaskBlobsERN18nvinferFlatBuffers11flatbuffers17FlatBufferBuilderERKSt6vectorINS_9CpuMemoryESaIS6_EERKS5_INS0_7GpuHunkESaISB_EE
libnvinfer.so.5:_ZN8nvinfer12rt18serializeCpuMemoryERN18nvinferFlatBuffers11flatbuffers17FlatBufferBuilderERKNS_9CpuMemoryE
libnvinfer.so.5:_ZN8nvinfer12rt18serializeLRNParamsERN18nvinferFlatBuffers11flatbuffers17FlatBufferBuilderERKNS_13LRNParametersE
libnvinfer.so.5:_ZN8nvinfer12rt18serializeLayerTypeENS0_9LayerImplE
libnvinfer.so.5:_ZN8nvinfer12rt18serializeMLPParamsERN18nvinferFlatBuffers11flatbuffers17FlatBufferBuilderERKNS_13MLPParametersE
libnvinfer.so.5:_ZN8nvinfer12rt18serializeRNNParamsERN18nvinferFlatBuffers11flatbuffers17FlatBufferBuilderERKNS_13RNNParametersE
libnvinfer.so.5:_ZN8nvinfer12rt19computeScalarCoordsEiRKNS_4DimsE
libnvinfer.so.5:_ZN8nvinfer12rt19computeVectorCoordsERKNS_4DimsERKNS_13RegionFormatBEiS3_
libnvinfer.so.5:_ZN8nvinfer12rt19deserializeBindTypeEN18nvinferFlatBuffers3ifb8BindTypeE
libnvinfer.so.5:_ZN8nvinfer12rt19deserializeDataTypeEN18nvinferFlatBuffers3ifb8DataTypeE
libnvinfer.so.5:_ZN8nvinfer12rt19deserializeReduceOpEN18nvinferFlatBuffers3ifb8ReduceOpE
libnvinfer.so.5:_ZN8nvinfer12rt19getDeconvolutionOpsERKNS_21ConvolutionParametersERKNS0_12EngineTensorES6_
libnvinfer.so.5:_ZN8nvinfer12rt19serializeCoordArrayERN18nvinferFlatBuffers11flatbuffers17FlatBufferBuilderERKSt5arrayIiLm8EE
libnvinfer.so.5:_ZN8nvinfer12rt19serializeTopKParamsERN18nvinferFlatBuffers11flatbuffers17FlatBufferBuilderERKNS_14TopKParametersE
libnvinfer.so.5:_ZN8nvinfer12rt19setTensorDescriptorEP17cudnnTensorStructRKNS0_12EngineTensorEi
libnvinfer.so.5:_ZN8nvinfer12rt20deserializeCpuMemoryERKN18nvinferFlatBuffers3ifb9CpuMemoryE
libnvinfer.so.5:_ZN8nvinfer12rt20deserializeLRNParamsERKN18nvinferFlatBuffers3ifb11LayerParamsE
libnvinfer.so.5:_ZN8nvinfer12rt20deserializeMLPParamsERKN18nvinferFlatBuffers3ifb11LayerParamsE
libnvinfer.so.5:_ZN8nvinfer12rt20deserializeRNNParamsERKN18nvinferFlatBuffers3ifb11LayerParamsE
libnvinfer.so.5:_ZN8nvinfer12rt20reportGpuMemoryUsageEPKc
libnvinfer.so.5:_ZN8nvinfer12rt20serializeHostWeightsERN18nvinferFlatBuffers11flatbuffers17FlatBufferBuilderEPvNS_8DataTypeEm
libnvinfer.so.5:_ZN8nvinfer12rt20serializeRNNv2ParamsERN18nvinferFlatBuffers11flatbuffers17FlatBufferBuilderERKNS_15RNNv2ParametersE
libnvinfer.so.5:_ZN8nvinfer12rt20serializeScaleParamsERN18nvinferFlatBuffers11flatbuffers17FlatBufferBuilderERKNS_15ScaleParametersEi
libnvinfer.so.5:_ZN8nvinfer12rt20serializeUnaryParamsERN18nvinferFlatBuffers11flatbuffers17FlatBufferBuilderERKNS_15UnaryParametersE
libnvinfer.so.5:_ZN8nvinfer12rt21deserializeCoordArrayERKN18nvinferFlatBuffers11flatbuffers6VectorIiEE
libnvinfer.so.5:_ZN8nvinfer12rt21deserializeTopKParamsERKN18nvinferFlatBuffers3ifb11LayerParamsE
libnvinfer.so.5:_ZN8nvinfer12rt21serializeGatherParamsERN18nvinferFlatBuffers11flatbuffers17FlatBufferBuilderERKNS_16GatherParametersE
libnvinfer.so.5:_ZN8nvinfer12rt21serializeLRNParamsRawERN18nvinferFlatBuffers11flatbuffers17FlatBufferBuilderERKNS_13LRNParametersE
libnvinfer.so.5:_ZN8nvinfer12rt21serializeMLPParamsRawERN18nvinferFlatBuffers11flatbuffers17FlatBufferBuilderERKNS_13MLPParametersE
libnvinfer.so.5:_ZN8nvinfer12rt21serializeReduceParamsERN18nvinferFlatBuffers11flatbuffers17FlatBufferBuilderERKNS_16ReduceParametersE
libnvinfer.so.5:_ZN8nvinfer12rt21serializeRegionFormatERN18nvinferFlatBuffers11flatbuffers17FlatBufferBuilderERKNS_13RegionFormatBE
libnvinfer.so.5:_ZN8nvinfer12rt22combineIndexDimensionsERKNS0_12EngineTensorERKNS0_13CommonContextE
libnvinfer.so.5:_ZN8nvinfer12rt22deserializeRNNv2ParamsERKN18nvinferFlatBuffers3ifb11LayerParamsE
libnvinfer.so.5:_ZN8nvinfer12rt22deserializeScaleParamsERKN18nvinferFlatBuffers3ifb11LayerParamsERi
libnvinfer.so.5:_ZN8nvinfer12rt22deserializeUnaryParamsERKN18nvinferFlatBuffers3ifb11LayerParamsE
libnvinfer.so.5:_ZN8nvinfer12rt22serializeConstantBlobsERN18nvinferFlatBuffers11flatbuffers17FlatBufferBuilderERKNS0_7GpuHunkE
libnvinfer.so.5:_ZN8nvinfer12rt22serializeDeviceWeightsEP11CUstream_stRN18nvinferFlatBuffers11flatbuffers17FlatBufferBuilderERKNS0_13DeviceWeightsE
libnvinfer.so.5:_ZN8nvinfer12rt22serializeElementWiseOpENS_20ElementWiseOperationE
libnvinfer.so.5:_ZN8nvinfer12rt22serializePaddingParamsERN18nvinferFlatBuffers11flatbuffers17FlatBufferBuilderERKNS_17PaddingParametersE
libnvinfer.so.5:_ZN8nvinfer12rt22serializePoolingParamsERN18nvinferFlatBuffers11flatbuffers17FlatBufferBuilderERKNS_17PoolingParametersE
libnvinfer.so.5:_ZN8nvinfer12rt22serializeShuffleParamsERN18nvinferFlatBuffers11flatbuffers17FlatBufferBuilderERKNS_17ShuffleParametersE
libnvinfer.so.5:_ZN8nvinfer12rt22serializeSoftMaxParamsERN18nvinferFlatBuffers11flatbuffers17FlatBufferBuilderERKNS_17SoftMaxParametersE
libnvinfer.so.5:_ZN8nvinfer12rt22terminateCommonContextERNS0_13CommonContextE
libnvinfer.so.5:_ZN8nvinfer12rt23deserializeGatherParamsERKN18nvinferFlatBuffers3ifb11LayerParamsE
libnvinfer.so.5:_ZN8nvinfer12rt23deserializeReduceParamsERKN18nvinferFlatBuffers3ifb11LayerParamsE
libnvinfer.so.5:_ZN8nvinfer12rt23deserializeRegionFormatERKN18nvinferFlatBuffers3ifb12RegionFormatE
libnvinfer.so.5:_ZN8nvinfer12rt23getCudaTextureAlignmentEv
libnvinfer.so.5:_ZN8nvinfer12rt23getDeviceMemGranularityEv
libnvinfer.so.5:_ZN8nvinfer12rt23initializeCommonContextERNS0_13CommonContextERNS_13IGpuAllocatorEPvS5_i
libnvinfer.so.5:_ZN8nvinfer12rt23serializeActivationTypeENS_14ActivationTypeE
libnvinfer.so.5:_ZN8nvinfer12rt23serializeConstantParamsERN18nvinferFlatBuffers11flatbuffers17FlatBufferBuilderERKNS_18ConstantParametersE
libnvinfer.so.5:_ZN8nvinfer12rt23serializeTensorLocationENS_14TensorLocationE
libnvinfer.so.5:_ZN8nvinfer12rt24deserializeElementWiseOpEN18nvinferFlatBuffers3ifb20ElementWiseOperationE
libnvinfer.so.5:_ZN8nvinfer12rt24deserializePaddingParamsERKN18nvinferFlatBuffers3ifb11LayerParamsE
libnvinfer.so.5:_ZN8nvinfer12rt24deserializePoolingParamsERKN18nvinferFlatBuffers3ifb11LayerParamsE
libnvinfer.so.5:_ZN8nvinfer12rt24deserializeShuffleParamsERKN18nvinferFlatBuffers3ifb11LayerParamsE
libnvinfer.so.5:_ZN8nvinfer12rt24deserializeSoftMaxParamsERKN18nvinferFlatBuffers3ifb11LayerParamsE
libnvinfer.so.5:_ZN8nvinfer12rt24fbEngineDeviceCompatibleERKNS0_17CudaDeviceProfileE
libnvinfer.so.5:_ZN8nvinfer12rt24getConvolutionWeightSizeERKNS_21ConvolutionParametersERKNS0_12EngineTensorES6_
libnvinfer.so.5:_ZN8nvinfer12rt24serializeCudnnScaleBlobsERN18nvinferFlatBuffers11flatbuffers17FlatBufferBuilderERKNS0_17DeviceWeightsHunkES7_S7_
libnvinfer.so.5:_ZN8nvinfer12rt24serializeMatrixOperationENS_15MatrixOperationE
libnvinfer.so.5:_ZN8nvinfer12rt24serializeRNNCommonParamsERN18nvinferFlatBuffers11flatbuffers17FlatBufferBuilderERKNS_19RNNCommonParametersE
libnvinfer.so.5:_ZN8nvinfer12rt24serializeVectorOfGpuHunkERN18nvinferFlatBuffers11flatbuffers17FlatBufferBuilderERKSt6vectorINS0_7GpuHunkESaIS6_EE
libnvinfer.so.5:_ZN8nvinfer12rt25deserializeActivationTypeERKN18nvinferFlatBuffers3ifb14ActivationTypeE
libnvinfer.so.5:_ZN8nvinfer12rt25deserializeConstantParamsERKN18nvinferFlatBuffers3ifb11LayerParamsE
libnvinfer.so.5:_ZN8nvinfer12rt25deserializeTensorLocationEN18nvinferFlatBuffers3ifb14TensorLocationE
libnvinfer.so.5:_ZN8nvinfer12rt25fbEngineVersionCompatibleEPKN18nvinferFlatBuffers3ifb6EngineE
libnvinfer.so.5:_ZN8nvinfer12rt25serializeActivationParamsERN18nvinferFlatBuffers11flatbuffers17FlatBufferBuilderERKNS_20ActivationParametersE
libnvinfer.so.5:_ZN8nvinfer12rt26deserializeMatrixOperationEN18nvinferFlatBuffers3ifb15MatrixOperationE
libnvinfer.so.5:_ZN8nvinfer12rt26deserializeRNNCommonParamsERNS_19RNNCommonParametersERKN18nvinferFlatBuffers3ifb15RNNCommonParamsE
libnvinfer.so.5:_ZN8nvinfer12rt26deserializeVectorOfGpuHunkERKN18nvinferFlatBuffers11flatbuffers6VectorIPKNS1_3ifb7GpuHunkEEE
libnvinfer.so.5:_ZN8nvinfer12rt26getDeconvolutionWeightSizeERKNS_21ConvolutionParametersERKNS0_12EngineTensorES6_
libnvinfer.so.5:_ZN8nvinfer12rt26serializeConvolutionParamsERN18nvinferFlatBuffers11flatbuffers17FlatBufferBuilderERKNS_21ConvolutionParametersEb
libnvinfer.so.5:_ZN8nvinfer12rt26serializeDeviceWeightsHunkERN18nvinferFlatBuffers11flatbuffers17FlatBufferBuilderERKNS0_17DeviceWeightsHunkE
libnvinfer.so.5:_ZN8nvinfer12rt26serializeElementWiseParamsERN18nvinferFlatBuffers11flatbuffers17FlatBufferBuilderERKNS_21ElementWiseParametersE
libnvinfer.so.5:_ZN8nvinfer12rt26serializeVectorOfCpuMemoryERN18nvinferFlatBuffers11flatbuffers17FlatBufferBuilderERKSt6vectorINS_9CpuMemoryESaIS6_EE
libnvinfer.so.5:_ZN8nvinfer12rt27deserializeActivationParamsERKN18nvinferFlatBuffers3ifb11LayerParamsE
libnvinfer.so.5:_ZN8nvinfer12rt28deserializeConvolutionParamsERKN18nvinferFlatBuffers3ifb11LayerParamsERbRSt6vectorIfSaIfEE
libnvinfer.so.5:_ZN8nvinfer12rt28deserializeDeviceWeightsHunkERKN18nvinferFlatBuffers3ifb17DeviceWeightsHunkE
libnvinfer.so.5:_ZN8nvinfer12rt28deserializeElementWiseParamsERKN18nvinferFlatBuffers3ifb11LayerParamsE
libnvinfer.so.5:_ZN8nvinfer12rt28deserializeVectorOfCpuMemoryERKN18nvinferFlatBuffers11flatbuffers6VectorINS2_6OffsetINS1_3ifb9CpuMemoryEEEEE
libnvinfer.so.5:_ZN8nvinfer12rt28serializeActivationParamsRawERN18nvinferFlatBuffers11flatbuffers17FlatBufferBuilderERKNS_20ActivationParametersE
libnvinfer.so.5:_ZN8nvinfer12rt28serializeDeconvolutionParamsERN18nvinferFlatBuffers11flatbuffers17FlatBufferBuilderERKNS_21ConvolutionParametersERKSt6vectorIfSaIfEE
libnvinfer.so.5:_ZN8nvinfer12rt28serializeFullyConnectedBlobsERN18nvinferFlatBuffers11flatbuffers17FlatBufferBuilderERKNS0_17DeviceWeightsHunkES7_
libnvinfer.so.5:_ZN8nvinfer12rt28serializeRaggedSoftMaxParamsERN18nvinferFlatBuffers11flatbuffers17FlatBufferBuilderERKNS_23RaggedSoftMaxParametersE
libnvinfer.so.5:_ZN8nvinfer12rt28serializeWeightsTypeAndCountERN18nvinferFlatBuffers11flatbuffers17FlatBufferBuilderERKNS_7WeightsE
libnvinfer.so.5:_ZN8nvinfer12rt29serializeFullyConnectedParamsERN18nvinferFlatBuffers11flatbuffers17FlatBufferBuilderERKNS_24FullyConnectedParametersEbf
libnvinfer.so.5:_ZN8nvinfer12rt29serializeMatrixMultiplyParamsERN18nvinferFlatBuffers11flatbuffers17FlatBufferBuilderERKNS_24MatrixMultiplyParametersE
libnvinfer.so.5:_ZN8nvinfer12rt29serializeWinogradConvActBlobsERN18nvinferFlatBuffers11flatbuffers17FlatBufferBuilderERKNS_9CpuMemoryERKNS0_17DeviceWeightsHunkERKNS0_7GpuHunkESD_
libnvinfer.so.5:_ZN8nvinfer12rt30deserializeActivationParamsRawERKN18nvinferFlatBuffers3ifb16ActivationParamsE
libnvinfer.so.5:_ZN8nvinfer12rt30deserializeDeconvolutionParamsERKN18nvinferFlatBuffers3ifb11LayerParamsERSt6vectorIfSaIfEE
libnvinfer.so.5:_ZN8nvinfer12rt30deserializeRaggedSoftMaxParamsERKN18nvinferFlatBuffers3ifb11LayerParamsE
libnvinfer.so.5:_ZN8nvinfer12rt30deserializeWeightsTypeAndCountERKN18nvinferFlatBuffers3ifb19WeightsTypeAndCountE
libnvinfer.so.5:_ZN8nvinfer12rt30serializeCudnnConvolutionBlobsERN18nvinferFlatBuffers11flatbuffers17FlatBufferBuilderERKNS0_17DeviceWeightsHunkES7_RKNS0_7GpuHunkEPS9_
libnvinfer.so.5:_ZN8nvinfer12rt31deserializeFullyConnectedParamsERKN18nvinferFlatBuffers3ifb11LayerParamsERbRf
libnvinfer.so.5:_ZN8nvinfer12rt31deserializeMatrixMultiplyParamsERKN18nvinferFlatBuffers3ifb11LayerParamsE
libnvinfer.so.5:_ZN8nvinfer12rt31serializeCaskDeconvolutionBlobsERN18nvinferFlatBuffers11flatbuffers17FlatBufferBuilderERKSt6vectorINS_9CpuMemoryESaIS6_EERKS5_INS0_7GpuHunkESaISB_EERKSB_
libnvinfer.so.5:_ZN8nvinfer12rt31serializeCudnnFusedConvActBlobsERN18nvinferFlatBuffers11flatbuffers17FlatBufferBuilderERKNS0_17DeviceWeightsHunkES7_RKNS0_7GpuHunkE
libnvinfer.so.5:_ZN8nvinfer12rt32serializeFullyConnectedParamsRawERN18nvinferFlatBuffers11flatbuffers17FlatBufferBuilderERKNS_24FullyConnectedParametersEbf
libnvinfer.so.5:_ZN8nvinfer12rt34deserializeFullyConnectedParamsRawERKN18nvinferFlatBuffers3ifb20FullyConnectedParamsERbRf
libnvinfer.so.5:_ZN8nvinfer12rt37canSetTensorDescriptorByCombiningTo4DERKNS0_12EngineTensorE
libnvinfer.so.5:_ZN8nvinfer12rt42serializecudaCudaDepthwiseConvolutionBlobsERN18nvinferFlatBuffers11flatbuffers17FlatBufferBuilderERKNS0_17DeviceWeightsHunkES7_RKNS0_7GpuHunkE
libnvinfer.so.5:_ZN8nvinfer12rt4cuda10ScaleLayer16releaseResourcesEv
libnvinfer.so.5:_ZN8nvinfer12rt4cuda10ScaleLayer17allocateResourcesERKNS0_13CommonContextE
libnvinfer.so.5:_ZN8nvinfer12rt4cuda10ScaleLayer20deserializeConstantsERKN18nvinferFlatBuffers3ifb11LayerParamsE
libnvinfer.so.5:_ZN8nvinfer12rt4cuda10ScaleLayerC1ERKSsRKSt6vectorINS0_12EngineTensorESaIS6_EESA_RKNS_15ScaleParametersEN7cuScale19FusedActivationTypeE
libnvinfer.so.5:_ZN8nvinfer12rt4cuda10ScaleLayerC2ERKSsRKSt6vectorINS0_12EngineTensorESaIS6_EESA_RKNS_15ScaleParametersEN7cuScale19FusedActivationTypeE
libnvinfer.so.5:_ZN8nvinfer12rt4cuda10ScaleLayerD0Ev
libnvinfer.so.5:_ZN8nvinfer12rt4cuda10ScaleLayerD1Ev
libnvinfer.so.5:_ZN8nvinfer12rt4cuda10ScaleLayerD2Ev
libnvinfer.so.5:_ZN8nvinfer12rt4cuda10UnaryLayer16releaseResourcesEv
libnvinfer.so.5:_ZN8nvinfer12rt4cuda10UnaryLayer17allocateResourcesERKNS0_13CommonContextE
libnvinfer.so.5:_ZN8nvinfer12rt4cuda10UnaryLayerC1ERKSsRKSt6vectorINS0_12EngineTensorESaIS6_EESA_RKNS_15UnaryParametersE
libnvinfer.so.5:_ZN8nvinfer12rt4cuda10UnaryLayerC2ERKSsRKSt6vectorINS0_12EngineTensorESaIS6_EESA_RKNS_15UnaryParametersE
libnvinfer.so.5:_ZN8nvinfer12rt4cuda10UnaryLayerD0Ev
libnvinfer.so.5:_ZN8nvinfer12rt4cuda10UnaryLayerD1Ev
libnvinfer.so.5:_ZN8nvinfer12rt4cuda10UnaryLayerD2Ev
libnvinfer.so.5:_ZN8nvinfer12rt4cuda11GatherLayer16releaseResourcesEv
libnvinfer.so.5:_ZN8nvinfer12rt4cuda11GatherLayer17allocateResourcesERKNS0_13CommonContextE
libnvinfer.so.5:_ZN8nvinfer12rt4cuda11GatherLayerC1ERKSsRKSt6vectorINS0_12EngineTensorESaIS6_EESA_RKNS_16GatherParametersE
libnvinfer.so.5:_ZN8nvinfer12rt4cuda11GatherLayerC2ERKSsRKSt6vectorINS0_12EngineTensorESaIS6_EESA_RKNS_16GatherParametersE
libnvinfer.so.5:_ZN8nvinfer12rt4cuda11GatherLayerD0Ev
libnvinfer.so.5:_ZN8nvinfer12rt4cuda11GatherLayerD1Ev
libnvinfer.so.5:_ZN8nvinfer12rt4cuda11GatherLayerD2Ev
libnvinfer.so.5:_ZN8nvinfer12rt4cuda11PluginLayer15configurePluginERKNS0_18EngineBuildContextE
libnvinfer.so.5:_ZN8nvinfer12rt4cuda11PluginLayer16releaseResourcesEv
libnvinfer.so.5:_ZN8nvinfer12rt4cuda11PluginLayer17allocateResourcesERKNS0_13CommonContextE
libnvinfer.so.5:_ZN8nvinfer12rt4cuda11PluginLayer25computePersistentHostSizeERKNS0_13CommonContextE
libnvinfer.so.5:_ZN8nvinfer12rt4cuda11PluginLayerC1ERKSsRKSt6vectorINS0_12EngineTensorESaIS6_EESA_RKNS_16PluginParametersE
libnvinfer.so.5:_ZN8nvinfer12rt4cuda11PluginLayerC2ERKSsRKSt6vectorINS0_12EngineTensorESaIS6_EESA_RKNS_16PluginParametersE
libnvinfer.so.5:_ZN8nvinfer12rt4cuda11PluginLayerD0Ev
libnvinfer.so.5:_ZN8nvinfer12rt4cuda11PluginLayerD1Ev
libnvinfer.so.5:_ZN8nvinfer12rt4cuda11PluginLayerD2Ev
libnvinfer.so.5:_ZN8nvinfer12rt4cuda11ReduceLayer16releaseResourcesEv
libnvinfer.so.5:_ZN8nvinfer12rt4cuda11ReduceLayer17allocateResourcesERKNS0_13CommonContextE
libnvinfer.so.5:_ZN8nvinfer12rt4cuda11ReduceLayerC1ERKSsRKSt6vectorINS0_12EngineTensorESaIS6_EESA_RKNS_16ReduceParametersE
libnvinfer.so.5:_ZN8nvinfer12rt4cuda11ReduceLayerC2ERKSsRKSt6vectorINS0_12EngineTensorESaIS6_EESA_RKNS_16ReduceParametersE
libnvinfer.so.5:_ZN8nvinfer12rt4cuda11ReduceLayerD0Ev
libnvinfer.so.5:_ZN8nvinfer12rt4cuda11ReduceLayerD1Ev
libnvinfer.so.5:_ZN8nvinfer12rt4cuda11ReduceLayerD2Ev
libnvinfer.so.5:_ZN8nvinfer12rt4cuda11dimsToArrayERKNS_4DimsEiibi
libnvinfer.so.5:_ZN8nvinfer12rt4cuda12BaseMLPLayer18computeScratchSizeERKNS0_18EngineBuildContextEi
libnvinfer.so.5:_ZN8nvinfer12rt4cuda12BaseMLPLayer20deserializeConstantsERKN18nvinferFlatBuffers3ifb11LayerParamsE
libnvinfer.so.5:_ZN8nvinfer12rt4cuda12BaseMLPLayerC1ENS0_9LayerImplERKSsRKSt6vectorINS0_12EngineTensorESaIS7_EESB_RKNS_13MLPParametersE
libnvinfer.so.5:_ZN8nvinfer12rt4cuda12BaseMLPLayerC2ENS0_9LayerImplERKSsRKSt6vectorINS0_12EngineTensorESaIS7_EESB_RKNS_13MLPParametersE
libnvinfer.so.5:_ZN8nvinfer12rt4cuda12PaddingLayer16releaseResourcesEv
libnvinfer.so.5:_ZN8nvinfer12rt4cuda12PaddingLayer17allocateResourcesERKNS0_13CommonContextE
libnvinfer.so.5:_ZN8nvinfer12rt4cuda12PaddingLayerC1ERKSsRKSt6vectorINS0_12EngineTensorESaIS6_EESA_RKNS_17PaddingParametersE
libnvinfer.so.5:_ZN8nvinfer12rt4cuda12PaddingLayerC2ERKSsRKSt6vectorINS0_12EngineTensorESaIS6_EESA_RKNS_17PaddingParametersE
libnvinfer.so.5:_ZN8nvinfer12rt4cuda12PaddingLayerD0Ev
libnvinfer.so.5:_ZN8nvinfer12rt4cuda12PaddingLayerD1Ev
libnvinfer.so.5:_ZN8nvinfer12rt4cuda12PaddingLayerD2Ev
libnvinfer.so.5:_ZN8nvinfer12rt4cuda12PoolingLayer16releaseResourcesEv
libnvinfer.so.5:_ZN8nvinfer12rt4cuda12PoolingLayer17allocateResourcesERKNS0_13CommonContextE
libnvinfer.so.5:_ZN8nvinfer12rt4cuda12PoolingLayerC1ERKSsRKSt6vectorINS0_12EngineTensorESaIS6_EESA_RKNS_17PoolingParametersE
libnvinfer.so.5:_ZN8nvinfer12rt4cuda12PoolingLayerC2ERKSsRKSt6vectorINS0_12EngineTensorESaIS6_EESA_RKNS_17PoolingParametersE
libnvinfer.so.5:_ZN8nvinfer12rt4cuda12PoolingLayerD0Ev
libnvinfer.so.5:_ZN8nvinfer12rt4cuda12PoolingLayerD1Ev
libnvinfer.so.5:_ZN8nvinfer12rt4cuda12PoolingLayerD2Ev
libnvinfer.so.5:_ZN8nvinfer12rt4cuda12RNNBaseLayer16releaseResourcesEv
libnvinfer.so.5:_ZN8nvinfer12rt4cuda12RNNBaseLayer17allocateResourcesERKNS0_13CommonContextE
libnvinfer.so.5:_ZN8nvinfer12rt4cuda12RNNBaseLayer18RNNDescriptorStateC1ERKS2_RKNS0_13CommonContextE
libnvinfer.so.5:_ZN8nvinfer12rt4cuda12RNNBaseLayer18RNNDescriptorStateC2ERKS2_RKNS0_13CommonContextE
libnvinfer.so.5:_ZN8nvinfer12rt4cuda12RNNBaseLayer18computeScratchSizeERKNS0_18EngineBuildContextE
libnvinfer.so.5:_ZN8nvinfer12rt4cuda12RNNBaseLayer20deserializeConstantsERKN18nvinferFlatBuffers3ifb11LayerParamsE
libnvinfer.so.5:_ZN8nvinfer12rt4cuda12RNNBaseLayer25computePersistentHostSizeERKNS0_13CommonContextE
libnvinfer.so.5:_ZN8nvinfer12rt4cuda12RNNBaseLayer27computePersistentDeviceSizeERKNS0_13CommonContextE
libnvinfer.so.5:_ZN8nvinfer12rt4cuda12RNNBaseLayerC1ENS0_9LayerImplENS_11RNNDimOrderERKSsRKSt6vectorINS0_12EngineTensorESaIS8_EESC_RKNS_19RNNCommonParametersE
libnvinfer.so.5:_ZN8nvinfer12rt4cuda12RNNBaseLayerC1ENS0_9LayerImplENS_11RNNDimOrderERKSsRKSt6vectorINS0_12EngineTensorESaIS8_EESC_RKNS_19RNNCommonParametersESt4pairIS7_IiSaIiEEiE
libnvinfer.so.5:_ZN8nvinfer12rt4cuda12RNNBaseLayerC2ENS0_9LayerImplENS_11RNNDimOrderERKSsRKSt6vectorINS0_12EngineTensorESaIS8_EESC_RKNS_19RNNCommonParametersE
libnvinfer.so.5:_ZN8nvinfer12rt4cuda12RNNBaseLayerC2ENS0_9LayerImplENS_11RNNDimOrderERKSsRKSt6vectorINS0_12EngineTensorESaIS8_EESC_RKNS_19RNNCommonParametersESt4pairIS7_IiSaIiEEiE
libnvinfer.so.5:_ZN8nvinfer12rt4cuda12RNNBaseLayerD0Ev
libnvinfer.so.5:_ZN8nvinfer12rt4cuda12RNNBaseLayerD1Ev
libnvinfer.so.5:_ZN8nvinfer12rt4cuda12RNNBaseLayerD2Ev
libnvinfer.so.5:_ZN8nvinfer12rt4cuda12ShuffleLayerC1ERKSsRKSt6vectorINS0_12EngineTensorESaIS6_EESA_RKNS_17ShuffleParametersE
libnvinfer.so.5:_ZN8nvinfer12rt4cuda12ShuffleLayerC2ERKSsRKSt6vectorINS0_12EngineTensorESaIS6_EESA_RKNS_17ShuffleParametersE
libnvinfer.so.5:_ZN8nvinfer12rt4cuda12SoftMaxLayer17allocateResourcesERKNS0_13CommonContextE
libnvinfer.so.5:_ZN8nvinfer12rt4cuda12SoftMaxLayerC1ERKSsRKSt6vectorINS0_12EngineTensorESaIS6_EESA_RKNS_17SoftMaxParametersE
libnvinfer.so.5:_ZN8nvinfer12rt4cuda12SoftMaxLayerC2ERKSsRKSt6vectorINS0_12EngineTensorESaIS6_EESA_RKNS_17SoftMaxParametersE
libnvinfer.so.5:_ZN8nvinfer12rt4cuda12SoftMaxLayerD0Ev
libnvinfer.so.5:_ZN8nvinfer12rt4cuda12SoftMaxLayerD1Ev
libnvinfer.so.5:_ZN8nvinfer12rt4cuda12SoftMaxLayerD2Ev
libnvinfer.so.5:_ZN8nvinfer12rt4cuda12createTensorENS0_12EngineTensorEii
libnvinfer.so.5:_ZN8nvinfer12rt4cuda12cudaMLPLayer18computeScratchSizeERKNS0_18EngineBuildContextE
libnvinfer.so.5:_ZN8nvinfer12rt4cuda12cudaMLPLayerC1ERKSsRKSt6vectorINS0_12EngineTensorESaIS6_EESA_RKNS_13MLPParametersE
libnvinfer.so.5:_ZN8nvinfer12rt4cuda12cudaMLPLayerC2ERKSsRKSt6vectorINS0_12EngineTensorESaIS6_EESA_RKNS_13MLPParametersE
libnvinfer.so.5:_ZN8nvinfer12rt4cuda12cudaMLPLayerD0Ev
libnvinfer.so.5:_ZN8nvinfer12rt4cuda12cudaMLPLayerD1Ev
libnvinfer.so.5:_ZN8nvinfer12rt4cuda12cudaMLPLayerD2Ev
libnvinfer.so.5:_ZN8nvinfer12rt4cuda12getInCHWFormERKNS_4DimsEii
libnvinfer.so.5:_ZN8nvinfer12rt4cuda13ConstantLayer16releaseResourcesEv
libnvinfer.so.5:_ZN8nvinfer12rt4cuda13ConstantLayer17allocateResourcesERKNS0_13CommonContextE
libnvinfer.so.5:_ZN8nvinfer12rt4cuda13ConstantLayer20deserializeConstantsERKN18nvinferFlatBuffers3ifb11LayerParamsE
libnvinfer.so.5:_ZN8nvinfer12rt4cuda13ConstantLayerC1ERKSsRKSt6vectorINS0_12EngineTensorESaIS6_EESA_RKNS_18ConstantParametersE
libnvinfer.so.5:_ZN8nvinfer12rt4cuda13ConstantLayerC2ERKSsRKSt6vectorINS0_12EngineTensorESaIS6_EESA_RKNS_18ConstantParametersE
libnvinfer.so.5:_ZN8nvinfer12rt4cuda13ConstantLayerD0Ev
libnvinfer.so.5:_ZN8nvinfer12rt4cuda13ConstantLayerD1Ev
libnvinfer.so.5:_ZN8nvinfer12rt4cuda13ConstantLayerD2Ev
libnvinfer.so.5:_ZN8nvinfer12rt4cuda13PluginV2Layer15configurePluginERKNS0_18EngineBuildContextE
libnvinfer.so.5:_ZN8nvinfer12rt4cuda13PluginV2Layer16releaseResourcesEv
libnvinfer.so.5:_ZN8nvinfer12rt4cuda13PluginV2Layer17allocateResourcesERKNS0_13CommonContextE
libnvinfer.so.5:_ZN8nvinfer12rt4cuda13PluginV2Layer25computePersistentHostSizeERKNS0_13CommonContextE
libnvinfer.so.5:_ZN8nvinfer12rt4cuda13PluginV2LayerC1ERKSsRKSt6vectorINS0_12EngineTensorESaIS6_EESA_RKNS_18PluginV2ParametersE
libnvinfer.so.5:_ZN8nvinfer12rt4cuda13PluginV2LayerC2ERKSsRKSt6vectorINS0_12EngineTensorESaIS6_EESA_RKNS_18PluginV2ParametersE
libnvinfer.so.5:_ZN8nvinfer12rt4cuda13PluginV2LayerD0Ev
libnvinfer.so.5:_ZN8nvinfer12rt4cuda13PluginV2LayerD1Ev
libnvinfer.so.5:_ZN8nvinfer12rt4cuda13PluginV2LayerD2Ev
libnvinfer.so.5:_ZN8nvinfer12rt4cuda13ReformatLayerC1ERKSsRKSt6vectorINS0_12EngineTensorESaIS6_EESA_RKNS_12NoParametersE
libnvinfer.so.5:_ZN8nvinfer12rt4cuda13ReformatLayerC2ERKSsRKSt6vectorINS0_12EngineTensorESaIS6_EESA_RKNS_12NoParametersE
libnvinfer.so.5:_ZN8nvinfer12rt4cuda13getConcatAxisERKNS_4DimsES4_
libnvinfer.so.5:_ZN8nvinfer12rt4cuda14combineStridesEiRKSt5arrayIiLm8EEji
libnvinfer.so.5:_ZN8nvinfer12rt4cuda14simplifyWheelsERSt6vectorINS1_5WheelESaIS3_EE
libnvinfer.so.5:_ZN8nvinfer12rt4cuda14smallGemmValidEi
libnvinfer.so.5:_ZN8nvinfer12rt4cuda15ActivationLayer16releaseResourcesEv
libnvinfer.so.5:_ZN8nvinfer12rt4cuda15ActivationLayer17allocateResourcesERKNS0_13CommonContextE
libnvinfer.so.5:_ZN8nvinfer12rt4cuda15ActivationLayerC1ERKSsRKSt6vectorINS0_12EngineTensorESaIS6_EESA_RKNS_20ActivationParametersE
libnvinfer.so.5:_ZN8nvinfer12rt4cuda15ActivationLayerC2ERKSsRKSt6vectorINS0_12EngineTensorESaIS6_EESA_RKNS_20ActivationParametersE
libnvinfer.so.5:_ZN8nvinfer12rt4cuda15ActivationLayerD0Ev
libnvinfer.so.5:_ZN8nvinfer12rt4cuda15ActivationLayerD1Ev
libnvinfer.so.5:_ZN8nvinfer12rt4cuda15ActivationLayerD2Ev
libnvinfer.so.5:_ZN8nvinfer12rt4cuda15GemmDeconvLayer16releaseResourcesEv
libnvinfer.so.5:_ZN8nvinfer12rt4cuda15GemmDeconvLayer17allocateResourcesERKNS0_13CommonContextE
libnvinfer.so.5:_ZN8nvinfer12rt4cuda15GemmDeconvLayer18computeScratchSizeERKNS0_18EngineBuildContextE
libnvinfer.so.5:_ZN8nvinfer12rt4cuda15GemmDeconvLayer20deserializeConstantsERKN18nvinferFlatBuffers3ifb11LayerParamsE
libnvinfer.so.5:_ZN8nvinfer12rt4cuda15GemmDeconvLayerC1ERKSsRKSt6vectorINS0_12EngineTensorESaIS6_EESA_RKNS_21ConvolutionParametersERKS5_IfSaIfEE
libnvinfer.so.5:_ZN8nvinfer12rt4cuda15GemmDeconvLayerC2ERKSsRKSt6vectorINS0_12EngineTensorESaIS6_EESA_RKNS_21ConvolutionParametersERKS5_IfSaIfEE
libnvinfer.so.5:_ZN8nvinfer12rt4cuda15GemmDeconvLayerD0Ev
libnvinfer.so.5:_ZN8nvinfer12rt4cuda15GemmDeconvLayerD1Ev
libnvinfer.so.5:_ZN8nvinfer12rt4cuda15GemmDeconvLayerD2Ev
libnvinfer.so.5:_ZN8nvinfer12rt4cuda15createLRNTensorERKNS0_12EngineTensorERKNS0_13CommonContextE
libnvinfer.so.5:_ZN8nvinfer12rt4cuda15cudnnMLPFCLayer16releaseResourcesEv
libnvinfer.so.5:_ZN8nvinfer12rt4cuda15cudnnMLPFCLayer17allocateResourcesERKNS0_13CommonContextE
libnvinfer.so.5:_ZN8nvinfer12rt4cuda15cudnnMLPFCLayer18computeScratchSizeERKNS0_18EngineBuildContextE
libnvinfer.so.5:_ZN8nvinfer12rt4cuda15cudnnMLPFCLayerC1ERKSsRKSt6vectorINS0_12EngineTensorESaIS6_EESA_RKNS_13MLPParametersE
libnvinfer.so.5:_ZN8nvinfer12rt4cuda15cudnnMLPFCLayerC2ERKSsRKSt6vectorINS0_12EngineTensorESaIS6_EESA_RKNS_13MLPParametersE
libnvinfer.so.5:_ZN8nvinfer12rt4cuda15cudnnMLPFCLayerD0Ev
libnvinfer.so.5:_ZN8nvinfer12rt4cuda15cudnnMLPFCLayerD1Ev
libnvinfer.so.5:_ZN8nvinfer12rt4cuda15cudnnMLPFCLayerD2Ev
libnvinfer.so.5:_ZN8nvinfer12rt4cuda15cudnnMLPMMLayer16releaseResourcesEv
libnvinfer.so.5:_ZN8nvinfer12rt4cuda15cudnnMLPMMLayer17allocateResourcesERKNS0_13CommonContextE
libnvinfer.so.5:_ZN8nvinfer12rt4cuda15cudnnMLPMMLayer18computeScratchSizeERKNS0_18EngineBuildContextE
libnvinfer.so.5:_ZN8nvinfer12rt4cuda15cudnnMLPMMLayerC1ERKSsRKSt6vectorINS0_12EngineTensorESaIS6_EESA_RKNS_13MLPParametersE
libnvinfer.so.5:_ZN8nvinfer12rt4cuda15cudnnMLPMMLayerC2ERKSsRKSt6vectorINS0_12EngineTensorESaIS6_EESA_RKNS_13MLPParametersE
libnvinfer.so.5:_ZN8nvinfer12rt4cuda15cudnnMLPMMLayerD0Ev
libnvinfer.so.5:_ZN8nvinfer12rt4cuda15cudnnMLPMMLayerD1Ev
libnvinfer.so.5:_ZN8nvinfer12rt4cuda15cudnnMLPMMLayerD2Ev
libnvinfer.so.5:_ZN8nvinfer12rt4cuda15getStrideNChHW2ERKNS0_6RegionE
libnvinfer.so.5:_ZN8nvinfer12rt4cuda15make_TensorDescEiiiiiiiiN3dit12TensorLayoutENS2_10DataFormatE
libnvinfer.so.5:_ZN8nvinfer12rt4cuda16ElementWiseLayer16releaseResourcesEv
libnvinfer.so.5:_ZN8nvinfer12rt4cuda16ElementWiseLayer17allocateResourcesERKNS0_13CommonContextE
libnvinfer.so.5:_ZN8nvinfer12rt4cuda16ElementWiseLayerC1ERKSsRKSt6vectorINS0_12EngineTensorESaIS6_EESA_RKNS_21ElementWiseParametersE
libnvinfer.so.5:_ZN8nvinfer12rt4cuda16ElementWiseLayerC2ERKSsRKSt6vectorINS0_12EngineTensorESaIS6_EESA_RKNS_21ElementWiseParametersE
libnvinfer.so.5:_ZN8nvinfer12rt4cuda16ElementWiseLayerD0Ev
libnvinfer.so.5:_ZN8nvinfer12rt4cuda16ElementWiseLayerD1Ev
libnvinfer.so.5:_ZN8nvinfer12rt4cuda16ElementWiseLayerD2Ev
libnvinfer.so.5:_ZN8nvinfer12rt4cuda16createRegionDescERKNS0_6RegionERKNS0_13CommonContextE
libnvinfer.so.5:_ZN8nvinfer12rt4cuda16rowMajorMultiplyEP13cublasContextPKfS5_PfiiiNS1_15cudnnMLPFCLayer9AlgorithmEbf
libnvinfer.so.5:_ZN8nvinfer12rt4cuda16rowMajorMultiplyEP13cublasContextPKfS5_PfiiiNS1_19FullyConnectedLayer9AlgorithmEbf
libnvinfer.so.5:_ZN8nvinfer12rt4cuda17RNNExecutionState13setupPointersERKNS1_12RNNBaseLayerERKNS0_13CommonContextERKNS0_19ExecutionParametersE
libnvinfer.so.5:_ZN8nvinfer12rt4cuda17RNNExecutionState17doInputTransposesERKNS1_12RNNBaseLayerERKNS0_13CommonContextE
libnvinfer.so.5:_ZN8nvinfer12rt4cuda17RNNExecutionState17setupScratchSizesERKNS1_12RNNBaseLayerERKNS0_13CommonContextE
libnvinfer.so.5:_ZN8nvinfer12rt4cuda17RNNExecutionState18doOutputTranpsosesERKNS1_12RNNBaseLayerERKNS0_13CommonContextE
libnvinfer.so.5:_ZN8nvinfer12rt4cuda17RNNExecutionState20setupPersistentSizesERKNS1_12RNNBaseLayerERKNS0_13CommonContextE
libnvinfer.so.5:_ZN8nvinfer12rt4cuda17RNNExecutionStateC1ERKNS1_12RNNBaseLayerERKNS0_13CommonContextE
libnvinfer.so.5:_ZN8nvinfer12rt4cuda17RNNExecutionStateC2ERKNS1_12RNNBaseLayerERKNS0_13CommonContextE
libnvinfer.so.5:_ZN8nvinfer12rt4cuda17combineDimensionsEiRKNS_4DimsE
libnvinfer.so.5:_ZN8nvinfer12rt4cuda17invertPermutationERKNS_11PermutationEi
libnvinfer.so.5:_ZN8nvinfer12rt4cuda17rowMajorMultiplyHEP13cublasContextPK6__halfS6_PS4_iiiNS1_15cudnnMLPFCLayer9AlgorithmEb
libnvinfer.so.5:_ZN8nvinfer12rt4cuda17rowMajorMultiplyHEP13cublasContextPK6__halfS6_PS4_iiiNS1_19FullyConnectedLayer9AlgorithmEb
libnvinfer.so.5:_ZN8nvinfer12rt4cuda18DeconvolutionLayer10makeTacticE29cudnnConvolutionBwdDataAlgo_tb
libnvinfer.so.5:_ZN8nvinfer12rt4cuda18DeconvolutionLayer16releaseResourcesEv
libnvinfer.so.5:_ZN8nvinfer12rt4cuda18DeconvolutionLayer17allocateResourcesERKNS0_13CommonContextE
libnvinfer.so.5:_ZN8nvinfer12rt4cuda18DeconvolutionLayer18computeScratchSizeERKNS0_18EngineBuildContextE
libnvinfer.so.5:_ZN8nvinfer12rt4cuda18DeconvolutionLayer20deserializeConstantsERKN18nvinferFlatBuffers3ifb11LayerParamsE
libnvinfer.so.5:_ZN8nvinfer12rt4cuda18DeconvolutionLayerC1ERKSsRKSt6vectorINS0_12EngineTensorESaIS6_EESA_RKNS_21ConvolutionParametersERKS5_IfSaIfEE
libnvinfer.so.5:_ZN8nvinfer12rt4cuda18DeconvolutionLayerC2ERKSsRKSt6vectorINS0_12EngineTensorESaIS6_EESA_RKNS_21ConvolutionParametersERKS5_IfSaIfEE
libnvinfer.so.5:_ZN8nvinfer12rt4cuda18DeconvolutionLayerD0Ev
libnvinfer.so.5:_ZN8nvinfer12rt4cuda18DeconvolutionLayerD1Ev
libnvinfer.so.5:_ZN8nvinfer12rt4cuda18DeconvolutionLayerD2Ev
libnvinfer.so.5:_ZN8nvinfer12rt4cuda18RaggedSoftMaxLayer17allocateResourcesERKNS0_13CommonContextE
libnvinfer.so.5:_ZN8nvinfer12rt4cuda18RaggedSoftMaxLayerC1ERKSsRKSt6vectorINS0_12EngineTensorESaIS6_EESA_RKNS_23RaggedSoftMaxParametersE
libnvinfer.so.5:_ZN8nvinfer12rt4cuda18RaggedSoftMaxLayerC2ERKSsRKSt6vectorINS0_12EngineTensorESaIS6_EESA_RKNS_23RaggedSoftMaxParametersE
libnvinfer.so.5:_ZN8nvinfer12rt4cuda18RaggedSoftMaxLayerD0Ev
libnvinfer.so.5:_ZN8nvinfer12rt4cuda18RaggedSoftMaxLayerD1Ev
libnvinfer.so.5:_ZN8nvinfer12rt4cuda18RaggedSoftMaxLayerD2Ev
libnvinfer.so.5:_ZN8nvinfer12rt4cuda18combinePermutationERKNS_11PermutationEi
libnvinfer.so.5:_ZN8nvinfer12rt4cuda18initWheelComponentERSt6vectorINS1_5WheelESaIS3_EEMS3_lRKNS_4DimsEb
libnvinfer.so.5:_ZN8nvinfer12rt4cuda19FullyConnectedLayer16releaseResourcesEv
libnvinfer.so.5:_ZN8nvinfer12rt4cuda19FullyConnectedLayer17allocateResourcesERKNS0_13CommonContextE
libnvinfer.so.5:_ZN8nvinfer12rt4cuda19FullyConnectedLayer18computeScratchSizeERKNS0_18EngineBuildContextE
libnvinfer.so.5:_ZN8nvinfer12rt4cuda19FullyConnectedLayer20deserializeConstantsERKN18nvinferFlatBuffers3ifb11LayerParamsE
libnvinfer.so.5:_ZN8nvinfer12rt4cuda19FullyConnectedLayerC1ERKSsRKSt6vectorINS0_12EngineTensorESaIS6_EESA_RKNS_24FullyConnectedParametersEbf
libnvinfer.so.5:_ZN8nvinfer12rt4cuda19FullyConnectedLayerC2ERKSsRKSt6vectorINS0_12EngineTensorESaIS6_EESA_RKNS_24FullyConnectedParametersEbf
libnvinfer.so.5:_ZN8nvinfer12rt4cuda19FullyConnectedLayerD0Ev
libnvinfer.so.5:_ZN8nvinfer12rt4cuda19FullyConnectedLayerD1Ev
libnvinfer.so.5:_ZN8nvinfer12rt4cuda19FullyConnectedLayerD2Ev
libnvinfer.so.5:_ZN8nvinfer12rt4cuda19MatrixMultiplyLayer16releaseResourcesEv
libnvinfer.so.5:_ZN8nvinfer12rt4cuda19MatrixMultiplyLayer17allocateResourcesERKNS0_13CommonContextE
libnvinfer.so.5:_ZN8nvinfer12rt4cuda19MatrixMultiplyLayerC1ERKSsRKSt6vectorINS0_12EngineTensorESaIS6_EESA_RKNS_24MatrixMultiplyParametersE
libnvinfer.so.5:_ZN8nvinfer12rt4cuda19MatrixMultiplyLayerC2ERKSsRKSt6vectorINS0_12EngineTensorESaIS6_EESA_RKNS_24MatrixMultiplyParametersE
libnvinfer.so.5:_ZN8nvinfer12rt4cuda19MatrixMultiplyLayerD0Ev
libnvinfer.so.5:_ZN8nvinfer12rt4cuda19MatrixMultiplyLayerD1Ev
libnvinfer.so.5:_ZN8nvinfer12rt4cuda19MatrixMultiplyLayerD2Ev
libnvinfer.so.5:_ZN8nvinfer12rt4cuda20WinogradConvActLayer16releaseResourcesEv
libnvinfer.so.5:_ZN8nvinfer12rt4cuda20WinogradConvActLayer17allocateResourcesERKNS0_13CommonContextE
libnvinfer.so.5:_ZN8nvinfer12rt4cuda20WinogradConvActLayer20deserializeConstantsERKN18nvinferFlatBuffers3ifb11LayerParamsE
libnvinfer.so.5:_ZN8nvinfer12rt4cuda20WinogradConvActLayerC1ERKSsRKSt6vectorINS0_12EngineTensorESaIS6_EESA_RKNS_21ConvolutionParametersEbRKS5_IfSaIfEE
libnvinfer.so.5:_ZN8nvinfer12rt4cuda20WinogradConvActLayerC2ERKSsRKSt6vectorINS0_12EngineTensorESaIS6_EESA_RKNS_21ConvolutionParametersEbRKS5_IfSaIfEE
libnvinfer.so.5:_ZN8nvinfer12rt4cuda20WinogradConvActLayerD0Ev
libnvinfer.so.5:_ZN8nvinfer12rt4cuda20WinogradConvActLayerD1Ev
libnvinfer.so.5:_ZN8nvinfer12rt4cuda20WinogradConvActLayerD2Ev
libnvinfer.so.5:_ZN8nvinfer12rt4cuda20activationTRTToCUDNNENS_14ActivationTypeE
libnvinfer.so.5:_ZN8nvinfer12rt4cuda20checkValidConcatAxisEi
libnvinfer.so.5:_ZN8nvinfer12rt4cuda20prefixCopyDimensionsEiRKNS_4DimsES4_
libnvinfer.so.5:_ZN8nvinfer12rt4cuda20prefixZeroDimensionsEiRKNS_4DimsE
libnvinfer.so.5:_ZN8nvinfer12rt4cuda21CudnnConvolutionLayer16releaseResourcesEv
libnvinfer.so.5:_ZN8nvinfer12rt4cuda21CudnnConvolutionLayer17allocateResourcesERKNS0_13CommonContextE
libnvinfer.so.5:_ZN8nvinfer12rt4cuda21CudnnConvolutionLayer18computeScratchSizeERKNS0_18EngineBuildContextE
libnvinfer.so.5:_ZN8nvinfer12rt4cuda21CudnnConvolutionLayer20deserializeConstantsERKN18nvinferFlatBuffers3ifb11LayerParamsE
libnvinfer.so.5:_ZN8nvinfer12rt4cuda21CudnnConvolutionLayer22isCudnnGroupConvTacticENS0_6TacticE
libnvinfer.so.5:_ZN8nvinfer12rt4cuda21CudnnConvolutionLayer30getCudnnConvolutionForwardAlgoENS0_6TacticE
libnvinfer.so.5:_ZN8nvinfer12rt4cuda21CudnnConvolutionLayerC1ERKSsRKSt6vectorINS0_12EngineTensorESaIS6_EESA_RKNS_21ConvolutionParametersEbRKS5_IfSaIfEE
libnvinfer.so.5:_ZN8nvinfer12rt4cuda21CudnnConvolutionLayerC2ERKSsRKSt6vectorINS0_12EngineTensorESaIS6_EESA_RKNS_21ConvolutionParametersEbRKS5_IfSaIfEE
libnvinfer.so.5:_ZN8nvinfer12rt4cuda21CudnnConvolutionLayerD0Ev
libnvinfer.so.5:_ZN8nvinfer12rt4cuda21CudnnConvolutionLayerD1Ev
libnvinfer.so.5:_ZN8nvinfer12rt4cuda21CudnnConvolutionLayerD2Ev
libnvinfer.so.5:_ZN8nvinfer12rt4cuda21executeMatrixMultiplyERKNS0_13CommonContextEPKhS6_S6_PhiRKSt6vectorINS1_5WheelESaIS9_EERKNS1_10GemmParamsERKNS_24MatrixMultiplyParametersENS_8DataTypeENS_11MMAlgorithmEb
libnvinfer.so.5:_ZN8nvinfer12rt4cuda22CudnnFusedConvActLayer11setupKernelENS0_6TacticE
libnvinfer.so.5:_ZN8nvinfer12rt4cuda22CudnnFusedConvActLayer16releaseResourcesEv
libnvinfer.so.5:_ZN8nvinfer12rt4cuda22CudnnFusedConvActLayer17allocateResourcesERKNS0_13CommonContextE
libnvinfer.so.5:_ZN8nvinfer12rt4cuda22CudnnFusedConvActLayer19createFilterTextureENS0_6TacticERKNS0_13CommonContextE
libnvinfer.so.5:_ZN8nvinfer12rt4cuda22CudnnFusedConvActLayer20deserializeConstantsERKN18nvinferFlatBuffers3ifb11LayerParamsE
libnvinfer.so.5:_ZN8nvinfer12rt4cuda22CudnnFusedConvActLayer20destroyFilterTextureEv
libnvinfer.so.5:_ZN8nvinfer12rt4cuda22CudnnFusedConvActLayerC1ERKSsRKSt6vectorINS0_12EngineTensorESaIS6_EESA_RKNS_21ConvolutionParametersEbRKS5_IfSaIfEE
libnvinfer.so.5:_ZN8nvinfer12rt4cuda22CudnnFusedConvActLayerC2ERKSsRKSt6vectorINS0_12EngineTensorESaIS6_EESA_RKNS_21ConvolutionParametersEbRKS5_IfSaIfEE
libnvinfer.so.5:_ZN8nvinfer12rt4cuda22CudnnFusedConvActLayerD0Ev
libnvinfer.so.5:_ZN8nvinfer12rt4cuda22CudnnFusedConvActLayerD1Ev
libnvinfer.so.5:_ZN8nvinfer12rt4cuda22CudnnFusedConvActLayerD2Ev
libnvinfer.so.5:_ZN8nvinfer12rt4cuda22getCudnnActivationModeENS_14ActivationTypeE
libnvinfer.so.5:_ZN8nvinfer12rt4cuda25setupMatrixMultiplyParamsERKNS0_13CommonContextENS_8DataTypeERKNS_24MatrixMultiplyParametersERKNS_4DimsESB_SB_
libnvinfer.so.5:_ZN8nvinfer12rt4cuda26combineTillConcatDimensionEiRKNS_4DimsEi
libnvinfer.so.5:_ZN8nvinfer12rt4cuda26nchwToGenericReformatArrayEffff
libnvinfer.so.5:_ZN8nvinfer12rt4cuda26nhwcToGenericReformatArrayEffff
libnvinfer.so.5:_ZN8nvinfer12rt4cuda26rowMajorMultiplyInt8ToFp32EPKaS3_PfiiiPKfbS6_bP11CUstream_st
libnvinfer.so.5:_ZN8nvinfer12rt4cuda26rowMajorMultiplyInt8ToInt8EPKaS3_PaiiiPKfbS6_bP11CUstream_st
libnvinfer.so.5:_ZN8nvinfer12rt4cuda29cudaDepthwiseConvolutionLayer16releaseResourcesEv
libnvinfer.so.5:_ZN8nvinfer12rt4cuda29cudaDepthwiseConvolutionLayer17allocateResourcesERKNS0_13CommonContextE
libnvinfer.so.5:_ZN8nvinfer12rt4cuda29cudaDepthwiseConvolutionLayer20deserializeConstantsERKN18nvinferFlatBuffers3ifb11LayerParamsE
libnvinfer.so.5:_ZN8nvinfer12rt4cuda29cudaDepthwiseConvolutionLayerC1ERKSsRKSt6vectorINS0_12EngineTensorESaIS6_EESA_RKNS_21ConvolutionParametersEbRKS5_IfSaIfEE
libnvinfer.so.5:_ZN8nvinfer12rt4cuda29cudaDepthwiseConvolutionLayerC2ERKSsRKSt6vectorINS0_12EngineTensorESaIS6_EESA_RKNS_21ConvolutionParametersEbRKS5_IfSaIfEE
libnvinfer.so.5:_ZN8nvinfer12rt4cuda29cudaDepthwiseConvolutionLayerD0Ev
libnvinfer.so.5:_ZN8nvinfer12rt4cuda29cudaDepthwiseConvolutionLayerD1Ev
libnvinfer.so.5:_ZN8nvinfer12rt4cuda29cudaDepthwiseConvolutionLayerD2Ev
libnvinfer.so.5:_ZN8nvinfer12rt4cuda33regionToGenericReformatRegionDescERKNS0_6RegionERKNS0_13CommonContextEi
libnvinfer.so.5:_ZN8nvinfer12rt4cuda8LRNLayer16releaseResourcesEv
libnvinfer.so.5:_ZN8nvinfer12rt4cuda8LRNLayer17allocateResourcesERKNS0_13CommonContextE
libnvinfer.so.5:_ZN8nvinfer12rt4cuda8LRNLayerC1ERKSsRKSt6vectorINS0_12EngineTensorESaIS6_EESA_RKNS_13LRNParametersE
libnvinfer.so.5:_ZN8nvinfer12rt4cuda8LRNLayerC2ERKSsRKSt6vectorINS0_12EngineTensorESaIS6_EESA_RKNS_13LRNParametersE
libnvinfer.so.5:_ZN8nvinfer12rt4cuda8LRNLayerD0Ev
libnvinfer.so.5:_ZN8nvinfer12rt4cuda8LRNLayerD1Ev
libnvinfer.so.5:_ZN8nvinfer12rt4cuda8LRNLayerD2Ev
libnvinfer.so.5:_ZN8nvinfer12rt4cuda9TopKLayer17allocateResourcesERKNS0_13CommonContextE
libnvinfer.so.5:_ZN8nvinfer12rt4cuda9TopKLayer18computeScratchSizeERKNS0_18EngineBuildContextE
libnvinfer.so.5:_ZN8nvinfer12rt4cuda9TopKLayerC1ERKSsRKSt6vectorINS0_12EngineTensorESaIS6_EESA_RKNS_14TopKParametersE
libnvinfer.so.5:_ZN8nvinfer12rt4cuda9TopKLayerC2ERKSsRKSt6vectorINS0_12EngineTensorESaIS6_EESA_RKNS_14TopKParametersE
libnvinfer.so.5:_ZN8nvinfer12rt4cuda9TopKLayerD0Ev
libnvinfer.so.5:_ZN8nvinfer12rt4cuda9TopKLayerD1Ev
libnvinfer.so.5:_ZN8nvinfer12rt4cuda9TopKLayerD2Ev
libnvinfer.so.5:_ZN8nvinfer12rt4cuda9ditFormatENS_8DataTypeE
libnvinfer.so.5:_ZN8nvinfer12rt4cuda9ditLayoutENS_8DataTypeE
libnvinfer.so.5:_ZN8nvinfer12rt4task13caskTypeToTRTEN4cask8SafeEnumINS2_33ScalarType_ENUMCLASS_SCOPEWRAPPEREEE
libnvinfer.so.5:_ZN8nvinfer12rt4task13getCaskVecDimERKNS0_12EngineTensorE
libnvinfer.so.5:_ZN8nvinfer12rt4task13trtTypeToCaskENS_8DataTypeE
libnvinfer.so.5:_ZN8nvinfer12rt4task14getCaskVecSizeERKNS_13RegionFormatBE
libnvinfer.so.5:_ZN8nvinfer12rt4task14padBiasWeightsENS_8DataTypeEPKvii
libnvinfer.so.5:_ZN8nvinfer12rt4task16padFilterWeightsERKNS_13RegionFormatBES4_PKviiii
libnvinfer.so.5:_ZN8nvinfer12rt4task20caskConvolutionLayer16releaseResourcesEv
libnvinfer.so.5:_ZN8nvinfer12rt4task20caskConvolutionLayer17allocateResourcesERKNS0_13CommonContextE
libnvinfer.so.5:_ZN8nvinfer12rt4task20caskConvolutionLayer25computePersistentHostSizeERKNS0_13CommonContextE
libnvinfer.so.5:_ZN8nvinfer12rt4task20caskConvolutionLayerC1ERKSsRKSt6vectorINS0_12EngineTensorESaIS6_EESA_RKNS_21ConvolutionParametersEbRKS5_IfSaIfEE
libnvinfer.so.5:_ZN8nvinfer12rt4task20caskConvolutionLayerC2ERKSsRKSt6vectorINS0_12EngineTensorESaIS6_EESA_RKNS_21ConvolutionParametersEbRKS5_IfSaIfEE
libnvinfer.so.5:_ZN8nvinfer12rt4task20caskConvolutionLayerD0Ev
libnvinfer.so.5:_ZN8nvinfer12rt4task20caskConvolutionLayerD1Ev
libnvinfer.so.5:_ZN8nvinfer12rt4task20caskConvolutionLayerD2Ev
libnvinfer.so.5:_ZN8nvinfer12rt4task22caskDeconvolutionLayer16releaseResourcesEv
libnvinfer.so.5:_ZN8nvinfer12rt4task22caskDeconvolutionLayer17allocateResourcesERKNS0_13CommonContextE
libnvinfer.so.5:_ZN8nvinfer12rt4task22caskDeconvolutionLayer18computeScratchSizeERKNS0_18EngineBuildContextE
libnvinfer.so.5:_ZN8nvinfer12rt4task22caskDeconvolutionLayer20deserializeConstantsERKN18nvinferFlatBuffers3ifb11LayerParamsE
libnvinfer.so.5:_ZN8nvinfer12rt4task22caskDeconvolutionLayer25computePersistentHostSizeERKNS0_13CommonContextE
libnvinfer.so.5:_ZN8nvinfer12rt4task22caskDeconvolutionLayerC1ERKSsRKSt6vectorINS0_12EngineTensorESaIS6_EESA_RKNS_21ConvolutionParametersERKS5_IfSaIfEE
libnvinfer.so.5:_ZN8nvinfer12rt4task22caskDeconvolutionLayerC2ERKSsRKSt6vectorINS0_12EngineTensorESaIS6_EESA_RKNS_21ConvolutionParametersERKS5_IfSaIfEE
libnvinfer.so.5:_ZN8nvinfer12rt4task22caskDeconvolutionLayerD0Ev
libnvinfer.so.5:_ZN8nvinfer12rt4task22caskDeconvolutionLayerD1Ev
libnvinfer.so.5:_ZN8nvinfer12rt4task22caskDeconvolutionLayerD2Ev
libnvinfer.so.5:_ZN8nvinfer12rt4task23caskFullyConnectedLayer16releaseResourcesEv
libnvinfer.so.5:_ZN8nvinfer12rt4task23caskFullyConnectedLayer17allocateResourcesERKNS0_13CommonContextE
libnvinfer.so.5:_ZN8nvinfer12rt4task23caskFullyConnectedLayer18computeScratchSizeERKNS0_18EngineBuildContextE
libnvinfer.so.5:_ZN8nvinfer12rt4task23caskFullyConnectedLayer25computePersistentHostSizeERKNS0_13CommonContextE
libnvinfer.so.5:_ZN8nvinfer12rt4task23caskFullyConnectedLayerC1ERKSsRKSt6vectorINS0_12EngineTensorESaIS6_EESA_RKNS_24FullyConnectedParametersEbf
libnvinfer.so.5:_ZN8nvinfer12rt4task23caskFullyConnectedLayerC2ERKSsRKSt6vectorINS0_12EngineTensorESaIS6_EESA_RKNS_24FullyConnectedParametersEbf
libnvinfer.so.5:_ZN8nvinfer12rt4task23caskFullyConnectedLayerD0Ev
libnvinfer.so.5:_ZN8nvinfer12rt4task23caskFullyConnectedLayerD1Ev
libnvinfer.so.5:_ZN8nvinfer12rt4task23caskFullyConnectedLayerD2Ev
libnvinfer.so.5:_ZN8nvinfer12rt4task9caskLayer16releaseResourcesEv
libnvinfer.so.5:_ZN8nvinfer12rt4task9caskLayer18getShortTacticNameERKN4cask10GemmShaderE
libnvinfer.so.5:_ZN8nvinfer12rt4task9caskLayer18getShortTacticNameERKN4cask17ConvolutionShaderE
libnvinfer.so.5:_ZN8nvinfer12rt4task9caskLayer20deserializeConstantsERKN18nvinferFlatBuffers3ifb11LayerParamsE
libnvinfer.so.5:_ZN8nvinfer12rt4task9caskLayerC1ENS0_9LayerImplERKSsRKSt6vectorINS0_12EngineTensorESaIS7_EESB_
libnvinfer.so.5:_ZN8nvinfer12rt4task9caskLayerC2ENS0_9LayerImplERKSsRKSt6vectorINS0_12EngineTensorESaIS7_EESB_
libnvinfer.so.5:_ZN8nvinfer12rt4task9caskLayerD0Ev
libnvinfer.so.5:_ZN8nvinfer12rt4task9caskLayerD1Ev
libnvinfer.so.5:_ZN8nvinfer12rt4task9caskLayerD2Ev
libnvinfer.so.5:_ZN8nvinfer12rt6Engine10initializeEv
libnvinfer.so.5:_ZN8nvinfer12rt6Engine11deserializeEPKvmRNS_13IGpuAllocatorEPNS_14IPluginFactoryE
libnvinfer.so.5:_ZN8nvinfer12rt6Engine14addLinearBlockEm
libnvinfer.so.5:_ZN8nvinfer12rt6Engine22createExecutionContextEv
libnvinfer.so.5:_ZN8nvinfer12rt6Engine41createExecutionContextWithoutDeviceMemoryEv
libnvinfer.so.5:_ZN8nvinfer12rt6Engine7destroyEv
libnvinfer.so.5:_ZN8nvinfer12rt6EngineC1EiRSt6vectorImSaImEERSt13unordered_mapISsSt10unique_ptrINS0_6RegionESt14default_deleteIS8_EESt4hashISsESt8equal_toISsESaISt4pairIKSsSB_EEERS2_IS7_INS0_5LayerES9_ISM_EESaISO_EERNS_9GpuMemoryERS2_IS2_ISG_ISsNS0_12EngineTensorEESaISV_EESaISX_EERNS_13IGpuAllocatorEONS0_18DlaContextResourceENS0_17CudaDeviceProfileE
libnvinfer.so.5:_ZN8nvinfer12rt6EngineC1Ev
libnvinfer.so.5:_ZN8nvinfer12rt6EngineC2EiRSt6vectorImSaImEERSt13unordered_mapISsSt10unique_ptrINS0_6RegionESt14default_deleteIS8_EESt4hashISsESt8equal_toISsESaISt4pairIKSsSB_EEERS2_IS7_INS0_5LayerES9_ISM_EESaISO_EERNS_9GpuMemoryERS2_IS2_ISG_ISsNS0_12EngineTensorEESaISV_EESaISX_EERNS_13IGpuAllocatorEONS0_18DlaContextResourceENS0_17CudaDeviceProfileE
libnvinfer.so.5:_ZN8nvinfer12rt6EngineC2Ev
libnvinfer.so.5:_ZN8nvinfer12rt6EngineD0Ev
libnvinfer.so.5:_ZN8nvinfer12rt6EngineD1Ev
libnvinfer.so.5:_ZN8nvinfer12rt6EngineD2Ev
libnvinfer.so.5:_ZN8nvinfer12rt6Region19uploadScaleToDeviceERNS_13IGpuAllocatorEP11CUstream_st
libnvinfer.so.5:_ZN8nvinfer12rt6RegionC1ERKSsNS_4DimsERKNS_13RegionFormatBERKSt6vectorIfSaIfEENS_14TensorLocationE
libnvinfer.so.5:_ZN8nvinfer12rt6RegionC2ERKSsNS_4DimsERKNS_13RegionFormatBERKSt6vectorIfSaIfEENS_14TensorLocationE
libnvinfer.so.5:_ZN8nvinfer12rt6detail10find_log_2Eib
libnvinfer.so.5:_ZN8nvinfer12rt6detail12find_divisorEiRjS2_
libnvinfer.so.5:_ZN8nvinfer12rt6detail3clzEi
libnvinfer.so.5:_ZN8nvinfer12rtlsERSoNS0_10RegionTypeE
libnvinfer.so.5:_ZN8nvinfer12rtlsERSoRKNS0_5LayerE
libnvinfer.so.5:_ZN8nvinfer12rtlsERSoRKNS0_6RegionE
libnvinfer.so.5:_ZN8nvinfer130getCoalescedCInnerUnrollFactorEi
libnvinfer.so.5:_ZN8nvinfer14getCERKNS_4DimsE
libnvinfer.so.5:_ZN8nvinfer14getCERNS_4DimsE
libnvinfer.so.5:_ZN8nvinfer14getHERKNS_4DimsE
libnvinfer.so.5:_ZN8nvinfer14getHERNS_4DimsE
libnvinfer.so.5:_ZN8nvinfer14getWERKNS_4DimsE
libnvinfer.so.5:_ZN8nvinfer14getWERNS_4DimsE
libnvinfer.so.5:_ZN8nvinfer14task10padWeightsERKNS_2rt13CommonContextENS_7WeightsEiiiiiiiiiRKSs
libnvinfer.so.5:_ZN8nvinfer14task18padHostBiasWeightsENS_8DataTypeEPKvib
libnvinfer.so.5:_ZN8nvinfer14task20padHostFilterWeightsENS_8DataTypeEPKviiiiiiiiii
libnvinfer.so.5:_ZN8nvinfer14task21CaskConvolutionTraits12filterTacticERKNS_2rt4task20caskConvolutionLayerERKN4cask17ConvolutionShaderERKNS2_18EngineBuildContextE
libnvinfer.so.5:_ZN8nvinfer14task21CaskConvolutionTraits15createConstantsERNS_2rt4task20caskConvolutionLayerERNS_7builder10GlobWriterERKNS2_13CommonContextE
libnvinfer.so.5:_ZN8nvinfer14task21CaskConvolutionTraits15getValidTacticsERKNS_2rt4task20caskConvolutionLayerERKNS2_18EngineBuildContextE
libnvinfer.so.5:_ZN8nvinfer14task21CaskConvolutionTraits15serializeParamsERKNS_2rt4task20caskConvolutionLayerERN18nvinferFlatBuffers11flatbuffers17FlatBufferBuilderE
libnvinfer.so.5:_ZN8nvinfer14task23CaskDeconvolutionTraits15createConstantsERNS_2rt4task22caskDeconvolutionLayerERNS_7builder10GlobWriterERKNS2_13CommonContextE
libnvinfer.so.5:_ZN8nvinfer14task23CaskDeconvolutionTraits15getValidTacticsERKNS_2rt4task22caskDeconvolutionLayerERKNS2_18EngineBuildContextE
libnvinfer.so.5:_ZN8nvinfer14task23CaskDeconvolutionTraits15serializeParamsERKNS_2rt4task22caskDeconvolutionLayerERN18nvinferFlatBuffers11flatbuffers17FlatBufferBuilderE
libnvinfer.so.5:_ZN8nvinfer14task24CaskFullyConnectedTraits15createConstantsERNS_2rt4task23caskFullyConnectedLayerERNS_7builder10GlobWriterERKNS2_13CommonContextE
libnvinfer.so.5:_ZN8nvinfer14task24CaskFullyConnectedTraits15getValidTacticsERKNS_2rt4task23caskFullyConnectedLayerERKNS2_18EngineBuildContextE
libnvinfer.so.5:_ZN8nvinfer14task24CaskFullyConnectedTraits15serializeParamsERKNS_2rt4task23caskFullyConnectedLayerERN18nvinferFlatBuffers11flatbuffers17FlatBufferBuilderE
libnvinfer.so.5:_ZN8nvinfer14task24CaskFullyConnectedTraits18computeAlphaScalesERKNS_2rt4task23caskFullyConnectedLayerERSt6vectorIfSaIfEEf
libnvinfer.so.5:_ZN8nvinfer14toHWERKNS_4DimsE
libnvinfer.so.5:_ZN8nvinfer15cudnn10TopKTraits15getValidTacticsERKNS_2rt4cuda9TopKLayerERKNS2_18EngineBuildContextE
libnvinfer.so.5:_ZN8nvinfer15cudnn10TopKTraits15serializeParamsERKNS_2rt4cuda9TopKLayerERN18nvinferFlatBuffers11flatbuffers17FlatBufferBuilderE
libnvinfer.so.5:_ZN8nvinfer15cudnn11RNNv2Traits15createConstantsERNS_2rt4cuda10RNNv2LayerERNS_7builder10GlobWriterERKNS2_13CommonContextE
libnvinfer.so.5:_ZN8nvinfer15cudnn11RNNv2Traits15serializeParamsERKNS_2rt4cuda10RNNv2LayerERN18nvinferFlatBuffers11flatbuffers17FlatBufferBuilderE
libnvinfer.so.5:_ZN8nvinfer15cudnn11RNNv2Traits25setupPlausibleInputValuesERKNS_2rt4cuda10RNNv2LayerERKNS2_18EngineBuildContextE
libnvinfer.so.5:_ZN8nvinfer15cudnn11ScaleTraits15createConstantsERNS_2rt4cuda10ScaleLayerERNS_7builder10GlobWriterERKNS2_13CommonContextE
libnvinfer.so.5:_ZN8nvinfer15cudnn11ScaleTraits15serializeParamsERKNS_2rt4cuda10ScaleLayerERN18nvinferFlatBuffers11flatbuffers17FlatBufferBuilderE
libnvinfer.so.5:_ZN8nvinfer15cudnn11UnaryTraits15serializeParamsERKNS_2rt4cuda10UnaryLayerERN18nvinferFlatBuffers11flatbuffers17FlatBufferBuilderE
libnvinfer.so.5:_ZN8nvinfer15cudnn12GatherTraits15serializeParamsERKNS_2rt4cuda11GatherLayerERN18nvinferFlatBuffers11flatbuffers17FlatBufferBuilderE
libnvinfer.so.5:_ZN8nvinfer15cudnn12PluginTraits15serializeParamsERKNS_2rt4cuda11PluginLayerERN18nvinferFlatBuffers11flatbuffers17FlatBufferBuilderE
libnvinfer.so.5:_ZN8nvinfer15cudnn12ReduceTraits15serializeParamsERKNS_2rt4cuda11ReduceLayerERN18nvinferFlatBuffers11flatbuffers17FlatBufferBuilderE
libnvinfer.so.5:_ZN8nvinfer15cudnn12selectTacticERKNS_2rt18EngineBuildContextERNS1_5LayerE
libnvinfer.so.5:_ZN8nvinfer15cudnn12uploadScalesERKNS_2rt13CommonContextERKSt6vectorIfSaIfEE
libnvinfer.so.5:_ZN8nvinfer15cudnn13PaddingTraits15serializeParamsERKNS_2rt4cuda12PaddingLayerERN18nvinferFlatBuffers11flatbuffers17FlatBufferBuilderE
libnvinfer.so.5:_ZN8nvinfer15cudnn13PoolingTraits10canSupportENS_8DataTypeEaRKNS_17PoolingParametersE
libnvinfer.so.5:_ZN8nvinfer15cudnn13PoolingTraits11addHMMAPathERKNS_17PoolingParametersERKNS_2rt12EngineTensorES8_RSt6vectorINS5_6TacticESaISA_EE
libnvinfer.so.5:_ZN8nvinfer15cudnn13PoolingTraits11addIMMAPathERKNS_17PoolingParametersERKNS_2rt12EngineTensorES8_RSt6vectorINS5_6TacticESaISA_EE
libnvinfer.so.5:_ZN8nvinfer15cudnn13PoolingTraits12addCudnnPathERKNS_17PoolingParametersERKNS_2rt12EngineTensorES8_RSt6vectorINS5_6TacticESaISA_EE
libnvinfer.so.5:_ZN8nvinfer15cudnn13PoolingTraits12addTiledPathERKNS_17PoolingParametersERKNS_2rt12EngineTensorES8_RSt6vectorINS5_6TacticESaISA_EE
libnvinfer.so.5:_ZN8nvinfer15cudnn13PoolingTraits15getValidTacticsERKNS_2rt4cuda12PoolingLayerERKNS2_18EngineBuildContextE
libnvinfer.so.5:_ZN8nvinfer15cudnn13PoolingTraits15serializeParamsERKNS_2rt4cuda12PoolingLayerERN18nvinferFlatBuffers11flatbuffers17FlatBufferBuilderE
libnvinfer.so.5:_ZN8nvinfer15cudnn13PoolingTraits16possibleHMMAPathENS_8DataTypeEaRKNS_17PoolingParametersE
libnvinfer.so.5:_ZN8nvinfer15cudnn13PoolingTraits16possibleIMMAPathENS_8DataTypeEaRKNS_17PoolingParametersE
libnvinfer.so.5:_ZN8nvinfer15cudnn13PoolingTraits17possibleCudnnPathENS_8DataTypeEaRKNS_17PoolingParametersE
libnvinfer.so.5:_ZN8nvinfer15cudnn13PoolingTraits17possibleTiledPathENS_8DataTypeEaRKNS_17PoolingParametersE
libnvinfer.so.5:_ZN8nvinfer15cudnn13PoolingTraits20addGenericPackedPathERKNS_17PoolingParametersERKNS_2rt12EngineTensorES8_RSt6vectorINS5_6TacticESaISA_EE
libnvinfer.so.5:_ZN8nvinfer15cudnn13PoolingTraits21trueExclusiveCountingERKNS_17PoolingParametersE
libnvinfer.so.5:_ZN8nvinfer15cudnn13PoolingTraits21trueInclusiveCountingERKNS_17PoolingParametersE
libnvinfer.so.5:_ZN8nvinfer15cudnn13PoolingTraits25possibleGenericPackedPathENS_8DataTypeEaRKNS_17PoolingParametersE
libnvinfer.so.5:_ZN8nvinfer15cudnn13PoolingTraits26mapParamToTiledPoolingModeERKNS_17PoolingParametersE
libnvinfer.so.5:_ZN8nvinfer15cudnn13PoolingTraits6encodeElii
libnvinfer.so.5:_ZN8nvinfer15cudnn13ShuffleTraits15serializeParamsERKNS_2rt4cuda12ShuffleLayerERN18nvinferFlatBuffers11flatbuffers17FlatBufferBuilderE
libnvinfer.so.5:_ZN8nvinfer15cudnn13SoftMaxTraits15serializeParamsERKNS_2rt4cuda12SoftMaxLayerERN18nvinferFlatBuffers11flatbuffers17FlatBufferBuilderE
libnvinfer.so.5:_ZN8nvinfer15cudnn13baseMLPTraits15createConstantsERKNS_13MLPParametersERNS_2rt17DeviceWeightsHunkES7_RNS_7builder10GlobWriterERKNS5_13CommonContextEbii
libnvinfer.so.5:_ZN8nvinfer15cudnn13baseMLPTraits20copyTransposeWeightsENS_7WeightsEPvii
libnvinfer.so.5:_ZN8nvinfer15cudnn13cudaMLPTraits13selectTacticsERKNS_2rt4cuda12cudaMLPLayerERKNS2_18EngineBuildContextERSt6vectorINS2_6TacticESaISB_EEbbbb
libnvinfer.so.5:_ZN8nvinfer15cudnn13cudaMLPTraits15createConstantsERNS_2rt4cuda12cudaMLPLayerERNS_7builder10GlobWriterERKNS2_13CommonContextE
libnvinfer.so.5:_ZN8nvinfer15cudnn13cudaMLPTraits15getValidTacticsERKNS_2rt4cuda12cudaMLPLayerERKNS2_18EngineBuildContextE
libnvinfer.so.5:_ZN8nvinfer15cudnn13cudaMLPTraits15serializeParamsERKNS_2rt4cuda12cudaMLPLayerERN18nvinferFlatBuffers11flatbuffers17FlatBufferBuilderE
libnvinfer.so.5:_ZN8nvinfer15cudnn14ConstantTraits15createConstantsERNS_2rt4cuda13ConstantLayerERNS_7builder10GlobWriterERKNS2_13CommonContextE
libnvinfer.so.5:_ZN8nvinfer15cudnn14ConstantTraits15serializeParamsERKNS_2rt4cuda13ConstantLayerERN18nvinferFlatBuffers11flatbuffers17FlatBufferBuilderE
libnvinfer.so.5:_ZN8nvinfer15cudnn14PluginV2Traits15serializeParamsERKNS_2rt4cuda13PluginV2LayerERN18nvinferFlatBuffers11flatbuffers17FlatBufferBuilderE
libnvinfer.so.5:_ZN8nvinfer15cudnn14ReformatTraits15serializeParamsERKNS_2rt4cuda13ReformatLayerERN18nvinferFlatBuffers11flatbuffers17FlatBufferBuilderE
libnvinfer.so.5:_ZN8nvinfer15cudnn14quantizeFilterEPKfiiiiiiS2_S2_Paf
libnvinfer.so.5:_ZN8nvinfer15cudnn15serializeEngineERKNS_2rt6EngineE
libnvinfer.so.5:_ZN8nvinfer15cudnn15writeFromStringERPcPKc
libnvinfer.so.5:_ZN8nvinfer15cudnn16ActivationTraits15serializeParamsERKNS_2rt4cuda15ActivationLayerERN18nvinferFlatBuffers11flatbuffers17FlatBufferBuilderE
libnvinfer.so.5:_ZN8nvinfer15cudnn16GemmDeconvTraits15createConstantsERNS_2rt4cuda15GemmDeconvLayerERNS_7builder10GlobWriterERKNS2_13CommonContextE
libnvinfer.so.5:_ZN8nvinfer15cudnn16GemmDeconvTraits15serializeParamsERKNS_2rt4cuda15GemmDeconvLayerERN18nvinferFlatBuffers11flatbuffers17FlatBufferBuilderE
libnvinfer.so.5:_ZN8nvinfer15cudnn16ScopedLayerSetupC1ERNS_2rt5LayerERKNS2_13CommonContextE
libnvinfer.so.5:_ZN8nvinfer15cudnn16ScopedLayerSetupC2ERNS_2rt5LayerERKNS2_13CommonContextE
libnvinfer.so.5:_ZN8nvinfer15cudnn16ScopedLayerSetupD1Ev
libnvinfer.so.5:_ZN8nvinfer15cudnn16ScopedLayerSetupD2Ev
libnvinfer.so.5:_ZN8nvinfer15cudnn16cudnnMLPFCTraits15createConstantsERNS_2rt4cuda15cudnnMLPFCLayerERNS_7builder10GlobWriterERKNS2_13CommonContextE
libnvinfer.so.5:_ZN8nvinfer15cudnn16cudnnMLPFCTraits15getValidTacticsERKNS_2rt4cuda15cudnnMLPFCLayerERKNS2_18EngineBuildContextE
libnvinfer.so.5:_ZN8nvinfer15cudnn16cudnnMLPFCTraits15serializeParamsERKNS_2rt4cuda15cudnnMLPFCLayerERN18nvinferFlatBuffers11flatbuffers17FlatBufferBuilderE
libnvinfer.so.5:_ZN8nvinfer15cudnn16cudnnMLPMMTraits15createConstantsERNS_2rt4cuda15cudnnMLPMMLayerERNS_7builder10GlobWriterERKNS2_13CommonContextE
libnvinfer.so.5:_ZN8nvinfer15cudnn16cudnnMLPMMTraits15getValidTacticsERKNS_2rt4cuda15cudnnMLPMMLayerERKNS2_18EngineBuildContextE
libnvinfer.so.5:_ZN8nvinfer15cudnn16cudnnMLPMMTraits15serializeParamsERKNS_2rt4cuda15cudnnMLPMMLayerERN18nvinferFlatBuffers11flatbuffers17FlatBufferBuilderE
libnvinfer.so.5:_ZN8nvinfer15cudnn16initDeviceMemoryERKNS_2rt13CommonContextEPvNS_8DataTypeEl
libnvinfer.so.5:_ZN8nvinfer15cudnn17ElementWiseTraits15getValidTacticsERKNS_2rt4cuda16ElementWiseLayerERKNS2_18EngineBuildContextE
libnvinfer.so.5:_ZN8nvinfer15cudnn17ElementWiseTraits15serializeParamsERKNS_2rt4cuda16ElementWiseLayerERN18nvinferFlatBuffers11flatbuffers17FlatBufferBuilderE
libnvinfer.so.5:_ZN8nvinfer15cudnn19DeconvolutionTraits15createConstantsERNS_2rt4cuda18DeconvolutionLayerERNS_7builder10GlobWriterERKNS2_13CommonContextE
libnvinfer.so.5:_ZN8nvinfer15cudnn19DeconvolutionTraits15getValidTacticsERKNS_2rt4cuda18DeconvolutionLayerERKNS2_18EngineBuildContextE
libnvinfer.so.5:_ZN8nvinfer15cudnn19DeconvolutionTraits15serializeParamsERKNS_2rt4cuda18DeconvolutionLayerERN18nvinferFlatBuffers11flatbuffers17FlatBufferBuilderE
libnvinfer.so.5:_ZN8nvinfer15cudnn19LayerTraitsDefaults11processNodeERNS_2rt5LayerERNS_7builder4NodeERKNS2_18EngineBuildContextE
libnvinfer.so.5:_ZN8nvinfer15cudnn19LayerTraitsDefaults15createConstantsERNS_2rt5LayerERNS_7builder10GlobWriterERKNS2_13CommonContextE
libnvinfer.so.5:_ZN8nvinfer15cudnn19LayerTraitsDefaults15getValidTacticsERKNS_2rt12DefaultLayerERKNS2_18EngineBuildContextE
libnvinfer.so.5:_ZN8nvinfer15cudnn19LayerTraitsDefaults25setupPlausibleInputValuesERKNS_2rt5LayerERKNS2_18EngineBuildContextE
libnvinfer.so.5:_ZN8nvinfer15cudnn19RaggedSoftMaxTraits15serializeParamsERKNS_2rt4cuda18RaggedSoftMaxLayerERN18nvinferFlatBuffers11flatbuffers17FlatBufferBuilderE
libnvinfer.so.5:_ZN8nvinfer15cudnn19copyWeightsToDeviceERKNS_2rt13CommonContextERKNS_7WeightsEPKcl
libnvinfer.so.5:_ZN8nvinfer15cudnn19transposeFromDeviceERKNS_2rt13CommonContextERKNS1_13DeviceWeightsEii
libnvinfer.so.5:_ZN8nvinfer15cudnn20FullyConnectedTraits12encodeTacticENS_2rt4cuda19FullyConnectedLayer9AlgorithmEb
libnvinfer.so.5:_ZN8nvinfer15cudnn20FullyConnectedTraits15createConstantsERNS_2rt4cuda19FullyConnectedLayerERNS_7builder10GlobWriterERKNS2_13CommonContextE
libnvinfer.so.5:_ZN8nvinfer15cudnn20FullyConnectedTraits15getValidTacticsERKNS_2rt4cuda19FullyConnectedLayerERKNS2_18EngineBuildContextE
libnvinfer.so.5:_ZN8nvinfer15cudnn20FullyConnectedTraits15serializeParamsERKNS_2rt4cuda19FullyConnectedLayerERN18nvinferFlatBuffers11flatbuffers17FlatBufferBuilderE
libnvinfer.so.5:_ZN8nvinfer15cudnn20MatrixMultiplyTraits15getValidTacticsERKNS_2rt4cuda19MatrixMultiplyLayerERKNS2_18EngineBuildContextE
libnvinfer.so.5:_ZN8nvinfer15cudnn20MatrixMultiplyTraits15serializeParamsERKNS_2rt4cuda19MatrixMultiplyLayerERN18nvinferFlatBuffers11flatbuffers17FlatBufferBuilderE
libnvinfer.so.5:_ZN8nvinfer15cudnn20transformWeightsIfFPENS_8DataTypeERNS_7WeightsERNS_14CpuMemoryGroupE
libnvinfer.so.5:_ZN8nvinfer15cudnn21WinogradConvActTraits15createConstantsERNS_2rt4cuda20WinogradConvActLayerERNS_7builder10GlobWriterERKNS2_13CommonContextE
libnvinfer.so.5:_ZN8nvinfer15cudnn21WinogradConvActTraits15getValidTacticsERKNS_2rt4cuda20WinogradConvActLayerERKNS2_18EngineBuildContextE
libnvinfer.so.5:_ZN8nvinfer15cudnn21WinogradConvActTraits15serializeParamsERKNS_2rt4cuda20WinogradConvActLayerERN18nvinferFlatBuffers11flatbuffers17FlatBufferBuilderE
libnvinfer.so.5:_ZN8nvinfer15cudnn21copyWeightsFromDeviceERKNS_2rt13CommonContextERKNS1_13DeviceWeightsEPKcl
libnvinfer.so.5:_ZN8nvinfer15cudnn22CudnnConvolutionTraits14collectTacticsERKNS_2rt4cuda21CudnnConvolutionLayerEiRNS_10CuResourceIP22cudnnConvolutionStructXadL_Z32cudnnCreateConvolutionDescriptorEEXadL_Z33cudnnDestroyConvolutionDescriptorEEEERNS7_IP17cudnnFilterStructXadL_Z27cudnnCreateFilterDescriptorEEXadL_Z28cudnnDestroyFilterDescriptorEEEERP17cudnnTensorStructSI_RKNS2_18EngineBuildContextERSt6vectorINS2_6TacticESaISN_EE
libnvinfer.so.5:_ZN8nvinfer15cudnn22CudnnConvolutionTraits15createConstantsERNS_2rt4cuda21CudnnConvolutionLayerERNS_7builder10GlobWriterERKNS2_13CommonContextE
libnvinfer.so.5:_ZN8nvinfer15cudnn22CudnnConvolutionTraits15getValidTacticsERKNS_2rt4cuda21CudnnConvolutionLayerERKNS2_18EngineBuildContextE
libnvinfer.so.5:_ZN8nvinfer15cudnn22CudnnConvolutionTraits15serializeParamsERKNS_2rt4cuda21CudnnConvolutionLayerERN18nvinferFlatBuffers11flatbuffers17FlatBufferBuilderE
libnvinfer.so.5:_ZN8nvinfer15cudnn22regionScaleHasConflictERKSt6vectorIfSaIfEE
libnvinfer.so.5:_ZN8nvinfer15cudnn23CudnnFusedConvActTraits15createConstantsERNS_2rt4cuda22CudnnFusedConvActLayerERNS_7builder10GlobWriterERKNS2_13CommonContextE
libnvinfer.so.5:_ZN8nvinfer15cudnn23CudnnFusedConvActTraits15getValidTacticsERKNS_2rt4cuda22CudnnFusedConvActLayerERKNS2_18EngineBuildContextE
libnvinfer.so.5:_ZN8nvinfer15cudnn23CudnnFusedConvActTraits15serializeParamsERKNS_2rt4cuda22CudnnFusedConvActLayerERN18nvinferFlatBuffers11flatbuffers17FlatBufferBuilderE
libnvinfer.so.5:_ZN8nvinfer15cudnn23regionScaleMarkConflictERSt6vectorIfSaIfEEi
libnvinfer.so.5:_ZN8nvinfer15cudnn25copyPaddedWeightsToDeviceERKNS_2rt13CommonContextERKNS_7WeightsEfPKcb
libnvinfer.so.5:_ZN8nvinfer15cudnn25makeConvDeconvInt8WeightsERNS_21ConvolutionParametersERKNS_2rt12EngineTensorES6_RNS_14CpuMemoryGroupEfb
libnvinfer.so.5:_ZN8nvinfer15cudnn26makeConvolutionInt8WeightsERNS_21ConvolutionParametersERKNS_2rt12EngineTensorES6_RNS_14CpuMemoryGroupEf
libnvinfer.so.5:_ZN8nvinfer15cudnn28makeDeconvolutionInt8WeightsERNS_21ConvolutionParametersERKNS_2rt12EngineTensorES6_RNS_14CpuMemoryGroupEf
libnvinfer.so.5:_ZN8nvinfer15cudnn29assertRegionTightlyFitsTensorERKNS_2rt12EngineTensorE
libnvinfer.so.5:_ZN8nvinfer15cudnn29copyTransposedWeightsToDeviceERKNS_2rt13CommonContextENS_7WeightsEiiPKcb
libnvinfer.so.5:_ZN8nvinfer15cudnn29makeFullyConnectedInt8WeightsERNS_24FullyConnectedParametersERKNS_2rt12EngineTensorES6_RNS_14CpuMemoryGroupEf
libnvinfer.so.5:_ZN8nvinfer15cudnn30cudaDepthwiseConvolutionTraits15createConstantsERNS_2rt4cuda29cudaDepthwiseConvolutionLayerERNS_7builder10GlobWriterERKNS2_13CommonContextE
libnvinfer.so.5:_ZN8nvinfer15cudnn30cudaDepthwiseConvolutionTraits15getValidTacticsERKNS_2rt4cuda29cudaDepthwiseConvolutionLayerERKNS2_18EngineBuildContextE
libnvinfer.so.5:_ZN8nvinfer15cudnn30cudaDepthwiseConvolutionTraits15serializeParamsERKNS_2rt4cuda29cudaDepthwiseConvolutionLayerERN18nvinferFlatBuffers11flatbuffers17FlatBufferBuilderE
libnvinfer.so.5:_ZN8nvinfer15cudnn31computeConvolutionEltwiseScalesERKNS_2rt12DefaultLayerE
libnvinfer.so.5:_ZN8nvinfer15cudnn33selectFastestLayerAndDeleteOthersERNS_2rt18EngineBuildContextERKSt6vectorIPNS1_5LayerESaIS6_EE
libnvinfer.so.5:_ZN8nvinfer15cudnn9LRNTraits15serializeParamsERKNS_2rt4cuda8LRNLayerERN18nvinferFlatBuffers11flatbuffers17FlatBufferBuilderE
libnvinfer.so.5:_ZN8nvinfer15cudnn9RNNTraits15createConstantsERNS_2rt4cuda8RNNLayerERNS_7builder10GlobWriterERKNS2_13CommonContextE
libnvinfer.so.5:_ZN8nvinfer15cudnn9RNNTraits15serializeParamsERKNS_2rt4cuda8RNNLayerERN18nvinferFlatBuffers11flatbuffers17FlatBufferBuilderE
libnvinfer.so.5:_ZN8nvinfer15cudnn9scaleBiasEPKfRNS_7WeightsERNS_14CpuMemoryGroupE
libnvinfer.so.5:_ZN8nvinfer15getHWERKNS_4DimsE
libnvinfer.so.5:_ZN8nvinfer15query18TensorRequirementsC1ERKNS_13RegionPackingEj
libnvinfer.so.5:_ZN8nvinfer15query18TensorRequirementsC2ERKNS_13RegionPackingEj
libnvinfer.so.5:_ZN8nvinfer15query9intersectERKNS0_8PitchSetES3_
libnvinfer.so.5:_ZN8nvinfer15querylsERSoRKNS0_18TensorRequirementsE
libnvinfer.so.5:_ZN8nvinfer15querylsERSoRKNS0_8PitchSetE
libnvinfer.so.5:_ZN8nvinfer15utils14reshapeWeightsERKNS_7WeightsEPKiS5_Pvi
libnvinfer.so.5:_ZN8nvinfer15utils17reorderSubBuffersEPvPKiii
libnvinfer.so.5:_ZN8nvinfer15utils19transposeSubBuffersEPvNS_8DataTypeEiii
libnvinfer.so.5:_ZN8nvinfer16getCHWERKNS_4DimsE
libnvinfer.so.5:_ZN8nvinfer16volumeERKNS_4DimsE
libnvinfer.so.5:_ZN8nvinfer17Network10addPaddingERNS_7ITensorENS_6DimsHWES3_
libnvinfer.so.5:_ZN8nvinfer17Network10addPoolingERNS_7ITensorENS_11PoolingTypeENS_6DimsHWE
libnvinfer.so.5:_ZN8nvinfer17Network10addShuffleERNS_7ITensorE
libnvinfer.so.5:_ZN8nvinfer17Network10addSoftMaxERNS_7ITensorE
libnvinfer.so.5:_ZN8nvinfer17Network10markOutputERNS_7ITensorE
libnvinfer.so.5:_ZN8nvinfer17Network11addConstantENS_4DimsENS_7WeightsE
libnvinfer.so.5:_ZN8nvinfer17Network11addIdentityERNS_7ITensorE
libnvinfer.so.5:_ZN8nvinfer17Network11addPluginV2EPKPNS_7ITensorEiRNS_9IPluginV2E
libnvinfer.so.5:_ZN8nvinfer17Network11markChangedERKNS_12NetworkLayerE
libnvinfer.so.5:_ZN8nvinfer17Network11setUnsortedEv
libnvinfer.so.5:_ZN8nvinfer17Network12addPluginExtEPKPNS_7ITensorEiRNS_10IPluginExtE
libnvinfer.so.5:_ZN8nvinfer17Network12removeTensorERNS_7ITensorE
libnvinfer.so.5:_ZN8nvinfer17Network12unmarkOutputERNS_7ITensorE
libnvinfer.so.5:_ZN8nvinfer17Network13addActivationERNS_7ITensorENS_14ActivationTypeE
libnvinfer.so.5:_ZN8nvinfer17Network14addConvolutionERNS_7ITensorEiNS_6DimsHWENS_7WeightsES4_
libnvinfer.so.5:_ZN8nvinfer17Network14addElementWiseERNS_7ITensorES2_NS_20ElementWiseOperationE
libnvinfer.so.5:_ZN8nvinfer17Network16addConcatenationEPKPNS_7ITensorEi
libnvinfer.so.5:_ZN8nvinfer17Network16addDeconvolutionERNS_7ITensorEiNS_6DimsHWENS_7WeightsES4_
libnvinfer.so.5:_ZN8nvinfer17Network16addLayerInternalEPNS_12NetworkLayerE
libnvinfer.so.5:_ZN8nvinfer17Network16addRaggedSoftMaxERNS_7ITensorES2_
libnvinfer.so.5:_ZN8nvinfer17Network16markInputChangedEv
libnvinfer.so.5:_ZN8nvinfer17Network17addFullyConnectedERNS_7ITensorEiNS_7WeightsES3_
libnvinfer.so.5:_ZN8nvinfer17Network17addMatrixMultiplyERNS_7ITensorENS_15MatrixOperationES2_S3_
libnvinfer.so.5:_ZN8nvinfer17Network17addMatrixMultiplyERNS_7ITensorEbS2_b
libnvinfer.so.5:_ZN8nvinfer17Network33setPoolingOutputDimensionsFormulaEPNS_24IOutputDimensionsFormulaE
libnvinfer.so.5:_ZN8nvinfer17Network37setConvolutionOutputDimensionsFormulaEPNS_24IOutputDimensionsFormulaE
libnvinfer.so.5:_ZN8nvinfer17Network39setDeconvolutionOutputDimensionsFormulaEPNS_24IOutputDimensionsFormulaE
libnvinfer.so.5:_ZN8nvinfer17Network6addLRNERNS_7ITensorEifff
libnvinfer.so.5:_ZN8nvinfer17Network6addRNNERNS_7ITensorEimiNS_12RNNOperationENS_12RNNInputModeENS_12RNNDirectionENS_7WeightsES6_
libnvinfer.so.5:_ZN8nvinfer17Network7addTopKERNS_7ITensorENS_13TopKOperationEij
libnvinfer.so.5:_ZN8nvinfer17Network7destroyEv
libnvinfer.so.5:_ZN8nvinfer17Network8addInputEPKcNS_8DataTypeENS_4DimsE
libnvinfer.so.5:_ZN8nvinfer17Network8addRNNv2ERNS_7ITensorEiiiNS_12RNNOperationE
libnvinfer.so.5:_ZN8nvinfer17Network8addScaleERNS_7ITensorENS_9ScaleModeENS_7WeightsES4_S4_
libnvinfer.so.5:_ZN8nvinfer17Network8addUnaryERNS_7ITensorENS_14UnaryOperationE
libnvinfer.so.5:_ZN8nvinfer17Network9addGatherERNS_7ITensorES2_i
libnvinfer.so.5:_ZN8nvinfer17Network9addPluginEPKPNS_7ITensorEiRNS_7IPluginE
libnvinfer.so.5:_ZN8nvinfer17Network9addReduceERNS_7ITensorENS_15ReduceOperationEjb
libnvinfer.so.5:_ZN8nvinfer17NetworkC1Ev
libnvinfer.so.5:_ZN8nvinfer17NetworkC2Ev
libnvinfer.so.5:_ZN8nvinfer17builder10CostTensor9nextBlockEN9__gnu_cxx17__normal_iteratorIPKNS1_7ElementESt6vectorIS4_SaIS4_EEEESA_PKjSC_
libnvinfer.so.5:_ZN8nvinfer17builder10CostTensorC1ERKNS0_14ChoiceTupleMapIfEE
libnvinfer.so.5:_ZN8nvinfer17builder10CostTensorC2ERKNS0_14ChoiceTupleMapIfEE
libnvinfer.so.5:_ZN8nvinfer17builder10GlobWriter10writeBlockERNS_9GpuMemoryEm
libnvinfer.so.5:_ZN8nvinfer17builder10GlobWriter5BlockC1ERNS_9GpuMemoryEm
libnvinfer.so.5:_ZN8nvinfer17builder10GlobWriter5BlockC2ERNS_9GpuMemoryEm
libnvinfer.so.5:_ZN8nvinfer17builder10GlobWriter5writeEONS_2rt13DeviceWeightsE
libnvinfer.so.5:_ZN8nvinfer17builder10GlobWriter5writeEONS_2rt13DeviceWeightsEm
libnvinfer.so.5:_ZN8nvinfer17builder10GlobWriter5writeEONS_9GpuMemoryE
libnvinfer.so.5:_ZN8nvinfer17builder10GlobWriter5writeEOSt6vectorINS_9GpuMemoryESaIS3_EE
libnvinfer.so.5:_ZN8nvinfer17builder10GlobWriter8grabGlobERNS_13IGpuAllocatorEP11CUstream_st
libnvinfer.so.5:_ZN8nvinfer17builder10buildGraphERKNS_21CudaEngineBuildConfigERNS0_5GraphERKNS_7NetworkE
libnvinfer.so.5:_ZN8nvinfer17builder10cloneGraphERKNS0_5GraphERS1_
libnvinfer.so.5:_ZN8nvinfer17builder10createNodeERNS_6ILayerENS_10DeviceTypeE
libnvinfer.so.5:_ZN8nvinfer17builder10dotFindMinEjNS0_11ChoiceTupleERNS0_10CostTensorEPKjS3_S5_
libnvinfer.so.5:_ZN8nvinfer17builder10dotFindMinEjNS0_11ChoiceTupleERNS0_10CostTensorESt16initializer_listIjES3_S5_
libnvinfer.so.5:_ZN8nvinfer17builder10getFormatsENS0_10DataPhylumE
libnvinfer.so.5:_ZN8nvinfer17builder10moveInputsERNS0_4NodeES2_
libnvinfer.so.5:_ZN8nvinfer17builder11addFilteredERSt6vectorINS_5query23RequirementsCombinationESaIS3_EERKNS0_4NodeERKS1_IjSaIjEESD_RKNS_2rt15HardwareContextENS_11DataTypeSetEb
libnvinfer.so.5:_ZN8nvinfer17builder11buildEngineERNS_21CudaEngineBuildConfigERKNS_2rt15HardwareContextERKNS_7NetworkE
libnvinfer.so.5:_ZN8nvinfer17builder11checkSanityERKNS0_11ForeignNodeE
libnvinfer.so.5:_ZN8nvinfer17builder11checkSanityERKNS0_5GraphE
libnvinfer.so.5:_ZN8nvinfer17builder11dataTypeSetEj
libnvinfer.so.5:_ZN8nvinfer17builder11elementSizeEj
libnvinfer.so.5:_ZN8nvinfer17builder11isQuantizedERKNS_13RegionPackingE
libnvinfer.so.5:_ZN8nvinfer17builder11isSimpleSumERKNS0_5NodeTILNS0_8NodeTypeE9ENS_21ElementWiseParametersELb1ELj31EEE
libnvinfer.so.5:_ZN8nvinfer17builder11mergeLayersERNS0_5GraphERKSt6vectorIiSaIiEERNS_14CpuMemoryGroupE
libnvinfer.so.5:_ZN8nvinfer17builder11moveOutputsERNS0_4NodeES2_
libnvinfer.so.5:_ZN8nvinfer17builder11performSwapERNS0_5GraphERNS_14CpuMemoryGroupE
libnvinfer.so.5:_ZN8nvinfer17builder11processNodeERNS_2rt5LayerERNS0_4NodeERKNS1_18EngineBuildContextE
libnvinfer.so.5:_ZN8nvinfer17builder12ClockTracker23reportIfBeyondToleranceERSoS2_f
libnvinfer.so.5:_ZN8nvinfer17builder12ClockTracker4pollEv
libnvinfer.so.5:_ZN8nvinfer17builder12ClockTrackerC1Ei
libnvinfer.so.5:_ZN8nvinfer17builder12ClockTrackerC2Ei
libnvinfer.so.5:_ZN8nvinfer17builder12ClockTrackerD1Ev
libnvinfer.so.5:_ZN8nvinfer17builder12ClockTrackerD2Ev
libnvinfer.so.5:_ZN8nvinfer17builder12assignFormatERNS0_6RegionERKNS_13RegionFormatLE
libnvinfer.so.5:_ZN8nvinfer17builder12canBeStridedERNS0_6TensorE
libnvinfer.so.5:_ZN8nvinfer17builder12chooseBlocksERNS0_8MemGraphE
libnvinfer.so.5:_ZN8nvinfer17builder12fuseVerticalERNS0_5GraphERKSt6vectorIPNS0_14VerticalFusionESaIS5_EERNS_14CpuMemoryGroupERKNS_21CudaEngineBuildConfigE
libnvinfer.so.5:_ZN8nvinfer17builder12klDivergenceESt6vectorIdSaIdEES3_
libnvinfer.so.5:_ZN8nvinfer17builder12nextPowerOf2Ej
libnvinfer.so.5:_ZN8nvinfer17builder12removeInputsERNS0_4NodeE
libnvinfer.so.5:_ZN8nvinfer17builder12replaceInputERNS0_4NodeEiSt10shared_ptrINS0_6TensorEE
libnvinfer.so.5:_ZN8nvinfer17builder13addScratchMemERKNS_2rt18EngineBuildContextERNS0_8MemGraphERKSt6vectorISt10unique_ptrINS1_5LayerESt14default_deleteIS9_EESaISC_EEm
libnvinfer.so.5:_ZN8nvinfer17builder13buildMemGraphERNS0_5GraphEimm
libnvinfer.so.5:_ZN8nvinfer17builder13replaceOutputERNS0_4NodeEiSt10shared_ptrINS0_6TensorEE
libnvinfer.so.5:_ZN8nvinfer17builder14isOutputTensorERNS0_5GraphEPNS0_6TensorE
libnvinfer.so.5:_ZN8nvinfer17builder15SubscriptHelperC1ERKNS0_10CostTensorESt16initializer_listIjE
libnvinfer.so.5:_ZN8nvinfer17builder15SubscriptHelperC2ERKNS0_10CostTensorESt16initializer_listIjE
libnvinfer.so.5:_ZN8nvinfer17builder15calibrateEngineERNS_15IInt8CalibratorERNS_11ICudaEngineERSt13unordered_mapISsfSt4hashISsESt8equal_toISsESaISt4pairIKSsfEEEb
libnvinfer.so.5:_ZN8nvinfer17builder15calibrateEngineERNS_15IInt8CalibratorERSt13unordered_mapISsfSt4hashISsESt8equal_toISsESaISt4pairIKSsfEEE
libnvinfer.so.5:_ZN8nvinfer17builder15createConstantsERNS_2rt5LayerERNS0_10GlobWriterERKNS1_13CommonContextE
libnvinfer.so.5:_ZN8nvinfer17builder15getValidTacticsERKNS_2rt5LayerERKNS1_18EngineBuildContextE
libnvinfer.so.5:_ZN8nvinfer17builder15hardwareMatchesEv
libnvinfer.so.5:_ZN8nvinfer17builder15makePaddedScaleERKNS0_6RegionEPSt13unordered_mapISsSt6vectorIfSaIfEESt4hashISsESt8equal_toISsESaISt4pairIKSsS7_EEEf
libnvinfer.so.5:_ZN8nvinfer17builder15mergeHorizontalERNS0_5GraphERNS_14CpuMemoryGroupE
libnvinfer.so.5:_ZN8nvinfer17builder15mlpParametersOKERKNS0_18MatrixMultiplyNodeE
libnvinfer.so.5:_ZN8nvinfer17builder15mlpParametersOKERKNS0_5NodeTILNS0_8NodeTypeE1ENS_24FullyConnectedParametersELb0ELj11EEE
libnvinfer.so.5:_ZN8nvinfer17builder15mlpParametersOKERKNS0_5NodeTILNS0_8NodeTypeE24ENS_13MLPParametersELb0ELj3EEE
libnvinfer.so.5:_ZN8nvinfer17builder15mlpParametersOKERKNS0_5NodeTILNS0_8NodeTypeE2ENS_20ActivationParametersELb1ELj31EEE
libnvinfer.so.5:_ZN8nvinfer17builder15mlpParametersOKERKNS0_5NodeTILNS0_8NodeTypeE5ENS_15ScaleParametersELb1ELj15EEE
libnvinfer.so.5:_ZN8nvinfer17builder15mlpParametersOKERKNS0_5NodeTILNS0_8NodeTypeE9ENS_21ElementWiseParametersELb1ELj31EEE
libnvinfer.so.5:_ZN8nvinfer17builder15regionBlockSizeERKNS0_6RegionEi
libnvinfer.so.5:_ZN8nvinfer17builder15serializeParamsERKNS_2rt5LayerERN18nvinferFlatBuffers11flatbuffers17FlatBufferBuilderE
libnvinfer.so.5:_ZN8nvinfer17builder16BinaryFusionBase11fusePatternERNS0_5GraphERNS0_4NodeERNS_14CpuMemoryGroupE
libnvinfer.so.5:_ZN8nvinfer17builder16UnaryErasureBase11fusePatternERNS0_5GraphERNS0_4NodeERNS_14CpuMemoryGroupE
libnvinfer.so.5:_ZN8nvinfer17builder16buildSingleLayerERNS_2rt18EngineBuildContextERNS0_4NodeERKSt13unordered_mapISsSt10unique_ptrINS1_6RegionESt14default_deleteIS8_EESt4hashISsESt8equal_toISsESaISt4pairIKSsSB_EEERNS_14CpuMemoryGroupEPS6_ISsSt6vectorIfSaIfEESD_SF_SaISG_ISH_SR_EEEb
libnvinfer.so.5:_ZN8nvinfer17builder16makeEngineTensorERKNS0_6TensorERKSt13unordered_mapISsSt10unique_ptrINS_2rt6RegionESt14default_deleteIS7_EESt4hashISsESt8equal_toISsESaISt4pairIKSsSA_EEEb
libnvinfer.so.5:_ZN8nvinfer17builder16removeDeadLayersERNS0_5GraphE
libnvinfer.so.5:_ZN8nvinfer17builder17ConvEltwiseFusion11fuseDetailsERNS0_15ConvolutionNodeERNS0_5NodeTILNS0_8NodeTypeE9ENS_21ElementWiseParametersELb1ELj31EEE
libnvinfer.so.5:_ZN8nvinfer17builder17ConvEltwiseFusion12matchDetailsERKNS0_15ConvolutionNodeERKNS0_5NodeTILNS0_8NodeTypeE9ENS_21ElementWiseParametersELb1ELj31EEE
libnvinfer.so.5:_ZN8nvinfer17builder17expandForeignNodeERNS0_5GraphEi
libnvinfer.so.5:_ZN8nvinfer17builder17multicolorTopSortERNS0_5GraphEi
libnvinfer.so.5:_ZN8nvinfer17builder18EngineTacticSupply12timeReformatERSt10shared_ptrINS0_6TensorEEbRKNS_13RegionFormatLES8_PSt13unordered_mapISsSt6vectorIfSaIfEESt4hashISsESt8equal_toISsESaISt4pairIKSsSC_EEE
libnvinfer.so.5:_ZN8nvinfer17builder18EngineTacticSupply13getBestTacticERNS0_4NodeERKNS_5query5PortsINS_13RegionFormatLEEEb
libnvinfer.so.5:_ZN8nvinfer17builder18EngineTacticSupply19LocalBlockAllocator14addLocalRegionERSt13unordered_mapISsSt10unique_ptrINS_2rt6RegionESt14default_deleteIS6_EESt4hashISsESt8equal_toISsESaISt4pairIKSsS9_EEERNS0_6RegionEPS3_ISsSt6vectorIfSaIfEESB_SD_SaISE_ISF_SO_EEENS5_10RegionTypeE
libnvinfer.so.5:_ZN8nvinfer17builder18EngineTacticSupply19LocalBlockAllocator16installInContextERSt13unordered_mapISsSt10unique_ptrINS_2rt6RegionESt14default_deleteIS6_EESt4hashISsESt8equal_toISsESaISt4pairIKSsS9_EEE
libnvinfer.so.5:_ZN8nvinfer17builder18EngineTacticSupply19getSupportedFormatsERKNS0_4NodeERKNS_5query5PortsINS5_14AbstractTensorEEE
libnvinfer.so.5:_ZN8nvinfer17builder18createForeignNodesERNS0_5GraphEPFPNS0_11ForeignNodeENS_7BackendERKSsERKNS_21CudaEngineBuildConfigE
libnvinfer.so.5:_ZN8nvinfer17builder18entropyCalibrationESt6vectorImSaImEE
libnvinfer.so.5:_ZN8nvinfer17builder18makeAbstractTensorERKNS0_6TensorE
libnvinfer.so.5:_ZN8nvinfer17builder18makeAbstractTensorERKNS0_6TensorEPNS0_12TacticSupplyE
libnvinfer.so.5:_ZN8nvinfer17builder18tensorRequirementsEjPKNS_5query14AbstractTensorEb
libnvinfer.so.5:_ZN8nvinfer17builder19buildSingleRNNLayerERSt6vectorINS_2rt12EngineTensorESaIS3_EES6_RNS2_18EngineBuildContextERNS0_4NodeERNS_14CpuMemoryGroupEb
libnvinfer.so.5:_ZN8nvinfer17builder19lg2ScalarsPerVectorEj
libnvinfer.so.5:_ZN8nvinfer17builder19makeEngineFromGraphERKNS_21CudaEngineBuildConfigERKNS_2rt15HardwareContextERNS0_5GraphEPSt13unordered_mapISsSt6vectorIfSaIfEESt4hashISsESt8equal_toISsESaISt4pairIKSsSD_EEEi
libnvinfer.so.5:_ZN8nvinfer17builder19setLayersToRunOnDLAERKNS_7NetworkERNS_21CudaEngineBuildConfigE
libnvinfer.so.5:_ZN8nvinfer17builder20expandAndAddFilteredERSt6vectorINS_5query23RequirementsCombinationESaIS3_EERKNS0_4NodeEjjRKNS_2rt15HardwareContextENS_11DataTypeSetE
libnvinfer.so.5:_ZN8nvinfer17builder20readCalibrationCacheERNS_15IInt8CalibratorERSt13unordered_mapISsfSt4hashISsESt8equal_toISsESaISt4pairIKSsfEEE
libnvinfer.so.5:_ZN8nvinfer17builder20removeConcatenationsERNS0_5GraphEb
libnvinfer.so.5:_ZN8nvinfer17builder21buildSingleRNNv2LayerERSt6vectorINS_2rt12EngineTensorESaIS3_EES6_RNS2_18EngineBuildContextERNS0_4NodeERNS_14CpuMemoryGroupEb
libnvinfer.so.5:_ZN8nvinfer17builder21normalizeDistributionERSt6vectorIdSaIdEE
libnvinfer.so.5:_ZN8nvinfer17builder21writeCalibrationCacheERNS_15IInt8CalibratorERKSt13unordered_mapISsfSt4hashISsESt8equal_toISsESaISt4pairIKSsfEEE
libnvinfer.so.5:_ZN8nvinfer17builder22makeReformattingTensorERNS0_6TensorERKSsRKNS_13RegionFormatLEPSt13unordered_mapISsSt6vectorIfSaIfEESt4hashISsESt8equal_toISsESaISt4pairIS3_SB_EEERKNS0_12TacticSupplyE
libnvinfer.so.5:_ZN8nvinfer17builder23chooseFormatsAndTacticsERNS0_5GraphERNS0_12TacticSupplyEPSt13unordered_mapISsSt6vectorIfSaIfEESt4hashISsESt8equal_toISsESaISt4pairIKSsS8_EEEb
libnvinfer.so.5:_ZN8nvinfer17builder23fixOutputIfConstantNodeERNS0_4NodeE
libnvinfer.so.5:_ZN8nvinfer17builder24modifiedLinearRegressionEPdS1_iRdS2_d
libnvinfer.so.5:_ZN8nvinfer17builder25applyGenericOptimizationsERNS0_5GraphERNS_14CpuMemoryGroupERKNS_21CudaEngineBuildConfigE
libnvinfer.so.5:_ZN8nvinfer17builder25setupPlausibleInputValuesERKNS_2rt5LayerERKNS1_18EngineBuildContextE
libnvinfer.so.5:_ZN8nvinfer17builder31notifyDrawDotThatGraphDestroyedERKNS0_5GraphE
libnvinfer.so.5:_ZN8nvinfer17builder3dotEjRNS0_10CostTensorEPKjS2_S4_
libnvinfer.so.5:_ZN8nvinfer17builder3dotEjRNS0_10CostTensorESt16initializer_listIjES2_S4_
libnvinfer.so.5:_ZN8nvinfer17builder4NodeD0Ev
libnvinfer.so.5:_ZN8nvinfer17builder4NodeD1Ev
libnvinfer.so.5:_ZN8nvinfer17builder4NodeD2Ev
libnvinfer.so.5:_ZN8nvinfer17builder5GraphD1Ev
libnvinfer.so.5:_ZN8nvinfer17builder5GraphD2Ev
libnvinfer.so.5:_ZN8nvinfer17builder5sliceEjRNS0_10CostTensorEPKj
libnvinfer.so.5:_ZN8nvinfer17builder5sliceEjRNS0_10CostTensorESt16initializer_listIjE
libnvinfer.so.5:_ZN8nvinfer17builder6RegionC1ERNS0_5GraphERKSsRKNS_4DimsEbRKNS_13RegionFormatLE
libnvinfer.so.5:_ZN8nvinfer17builder6RegionC1ERNS0_5GraphERKSsRKNS_4DimsEbjNS0_8BindTypeENS_14TensorLocationE
libnvinfer.so.5:_ZN8nvinfer17builder6RegionC2ERNS0_5GraphERKSsRKNS_4DimsEbRKNS_13RegionFormatLE
libnvinfer.so.5:_ZN8nvinfer17builder6RegionC2ERNS0_5GraphERKSsRKNS_4DimsEbjNS0_8BindTypeENS_14TensorLocationE
libnvinfer.so.5:_ZN8nvinfer17builder6RegionD1Ev
libnvinfer.so.5:_ZN8nvinfer17builder6RegionD2Ev
libnvinfer.so.5:_ZN8nvinfer17builder6TensorC1ERNS0_5GraphERKSsRSt10shared_ptrINS0_6RegionEENS_8OptionalINS_8DataTypeEEE
libnvinfer.so.5:_ZN8nvinfer17builder6TensorC1ERNS0_5GraphERSt10shared_ptrINS0_6RegionEERKS1_
libnvinfer.so.5:_ZN8nvinfer17builder6TensorC2ERNS0_5GraphERKSsRSt10shared_ptrINS0_6RegionEENS_8OptionalINS_8DataTypeEEE
libnvinfer.so.5:_ZN8nvinfer17builder6TensorC2ERNS0_5GraphERSt10shared_ptrINS0_6RegionEERKS1_
libnvinfer.so.5:_ZN8nvinfer17builder6TensorD1Ev
libnvinfer.so.5:_ZN8nvinfer17builder6TensorD2Ev
libnvinfer.so.5:_ZN8nvinfer17builder6finishERNS_15IInt8CalibratorERNS0_11RegionMaxerERSt13unordered_mapISsfSt4hashISsESt8equal_toISsESaISt4pairIKSsfEEE
libnvinfer.so.5:_ZN8nvinfer17builder6phylumENS_11DataTypeSetE
libnvinfer.so.5:_ZN8nvinfer17builder6phylumENS_8DataTypeE
libnvinfer.so.5:_ZN8nvinfer17builder6phylumEj
libnvinfer.so.5:_ZN8nvinfer17builder7Builder11setDeviceIdEv
libnvinfer.so.5:_ZN8nvinfer17builder7Builder11setFp16ModeEb
libnvinfer.so.5:_ZN8nvinfer17builder7Builder11setInt8ModeEb
libnvinfer.so.5:_ZN8nvinfer17builder7Builder12setDebugSyncEb
libnvinfer.so.5:_ZN8nvinfer17builder7Builder12setHalf2ModeEb
libnvinfer.so.5:_ZN8nvinfer17builder7Builder13createNetworkEv
libnvinfer.so.5:_ZN8nvinfer17builder7Builder13setDeviceTypeEPNS_6ILayerENS_10DeviceTypeE
libnvinfer.so.5:_ZN8nvinfer17builder7Builder15buildCudaEngineERNS_18INetworkDefinitionE
libnvinfer.so.5:_ZN8nvinfer17builder7Builder15resetDeviceTypeEPNS_6ILayerE
libnvinfer.so.5:_ZN8nvinfer17builder7Builder15setGpuAllocatorEPNS_13IGpuAllocatorE
libnvinfer.so.5:_ZN8nvinfer17builder7Builder15setMaxBatchSizeEi
libnvinfer.so.5:_ZN8nvinfer17builder7Builder16allowGPUFallbackEb
libnvinfer.so.5:_ZN8nvinfer17builder7Builder17setInt8CalibratorEPNS_15IInt8CalibratorE
libnvinfer.so.5:_ZN8nvinfer17builder7Builder19setMaxWorkspaceSizeEm
libnvinfer.so.5:_ZN8nvinfer17builder7Builder20setDefaultDeviceTypeENS_10DeviceTypeE
libnvinfer.so.5:_ZN8nvinfer17builder7Builder20setMinFindIterationsEi
libnvinfer.so.5:_ZN8nvinfer17builder7Builder24setAverageFindIterationsEi
libnvinfer.so.5:_ZN8nvinfer17builder7Builder24setStrictTypeConstraintsEb
libnvinfer.so.5:_ZN8nvinfer17builder7Builder5resetERNS_18INetworkDefinitionE
libnvinfer.so.5:_ZN8nvinfer17builder7Builder7destroyEv
libnvinfer.so.5:_ZN8nvinfer17builder7Builder9getConfigEv
libnvinfer.so.5:_ZN8nvinfer17builder7BuilderC1Ev
libnvinfer.so.5:_ZN8nvinfer17builder7BuilderC2Ev
libnvinfer.so.5:_ZN8nvinfer17builder7findPosERNS0_5GraphERNS0_4NodeE
libnvinfer.so.5:_ZN8nvinfer17builder7includeERNS0_8IntervalEi
libnvinfer.so.5:_ZN8nvinfer17builder7overlapERKNS0_8IntervalES3_
libnvinfer.so.5:_ZN8nvinfer17builder7overlapERKNS_4DimsES3_S3_S3_
libnvinfer.so.5:_ZN8nvinfer17builder8addInputERNS0_4NodeERSt10shared_ptrINS0_6TensorEE
libnvinfer.so.5:_ZN8nvinfer17builder8containsERKNS0_6TensorES3_
libnvinfer.so.5:_ZN8nvinfer17builder8dataTypeEj
libnvinfer.so.5:_ZN8nvinfer17builder8digitizeEmSt6vectorIdSaIdEE
libnvinfer.so.5:_ZN8nvinfer17builder8dotZerosEjRNS0_10CostTensorEPKj
libnvinfer.so.5:_ZN8nvinfer17builder8dotZerosEjRNS0_10CostTensorESt16initializer_listIjE
libnvinfer.so.5:_ZN8nvinfer17builder8linspaceEddm
libnvinfer.so.5:_ZN8nvinfer17builder8toStringEj
libnvinfer.so.5:_ZN8nvinfer17builder9DotHelper5setupEjRNS0_10CostTensorEPKjS3_S5_RS1_S6_
libnvinfer.so.5:_ZN8nvinfer17builder9DotHelper9innerLoopERKS1_N9__gnu_cxx17__normal_iteratorIPKNS0_10CostTensor7ElementESt6vectorIS7_SaIS7_EEEESD_S3_SD_SD_RSD_SE_
libnvinfer.so.5:_ZN8nvinfer17builder9Histogram11deserializeERSi
libnvinfer.so.5:_ZN8nvinfer17builder9Histogram11getBinWidthEv
libnvinfer.so.5:_ZN8nvinfer17builder9Histogram17getObservedMaxValEv
libnvinfer.so.5:_ZN8nvinfer17builder9Histogram3addEPKfi
libnvinfer.so.5:_ZN8nvinfer17builder9Histogram6expandEf
libnvinfer.so.5:_ZN8nvinfer17builder9Histogram7getBinsEv
libnvinfer.so.5:_ZN8nvinfer17builder9Histogram8getNbinsEv
libnvinfer.so.5:_ZN8nvinfer17builder9Histogram9serializeERSo
libnvinfer.so.5:_ZN8nvinfer17builder9HistogramC1Ei
libnvinfer.so.5:_ZN8nvinfer17builder9HistogramC2Ei
libnvinfer.so.5:_ZN8nvinfer17builder9addOutputERNS0_4NodeERSt10shared_ptrINS0_6TensorEE
libnvinfer.so.5:_ZN8nvinfer17builder9fuseScaleERNS0_5GraphERNS_14CpuMemoryGroupE
libnvinfer.so.5:_ZN8nvinfer17builder9isMovableERKNS0_6TensorE
libnvinfer.so.5:_ZN8nvinfer17builder9tensorMaxEPKfi
libnvinfer.so.5:_ZN8nvinfer17gieFreeEPvPKcS2_i
libnvinfer.so.5:_ZN8nvinfer17isEmptyERKNS_4DimsE
libnvinfer.so.5:_ZN8nvinfer17updateCERKNS_4DimsEi
libnvinfer.so.5:_ZN8nvinfer17utility16directoryCreator6createEv
libnvinfer.so.5:_ZN8nvinfer17utility16directoryCreator7destroyEv
libnvinfer.so.5:_ZN8nvinfer18LRNLayerC1EPNS_7NetworkERKSsRNS_7ITensorES6_ifff
libnvinfer.so.5:_ZN8nvinfer18LRNLayerC2EPNS_7NetworkERKSsRNS_7ITensorES6_ifff
libnvinfer.so.5:_ZN8nvinfer18RNNLayer10setWeightsENS_7WeightsE
libnvinfer.so.5:_ZN8nvinfer18RNNLayer12setCellStateERNS_7ITensorE
libnvinfer.so.5:_ZN8nvinfer18RNNLayer14setHiddenStateERNS_7ITensorE
libnvinfer.so.5:_ZN8nvinfer18RNNLayer7setBiasENS_7WeightsE
libnvinfer.so.5:_ZN8nvinfer18RNNLayerC1EPNS_7NetworkERKSsPKPNS_7ITensorES8_imiNS_12RNNOperationENS_12RNNInputModeENS_12RNNDirectionEPKNS_7WeightsESE_
libnvinfer.so.5:_ZN8nvinfer18RNNLayerC2EPNS_7NetworkERKSsPKPNS_7ITensorES8_imiNS_12RNNOperationENS_12RNNInputModeENS_12RNNDirectionEPKNS_7WeightsESE_
libnvinfer.so.5:_ZN8nvinfer18RNNStats12rnnGateOrderENS_12RNNOperationE
libnvinfer.so.5:_ZN8nvinfer18RNNStats14rnnGateIndicesENS_12RNNOperationE
libnvinfer.so.5:_ZN8nvinfer18RNNStats20computeWeightOffDimsENS_12RNNOperationENS_12RNNInputModeENS_12RNNDirectionEiii
libnvinfer.so.5:_ZN8nvinfer18internal24isCudaInstalledCorrectlyEv
libnvinfer.so.5:_ZN8nvinfer18internal3dbg15DumpDebugOutputC1ERSt14basic_ofstreamIcSt11char_traitsIcEE
libnvinfer.so.5:_ZN8nvinfer18internal3dbg15DumpDebugOutputC2ERSt14basic_ofstreamIcSt11char_traitsIcEE
libnvinfer.so.5:_ZN8nvinfer18internal3dbg15DumpDebugOutputclEPKvPKcNS_4DimsENS_13RegionFormatBEiNS_8DataTypeES9_S6_S6_
libnvinfer.so.5:_ZN8nvinfer18logErrorEPKcS1_S1_i
libnvinfer.so.5:_ZN8nvinfer18makeDimsESt6vectorIiSaIiEE
libnvinfer.so.5:_ZN8nvinfer18makeDimsESt6vectorIjSaIjEE
libnvinfer.so.5:_ZN8nvinfer18updateHWERKNS_4DimsEii
libnvinfer.so.5:_ZN8nvinfer19TopKLayerC1EPNS_7NetworkERKSsRNS_7ITensorES6_S6_NS_13TopKOperationEij
libnvinfer.so.5:_ZN8nvinfer19TopKLayerC2EPNS_7NetworkERKSsRNS_7ITensorES6_S6_NS_13TopKOperationEij
libnvinfer.so.5:_ZN8nvinfer19getCorOneERKNS_4DimsE
libnvinfer.so.5:_ZN8nvinfer19getHorOneERKNS_4DimsE
libnvinfer.so.5:_ZN8nvinfer19getWorOneERKNS_4DimsE
libnvinfer.so.5:_ZN8nvinfer19gieMallocEmPKcS1_i
libnvinfer.so.5:_ZN8nvinfer19plainGemmERKP13cublasContext17cublasOperation_tS4_mmmPKvS6_mS6_mS6_PvmNS_8DataTypeENS_11MMAlgorithmE
libnvinfer.so.5:_ZN8nvinfer19updateCHWERKNS_4DimsEiii
libnvinfer.so.5:_ZN8nvinfer19utilities3mlp11getDataTypeERKNS_13MLPParametersE
libnvinfer.so.5:_ZN8nvinfer19utilities3mlp12getMaxEleInBERKNS_13MLPParametersEi
libnvinfer.so.5:_ZN8nvinfer19utilities3mlp13getFirstLayerERKNS_13MLPParametersE
libnvinfer.so.5:_ZN8nvinfer19utilities3mlp15getSMemSizeForAERKNS_13MLPParametersEi
libnvinfer.so.5:_ZN8nvinfer19utilities3mlp15getSMemSizeForBERKNS_13MLPParametersEi
libnvinfer.so.5:_ZN8nvinfer19utilities3mlp16getSMemSizeForABERKNS_13MLPParametersEii
libnvinfer.so.5:_ZN8nvinfer19utilities3mlp20getGcdWithLayerSizesElRKNS_13MLPParametersE
libnvinfer.so.5:_ZN8nvinfer19utilities3mlp7getMaxCERKNS_13MLPParametersE
libnvinfer.so.5:_ZN8nvinfer19utilities3mlp8getMaxWBERKNS_13MLPParametersE
libnvinfer.so.5:_ZN8nvinfer1eqERKNS_4DimsES2_
libnvinfer.so.5:_ZN8nvinfer1lsERSoNS_11PoolingTypeE
libnvinfer.so.5:_ZN8nvinfer1lsERSoNS_11RNNGateTypeE
libnvinfer.so.5:_ZN8nvinfer1lsERSoNS_12RNNDirectionE
libnvinfer.so.5:_ZN8nvinfer1lsERSoNS_12RNNInputModeE
libnvinfer.so.5:_ZN8nvinfer1lsERSoNS_12RNNOperationE
libnvinfer.so.5:_ZN8nvinfer1lsERSoNS_13TopKOperationE
libnvinfer.so.5:_ZN8nvinfer1lsERSoNS_14ActivationTypeE
libnvinfer.so.5:_ZN8nvinfer1lsERSoNS_14UnaryOperationE
libnvinfer.so.5:_ZN8nvinfer1lsERSoNS_20ElementWiseOperationE
libnvinfer.so.5:_ZN8nvinfer1lsERSoNS_8DataTypeE
libnvinfer.so.5:_ZN8nvinfer1lsERSoNS_8ReduceOpE
libnvinfer.so.5:_ZN8nvinfer1lsERSoNS_9ScaleModeE
libnvinfer.so.5:_ZN8nvinfer1lsERSoRKNS_11PermutationE
libnvinfer.so.5:_ZN8nvinfer1lsERSoRKNS_13LRNParametersE
libnvinfer.so.5:_ZN8nvinfer1lsERSoRKNS_13RegionFormatLE
libnvinfer.so.5:_ZN8nvinfer1lsERSoRKNS_17PoolingParametersE
libnvinfer.so.5:_ZN8nvinfer1lsERSoRKNS_20ActivationParametersE
libnvinfer.so.5:_ZN8nvinfer1lsERSoRKNS_21ConvolutionParametersE
libnvinfer.so.5:_ZN8nvinfer1lsERSoRKNS_21ElementWiseParametersE
libnvinfer.so.5:_ZN8nvinfer1lsERSoRKNS_24FullyConnectedParametersE
libnvinfer.so.5:_ZN8nvinfer1lsERSoRKNS_4DimsE
libnvinfer.so.5:_ZN8nvinfer1lsERSoRKNS_7WeightsE
libnvinfer.so.5:_ZNK8nvinfer110RNNv2Layer13getOutputFormEiRKSt6vectorINS_10TensorFormESaIS2_EE
libnvinfer.so.5:_ZNK8nvinfer110RNNv2Layer14getBiasForGateEiNS_11RNNGateTypeEb
libnvinfer.so.5:_ZNK8nvinfer110RNNv2Layer17getWeightsForGateEiNS_11RNNGateTypeEb
libnvinfer.so.5:_ZNK8nvinfer110RNNv2Layer8validateERKSt6vectorINS_10TensorFormESaIS2_EEb
libnvinfer.so.5:_ZNK8nvinfer110ScaleLayer11supportsDLAEiib
libnvinfer.so.5:_ZNK8nvinfer110ScaleLayer13getOutputFormEiRKSt6vectorINS_10TensorFormESaIS2_EE
libnvinfer.so.5:_ZNK8nvinfer110ScaleLayer8validateERKSt6vectorINS_10TensorFormESaIS2_EEb
libnvinfer.so.5:_ZNK8nvinfer110UnaryLayer13getOutputFormEiRKSt6vectorINS_10TensorFormESaIS2_EE
libnvinfer.so.5:_ZNK8nvinfer110UnaryLayer8validateERKSt6vectorINS_10TensorFormESaIS2_EEb
libnvinfer.so.5:_ZNK8nvinfer111GatherLayer13getOutputFormEiRKSt6vectorINS_10TensorFormESaIS2_EE
libnvinfer.so.5:_ZNK8nvinfer111GatherLayer8validateERKSt6vectorINS_10TensorFormESaIS2_EEb
libnvinfer.so.5:_ZNK8nvinfer111PluginLayer13getOutputFormEiRKSt6vectorINS_10TensorFormESaIS2_EE
libnvinfer.so.5:_ZNK8nvinfer111ReduceLayer13getOutputFormEiRKSt6vectorINS_10TensorFormESaIS2_EE
libnvinfer.so.5:_ZNK8nvinfer111ReduceLayer8validateERKSt6vectorINS_10TensorFormESaIS2_EEb
libnvinfer.so.5:_ZNK8nvinfer112NetworkLayer16checkDLACbufSizeERKNS_6DimsHWES3_RKNS_7DimsCHWERKNS_8DataTypeEb
libnvinfer.so.5:_ZNK8nvinfer112PaddingLayer13getOutputFormEiRKSt6vectorINS_10TensorFormESaIS2_EE
libnvinfer.so.5:_ZNK8nvinfer112PaddingLayer8validateERKSt6vectorINS_10TensorFormESaIS2_EEb
libnvinfer.so.5:_ZNK8nvinfer112PoolingLayer11supportsDLAEiib
libnvinfer.so.5:_ZNK8nvinfer112PoolingLayer13getOutputFormEiRKSt6vectorINS_10TensorFormESaIS2_EE
libnvinfer.so.5:_ZNK8nvinfer112PoolingLayer8validateERKSt6vectorINS_10TensorFormESaIS2_EEb
libnvinfer.so.5:_ZNK8nvinfer112ShuffleLayer13getOutputFormEiRKSt6vectorINS_10TensorFormESaIS2_EE
libnvinfer.so.5:_ZNK8nvinfer112ShuffleLayer23getOutputSemiDimensionsERKNS_4DimsE
libnvinfer.so.5:_ZNK8nvinfer112ShuffleLayer8validateERKSt6vectorINS_10TensorFormESaIS2_EEb
libnvinfer.so.5:_ZNK8nvinfer112SoftMaxLayer13getOutputFormEiRKSt6vectorINS_10TensorFormESaIS2_EE
libnvinfer.so.5:_ZNK8nvinfer112SoftMaxLayer8validateERKSt6vectorINS_10TensorFormESaIS2_EEb
libnvinfer.so.5:_ZNK8nvinfer112TRTException3logERSo
libnvinfer.so.5:_ZNK8nvinfer113ConstantLayer13getOutputFormEiRKSt6vectorINS_10TensorFormESaIS2_EE
libnvinfer.so.5:_ZNK8nvinfer113ConstantLayer8validateERKSt6vectorINS_10TensorFormESaIS2_EEb
libnvinfer.so.5:_ZNK8nvinfer113IdentityLayer13getOutputFormEiRKSt6vectorINS_10TensorFormESaIS2_EE
libnvinfer.so.5:_ZNK8nvinfer113IdentityLayer8validateERKSt6vectorINS_10TensorFormESaIS2_EEb
libnvinfer.so.5:_ZNK8nvinfer113NetworkTensor11getLocationEv
libnvinfer.so.5:_ZNK8nvinfer113NetworkTensor13getDimensionsEv
libnvinfer.so.5:_ZNK8nvinfer113NetworkTensor14isNetworkInputEv
libnvinfer.so.5:_ZNK8nvinfer113NetworkTensor15getDynamicRangeEv
libnvinfer.so.5:_ZNK8nvinfer113NetworkTensor15isNetworkOutputEv
libnvinfer.so.5:_ZNK8nvinfer113NetworkTensor23getBroadcastAcrossBatchEv
libnvinfer.so.5:_ZNK8nvinfer113PluginV2Layer13getOutputFormEiRKSt6vectorINS_10TensorFormESaIS2_EE
libnvinfer.so.5:_ZNK8nvinfer113RegionFormatB10memorySizeEiRKNS_4DimsE
libnvinfer.so.5:_ZNK8nvinfer115ActivationLayer11supportsDLAEiib
libnvinfer.so.5:_ZNK8nvinfer115ActivationLayer13getOutputFormEiRKSt6vectorINS_10TensorFormESaIS2_EE
libnvinfer.so.5:_ZNK8nvinfer115ActivationLayer8validateERKSt6vectorINS_10TensorFormESaIS2_EEb
libnvinfer.so.5:_ZNK8nvinfer116ConvolutionLayer11supportsDLAEiib
libnvinfer.so.5:_ZNK8nvinfer116ConvolutionLayer13getOutputFormEiRKSt6vectorINS_10TensorFormESaIS2_EE
libnvinfer.so.5:_ZNK8nvinfer116ConvolutionLayer8validateERKSt6vectorINS_10TensorFormESaIS2_EEb
libnvinfer.so.5:_ZNK8nvinfer116ElementWiseLayer11supportsDLAEiib
libnvinfer.so.5:_ZNK8nvinfer116ElementWiseLayer13getOutputFormEiRKSt6vectorINS_10TensorFormESaIS2_EE
libnvinfer.so.5:_ZNK8nvinfer116ElementWiseLayer8validateERKSt6vectorINS_10TensorFormESaIS2_EEb
libnvinfer.so.5:_ZNK8nvinfer118ConcatenationLayer11supportsDLAEiib
libnvinfer.so.5:_ZNK8nvinfer118ConcatenationLayer13getOutputFormEiRKSt6vectorINS_10TensorFormESaIS2_EE
libnvinfer.so.5:_ZNK8nvinfer118ConcatenationLayer8validateERKSt6vectorINS_10TensorFormESaIS2_EEb
libnvinfer.so.5:_ZNK8nvinfer118DeconvolutionLayer11supportsDLAEiib
libnvinfer.so.5:_ZNK8nvinfer118DeconvolutionLayer13getOutputFormEiRKSt6vectorINS_10TensorFormESaIS2_EE
libnvinfer.so.5:_ZNK8nvinfer118DeconvolutionLayer8validateERKSt6vectorINS_10TensorFormESaIS2_EEb
libnvinfer.so.5:_ZNK8nvinfer118RaggedSoftMaxLayer13getOutputFormEiRKSt6vectorINS_10TensorFormESaIS2_EE
libnvinfer.so.5:_ZNK8nvinfer118RaggedSoftMaxLayer8validateERKSt6vectorINS_10TensorFormESaIS2_EEb
libnvinfer.so.5:_ZNK8nvinfer119FullyConnectedLayer11supportsDLAEiib
libnvinfer.so.5:_ZNK8nvinfer119FullyConnectedLayer13getOutputFormEiRKSt6vectorINS_10TensorFormESaIS2_EE
libnvinfer.so.5:_ZNK8nvinfer119FullyConnectedLayer8validateERKSt6vectorINS_10TensorFormESaIS2_EEb
libnvinfer.so.5:_ZNK8nvinfer119MatrixMultiplyLayer12getOperationEi
libnvinfer.so.5:_ZNK8nvinfer119MatrixMultiplyLayer13getOutputFormEiRKSt6vectorINS_10TensorFormESaIS2_EE
libnvinfer.so.5:_ZNK8nvinfer119MatrixMultiplyLayer8validateERKSt6vectorINS_10TensorFormESaIS2_EEb
libnvinfer.so.5:_ZNK8nvinfer121CudaEngineBuildConfig13getDeviceTypeEPKNS_6ILayerE
libnvinfer.so.5:_ZNK8nvinfer121CudaEngineBuildConfig15isDeviceTypeSetEPKNS_6ILayerE
libnvinfer.so.5:_ZNK8nvinfer12rt10UserRegion9getMemoryERKNS0_13CommonContextE
libnvinfer.so.5:_ZNK8nvinfer12rt12DefaultLayer12printRegionsERSo
libnvinfer.so.5:_ZNK8nvinfer12rt12DefaultLayer15executeProfiledERKNS0_13CommonContextERKNS0_19ExecutionParametersE
libnvinfer.so.5:_ZNK8nvinfer12rt12DefaultLayer18printTensorExtentsERSo
libnvinfer.so.5:_ZNK8nvinfer12rt12DefaultLayer23needsBroadcastEmulationEv
libnvinfer.so.5:_ZNK8nvinfer12rt12LinearRegion9getMemoryERKNS0_13CommonContextE
libnvinfer.so.5:_ZNK8nvinfer12rt14ConstantRegion9getMemoryERKNS0_13CommonContextE
libnvinfer.so.5:_ZNK8nvinfer12rt15HardwareContext22getMaxSMemSizePerBlockEv
libnvinfer.so.5:_ZNK8nvinfer12rt16ExecutionContext11reportTimesEv
libnvinfer.so.5:_ZNK8nvinfer12rt16ExecutionContext7getNameEv
libnvinfer.so.5:_ZNK8nvinfer12rt16ExecutionContext9getEngineEv
libnvinfer.so.5:_ZNK8nvinfer12rt17CudaDeviceProfile18generateFlatbufferERN18nvinferFlatBuffers11flatbuffers17FlatBufferBuilderE
libnvinfer.so.5:_ZNK8nvinfer12rt18DlaContextResource12getNvmDeviceEv
libnvinfer.so.5:_ZNK8nvinfer12rt18DlaContextResource13getEglDisplayEv
libnvinfer.so.5:_ZNK8nvinfer12rt4cuda10RNNv2Layer15weightsAreValidENS_8DataTypeE
libnvinfer.so.5:_ZNK8nvinfer12rt4cuda10RNNv2Layer17getTotalNbWeightsEv
libnvinfer.so.5:_ZNK8nvinfer12rt4cuda10ScaleLayer13configIsValidERKNS0_15HardwareContextE
libnvinfer.so.5:_ZNK8nvinfer12rt4cuda10ScaleLayer5printERSo
libnvinfer.so.5:_ZNK8nvinfer12rt4cuda10ScaleLayer7executeERKNS0_13CommonContextERKNS0_19ExecutionParametersE
libnvinfer.so.5:_ZNK8nvinfer12rt4cuda10UnaryLayer13configIsValidERKNS0_15HardwareContextE
libnvinfer.so.5:_ZNK8nvinfer12rt4cuda10UnaryLayer5printERSo
libnvinfer.so.5:_ZNK8nvinfer12rt4cuda10UnaryLayer7executeERKNS0_13CommonContextERKNS0_19ExecutionParametersE
libnvinfer.so.5:_ZNK8nvinfer12rt4cuda11GatherLayer13configIsValidERKNS0_15HardwareContextE
libnvinfer.so.5:_ZNK8nvinfer12rt4cuda11GatherLayer5printERSo
libnvinfer.so.5:_ZNK8nvinfer12rt4cuda11GatherLayer7executeERKNS0_13CommonContextERKNS0_19ExecutionParametersE
libnvinfer.so.5:_ZNK8nvinfer12rt4cuda11PluginLayer13configIsValidERKNS0_15HardwareContextE
libnvinfer.so.5:_ZNK8nvinfer12rt4cuda11PluginLayer5printERSo
libnvinfer.so.5:_ZNK8nvinfer12rt4cuda11PluginLayer7executeERKNS0_13CommonContextERKNS0_19ExecutionParametersE
libnvinfer.so.5:_ZNK8nvinfer12rt4cuda11ReduceLayer13configIsValidERKNS0_15HardwareContextE
libnvinfer.so.5:_ZNK8nvinfer12rt4cuda11ReduceLayer5printERSo
libnvinfer.so.5:_ZNK8nvinfer12rt4cuda11ReduceLayer7executeERKNS0_13CommonContextERKNS0_19ExecutionParametersE
libnvinfer.so.5:_ZNK8nvinfer12rt4cuda12BaseMLPLayer13configIsValidERKNS0_15HardwareContextE
libnvinfer.so.5:_ZNK8nvinfer12rt4cuda12BaseMLPLayer14getMaxOutLayerERKNS_13MLPParametersEi
libnvinfer.so.5:_ZNK8nvinfer12rt4cuda12BaseMLPLayer14getWeightsSizeEv
libnvinfer.so.5:_ZNK8nvinfer12rt4cuda12BaseMLPLayer5printERSo
libnvinfer.so.5:_ZNK8nvinfer12rt4cuda12BaseMLPLayer6getOpsEv
libnvinfer.so.5:_ZNK8nvinfer12rt4cuda12PaddingLayer13configIsValidERKNS0_15HardwareContextE
libnvinfer.so.5:_ZNK8nvinfer12rt4cuda12PaddingLayer5printERSo
libnvinfer.so.5:_ZNK8nvinfer12rt4cuda12PaddingLayer7executeERKNS0_13CommonContextERKNS0_19ExecutionParametersE
libnvinfer.so.5:_ZNK8nvinfer12rt4cuda12PoolingLayer11getTypeNameEv
libnvinfer.so.5:_ZNK8nvinfer12rt4cuda12PoolingLayer12getTileSizesEv
libnvinfer.so.5:_ZNK8nvinfer12rt4cuda12PoolingLayer13configIsValidERKNS0_15HardwareContextE
libnvinfer.so.5:_ZNK8nvinfer12rt4cuda12PoolingLayer16setupTiledParamsERKNS_13ITiledPoolingEiPvS6_
libnvinfer.so.5:_ZNK8nvinfer12rt4cuda12PoolingLayer20getTiledPoolingIndexEv
libnvinfer.so.5:_ZNK8nvinfer12rt4cuda12PoolingLayer5printERSo
libnvinfer.so.5:_ZNK8nvinfer12rt4cuda12PoolingLayer7executeERKNS0_13CommonContextERKNS0_19ExecutionParametersE
libnvinfer.so.5:_ZNK8nvinfer12rt4cuda12RNNBaseLayer13configIsValidERKNS0_15HardwareContextE
libnvinfer.so.5:_ZNK8nvinfer12rt4cuda12RNNBaseLayer18effectiveBatchSizeERKNS0_13CommonContextE
libnvinfer.so.5:_ZNK8nvinfer12rt4cuda12RNNBaseLayer20setupSequenceLengthsERKNS0_13CommonContextEPi
libnvinfer.so.5:_ZNK8nvinfer12rt4cuda12RNNBaseLayer5printERSo
libnvinfer.so.5:_ZNK8nvinfer12rt4cuda12RNNBaseLayer7executeERKNS0_13CommonContextERKNS0_19ExecutionParametersE
libnvinfer.so.5:_ZNK8nvinfer12rt4cuda12ShuffleLayer13configIsValidERKNS0_15HardwareContextE
libnvinfer.so.5:_ZNK8nvinfer12rt4cuda12ShuffleLayer5printERSo
libnvinfer.so.5:_ZNK8nvinfer12rt4cuda12ShuffleLayer7executeERKNS0_13CommonContextERKNS0_19ExecutionParametersE
libnvinfer.so.5:_ZNK8nvinfer12rt4cuda12SoftMaxLayer13configIsValidERKNS0_15HardwareContextE
libnvinfer.so.5:_ZNK8nvinfer12rt4cuda12SoftMaxLayer19setTensorDescriptorEP17cudnnTensorStructRKNS0_12EngineTensorERKNS0_13CommonContextE
libnvinfer.so.5:_ZNK8nvinfer12rt4cuda12SoftMaxLayer5printERSo
libnvinfer.so.5:_ZNK8nvinfer12rt4cuda12SoftMaxLayer7executeERKNS0_13CommonContextERKNS0_19ExecutionParametersE
libnvinfer.so.5:_ZNK8nvinfer12rt4cuda12cudaMLPLayer10getVariantEv
libnvinfer.so.5:_ZNK8nvinfer12rt4cuda12cudaMLPLayer11getTypeNameEv
libnvinfer.so.5:_ZNK8nvinfer12rt4cuda12cudaMLPLayer11numVariantsENS2_9AlgorithmE
libnvinfer.so.5:_ZNK8nvinfer12rt4cuda12cudaMLPLayer12getAlgorithmEv
libnvinfer.so.5:_ZNK8nvinfer12rt4cuda12cudaMLPLayer12getAlignmentEv
libnvinfer.so.5:_ZNK8nvinfer12rt4cuda12cudaMLPLayer12getBlockSizeEv
libnvinfer.so.5:_ZNK8nvinfer12rt4cuda12cudaMLPLayer13configIsValidERKNS0_15HardwareContextE
libnvinfer.so.5:_ZNK8nvinfer12rt4cuda12cudaMLPLayer17getMaxBatchLaunchERKNS0_13CommonContextE
libnvinfer.so.5:_ZNK8nvinfer12rt4cuda12cudaMLPLayer7executeERKNS0_13CommonContextERKNS0_19ExecutionParametersE
libnvinfer.so.5:_ZNK8nvinfer12rt4cuda13ConstantLayer13configIsValidERKNS0_15HardwareContextE
libnvinfer.so.5:_ZNK8nvinfer12rt4cuda13ConstantLayer5printERSo
libnvinfer.so.5:_ZNK8nvinfer12rt4cuda13ConstantLayer7executeERKNS0_13CommonContextERKNS0_19ExecutionParametersE
libnvinfer.so.5:_ZNK8nvinfer12rt4cuda13PluginV2Layer13configIsValidERKNS0_15HardwareContextE
libnvinfer.so.5:_ZNK8nvinfer12rt4cuda13PluginV2Layer5printERSo
libnvinfer.so.5:_ZNK8nvinfer12rt4cuda13PluginV2Layer7executeERKNS0_13CommonContextERKNS0_19ExecutionParametersE
libnvinfer.so.5:_ZNK8nvinfer12rt4cuda13ReformatLayer13configIsValidERKNS0_15HardwareContextE
libnvinfer.so.5:_ZNK8nvinfer12rt4cuda13ReformatLayer5printERSo
libnvinfer.so.5:_ZNK8nvinfer12rt4cuda13ReformatLayer7executeERKNS0_13CommonContextERKNS0_19ExecutionParametersE
libnvinfer.so.5:_ZNK8nvinfer12rt4cuda15ActivationLayer13configIsValidERKNS0_15HardwareContextE
libnvinfer.so.5:_ZNK8nvinfer12rt4cuda15ActivationLayer5printERSo
libnvinfer.so.5:_ZNK8nvinfer12rt4cuda15ActivationLayer7executeERKNS0_13CommonContextERKNS0_19ExecutionParametersE
libnvinfer.so.5:_ZNK8nvinfer12rt4cuda15GemmDeconvLayer13configIsValidERKNS0_15HardwareContextE
libnvinfer.so.5:_ZNK8nvinfer12rt4cuda15GemmDeconvLayer14getWeightsSizeEv
libnvinfer.so.5:_ZNK8nvinfer12rt4cuda15GemmDeconvLayer5printERSo
libnvinfer.so.5:_ZNK8nvinfer12rt4cuda15GemmDeconvLayer6getOpsEv
libnvinfer.so.5:_ZNK8nvinfer12rt4cuda15GemmDeconvLayer7executeERKNS0_13CommonContextERKNS0_19ExecutionParametersE
libnvinfer.so.5:_ZNK8nvinfer12rt4cuda15cudnnMLPFCLayer11getTypeNameEv
libnvinfer.so.5:_ZNK8nvinfer12rt4cuda15cudnnMLPFCLayer12executeCudnnERKNS0_13CommonContextERKNS0_19ExecutionParametersE
libnvinfer.so.5:_ZNK8nvinfer12rt4cuda15cudnnMLPFCLayer12getAlgorithmEv
libnvinfer.so.5:_ZNK8nvinfer12rt4cuda15cudnnMLPFCLayer7executeERKNS0_13CommonContextERKNS0_19ExecutionParametersE
libnvinfer.so.5:_ZNK8nvinfer12rt4cuda15cudnnMLPMMLayer11getTypeNameEv
libnvinfer.so.5:_ZNK8nvinfer12rt4cuda15cudnnMLPMMLayer12getAlgorithmEv
libnvinfer.so.5:_ZNK8nvinfer12rt4cuda15cudnnMLPMMLayer7executeERKNS0_13CommonContextERKNS0_19ExecutionParametersE
libnvinfer.so.5:_ZNK8nvinfer12rt4cuda16ElementWiseLayer13configIsValidERKNS0_15HardwareContextE
libnvinfer.so.5:_ZNK8nvinfer12rt4cuda16ElementWiseLayer15setLaunchParamsERN9cuEltwise14AbstractParamsERKNS0_13CommonContextENS0_6TacticE
libnvinfer.so.5:_ZNK8nvinfer12rt4cuda16ElementWiseLayer5printERSo
libnvinfer.so.5:_ZNK8nvinfer12rt4cuda16ElementWiseLayer7executeERKNS0_13CommonContextERKNS0_19ExecutionParametersE
libnvinfer.so.5:_ZNK8nvinfer12rt4cuda17RNNExecutionState18computeScratchSizeEv
libnvinfer.so.5:_ZNK8nvinfer12rt4cuda17RNNExecutionState25computePersistentHostSizeEv
libnvinfer.so.5:_ZNK8nvinfer12rt4cuda17RNNExecutionState27computePersistentDeviceSizeEv
libnvinfer.so.5:_ZNK8nvinfer12rt4cuda18DeconvolutionLayer13configIsValidERKNS0_15HardwareContextE
libnvinfer.so.5:_ZNK8nvinfer12rt4cuda18DeconvolutionLayer13setDescriptorERP17cudnnTensorStructRKNS0_12EngineTensorEib
libnvinfer.so.5:_ZNK8nvinfer12rt4cuda18DeconvolutionLayer14getWeightsSizeEv
libnvinfer.so.5:_ZNK8nvinfer12rt4cuda18DeconvolutionLayer28createConvolutionDescriptorsERNS_10CuResourceIP22cudnnConvolutionStructXadL_Z32cudnnCreateConvolutionDescriptorEEXadL_Z33cudnnDestroyConvolutionDescriptorEEEERNS3_IP17cudnnFilterStructXadL_Z27cudnnCreateFilterDescriptorEEXadL_Z28cudnnDestroyFilterDescriptorEEEEb
libnvinfer.so.5:_ZNK8nvinfer12rt4cuda18DeconvolutionLayer5printERSo
libnvinfer.so.5:_ZNK8nvinfer12rt4cuda18DeconvolutionLayer6getOpsEv
libnvinfer.so.5:_ZNK8nvinfer12rt4cuda18DeconvolutionLayer7executeERKNS0_13CommonContextERKNS0_19ExecutionParametersE
libnvinfer.so.5:_ZNK8nvinfer12rt4cuda18DeconvolutionLayer9tryTacticERNS_10CuResourceIP22cudnnConvolutionStructXadL_Z32cudnnCreateConvolutionDescriptorEEXadL_Z33cudnnDestroyConvolutionDescriptorEEEERNS3_IP17cudnnFilterStructXadL_Z27cudnnCreateFilterDescriptorEEXadL_Z28cudnnDestroyFilterDescriptorEEEENS0_6TacticERKNS0_18EngineBuildContextE
libnvinfer.so.5:_ZNK8nvinfer12rt4cuda18RaggedSoftMaxLayer13configIsValidERKNS0_15HardwareContextE
libnvinfer.so.5:_ZNK8nvinfer12rt4cuda18RaggedSoftMaxLayer5printERSo
libnvinfer.so.5:_ZNK8nvinfer12rt4cuda18RaggedSoftMaxLayer7executeERKNS0_13CommonContextERKNS0_19ExecutionParametersE
libnvinfer.so.5:_ZNK8nvinfer12rt4cuda19FullyConnectedLayer12getAlgorithmEv
libnvinfer.so.5:_ZNK8nvinfer12rt4cuda19FullyConnectedLayer13configIsValidERKNS0_15HardwareContextE
libnvinfer.so.5:_ZNK8nvinfer12rt4cuda19FullyConnectedLayer14getWeightsSizeEv
libnvinfer.so.5:_ZNK8nvinfer12rt4cuda19FullyConnectedLayer15isPreTransposedEv
libnvinfer.so.5:_ZNK8nvinfer12rt4cuda19FullyConnectedLayer19computeInBufferSizeERKNS0_13CommonContextE
libnvinfer.so.5:_ZNK8nvinfer12rt4cuda19FullyConnectedLayer20computeOutBufferSizeERKNS0_13CommonContextE
libnvinfer.so.5:_ZNK8nvinfer12rt4cuda19FullyConnectedLayer5printERSo
libnvinfer.so.5:_ZNK8nvinfer12rt4cuda19FullyConnectedLayer6getOpsEv
libnvinfer.so.5:_ZNK8nvinfer12rt4cuda19FullyConnectedLayer7executeERKNS0_13CommonContextERKNS0_19ExecutionParametersE
libnvinfer.so.5:_ZNK8nvinfer12rt4cuda19MatrixMultiplyLayer13configIsValidERKNS0_15HardwareContextE
libnvinfer.so.5:_ZNK8nvinfer12rt4cuda19MatrixMultiplyLayer5printERSo
libnvinfer.so.5:_ZNK8nvinfer12rt4cuda19MatrixMultiplyLayer6getOpsEv
libnvinfer.so.5:_ZNK8nvinfer12rt4cuda19MatrixMultiplyLayer7executeERKNS0_13CommonContextERKNS0_19ExecutionParametersE
libnvinfer.so.5:_ZNK8nvinfer12rt4cuda20WinogradConvActLayer11getTypeNameEv
libnvinfer.so.5:_ZNK8nvinfer12rt4cuda20WinogradConvActLayer13configIsValidERKNS0_15HardwareContextE
libnvinfer.so.5:_ZNK8nvinfer12rt4cuda20WinogradConvActLayer14getWeightsSizeEv
libnvinfer.so.5:_ZNK8nvinfer12rt4cuda20WinogradConvActLayer17createConvolutionERKNS0_13CommonContextEbPKa
libnvinfer.so.5:_ZNK8nvinfer12rt4cuda20WinogradConvActLayer5printERSo
libnvinfer.so.5:_ZNK8nvinfer12rt4cuda20WinogradConvActLayer6getOpsEv
libnvinfer.so.5:_ZNK8nvinfer12rt4cuda20WinogradConvActLayer7executeERKNS0_13CommonContextERKNS0_19ExecutionParametersE
libnvinfer.so.5:_ZNK8nvinfer12rt4cuda21CudnnConvolutionLayer13configIsValidERKNS0_15HardwareContextE
libnvinfer.so.5:_ZNK8nvinfer12rt4cuda21CudnnConvolutionLayer14getWeightsSizeEv
libnvinfer.so.5:_ZNK8nvinfer12rt4cuda21CudnnConvolutionLayer14tacticNbGroupsENS0_6TacticE
libnvinfer.so.5:_ZNK8nvinfer12rt4cuda21CudnnConvolutionLayer28createConvolutionDescriptorsERNS_10CuResourceIP22cudnnConvolutionStructXadL_Z32cudnnCreateConvolutionDescriptorEEXadL_Z33cudnnDestroyConvolutionDescriptorEEEERNS3_IP17cudnnFilterStructXadL_Z27cudnnCreateFilterDescriptorEEXadL_Z28cudnnDestroyFilterDescriptorEEEERKNS0_15HardwareContextEb
libnvinfer.so.5:_ZNK8nvinfer12rt4cuda21CudnnConvolutionLayer5printERSo
libnvinfer.so.5:_ZNK8nvinfer12rt4cuda21CudnnConvolutionLayer6getOpsEv
libnvinfer.so.5:_ZNK8nvinfer12rt4cuda21CudnnConvolutionLayer7executeERKNS0_13CommonContextERKNS0_19ExecutionParametersE
libnvinfer.so.5:_ZNK8nvinfer12rt4cuda22CudnnFusedConvActLayer13configIsValidERKNS0_15HardwareContextE
libnvinfer.so.5:_ZNK8nvinfer12rt4cuda22CudnnFusedConvActLayer14getWeightsSizeEv
libnvinfer.so.5:_ZNK8nvinfer12rt4cuda22CudnnFusedConvActLayer5printERSo
libnvinfer.so.5:_ZNK8nvinfer12rt4cuda22CudnnFusedConvActLayer6getOpsEv
libnvinfer.so.5:_ZNK8nvinfer12rt4cuda22CudnnFusedConvActLayer7executeERKNS0_13CommonContextERKNS0_19ExecutionParametersE
libnvinfer.so.5:_ZNK8nvinfer12rt4cuda29cudaDepthwiseConvolutionLayer13configIsValidERKNS0_15HardwareContextE
libnvinfer.so.5:_ZNK8nvinfer12rt4cuda29cudaDepthwiseConvolutionLayer14getWeightsSizeEv
libnvinfer.so.5:_ZNK8nvinfer12rt4cuda29cudaDepthwiseConvolutionLayer5printERSo
libnvinfer.so.5:_ZNK8nvinfer12rt4cuda29cudaDepthwiseConvolutionLayer6getOpsEv
libnvinfer.so.5:_ZNK8nvinfer12rt4cuda29cudaDepthwiseConvolutionLayer7executeERKNS0_13CommonContextERKNS0_19ExecutionParametersE
libnvinfer.so.5:_ZNK8nvinfer12rt4cuda8LRNLayer13configIsValidERKNS0_15HardwareContextE
libnvinfer.so.5:_ZNK8nvinfer12rt4cuda8LRNLayer5printERSo
libnvinfer.so.5:_ZNK8nvinfer12rt4cuda8LRNLayer7executeERKNS0_13CommonContextERKNS0_19ExecutionParametersE
libnvinfer.so.5:_ZNK8nvinfer12rt4cuda9TopKLayer13configIsValidERKNS0_15HardwareContextE
libnvinfer.so.5:_ZNK8nvinfer12rt4cuda9TopKLayer15getKernelParamsERKNS0_13CommonContextE
libnvinfer.so.5:_ZNK8nvinfer12rt4cuda9TopKLayer5printERSo
libnvinfer.so.5:_ZNK8nvinfer12rt4cuda9TopKLayer7executeERKNS0_13CommonContextERKNS0_19ExecutionParametersE
libnvinfer.so.5:_ZNK8nvinfer12rt4task20caskConvolutionLayer11getTypeNameEv
libnvinfer.so.5:_ZNK8nvinfer12rt4task20caskConvolutionLayer13configIsValidERKNS0_15HardwareContextE
libnvinfer.so.5:_ZNK8nvinfer12rt4task20caskConvolutionLayer13getTacticNameEv
libnvinfer.so.5:_ZNK8nvinfer12rt4task20caskConvolutionLayer14getWeightsSizeEv
libnvinfer.so.5:_ZNK8nvinfer12rt4task20caskConvolutionLayer17createConvolutionERKNS0_13CommonContextEb
libnvinfer.so.5:_ZNK8nvinfer12rt4task20caskConvolutionLayer5printERSo
libnvinfer.so.5:_ZNK8nvinfer12rt4task20caskConvolutionLayer6getOpsEv
libnvinfer.so.5:_ZNK8nvinfer12rt4task20caskConvolutionLayer7executeERKNS0_13CommonContextERKNS0_19ExecutionParametersE
libnvinfer.so.5:_ZNK8nvinfer12rt4task22caskDeconvolutionLayer11getTypeNameEv
libnvinfer.so.5:_ZNK8nvinfer12rt4task22caskDeconvolutionLayer12createDeconvERKNS0_13CommonContextEb
libnvinfer.so.5:_ZNK8nvinfer12rt4task22caskDeconvolutionLayer13configIsValidERKNS0_15HardwareContextE
libnvinfer.so.5:_ZNK8nvinfer12rt4task22caskDeconvolutionLayer13getTacticNameEv
libnvinfer.so.5:_ZNK8nvinfer12rt4task22caskDeconvolutionLayer14getWeightsSizeEv
libnvinfer.so.5:_ZNK8nvinfer12rt4task22caskDeconvolutionLayer5printERSo
libnvinfer.so.5:_ZNK8nvinfer12rt4task22caskDeconvolutionLayer6getOpsEv
libnvinfer.so.5:_ZNK8nvinfer12rt4task22caskDeconvolutionLayer7executeERKNS0_13CommonContextERKNS0_19ExecutionParametersE
libnvinfer.so.5:_ZNK8nvinfer12rt4task23caskFullyConnectedLayer11getTypeNameEv
libnvinfer.so.5:_ZNK8nvinfer12rt4task23caskFullyConnectedLayer13configIsValidERKNS0_15HardwareContextE
libnvinfer.so.5:_ZNK8nvinfer12rt4task23caskFullyConnectedLayer13getTacticNameEv
libnvinfer.so.5:_ZNK8nvinfer12rt4task23caskFullyConnectedLayer14getWeightsSizeEv
libnvinfer.so.5:_ZNK8nvinfer12rt4task23caskFullyConnectedLayer19computeInBufferSizeERKNS0_13CommonContextE
libnvinfer.so.5:_ZNK8nvinfer12rt4task23caskFullyConnectedLayer20computeOutBufferSizeERKNS0_13CommonContextE
libnvinfer.so.5:_ZNK8nvinfer12rt4task23caskFullyConnectedLayer28createFullyConnectedSelectorERKNS0_13CommonContextEb
libnvinfer.so.5:_ZNK8nvinfer12rt4task23caskFullyConnectedLayer4getCEv
libnvinfer.so.5:_ZNK8nvinfer12rt4task23caskFullyConnectedLayer4getKEv
libnvinfer.so.5:_ZNK8nvinfer12rt4task23caskFullyConnectedLayer4getNERKNS0_13CommonContextE
libnvinfer.so.5:_ZNK8nvinfer12rt4task23caskFullyConnectedLayer5printERSo
libnvinfer.so.5:_ZNK8nvinfer12rt4task23caskFullyConnectedLayer6getOpsEv
libnvinfer.so.5:_ZNK8nvinfer12rt4task23caskFullyConnectedLayer7executeERKNS0_13CommonContextERKNS0_19ExecutionParametersE
libnvinfer.so.5:_ZNK8nvinfer12rt4task9caskLayer14createTensorFCERKNS0_12EngineTensorEiiRKSsb
libnvinfer.so.5:_ZNK8nvinfer12rt4task9caskLayer16createDataTensorENS0_12EngineTensorEiiRKSs
libnvinfer.so.5:_ZNK8nvinfer12rt4task9caskLayer18createFilterTensorENS0_12EngineTensorES3_iiii
libnvinfer.so.5:_ZNK8nvinfer12rt4task9caskLayer20getConvolutionShaderEv
libnvinfer.so.5:_ZNK8nvinfer12rt4task9caskLayer23getFullyConnectedShaderEv
libnvinfer.so.5:_ZNK8nvinfer12rt6Engine11getLocationEi
libnvinfer.so.5:_ZNK8nvinfer12rt6Engine13getNbBindingsEv
libnvinfer.so.5:_ZNK8nvinfer12rt6Engine14bindingIsInputEi
libnvinfer.so.5:_ZNK8nvinfer12rt6Engine14findUserRegionEj
libnvinfer.so.5:_ZNK8nvinfer12rt6Engine14getBindingNameEi
libnvinfer.so.5:_ZNK8nvinfer12rt6Engine15getBindingIndexEPKc
libnvinfer.so.5:_ZNK8nvinfer12rt6Engine18getBindingDataTypeEi
libnvinfer.so.5:_ZNK8nvinfer12rt6Engine19getDeviceMemorySizeEv
libnvinfer.so.5:_ZNK8nvinfer12rt6Engine20getBindingDimensionsEi
libnvinfer.so.5:_ZNK8nvinfer12rt6Engine21printLayerInformationERSo
libnvinfer.so.5:_ZNK8nvinfer12rt6Engine9serializeEv
libnvinfer.so.5:_ZNK8nvinfer12rt6Region13getCudnnPitchEb
libnvinfer.so.5:_ZNK8nvinfer12rt6Region13hasCHWStridesEv
libnvinfer.so.5:_ZNK8nvinfer12rt6Region13hasHWCStridesEv
libnvinfer.so.5:_ZNK8nvinfer12rt6Region16hasNvmCHWStridesEv
libnvinfer.so.5:_ZNK8nvinfer12rt6Region16hasNvmHWCStridesEv
libnvinfer.so.5:_ZNK8nvinfer12rt6Region21getNCHWPitchInVectorsEv
libnvinfer.so.5:_ZNK8nvinfer12rt6Region22getIndexPitchInScalarsEv
libnvinfer.so.5:_ZNK8nvinfer12rt6Region22getIndexPitchInVectorsEv
libnvinfer.so.5:_ZNK8nvinfer17Network10sortLayersEv
libnvinfer.so.5:_ZNK8nvinfer17Network11getNbLayersEv
libnvinfer.so.5:_ZNK8nvinfer17Network11validateDLAERNS_21CudaEngineBuildConfigE
libnvinfer.so.5:_ZNK8nvinfer17Network12newLayerNameEv
libnvinfer.so.5:_ZNK8nvinfer17Network12updateTensorEPKNS_13NetworkTensorE
libnvinfer.so.5:_ZNK8nvinfer17Network13newTensorNameEv
libnvinfer.so.5:_ZNK8nvinfer17Network15getSortedLayersEv
libnvinfer.so.5:_ZNK8nvinfer17Network18printDLALayersInfoERKSt13unordered_setISsSt4hashISsESt8equal_toISsESaISsEE
libnvinfer.so.5:_ZNK8nvinfer17Network8getLayerEi
libnvinfer.so.5:_ZNK8nvinfer17Network8validateERNS_21CudaEngineBuildConfigERKNS_2rt15HardwareContextE
libnvinfer.so.5:_ZNK8nvinfer17Network9findLayerERKSs
libnvinfer.so.5:_ZNK8nvinfer17builder10CostTensor10indexOfMinEv
libnvinfer.so.5:_ZNK8nvinfer17builder10CostTensor13getSortedPtrsEv
libnvinfer.so.5:_ZNK8nvinfer17builder10CostTensor5printERSoRKSsS4_
libnvinfer.so.5:_ZNK8nvinfer17builder10CostTensor6getMapEv
libnvinfer.so.5:_ZNK8nvinfer17builder10GatherNode19getSupportedFormatsERKNS_2rt15HardwareContextENS_11DataTypeSetE
libnvinfer.so.5:_ZNK8nvinfer17builder10PluginNode17getUniformFormatsEv
libnvinfer.so.5:_ZNK8nvinfer17builder12ConstantNode17getUniformFormatsEv
libnvinfer.so.5:_ZNK8nvinfer17builder12IdentityNode19getSupportedFormatsERKNS_2rt15HardwareContextENS_11DataTypeSetE
libnvinfer.so.5:_ZNK8nvinfer17builder12PluginV2Node17getUniformFormatsEv
libnvinfer.so.5:_ZNK8nvinfer17builder12ScaleErasure12matchDetailsERKNS0_5NodeTILNS0_8NodeTypeE5ENS_15ScaleParametersELb1ELj15EEE
libnvinfer.so.5:_ZNK8nvinfer17builder12TacticSupply13regionFormatLEjRKNS_4DimsE
libnvinfer.so.5:_ZNK8nvinfer17builder15ConvolutionNode19getSupportedFormatsERKNS_2rt15HardwareContextENS_11DataTypeSetE
libnvinfer.so.5:_ZNK8nvinfer17builder15ConvolutionNode9canStrideEv
libnvinfer.so.5:_ZNK8nvinfer17builder17ConcatenationNode9canStrideEv
libnvinfer.so.5:_ZNK8nvinfer17builder17DeconvolutionNode19getSupportedFormatsERKNS_2rt15HardwareContextENS_11DataTypeSetE
libnvinfer.so.5:_ZNK8nvinfer17builder17RaggedSoftMaxNode19getSupportedFormatsERKNS_2rt15HardwareContextENS_11DataTypeSetE
libnvinfer.so.5:_ZNK8nvinfer17builder18EngineTacticSupply19acceptableDataTypesERKNS0_6RegionE
libnvinfer.so.5:_ZNK8nvinfer17builder18MatrixMultiplyNode17getUniformFormatsEv
libnvinfer.so.5:_ZNK8nvinfer17builder4Node15strictAlignmentEv
libnvinfer.so.5:_ZNK8nvinfer17builder4Node19getSupportedFormatsERKNS_2rt15HardwareContextENS_11DataTypeSetE
libnvinfer.so.5:_ZNK8nvinfer17builder7Builder11canRunOnDLAEPKNS_6ILayerE
libnvinfer.so.5:_ZNK8nvinfer17builder7Builder11getFp16ModeEv
libnvinfer.so.5:_ZNK8nvinfer17builder7Builder11getInt8ModeEv
libnvinfer.so.5:_ZNK8nvinfer17builder7Builder12getDebugSyncEv
libnvinfer.so.5:_ZNK8nvinfer17builder7Builder12getHalf2ModeEv
libnvinfer.so.5:_ZNK8nvinfer17builder7Builder13getDeviceTypeEPKNS_6ILayerE
libnvinfer.so.5:_ZNK8nvinfer17builder7Builder15getMaxBatchSizeEv
libnvinfer.so.5:_ZNK8nvinfer17builder7Builder15isDeviceTypeSetEPKNS_6ILayerE
libnvinfer.so.5:_ZNK8nvinfer17builder7Builder18getMaxDLABatchSizeEv
libnvinfer.so.5:_ZNK8nvinfer17builder7Builder19getMaxWorkspaceSizeEv
libnvinfer.so.5:_ZNK8nvinfer17builder7Builder19platformHasFastFp16Ev
libnvinfer.so.5:_ZNK8nvinfer17builder7Builder19platformHasFastInt8Ev
libnvinfer.so.5:_ZNK8nvinfer17builder7Builder20getDefaultDeviceTypeEv
libnvinfer.so.5:_ZNK8nvinfer17builder7Builder20getMinFindIterationsEv
libnvinfer.so.5:_ZNK8nvinfer17builder7Builder24getAverageFindIterationsEv
libnvinfer.so.5:_ZNK8nvinfer17builder7Builder24getStrictTypeConstraintsEv
libnvinfer.so.5:_ZNK8nvinfer17builder8TopKNode19getSupportedFormatsERKNS_2rt15HardwareContextENS_11DataTypeSetE
libnvinfer.so.5:_ZNK8nvinfer17builder9RNNv2Node19getSupportedFormatsERKNS_2rt15HardwareContextENS_11DataTypeSetE
libnvinfer.so.5:_ZNK8nvinfer18LRNLayer11supportsDLAEiib
libnvinfer.so.5:_ZNK8nvinfer18LRNLayer13getOutputFormEiRKSt6vectorINS_10TensorFormESaIS2_EE
libnvinfer.so.5:_ZNK8nvinfer18LRNLayer8validateERKSt6vectorINS_10TensorFormESaIS2_EEb
libnvinfer.so.5:_ZNK8nvinfer18RNNLayer13getOutputFormEiRKSt6vectorINS_10TensorFormESaIS2_EE
libnvinfer.so.5:_ZNK8nvinfer18RNNLayer8validateERKSt6vectorINS_10TensorFormESaIS2_EEb
libnvinfer.so.5:_ZNK8nvinfer18RNNStats20computeRNNDimensionsEv
libnvinfer.so.5:_ZNK8nvinfer18RNNStats21validateRNNDimensionsERKSt5arrayIPKNS_4DimsELm7EE
libnvinfer.so.5:_ZNK8nvinfer19TopKLayer13getOutputFormEiRKSt6vectorINS_10TensorFormESaIS2_EE
libnvinfer.so.5:_ZNK8nvinfer19TopKLayer8validateERKSt6vectorINS_10TensorFormESaIS2_EEb
libnvinfer.so.5:createInferBuilder_INTERNAL
libnvinfer.so.5:createInferRuntime_INTERNAL
libnvinfer.so.5:getInferLibVersion
libnvinfer.so.5:getLogger
libnvinfer.so.5:getPluginRegistry
libnvinfer_plugin.so.5:_ZN8nvinfer16plugin10ClipPlugin10initializeEv
libnvinfer_plugin.so.5:_ZN8nvinfer16plugin10ClipPlugin19configureWithFormatEPKNS_4DimsEiS4_iNS_8DataTypeENS_12PluginFormatEi
libnvinfer_plugin.so.5:_ZN8nvinfer16plugin10ClipPlugin19getOutputDimensionsEiPKNS_4DimsEi
libnvinfer_plugin.so.5:_ZN8nvinfer16plugin10ClipPlugin7destroyEv
libnvinfer_plugin.so.5:_ZN8nvinfer16plugin10ClipPlugin7enqueueEiPKPKvPPvS6_P11CUstream_st
libnvinfer_plugin.so.5:_ZN8nvinfer16plugin10ClipPlugin9terminateEv
libnvinfer_plugin.so.5:_ZN8nvinfer16plugin10ClipPluginC1ESsPKvm
libnvinfer_plugin.so.5:_ZN8nvinfer16plugin10ClipPluginC1ESsff
libnvinfer_plugin.so.5:_ZN8nvinfer16plugin10ClipPluginC2ESsPKvm
libnvinfer_plugin.so.5:_ZN8nvinfer16plugin10ClipPluginC2ESsff
libnvinfer_plugin.so.5:_ZN8nvinfer16plugin10ClipPluginD0Ev
libnvinfer_plugin.so.5:_ZN8nvinfer16plugin10ClipPluginD1Ev
libnvinfer_plugin.so.5:_ZN8nvinfer16plugin10ClipPluginD2Ev
libnvinfer_plugin.so.5:_ZN8nvinfer16plugin10permuteGpuEP11CUstream_stiPKvS4_S4_S4_Pv
libnvinfer_plugin.so.5:_ZN8nvinfer16plugin11PReLULegacy10initializeEv
libnvinfer_plugin.so.5:_ZN8nvinfer16plugin11PReLULegacy19getOutputDimensionsEiPKNS_4DimsEi
libnvinfer_plugin.so.5:_ZN8nvinfer16plugin11PReLULegacy20getSerializationSizeEv
libnvinfer_plugin.so.5:_ZN8nvinfer16plugin11PReLULegacy7destroyEv
libnvinfer_plugin.so.5:_ZN8nvinfer16plugin11PReLULegacy7enqueueEiPKPKvPPvS6_P11CUstream_st
libnvinfer_plugin.so.5:_ZN8nvinfer16plugin11PReLULegacy9configureEPKNS_4DimsEiS4_ii
libnvinfer_plugin.so.5:_ZN8nvinfer16plugin11PReLULegacy9serializeEPv
libnvinfer_plugin.so.5:_ZN8nvinfer16plugin11PReLULegacy9terminateEv
libnvinfer_plugin.so.5:_ZN8nvinfer16plugin11PReLULegacyC1EPKvm
libnvinfer_plugin.so.5:_ZN8nvinfer16plugin11PReLULegacyC1Ef
libnvinfer_plugin.so.5:_ZN8nvinfer16plugin11PReLULegacyC2EPKvm
libnvinfer_plugin.so.5:_ZN8nvinfer16plugin11PReLULegacyC2Ef
libnvinfer_plugin.so.5:_ZN8nvinfer16plugin11RPROIPlugin10copyToHostEPKvi
libnvinfer_plugin.so.5:_ZN8nvinfer16plugin11RPROIPlugin19configureWithFormatEPKNS_4DimsEiS4_iNS_8DataTypeENS_12PluginFormatEi
libnvinfer_plugin.so.5:_ZN8nvinfer16plugin11RPROIPlugin19getOutputDimensionsEiPKNS_4DimsEi
libnvinfer_plugin.so.5:_ZN8nvinfer16plugin11RPROIPlugin7destroyEv
libnvinfer_plugin.so.5:_ZN8nvinfer16plugin11RPROIPlugin7enqueueEiPKPKvPPvS6_P11CUstream_st
libnvinfer_plugin.so.5:_ZN8nvinfer16plugin11RPROIPlugin9terminateEv
libnvinfer_plugin.so.5:_ZN8nvinfer16plugin11RPROIPluginC1ENS0_11RPROIParamsEPKfS4_
libnvinfer_plugin.so.5:_ZN8nvinfer16plugin11RPROIPluginC1EPKvm
libnvinfer_plugin.so.5:_ZN8nvinfer16plugin11RPROIPluginC2ENS0_11RPROIParamsEPKfS4_
libnvinfer_plugin.so.5:_ZN8nvinfer16plugin11RPROIPluginC2EPKvm
libnvinfer_plugin.so.5:_ZN8nvinfer16plugin11RPROIPluginD0Ev
libnvinfer_plugin.so.5:_ZN8nvinfer16plugin11RPROIPluginD1Ev
libnvinfer_plugin.so.5:_ZN8nvinfer16plugin11RPROIPluginD2Ev
libnvinfer_plugin.so.5:_ZN8nvinfer16plugin11ReorgLegacy10initializeEv
libnvinfer_plugin.so.5:_ZN8nvinfer16plugin11ReorgLegacy19getOutputDimensionsEiPKNS_4DimsEi
libnvinfer_plugin.so.5:_ZN8nvinfer16plugin11ReorgLegacy20getSerializationSizeEv
libnvinfer_plugin.so.5:_ZN8nvinfer16plugin11ReorgLegacy7destroyEv
libnvinfer_plugin.so.5:_ZN8nvinfer16plugin11ReorgLegacy7enqueueEiPKPKvPPvS6_P11CUstream_st
libnvinfer_plugin.so.5:_ZN8nvinfer16plugin11ReorgLegacy9configureEPKNS_4DimsEiS4_ii
libnvinfer_plugin.so.5:_ZN8nvinfer16plugin11ReorgLegacy9serializeEPv
libnvinfer_plugin.so.5:_ZN8nvinfer16plugin11ReorgLegacy9terminateEv
libnvinfer_plugin.so.5:_ZN8nvinfer16plugin11ReorgLegacyC1EPKvm
libnvinfer_plugin.so.5:_ZN8nvinfer16plugin11ReorgLegacyC1Ei
libnvinfer_plugin.so.5:_ZN8nvinfer16plugin11ReorgLegacyC2EPKvm
libnvinfer_plugin.so.5:_ZN8nvinfer16plugin11ReorgLegacyC2Ei
libnvinfer_plugin.so.5:_ZN8nvinfer16plugin11allClassNMSEP11CUstream_stiiiifbbNS_8DataTypeES3_PvS4_S4_S4_S4_
libnvinfer_plugin.so.5:_ZN8nvinfer16plugin11permuteDataEP11CUstream_stiiiiNS_8DataTypeEbPKvPv
libnvinfer_plugin.so.5:_ZN8nvinfer16plugin11priorBoxGpuEP11CUstream_stNS0_18PriorBoxParametersEiiiiPKvS5_S5_Pv
libnvinfer_plugin.so.5:_ZN8nvinfer16plugin12ConcatLegacy10initializeEv
libnvinfer_plugin.so.5:_ZN8nvinfer16plugin12ConcatLegacy19getOutputDimensionsEiPKNS_4DimsEi
libnvinfer_plugin.so.5:_ZN8nvinfer16plugin12ConcatLegacy20getSerializationSizeEv
libnvinfer_plugin.so.5:_ZN8nvinfer16plugin12ConcatLegacy7destroyEv
libnvinfer_plugin.so.5:_ZN8nvinfer16plugin12ConcatLegacy7enqueueEiPKPKvPPvS6_P11CUstream_st
libnvinfer_plugin.so.5:_ZN8nvinfer16plugin12ConcatLegacy9configureEPKNS_4DimsEiS4_ii
libnvinfer_plugin.so.5:_ZN8nvinfer16plugin12ConcatLegacy9serializeEPv
libnvinfer_plugin.so.5:_ZN8nvinfer16plugin12ConcatLegacy9terminateEv
libnvinfer_plugin.so.5:_ZN8nvinfer16plugin12ConcatLegacyC1EPKvm
libnvinfer_plugin.so.5:_ZN8nvinfer16plugin12ConcatLegacyC1Eib
libnvinfer_plugin.so.5:_ZN8nvinfer16plugin12ConcatLegacyC2EPKvm
libnvinfer_plugin.so.5:_ZN8nvinfer16plugin12ConcatLegacyC2Eib
libnvinfer_plugin.so.5:_ZN8nvinfer16plugin12ConcatLegacyD0Ev
libnvinfer_plugin.so.5:_ZN8nvinfer16plugin12ConcatLegacyD1Ev
libnvinfer_plugin.so.5:_ZN8nvinfer16plugin12ConcatLegacyD2Ev
libnvinfer_plugin.so.5:_ZN8nvinfer16plugin12RegionLegacy10initializeEv
libnvinfer_plugin.so.5:_ZN8nvinfer16plugin12RegionLegacy19getOutputDimensionsEiPKNS_4DimsEi
libnvinfer_plugin.so.5:_ZN8nvinfer16plugin12RegionLegacy20getSerializationSizeEv
libnvinfer_plugin.so.5:_ZN8nvinfer16plugin12RegionLegacy7destroyEv
libnvinfer_plugin.so.5:_ZN8nvinfer16plugin12RegionLegacy7enqueueEiPKPKvPPvS6_P11CUstream_st
libnvinfer_plugin.so.5:_ZN8nvinfer16plugin12RegionLegacy9configureEPKNS_4DimsEiS4_ii
libnvinfer_plugin.so.5:_ZN8nvinfer16plugin12RegionLegacy9serializeEPv
libnvinfer_plugin.so.5:_ZN8nvinfer16plugin12RegionLegacy9terminateEv
libnvinfer_plugin.so.5:_ZN8nvinfer16plugin12RegionLegacyC1ENS0_16RegionParametersE
libnvinfer_plugin.so.5:_ZN8nvinfer16plugin12RegionLegacyC1EPKvm
libnvinfer_plugin.so.5:_ZN8nvinfer16plugin12RegionLegacyC2ENS0_16RegionParametersE
libnvinfer_plugin.so.5:_ZN8nvinfer16plugin12RegionLegacyC2EPKvm
libnvinfer_plugin.so.5:_ZN8nvinfer16plugin12decodeBBoxesEP11CUstream_stiNS0_11CodeTypeSSDEbibiibNS_8DataTypeEPKvS6_Pv
libnvinfer_plugin.so.5:_ZN8nvinfer16plugin12squareKernelEiPKfPf
libnvinfer_plugin.so.5:_ZN8nvinfer16plugin13PermuteLegacy10initializeEv
libnvinfer_plugin.so.5:_ZN8nvinfer16plugin13PermuteLegacy19getOutputDimensionsEiPKNS_4DimsEi
libnvinfer_plugin.so.5:_ZN8nvinfer16plugin13PermuteLegacy20getSerializationSizeEv
libnvinfer_plugin.so.5:_ZN8nvinfer16plugin13PermuteLegacy7destroyEv
libnvinfer_plugin.so.5:_ZN8nvinfer16plugin13PermuteLegacy7enqueueEiPKPKvPPvS6_P11CUstream_st
libnvinfer_plugin.so.5:_ZN8nvinfer16plugin13PermuteLegacy9configureEPKNS_4DimsEiS4_ii
libnvinfer_plugin.so.5:_ZN8nvinfer16plugin13PermuteLegacy9serializeEPv
libnvinfer_plugin.so.5:_ZN8nvinfer16plugin13PermuteLegacy9terminateEv
libnvinfer_plugin.so.5:_ZN8nvinfer16plugin13PermuteLegacyC1EPKvm
libnvinfer_plugin.so.5:_ZN8nvinfer16plugin13PermuteLegacyC2EPKvm
libnvinfer_plugin.so.5:_ZN8nvinfer16plugin14PriorBoxLegacy10initializeEv
libnvinfer_plugin.so.5:_ZN8nvinfer16plugin14PriorBoxLegacy12copyToDeviceEPKvm
libnvinfer_plugin.so.5:_ZN8nvinfer16plugin14PriorBoxLegacy19deserializeToDeviceERPKcm
libnvinfer_plugin.so.5:_ZN8nvinfer16plugin14PriorBoxLegacy19getOutputDimensionsEiPKNS_4DimsEi
libnvinfer_plugin.so.5:_ZN8nvinfer16plugin14PriorBoxLegacy19serializeFromDeviceERPcNS_7WeightsE
libnvinfer_plugin.so.5:_ZN8nvinfer16plugin14PriorBoxLegacy20getSerializationSizeEv
libnvinfer_plugin.so.5:_ZN8nvinfer16plugin14PriorBoxLegacy7destroyEv
libnvinfer_plugin.so.5:_ZN8nvinfer16plugin14PriorBoxLegacy7enqueueEiPKPKvPPvS6_P11CUstream_st
libnvinfer_plugin.so.5:_ZN8nvinfer16plugin14PriorBoxLegacy9configureEPKNS_4DimsEiS4_ii
libnvinfer_plugin.so.5:_ZN8nvinfer16plugin14PriorBoxLegacy9serializeEPv
libnvinfer_plugin.so.5:_ZN8nvinfer16plugin14PriorBoxLegacy9terminateEv
libnvinfer_plugin.so.5:_ZN8nvinfer16plugin14PriorBoxLegacyC1ENS0_18PriorBoxParametersE
libnvinfer_plugin.so.5:_ZN8nvinfer16plugin14PriorBoxLegacyC1EPKvm
libnvinfer_plugin.so.5:_ZN8nvinfer16plugin14PriorBoxLegacyC2ENS0_18PriorBoxParametersE
libnvinfer_plugin.so.5:_ZN8nvinfer16plugin14PriorBoxLegacyC2EPKvm
libnvinfer_plugin.so.5:_ZN8nvinfer16plugin14PriorBoxLegacyD0Ev
libnvinfer_plugin.so.5:_ZN8nvinfer16plugin14PriorBoxLegacyD1Ev
libnvinfer_plugin.so.5:_ZN8nvinfer16plugin14PriorBoxLegacyD2Ev
libnvinfer_plugin.so.5:_ZN8nvinfer16plugin14readAnnotationESsbffRSt6vectorINS0_6GTBBoxESaIS2_EERS1_IiSaIiEE
libnvinfer_plugin.so.5:_ZN8nvinfer16plugin15DetectionOutput10initializeEv
libnvinfer_plugin.so.5:_ZN8nvinfer16plugin15DetectionOutput19configureWithFormatEPKNS_4DimsEiS4_iNS_8DataTypeENS_12PluginFormatEi
libnvinfer_plugin.so.5:_ZN8nvinfer16plugin15DetectionOutput19getOutputDimensionsEiPKNS_4DimsEi
libnvinfer_plugin.so.5:_ZN8nvinfer16plugin15DetectionOutput7destroyEv
libnvinfer_plugin.so.5:_ZN8nvinfer16plugin15DetectionOutput7enqueueEiPKPKvPPvS6_P11CUstream_st
libnvinfer_plugin.so.5:_ZN8nvinfer16plugin15DetectionOutput9terminateEv
libnvinfer_plugin.so.5:_ZN8nvinfer16plugin15DetectionOutputC1ENS0_25DetectionOutputParametersE
libnvinfer_plugin.so.5:_ZN8nvinfer16plugin15DetectionOutputC1EPKvm
libnvinfer_plugin.so.5:_ZN8nvinfer16plugin15DetectionOutputC2ENS0_25DetectionOutputParametersE
libnvinfer_plugin.so.5:_ZN8nvinfer16plugin15DetectionOutputC2EPKvm
libnvinfer_plugin.so.5:_ZN8nvinfer16plugin15NormalizeLegacy10initializeEv
libnvinfer_plugin.so.5:_ZN8nvinfer16plugin15NormalizeLegacy12copyToDeviceEPKvm
libnvinfer_plugin.so.5:_ZN8nvinfer16plugin15NormalizeLegacy19deserializeToDeviceERPKcm
libnvinfer_plugin.so.5:_ZN8nvinfer16plugin15NormalizeLegacy19getOutputDimensionsEiPKNS_4DimsEi
libnvinfer_plugin.so.5:_ZN8nvinfer16plugin15NormalizeLegacy19serializeFromDeviceERPcNS_7WeightsE
libnvinfer_plugin.so.5:_ZN8nvinfer16plugin15NormalizeLegacy20getSerializationSizeEv
libnvinfer_plugin.so.5:_ZN8nvinfer16plugin15NormalizeLegacy7destroyEv
libnvinfer_plugin.so.5:_ZN8nvinfer16plugin15NormalizeLegacy7enqueueEiPKPKvPPvS6_P11CUstream_st
libnvinfer_plugin.so.5:_ZN8nvinfer16plugin15NormalizeLegacy9configureEPKNS_4DimsEiS4_ii
libnvinfer_plugin.so.5:_ZN8nvinfer16plugin15NormalizeLegacy9serializeEPv
libnvinfer_plugin.so.5:_ZN8nvinfer16plugin15NormalizeLegacy9terminateEv
libnvinfer_plugin.so.5:_ZN8nvinfer16plugin15NormalizeLegacyC1EPKNS_7WeightsEibbf
libnvinfer_plugin.so.5:_ZN8nvinfer16plugin15NormalizeLegacyC1EPKvm
libnvinfer_plugin.so.5:_ZN8nvinfer16plugin15NormalizeLegacyC2EPKNS_7WeightsEibbf
libnvinfer_plugin.so.5:_ZN8nvinfer16plugin15NormalizeLegacyC2EPKvm
libnvinfer_plugin.so.5:_ZN8nvinfer16plugin15NormalizeLegacyD0Ev
libnvinfer_plugin.so.5:_ZN8nvinfer16plugin15NormalizeLegacyD1Ev
libnvinfer_plugin.so.5:_ZN8nvinfer16plugin15NormalizeLegacyD2Ev
libnvinfer_plugin.so.5:_ZN8nvinfer16plugin15permuteDataInitEv
libnvinfer_plugin.so.5:_ZN8nvinfer16plugin16NMSPluginCreator12createPluginEPKcPKNS_21PluginFieldCollectionE
libnvinfer_plugin.so.5:_ZN8nvinfer16plugin16NMSPluginCreator13getFieldNamesEv
libnvinfer_plugin.so.5:_ZN8nvinfer16plugin16NMSPluginCreator17deserializePluginEPKcPKvm
libnvinfer_plugin.so.5:_ZN8nvinfer16plugin16NMSPluginCreatorC1Ev
libnvinfer_plugin.so.5:_ZN8nvinfer16plugin16NMSPluginCreatorC2Ev
libnvinfer_plugin.so.5:_ZN8nvinfer16plugin16NMSPluginCreatorD0Ev
libnvinfer_plugin.so.5:_ZN8nvinfer16plugin16NMSPluginCreatorD1Ev
libnvinfer_plugin.so.5:_ZN8nvinfer16plugin16NMSPluginCreatorD2Ev
libnvinfer_plugin.so.5:_ZN8nvinfer16plugin16decodeBBoxesInitEv
libnvinfer_plugin.so.5:_ZN8nvinfer16plugin16permuteInferenceEP11CUstream_stbiiPKvS4_S4_S4_Pv
libnvinfer_plugin.so.5:_ZN8nvinfer16plugin17ClipPluginCreator12createPluginEPKcPKNS_21PluginFieldCollectionE
libnvinfer_plugin.so.5:_ZN8nvinfer16plugin17ClipPluginCreator13getFieldNamesEv
libnvinfer_plugin.so.5:_ZN8nvinfer16plugin17ClipPluginCreator17deserializePluginEPKcPKvm
libnvinfer_plugin.so.5:_ZN8nvinfer16plugin17ClipPluginCreatorC1Ev
libnvinfer_plugin.so.5:_ZN8nvinfer16plugin17ClipPluginCreatorC2Ev
libnvinfer_plugin.so.5:_ZN8nvinfer16plugin17ClipPluginCreatorD0Ev
libnvinfer_plugin.so.5:_ZN8nvinfer16plugin17ClipPluginCreatorD1Ev
libnvinfer_plugin.so.5:_ZN8nvinfer16plugin17ClipPluginCreatorD2Ev
libnvinfer_plugin.so.5:_ZN8nvinfer16plugin17RPROIPluginLegacy10copyToHostEPKvi
libnvinfer_plugin.so.5:_ZN8nvinfer16plugin17RPROIPluginLegacy12copyFromHostEPcPKvi
libnvinfer_plugin.so.5:_ZN8nvinfer16plugin17RPROIPluginLegacy19getOutputDimensionsEiPKNS_4DimsEi
libnvinfer_plugin.so.5:_ZN8nvinfer16plugin17RPROIPluginLegacy20getSerializationSizeEv
libnvinfer_plugin.so.5:_ZN8nvinfer16plugin17RPROIPluginLegacy7destroyEv
libnvinfer_plugin.so.5:_ZN8nvinfer16plugin17RPROIPluginLegacy7enqueueEiPKPKvPPvS6_P11CUstream_st
libnvinfer_plugin.so.5:_ZN8nvinfer16plugin17RPROIPluginLegacy9configureEPKNS_4DimsEiS4_ii
libnvinfer_plugin.so.5:_ZN8nvinfer16plugin17RPROIPluginLegacy9serializeEPv
libnvinfer_plugin.so.5:_ZN8nvinfer16plugin17RPROIPluginLegacyC1ENS0_17RPROIParamsLegacyEPKfS4_
libnvinfer_plugin.so.5:_ZN8nvinfer16plugin17RPROIPluginLegacyC1EPKvm
libnvinfer_plugin.so.5:_ZN8nvinfer16plugin17RPROIPluginLegacyC2ENS0_17RPROIParamsLegacyEPKfS4_
libnvinfer_plugin.so.5:_ZN8nvinfer16plugin17RPROIPluginLegacyC2EPKvm
libnvinfer_plugin.so.5:_ZN8nvinfer16plugin17RPROIPluginLegacyD0Ev
libnvinfer_plugin.so.5:_ZN8nvinfer16plugin17RPROIPluginLegacyD1Ev
libnvinfer_plugin.so.5:_ZN8nvinfer16plugin17RPROIPluginLegacyD2Ev
libnvinfer_plugin.so.5:_ZN8nvinfer16plugin17createPReLUPluginEPKvm
libnvinfer_plugin.so.5:_ZN8nvinfer16plugin17createPReLUPluginEf
libnvinfer_plugin.so.5:_ZN8nvinfer16plugin17evaluateDetectionERSt6vectorIS1_ISt4pairIfiESaIS3_EESaIS5_EES8_RS1_IiSaIiEERS1_IS1_IfSaIfEESaISD_EESG_RSD_Rf
libnvinfer_plugin.so.5:_ZN8nvinfer16plugin17priorBoxInferenceEP11CUstream_stNS0_18PriorBoxParametersEiiiiPKvS5_S5_Pv
libnvinfer_plugin.so.5:_ZN8nvinfer16plugin17scalChannelKernelEiiPKfS2_Pf
libnvinfer_plugin.so.5:_ZN8nvinfer16plugin18LReluPluginCreator12createPluginEPKcPKNS_21PluginFieldCollectionE
libnvinfer_plugin.so.5:_ZN8nvinfer16plugin18LReluPluginCreator13getFieldNamesEv
libnvinfer_plugin.so.5:_ZN8nvinfer16plugin18LReluPluginCreator17deserializePluginEPKcPKvm
libnvinfer_plugin.so.5:_ZN8nvinfer16plugin18LReluPluginCreatorC1Ev
libnvinfer_plugin.so.5:_ZN8nvinfer16plugin18LReluPluginCreatorC2Ev
libnvinfer_plugin.so.5:_ZN8nvinfer16plugin18LReluPluginCreatorD0Ev
libnvinfer_plugin.so.5:_ZN8nvinfer16plugin18LReluPluginCreatorD1Ev
libnvinfer_plugin.so.5:_ZN8nvinfer16plugin18LReluPluginCreatorD2Ev
libnvinfer_plugin.so.5:_ZN8nvinfer16plugin18RPROIPluginCreator12createPluginEPKcPKNS_21PluginFieldCollectionE
libnvinfer_plugin.so.5:_ZN8nvinfer16plugin18RPROIPluginCreator13getFieldNamesEv
libnvinfer_plugin.so.5:_ZN8nvinfer16plugin18RPROIPluginCreator17deserializePluginEPKcPKvm
libnvinfer_plugin.so.5:_ZN8nvinfer16plugin18RPROIPluginCreatorC1Ev
libnvinfer_plugin.so.5:_ZN8nvinfer16plugin18RPROIPluginCreatorC2Ev
libnvinfer_plugin.so.5:_ZN8nvinfer16plugin18RPROIPluginCreatorD0Ev
libnvinfer_plugin.so.5:_ZN8nvinfer16plugin18RPROIPluginCreatorD1Ev
libnvinfer_plugin.so.5:_ZN8nvinfer16plugin18RPROIPluginCreatorD2Ev
libnvinfer_plugin.so.5:_ZN8nvinfer16plugin18ReorgPluginCreator12createPluginEPKcPKNS_21PluginFieldCollectionE
libnvinfer_plugin.so.5:_ZN8nvinfer16plugin18ReorgPluginCreator13getFieldNamesEv
libnvinfer_plugin.so.5:_ZN8nvinfer16plugin18ReorgPluginCreator17deserializePluginEPKcPKvm
libnvinfer_plugin.so.5:_ZN8nvinfer16plugin18ReorgPluginCreatorC1Ev
libnvinfer_plugin.so.5:_ZN8nvinfer16plugin18ReorgPluginCreatorC2Ev
libnvinfer_plugin.so.5:_ZN8nvinfer16plugin18ReorgPluginCreatorD0Ev
libnvinfer_plugin.so.5:_ZN8nvinfer16plugin18ReorgPluginCreatorD1Ev
libnvinfer_plugin.so.5:_ZN8nvinfer16plugin18ReorgPluginCreatorD2Ev
libnvinfer_plugin.so.5:_ZN8nvinfer16plugin18createConcatPluginEPKvm
libnvinfer_plugin.so.5:_ZN8nvinfer16plugin18createConcatPluginEib
libnvinfer_plugin.so.5:_ZN8nvinfer16plugin18detectionInferenceEP11CUstream_stiiibbiiiiiffNS0_11CodeTypeSSDENS_8DataTypeEPKvS6_S4_S6_PvS7_S7_bb
libnvinfer_plugin.so.5:_ZN8nvinfer16plugin18normalizeInferenceEP11CUstream_stP13cublasContextbbiiiifPKvS6_PvS7_
libnvinfer_plugin.so.5:_ZN8nvinfer16plugin18sortScoresPerClassEP11CUstream_stiiiifNS_8DataTypeEPvS4_S4_
libnvinfer_plugin.so.5:_ZN8nvinfer16plugin18sortScoresPerImageEP11CUstream_stiiNS_8DataTypeEPvS4_S4_S4_S4_
libnvinfer_plugin.so.5:_ZN8nvinfer16plugin19GridAnchorGenerator10initializeEv
libnvinfer_plugin.so.5:_ZN8nvinfer16plugin19GridAnchorGenerator12copyToDeviceEPKvm
libnvinfer_plugin.so.5:_ZN8nvinfer16plugin19GridAnchorGenerator19configureWithFormatEPKNS_4DimsEiS4_iNS_8DataTypeENS_12PluginFormatEi
libnvinfer_plugin.so.5:_ZN8nvinfer16plugin19GridAnchorGenerator19deserializeToDeviceERPKcm
libnvinfer_plugin.so.5:_ZN8nvinfer16plugin19GridAnchorGenerator19getOutputDimensionsEiPKNS_4DimsEi
libnvinfer_plugin.so.5:_ZN8nvinfer16plugin19GridAnchorGenerator7destroyEv
libnvinfer_plugin.so.5:_ZN8nvinfer16plugin19GridAnchorGenerator7enqueueEiPKPKvPPvS6_P11CUstream_st
libnvinfer_plugin.so.5:_ZN8nvinfer16plugin19GridAnchorGenerator9terminateEv
libnvinfer_plugin.so.5:_ZN8nvinfer16plugin19GridAnchorGeneratorC1EPKNS0_20GridAnchorParametersEi
libnvinfer_plugin.so.5:_ZN8nvinfer16plugin19GridAnchorGeneratorC1EPKvm
libnvinfer_plugin.so.5:_ZN8nvinfer16plugin19GridAnchorGeneratorC2EPKNS0_20GridAnchorParametersEi
libnvinfer_plugin.so.5:_ZN8nvinfer16plugin19GridAnchorGeneratorC2EPKvm
libnvinfer_plugin.so.5:_ZN8nvinfer16plugin19GridAnchorGeneratorD0Ev
libnvinfer_plugin.so.5:_ZN8nvinfer16plugin19GridAnchorGeneratorD1Ev
libnvinfer_plugin.so.5:_ZN8nvinfer16plugin19GridAnchorGeneratorD2Ev
libnvinfer_plugin.so.5:_ZN8nvinfer16plugin19RegionPluginCreator12createPluginEPKcPKNS_21PluginFieldCollectionE
libnvinfer_plugin.so.5:_ZN8nvinfer16plugin19RegionPluginCreator13getFieldNamesEv
libnvinfer_plugin.so.5:_ZN8nvinfer16plugin19RegionPluginCreator17deserializePluginEPKcPKvm
libnvinfer_plugin.so.5:_ZN8nvinfer16plugin19RegionPluginCreatorC1Ev
libnvinfer_plugin.so.5:_ZN8nvinfer16plugin19RegionPluginCreatorC2Ev
libnvinfer_plugin.so.5:_ZN8nvinfer16plugin19RegionPluginCreatorD0Ev
libnvinfer_plugin.so.5:_ZN8nvinfer16plugin19RegionPluginCreatorD1Ev
libnvinfer_plugin.so.5:_ZN8nvinfer16plugin19RegionPluginCreatorD2Ev
libnvinfer_plugin.so.5:_ZN8nvinfer16plugin19anchorGridInferenceEP11CUstream_stNS0_20GridAnchorParametersEiPKvS5_Pv
libnvinfer_plugin.so.5:_ZN8nvinfer16plugin19gatherTopDetectionsEP11CUstream_stbiiiiiNS_8DataTypeES3_PKvS5_S5_PvS6_
libnvinfer_plugin.so.5:_ZN8nvinfer16plugin21DetectionOutputLegacy10initializeEv
libnvinfer_plugin.so.5:_ZN8nvinfer16plugin21DetectionOutputLegacy19getOutputDimensionsEiPKNS_4DimsEi
libnvinfer_plugin.so.5:_ZN8nvinfer16plugin21DetectionOutputLegacy20getSerializationSizeEv
libnvinfer_plugin.so.5:_ZN8nvinfer16plugin21DetectionOutputLegacy7destroyEv
libnvinfer_plugin.so.5:_ZN8nvinfer16plugin21DetectionOutputLegacy7enqueueEiPKPKvPPvS6_P11CUstream_st
libnvinfer_plugin.so.5:_ZN8nvinfer16plugin21DetectionOutputLegacy9configureEPKNS_4DimsEiS4_ii
libnvinfer_plugin.so.5:_ZN8nvinfer16plugin21DetectionOutputLegacy9serializeEPv
libnvinfer_plugin.so.5:_ZN8nvinfer16plugin21DetectionOutputLegacy9terminateEv
libnvinfer_plugin.so.5:_ZN8nvinfer16plugin21DetectionOutputLegacyC1EPKvm
libnvinfer_plugin.so.5:_ZN8nvinfer16plugin21DetectionOutputLegacyC2EPKvm
libnvinfer_plugin.so.5:_ZN8nvinfer16plugin21PriorBoxPluginCreator12createPluginEPKcPKNS_21PluginFieldCollectionE
libnvinfer_plugin.so.5:_ZN8nvinfer16plugin21PriorBoxPluginCreator13getFieldNamesEv
libnvinfer_plugin.so.5:_ZN8nvinfer16plugin21PriorBoxPluginCreator17deserializePluginEPKcPKvm
libnvinfer_plugin.so.5:_ZN8nvinfer16plugin21PriorBoxPluginCreatorC1Ev
libnvinfer_plugin.so.5:_ZN8nvinfer16plugin21PriorBoxPluginCreatorC2Ev
libnvinfer_plugin.so.5:_ZN8nvinfer16plugin21PriorBoxPluginCreatorD0Ev
libnvinfer_plugin.so.5:_ZN8nvinfer16plugin21PriorBoxPluginCreatorD1Ev
libnvinfer_plugin.so.5:_ZN8nvinfer16plugin21PriorBoxPluginCreatorD2Ev
libnvinfer_plugin.so.5:_ZN8nvinfer16plugin21createYOLOReorgPluginEPKvm
libnvinfer_plugin.so.5:_ZN8nvinfer16plugin21createYOLOReorgPluginEi
libnvinfer_plugin.so.5:_ZN8nvinfer16plugin22NormalizePluginCreator12createPluginEPKcPKNS_21PluginFieldCollectionE
libnvinfer_plugin.so.5:_ZN8nvinfer16plugin22NormalizePluginCreator13getFieldNamesEv
libnvinfer_plugin.so.5:_ZN8nvinfer16plugin22NormalizePluginCreator17deserializePluginEPKcPKvm
libnvinfer_plugin.so.5:_ZN8nvinfer16plugin22NormalizePluginCreatorC1Ev
libnvinfer_plugin.so.5:_ZN8nvinfer16plugin22NormalizePluginCreatorC2Ev
libnvinfer_plugin.so.5:_ZN8nvinfer16plugin22NormalizePluginCreatorD0Ev
libnvinfer_plugin.so.5:_ZN8nvinfer16plugin22NormalizePluginCreatorD1Ev
libnvinfer_plugin.so.5:_ZN8nvinfer16plugin22NormalizePluginCreatorD2Ev
libnvinfer_plugin.so.5:_ZN8nvinfer16plugin22createFasterRCNNPluginEPKvm
libnvinfer_plugin.so.5:_ZN8nvinfer16plugin22createFasterRCNNPluginEiiifffNS_6DimsHWENS_7WeightsES2_
libnvinfer_plugin.so.5:_ZN8nvinfer16plugin22createSSDPermutePluginENS0_9QuadrupleE
libnvinfer_plugin.so.5:_ZN8nvinfer16plugin22createSSDPermutePluginEPKvm
libnvinfer_plugin.so.5:_ZN8nvinfer16plugin22createYOLORegionPluginENS0_16RegionParametersE
libnvinfer_plugin.so.5:_ZN8nvinfer16plugin22createYOLORegionPluginEPKvm
libnvinfer_plugin.so.5:_ZN8nvinfer16plugin23GridAnchorPluginCreator12createPluginEPKcPKNS_21PluginFieldCollectionE
libnvinfer_plugin.so.5:_ZN8nvinfer16plugin23GridAnchorPluginCreator13getFieldNamesEv
libnvinfer_plugin.so.5:_ZN8nvinfer16plugin23GridAnchorPluginCreator17deserializePluginEPKcPKvm
libnvinfer_plugin.so.5:_ZN8nvinfer16plugin23GridAnchorPluginCreatorC1Ev
libnvinfer_plugin.so.5:_ZN8nvinfer16plugin23GridAnchorPluginCreatorC2Ev
libnvinfer_plugin.so.5:_ZN8nvinfer16plugin23GridAnchorPluginCreatorD0Ev
libnvinfer_plugin.so.5:_ZN8nvinfer16plugin23GridAnchorPluginCreatorD1Ev
libnvinfer_plugin.so.5:_ZN8nvinfer16plugin23GridAnchorPluginCreatorD2Ev
libnvinfer_plugin.so.5:_ZN8nvinfer16plugin23createSSDPriorBoxPluginENS0_18PriorBoxParametersE
libnvinfer_plugin.so.5:_ZN8nvinfer16plugin23createSSDPriorBoxPluginEPKvm
libnvinfer_plugin.so.5:_ZN8nvinfer16plugin24createSSDNormalizePluginEPKNS_7WeightsEbbf
libnvinfer_plugin.so.5:_ZN8nvinfer16plugin24createSSDNormalizePluginEPKvm
libnvinfer_plugin.so.5:_ZN8nvinfer16plugin25GridAnchorGeneratorLegacy10initializeEv
libnvinfer_plugin.so.5:_ZN8nvinfer16plugin25GridAnchorGeneratorLegacy12copyToDeviceEPKvm
libnvinfer_plugin.so.5:_ZN8nvinfer16plugin25GridAnchorGeneratorLegacy19deserializeToDeviceERPKcm
libnvinfer_plugin.so.5:_ZN8nvinfer16plugin25GridAnchorGeneratorLegacy19getOutputDimensionsEiPKNS_4DimsEi
libnvinfer_plugin.so.5:_ZN8nvinfer16plugin25GridAnchorGeneratorLegacy19serializeFromDeviceERPcNS_7WeightsE
libnvinfer_plugin.so.5:_ZN8nvinfer16plugin25GridAnchorGeneratorLegacy20getSerializationSizeEv
libnvinfer_plugin.so.5:_ZN8nvinfer16plugin25GridAnchorGeneratorLegacy7destroyEv
libnvinfer_plugin.so.5:_ZN8nvinfer16plugin25GridAnchorGeneratorLegacy7enqueueEiPKPKvPPvS6_P11CUstream_st
libnvinfer_plugin.so.5:_ZN8nvinfer16plugin25GridAnchorGeneratorLegacy9configureEPKNS_4DimsEiS4_ii
libnvinfer_plugin.so.5:_ZN8nvinfer16plugin25GridAnchorGeneratorLegacy9serializeEPv
libnvinfer_plugin.so.5:_ZN8nvinfer16plugin25GridAnchorGeneratorLegacy9terminateEv
libnvinfer_plugin.so.5:_ZN8nvinfer16plugin25GridAnchorGeneratorLegacyC1EPKvm
libnvinfer_plugin.so.5:_ZN8nvinfer16plugin25GridAnchorGeneratorLegacyC1EPNS0_20GridAnchorParametersEi
libnvinfer_plugin.so.5:_ZN8nvinfer16plugin25GridAnchorGeneratorLegacyC2EPKvm
libnvinfer_plugin.so.5:_ZN8nvinfer16plugin25GridAnchorGeneratorLegacyC2EPNS0_20GridAnchorParametersEi
libnvinfer_plugin.so.5:_ZN8nvinfer16plugin25GridAnchorGeneratorLegacyD0Ev
libnvinfer_plugin.so.5:_ZN8nvinfer16plugin25GridAnchorGeneratorLegacyD1Ev
libnvinfer_plugin.so.5:_ZN8nvinfer16plugin25GridAnchorGeneratorLegacyD2Ev
libnvinfer_plugin.so.5:_ZN8nvinfer16plugin26detectionForwardPreNMSSizeEii
libnvinfer_plugin.so.5:_ZN8nvinfer16plugin27detectionForwardPostNMSSizeEiii
libnvinfer_plugin.so.5:_ZN8nvinfer16plugin28detectionForwardBBoxDataSizeEiiNS_8DataTypeE
libnvinfer_plugin.so.5:_ZN8nvinfer16plugin28normalizeNotAcrossSpatialGpuEP11CUstream_stbiiiifPKvS4_Pv
libnvinfer_plugin.so.5:_ZN8nvinfer16plugin28normalizePluginWorkspaceSizeEbiii
libnvinfer_plugin.so.5:_ZN8nvinfer16plugin30createSSDAnchorGeneratorPluginEPKvm
libnvinfer_plugin.so.5:_ZN8nvinfer16plugin30createSSDAnchorGeneratorPluginEPNS0_20GridAnchorParametersEi
libnvinfer_plugin.so.5:_ZN8nvinfer16plugin30createSSDDetectionOutputPluginENS0_25DetectionOutputParametersE
libnvinfer_plugin.so.5:_ZN8nvinfer16plugin30createSSDDetectionOutputPluginEPKvm
libnvinfer_plugin.so.5:_ZN8nvinfer16plugin31detectionForwardBBoxPermuteSizeEbiiNS_8DataTypeE
libnvinfer_plugin.so.5:_ZN8nvinfer16plugin31detectionInferenceWorkspaceSizeEbiiiiiiNS_8DataTypeES1_
libnvinfer_plugin.so.5:_ZN8nvinfer16plugin31sortScoresPerClassWorkspaceSizeEiiiNS_8DataTypeE
libnvinfer_plugin.so.5:_ZN8nvinfer16plugin31sortScoresPerImageWorkspaceSizeEiiNS_8DataTypeE
libnvinfer_plugin.so.5:_ZN8nvinfer16plugin5LReLU10initializeEv
libnvinfer_plugin.so.5:_ZN8nvinfer16plugin5LReLU19configureWithFormatEPKNS_4DimsEiS4_iNS_8DataTypeENS_12PluginFormatEi
libnvinfer_plugin.so.5:_ZN8nvinfer16plugin5LReLU19getOutputDimensionsEiPKNS_4DimsEi
libnvinfer_plugin.so.5:_ZN8nvinfer16plugin5LReLU7destroyEv
libnvinfer_plugin.so.5:_ZN8nvinfer16plugin5LReLU7enqueueEiPKPKvPPvS6_P11CUstream_st
libnvinfer_plugin.so.5:_ZN8nvinfer16plugin5LReLU9terminateEv
libnvinfer_plugin.so.5:_ZN8nvinfer16plugin5LReLUC1EPKvm
libnvinfer_plugin.so.5:_ZN8nvinfer16plugin5LReLUC1Ef
libnvinfer_plugin.so.5:_ZN8nvinfer16plugin5LReLUC2EPKvm
libnvinfer_plugin.so.5:_ZN8nvinfer16plugin5LReLUC2Ef
libnvinfer_plugin.so.5:_ZN8nvinfer16plugin5Reorg10initializeEv
libnvinfer_plugin.so.5:_ZN8nvinfer16plugin5Reorg19configureWithFormatEPKNS_4DimsEiS4_iNS_8DataTypeENS_12PluginFormatEi
libnvinfer_plugin.so.5:_ZN8nvinfer16plugin5Reorg19getOutputDimensionsEiPKNS_4DimsEi
libnvinfer_plugin.so.5:_ZN8nvinfer16plugin5Reorg7destroyEv
libnvinfer_plugin.so.5:_ZN8nvinfer16plugin5Reorg7enqueueEiPKPKvPPvS6_P11CUstream_st
libnvinfer_plugin.so.5:_ZN8nvinfer16plugin5Reorg9terminateEv
libnvinfer_plugin.so.5:_ZN8nvinfer16plugin5ReorgC1EPKvm
libnvinfer_plugin.so.5:_ZN8nvinfer16plugin5ReorgC1Ei
libnvinfer_plugin.so.5:_ZN8nvinfer16plugin5ReorgC2EPKvm
libnvinfer_plugin.so.5:_ZN8nvinfer16plugin5ReorgC2Ei
libnvinfer_plugin.so.5:_ZN8nvinfer16plugin6Region10initializeEv
libnvinfer_plugin.so.5:_ZN8nvinfer16plugin6Region19configureWithFormatEPKNS_4DimsEiS4_iNS_8DataTypeENS_12PluginFormatEi
libnvinfer_plugin.so.5:_ZN8nvinfer16plugin6Region19getOutputDimensionsEiPKNS_4DimsEi
libnvinfer_plugin.so.5:_ZN8nvinfer16plugin6Region7destroyEv
libnvinfer_plugin.so.5:_ZN8nvinfer16plugin6Region7enqueueEiPKPKvPPvS6_P11CUstream_st
libnvinfer_plugin.so.5:_ZN8nvinfer16plugin6Region9terminateEv
libnvinfer_plugin.so.5:_ZN8nvinfer16plugin6RegionC1ENS0_16RegionParametersE
libnvinfer_plugin.so.5:_ZN8nvinfer16plugin6RegionC1EPKvm
libnvinfer_plugin.so.5:_ZN8nvinfer16plugin6RegionC2ENS0_16RegionParametersE
libnvinfer_plugin.so.5:_ZN8nvinfer16plugin6RegionC2EPKvm
libnvinfer_plugin.so.5:_ZN8nvinfer16plugin7Permute10initializeEv
libnvinfer_plugin.so.5:_ZN8nvinfer16plugin7Permute19getOutputDimensionsEiPKNS_4DimsEi
libnvinfer_plugin.so.5:_ZN8nvinfer16plugin7Permute20getSerializationSizeEv
libnvinfer_plugin.so.5:_ZN8nvinfer16plugin7Permute7destroyEv
libnvinfer_plugin.so.5:_ZN8nvinfer16plugin7Permute7enqueueEiPKPKvPPvS6_P11CUstream_st
libnvinfer_plugin.so.5:_ZN8nvinfer16plugin7Permute9configureEPKNS_4DimsEiS4_ii
libnvinfer_plugin.so.5:_ZN8nvinfer16plugin7Permute9serializeEPv
libnvinfer_plugin.so.5:_ZN8nvinfer16plugin7Permute9terminateEv
libnvinfer_plugin.so.5:_ZN8nvinfer16plugin7PermuteC1EPKvm
libnvinfer_plugin.so.5:_ZN8nvinfer16plugin7PermuteC2EPKvm
libnvinfer_plugin.so.5:_ZN8nvinfer16plugin7gtdInitEv
libnvinfer_plugin.so.5:_ZN8nvinfer16plugin7nmsInitEv
libnvinfer_plugin.so.5:_ZN8nvinfer16plugin8PriorBox10initializeEv
libnvinfer_plugin.so.5:_ZN8nvinfer16plugin8PriorBox12copyToDeviceEPKvm
libnvinfer_plugin.so.5:_ZN8nvinfer16plugin8PriorBox19configureWithFormatEPKNS_4DimsEiS4_iNS_8DataTypeENS_12PluginFormatEi
libnvinfer_plugin.so.5:_ZN8nvinfer16plugin8PriorBox19deserializeToDeviceERPKcm
libnvinfer_plugin.so.5:_ZN8nvinfer16plugin8PriorBox19getOutputDimensionsEiPKNS_4DimsEi
libnvinfer_plugin.so.5:_ZN8nvinfer16plugin8PriorBox7destroyEv
libnvinfer_plugin.so.5:_ZN8nvinfer16plugin8PriorBox7enqueueEiPKPKvPPvS6_P11CUstream_st
libnvinfer_plugin.so.5:_ZN8nvinfer16plugin8PriorBox9terminateEv
libnvinfer_plugin.so.5:_ZN8nvinfer16plugin8PriorBoxC1ENS0_18PriorBoxParametersE
libnvinfer_plugin.so.5:_ZN8nvinfer16plugin8PriorBoxC1EPKvm
libnvinfer_plugin.so.5:_ZN8nvinfer16plugin8PriorBoxC2ENS0_18PriorBoxParametersE
libnvinfer_plugin.so.5:_ZN8nvinfer16plugin8PriorBoxC2EPKvm
libnvinfer_plugin.so.5:_ZN8nvinfer16plugin8sspcInitEv
libnvinfer_plugin.so.5:_ZN8nvinfer16plugin8sspiInitEv
libnvinfer_plugin.so.5:_ZN8nvinfer16plugin9Normalize10initializeEv
libnvinfer_plugin.so.5:_ZN8nvinfer16plugin9Normalize12copyToDeviceEPKvm
libnvinfer_plugin.so.5:_ZN8nvinfer16plugin9Normalize19configureWithFormatEPKNS_4DimsEiS4_iNS_8DataTypeENS_12PluginFormatEi
libnvinfer_plugin.so.5:_ZN8nvinfer16plugin9Normalize19deserializeToDeviceERPKcm
libnvinfer_plugin.so.5:_ZN8nvinfer16plugin9Normalize19getOutputDimensionsEiPKNS_4DimsEi
libnvinfer_plugin.so.5:_ZN8nvinfer16plugin9Normalize7destroyEv
libnvinfer_plugin.so.5:_ZN8nvinfer16plugin9Normalize7enqueueEiPKPKvPPvS6_P11CUstream_st
libnvinfer_plugin.so.5:_ZN8nvinfer16plugin9Normalize9terminateEv
libnvinfer_plugin.so.5:_ZN8nvinfer16plugin9NormalizeC1EPKNS_7WeightsEibbf
libnvinfer_plugin.so.5:_ZN8nvinfer16plugin9NormalizeC1EPKvm
libnvinfer_plugin.so.5:_ZN8nvinfer16plugin9NormalizeC2EPKNS_7WeightsEibbf
libnvinfer_plugin.so.5:_ZN8nvinfer16plugin9NormalizeC2EPKvm
libnvinfer_plugin.so.5:_ZNK8nvinfer16plugin10ClipPlugin12getNbOutputsEv
libnvinfer_plugin.so.5:_ZNK8nvinfer16plugin10ClipPlugin13getPluginTypeEv
libnvinfer_plugin.so.5:_ZNK8nvinfer16plugin10ClipPlugin14supportsFormatENS_8DataTypeENS_12PluginFormatE
libnvinfer_plugin.so.5:_ZNK8nvinfer16plugin10ClipPlugin16getPluginVersionEv
libnvinfer_plugin.so.5:_ZNK8nvinfer16plugin10ClipPlugin20getSerializationSizeEv
libnvinfer_plugin.so.5:_ZNK8nvinfer16plugin10ClipPlugin5cloneEv
libnvinfer_plugin.so.5:_ZNK8nvinfer16plugin10ClipPlugin9serializeEPv
libnvinfer_plugin.so.5:_ZNK8nvinfer16plugin11PReLULegacy12getNbOutputsEv
libnvinfer_plugin.so.5:_ZNK8nvinfer16plugin11PReLULegacy13getPluginTypeEv
libnvinfer_plugin.so.5:_ZNK8nvinfer16plugin11PReLULegacy16getWorkspaceSizeEi
libnvinfer_plugin.so.5:_ZNK8nvinfer16plugin11PReLULegacy7getNameEv
libnvinfer_plugin.so.5:_ZNK8nvinfer16plugin11RPROIPlugin12copyFromHostEPcPKvi
libnvinfer_plugin.so.5:_ZNK8nvinfer16plugin11RPROIPlugin12getNbOutputsEv
libnvinfer_plugin.so.5:_ZNK8nvinfer16plugin11RPROIPlugin13getPluginTypeEv
libnvinfer_plugin.so.5:_ZNK8nvinfer16plugin11RPROIPlugin14supportsFormatENS_8DataTypeENS_12PluginFormatE
libnvinfer_plugin.so.5:_ZNK8nvinfer16plugin11RPROIPlugin16getPluginVersionEv
libnvinfer_plugin.so.5:_ZNK8nvinfer16plugin11RPROIPlugin16getWorkspaceSizeEi
libnvinfer_plugin.so.5:_ZNK8nvinfer16plugin11RPROIPlugin20getSerializationSizeEv
libnvinfer_plugin.so.5:_ZNK8nvinfer16plugin11RPROIPlugin5cloneEv
libnvinfer_plugin.so.5:_ZNK8nvinfer16plugin11RPROIPlugin9serializeEPv
libnvinfer_plugin.so.5:_ZNK8nvinfer16plugin11ReorgLegacy12getNbOutputsEv
libnvinfer_plugin.so.5:_ZNK8nvinfer16plugin11ReorgLegacy13getPluginTypeEv
libnvinfer_plugin.so.5:_ZNK8nvinfer16plugin11ReorgLegacy16getWorkspaceSizeEi
libnvinfer_plugin.so.5:_ZNK8nvinfer16plugin11ReorgLegacy7getNameEv
libnvinfer_plugin.so.5:_ZNK8nvinfer16plugin12ConcatLegacy12getNbOutputsEv
libnvinfer_plugin.so.5:_ZNK8nvinfer16plugin12ConcatLegacy13getPluginTypeEv
libnvinfer_plugin.so.5:_ZNK8nvinfer16plugin12ConcatLegacy16getWorkspaceSizeEi
libnvinfer_plugin.so.5:_ZNK8nvinfer16plugin12ConcatLegacy7getNameEv
libnvinfer_plugin.so.5:_ZNK8nvinfer16plugin12RegionLegacy12getNbOutputsEv
libnvinfer_plugin.so.5:_ZNK8nvinfer16plugin12RegionLegacy13getPluginTypeEv
libnvinfer_plugin.so.5:_ZNK8nvinfer16plugin12RegionLegacy16getWorkspaceSizeEi
libnvinfer_plugin.so.5:_ZNK8nvinfer16plugin12RegionLegacy7getNameEv
libnvinfer_plugin.so.5:_ZNK8nvinfer16plugin13PermuteLegacy12getNbOutputsEv
libnvinfer_plugin.so.5:_ZNK8nvinfer16plugin13PermuteLegacy13getPluginTypeEv
libnvinfer_plugin.so.5:_ZNK8nvinfer16plugin13PermuteLegacy16getWorkspaceSizeEi
libnvinfer_plugin.so.5:_ZNK8nvinfer16plugin13PermuteLegacy7getNameEv
libnvinfer_plugin.so.5:_ZNK8nvinfer16plugin14PriorBoxLegacy12getNbOutputsEv
libnvinfer_plugin.so.5:_ZNK8nvinfer16plugin14PriorBoxLegacy13getPluginTypeEv
libnvinfer_plugin.so.5:_ZNK8nvinfer16plugin14PriorBoxLegacy16getWorkspaceSizeEi
libnvinfer_plugin.so.5:_ZNK8nvinfer16plugin14PriorBoxLegacy7getNameEv
libnvinfer_plugin.so.5:_ZNK8nvinfer16plugin15DetectionOutput12getNbOutputsEv
libnvinfer_plugin.so.5:_ZNK8nvinfer16plugin15DetectionOutput13getPluginTypeEv
libnvinfer_plugin.so.5:_ZNK8nvinfer16plugin15DetectionOutput14supportsFormatENS_8DataTypeENS_12PluginFormatE
libnvinfer_plugin.so.5:_ZNK8nvinfer16plugin15DetectionOutput16getPluginVersionEv
libnvinfer_plugin.so.5:_ZNK8nvinfer16plugin15DetectionOutput16getWorkspaceSizeEi
libnvinfer_plugin.so.5:_ZNK8nvinfer16plugin15DetectionOutput20getSerializationSizeEv
libnvinfer_plugin.so.5:_ZNK8nvinfer16plugin15DetectionOutput5cloneEv
libnvinfer_plugin.so.5:_ZNK8nvinfer16plugin15DetectionOutput9serializeEPv
libnvinfer_plugin.so.5:_ZNK8nvinfer16plugin15NormalizeLegacy12getNbOutputsEv
libnvinfer_plugin.so.5:_ZNK8nvinfer16plugin15NormalizeLegacy13getPluginTypeEv
libnvinfer_plugin.so.5:_ZNK8nvinfer16plugin15NormalizeLegacy16getWorkspaceSizeEi
libnvinfer_plugin.so.5:_ZNK8nvinfer16plugin15NormalizeLegacy7getNameEv
libnvinfer_plugin.so.5:_ZNK8nvinfer16plugin16NMSPluginCreator13getPluginNameEv
libnvinfer_plugin.so.5:_ZNK8nvinfer16plugin16NMSPluginCreator16getPluginVersionEv
libnvinfer_plugin.so.5:_ZNK8nvinfer16plugin17ClipPluginCreator13getPluginNameEv
libnvinfer_plugin.so.5:_ZNK8nvinfer16plugin17ClipPluginCreator16getPluginVersionEv
libnvinfer_plugin.so.5:_ZNK8nvinfer16plugin17RPROIPluginLegacy12getNbOutputsEv
libnvinfer_plugin.so.5:_ZNK8nvinfer16plugin17RPROIPluginLegacy13getPluginTypeEv
libnvinfer_plugin.so.5:_ZNK8nvinfer16plugin17RPROIPluginLegacy16getWorkspaceSizeEi
libnvinfer_plugin.so.5:_ZNK8nvinfer16plugin17RPROIPluginLegacy7getNameEv
libnvinfer_plugin.so.5:_ZNK8nvinfer16plugin18LReluPluginCreator13getPluginNameEv
libnvinfer_plugin.so.5:_ZNK8nvinfer16plugin18LReluPluginCreator16getPluginVersionEv
libnvinfer_plugin.so.5:_ZNK8nvinfer16plugin18RPROIPluginCreator13getPluginNameEv
libnvinfer_plugin.so.5:_ZNK8nvinfer16plugin18RPROIPluginCreator16getPluginVersionEv
libnvinfer_plugin.so.5:_ZNK8nvinfer16plugin18ReorgPluginCreator13getPluginNameEv
libnvinfer_plugin.so.5:_ZNK8nvinfer16plugin18ReorgPluginCreator16getPluginVersionEv
libnvinfer_plugin.so.5:_ZNK8nvinfer16plugin19GridAnchorGenerator12getNbOutputsEv
libnvinfer_plugin.so.5:_ZNK8nvinfer16plugin19GridAnchorGenerator13getPluginTypeEv
libnvinfer_plugin.so.5:_ZNK8nvinfer16plugin19GridAnchorGenerator14supportsFormatENS_8DataTypeENS_12PluginFormatE
libnvinfer_plugin.so.5:_ZNK8nvinfer16plugin19GridAnchorGenerator16getPluginVersionEv
libnvinfer_plugin.so.5:_ZNK8nvinfer16plugin19GridAnchorGenerator16getWorkspaceSizeEi
libnvinfer_plugin.so.5:_ZNK8nvinfer16plugin19GridAnchorGenerator19serializeFromDeviceERPcNS_7WeightsE
libnvinfer_plugin.so.5:_ZNK8nvinfer16plugin19GridAnchorGenerator20getSerializationSizeEv
libnvinfer_plugin.so.5:_ZNK8nvinfer16plugin19GridAnchorGenerator5cloneEv
libnvinfer_plugin.so.5:_ZNK8nvinfer16plugin19GridAnchorGenerator9serializeEPv
libnvinfer_plugin.so.5:_ZNK8nvinfer16plugin19RegionPluginCreator13getPluginNameEv
libnvinfer_plugin.so.5:_ZNK8nvinfer16plugin19RegionPluginCreator16getPluginVersionEv
libnvinfer_plugin.so.5:_ZNK8nvinfer16plugin21DetectionOutputLegacy12getNbOutputsEv
libnvinfer_plugin.so.5:_ZNK8nvinfer16plugin21DetectionOutputLegacy13getPluginTypeEv
libnvinfer_plugin.so.5:_ZNK8nvinfer16plugin21DetectionOutputLegacy16getWorkspaceSizeEi
libnvinfer_plugin.so.5:_ZNK8nvinfer16plugin21DetectionOutputLegacy7getNameEv
libnvinfer_plugin.so.5:_ZNK8nvinfer16plugin21PriorBoxPluginCreator13getPluginNameEv
libnvinfer_plugin.so.5:_ZNK8nvinfer16plugin21PriorBoxPluginCreator16getPluginVersionEv
libnvinfer_plugin.so.5:_ZNK8nvinfer16plugin22NormalizePluginCreator13getPluginNameEv
libnvinfer_plugin.so.5:_ZNK8nvinfer16plugin22NormalizePluginCreator16getPluginVersionEv
libnvinfer_plugin.so.5:_ZNK8nvinfer16plugin23GridAnchorPluginCreator13getPluginNameEv
libnvinfer_plugin.so.5:_ZNK8nvinfer16plugin23GridAnchorPluginCreator16getPluginVersionEv
libnvinfer_plugin.so.5:_ZNK8nvinfer16plugin25GridAnchorGeneratorLegacy12getNbOutputsEv
libnvinfer_plugin.so.5:_ZNK8nvinfer16plugin25GridAnchorGeneratorLegacy13getPluginTypeEv
libnvinfer_plugin.so.5:_ZNK8nvinfer16plugin25GridAnchorGeneratorLegacy16getWorkspaceSizeEi
libnvinfer_plugin.so.5:_ZNK8nvinfer16plugin25GridAnchorGeneratorLegacy7getNameEv
libnvinfer_plugin.so.5:_ZNK8nvinfer16plugin5LReLU12getNbOutputsEv
libnvinfer_plugin.so.5:_ZNK8nvinfer16plugin5LReLU13getPluginTypeEv
libnvinfer_plugin.so.5:_ZNK8nvinfer16plugin5LReLU14supportsFormatENS_8DataTypeENS_12PluginFormatE
libnvinfer_plugin.so.5:_ZNK8nvinfer16plugin5LReLU16getPluginVersionEv
libnvinfer_plugin.so.5:_ZNK8nvinfer16plugin5LReLU16getWorkspaceSizeEi
libnvinfer_plugin.so.5:_ZNK8nvinfer16plugin5LReLU20getSerializationSizeEv
libnvinfer_plugin.so.5:_ZNK8nvinfer16plugin5LReLU5cloneEv
libnvinfer_plugin.so.5:_ZNK8nvinfer16plugin5LReLU9serializeEPv
libnvinfer_plugin.so.5:_ZNK8nvinfer16plugin5Reorg12getNbOutputsEv
libnvinfer_plugin.so.5:_ZNK8nvinfer16plugin5Reorg13getPluginTypeEv
libnvinfer_plugin.so.5:_ZNK8nvinfer16plugin5Reorg14supportsFormatENS_8DataTypeENS_12PluginFormatE
libnvinfer_plugin.so.5:_ZNK8nvinfer16plugin5Reorg16getPluginVersionEv
libnvinfer_plugin.so.5:_ZNK8nvinfer16plugin5Reorg16getWorkspaceSizeEi
libnvinfer_plugin.so.5:_ZNK8nvinfer16plugin5Reorg20getSerializationSizeEv
libnvinfer_plugin.so.5:_ZNK8nvinfer16plugin5Reorg5cloneEv
libnvinfer_plugin.so.5:_ZNK8nvinfer16plugin5Reorg9serializeEPv
libnvinfer_plugin.so.5:_ZNK8nvinfer16plugin6Region12getNbOutputsEv
libnvinfer_plugin.so.5:_ZNK8nvinfer16plugin6Region13getPluginTypeEv
libnvinfer_plugin.so.5:_ZNK8nvinfer16plugin6Region14supportsFormatENS_8DataTypeENS_12PluginFormatE
libnvinfer_plugin.so.5:_ZNK8nvinfer16plugin6Region16getPluginVersionEv
libnvinfer_plugin.so.5:_ZNK8nvinfer16plugin6Region16getWorkspaceSizeEi
libnvinfer_plugin.so.5:_ZNK8nvinfer16plugin6Region20getSerializationSizeEv
libnvinfer_plugin.so.5:_ZNK8nvinfer16plugin6Region5cloneEv
libnvinfer_plugin.so.5:_ZNK8nvinfer16plugin6Region9serializeEPv
libnvinfer_plugin.so.5:_ZNK8nvinfer16plugin7Permute12getNbOutputsEv
libnvinfer_plugin.so.5:_ZNK8nvinfer16plugin7Permute13getPluginTypeEv
libnvinfer_plugin.so.5:_ZNK8nvinfer16plugin7Permute16getWorkspaceSizeEi
libnvinfer_plugin.so.5:_ZNK8nvinfer16plugin7Permute7getNameEv
libnvinfer_plugin.so.5:_ZNK8nvinfer16plugin8PriorBox12getNbOutputsEv
libnvinfer_plugin.so.5:_ZNK8nvinfer16plugin8PriorBox13getPluginTypeEv
libnvinfer_plugin.so.5:_ZNK8nvinfer16plugin8PriorBox14supportsFormatENS_8DataTypeENS_12PluginFormatE
libnvinfer_plugin.so.5:_ZNK8nvinfer16plugin8PriorBox16getPluginVersionEv
libnvinfer_plugin.so.5:_ZNK8nvinfer16plugin8PriorBox16getWorkspaceSizeEi
libnvinfer_plugin.so.5:_ZNK8nvinfer16plugin8PriorBox19serializeFromDeviceERPcNS_7WeightsE
libnvinfer_plugin.so.5:_ZNK8nvinfer16plugin8PriorBox20getSerializationSizeEv
libnvinfer_plugin.so.5:_ZNK8nvinfer16plugin8PriorBox5cloneEv
libnvinfer_plugin.so.5:_ZNK8nvinfer16plugin8PriorBox9serializeEPv
libnvinfer_plugin.so.5:_ZNK8nvinfer16plugin9Normalize12getNbOutputsEv
libnvinfer_plugin.so.5:_ZNK8nvinfer16plugin9Normalize13getPluginTypeEv
libnvinfer_plugin.so.5:_ZNK8nvinfer16plugin9Normalize14supportsFormatENS_8DataTypeENS_12PluginFormatE
libnvinfer_plugin.so.5:_ZNK8nvinfer16plugin9Normalize16getPluginVersionEv
libnvinfer_plugin.so.5:_ZNK8nvinfer16plugin9Normalize16getWorkspaceSizeEi
libnvinfer_plugin.so.5:_ZNK8nvinfer16plugin9Normalize19serializeFromDeviceERPcNS_7WeightsE
libnvinfer_plugin.so.5:_ZNK8nvinfer16plugin9Normalize20getSerializationSizeEv
libnvinfer_plugin.so.5:_ZNK8nvinfer16plugin9Normalize5cloneEv
libnvinfer_plugin.so.5:_ZNK8nvinfer16plugin9Normalize9serializeEPv
libnvinfer_plugin.so.5:createAnchorGeneratorPlugin
libnvinfer_plugin.so.5:createClipPlugin
libnvinfer_plugin.so.5:createLReLUPlugin
libnvinfer_plugin.so.5:createNMSPlugin
libnvinfer_plugin.so.5:createNormalizePlugin
libnvinfer_plugin.so.5:createPriorBoxPlugin
libnvinfer_plugin.so.5:createRPNROIPlugin
libnvinfer_plugin.so.5:createRegionPlugin
libnvinfer_plugin.so.5:createReorgPlugin
libnvinfer_plugin.so.5:initLibNvInferPlugins
libnvonnxparser.so.0:createNvOnnxParser_INTERNAL
libnvonnxparser.so.0:getNvOnnxParserVersion
libnvonnxparser_runtime.so.0:createNvOnnxParserPluginFactory_INTERNAL
libnvparsers.so.5:_ZN11nvuffparser15createUffParserEv
libnvparsers.so.5:_ZN11nvuffparser23shutdownProtobufLibraryEv
libnvparsers.so.5:_ZN11nvuffparser8FieldMapC1EPKcPKvNS_9FieldTypeEi
libnvparsers.so.5:_ZN11nvuffparser8FieldMapC2EPKcPKvNS_9FieldTypeEi
libnvparsers.so.5:_ZN14nvcaffeparser117createCaffeParserEv
libnvparsers.so.5:_ZN14nvcaffeparser123shutdownProtobufLibraryEv
