libtensorflow.so:TFE_ContextAddFunction
libtensorflow.so:TFE_ContextAddFunctionDef
libtensorflow.so:TFE_ContextAsyncClearError
libtensorflow.so:TFE_ContextAsyncWait
libtensorflow.so:TFE_ContextClearCaches
libtensorflow.so:TFE_ContextDisableRunMetadata
libtensorflow.so:TFE_ContextEnableRunMetadata
libtensorflow.so:TFE_ContextExportRunMetadata
libtensorflow.so:TFE_ContextGetDevicePlacementPolicy
libtensorflow.so:TFE_ContextGetStatus
libtensorflow.so:TFE_ContextListDevices
libtensorflow.so:TFE_ContextOptionsSetAsync
libtensorflow.so:TFE_ContextOptionsSetConfig
libtensorflow.so:TFE_ContextOptionsSetDevicePlacementPolicy
libtensorflow.so:TFE_ContextOptionsSetServerDef
libtensorflow.so:TFE_ContextSetAsyncForThread
libtensorflow.so:TFE_ContextSetThreadLocalDevicePlacementPolicy
libtensorflow.so:TFE_DeleteContext
libtensorflow.so:TFE_DeleteContextOptions
libtensorflow.so:TFE_DeleteOp
libtensorflow.so:TFE_DeleteTensorDebugInfo
libtensorflow.so:TFE_DeleteTensorHandle
libtensorflow.so:TFE_Execute
libtensorflow.so:TFE_NewContext
libtensorflow.so:TFE_NewContextOptions
libtensorflow.so:TFE_NewOp
libtensorflow.so:TFE_NewTensorHandle
libtensorflow.so:TFE_OpAddInput
libtensorflow.so:TFE_OpGetAttrType
libtensorflow.so:TFE_OpGetDevice
libtensorflow.so:TFE_OpNameGetAttrType
libtensorflow.so:TFE_OpSetAttrBool
libtensorflow.so:TFE_OpSetAttrBoolList
libtensorflow.so:TFE_OpSetAttrFloat
libtensorflow.so:TFE_OpSetAttrFloatList
libtensorflow.so:TFE_OpSetAttrFunction
libtensorflow.so:TFE_OpSetAttrFunctionList
libtensorflow.so:TFE_OpSetAttrInt
libtensorflow.so:TFE_OpSetAttrIntList
libtensorflow.so:TFE_OpSetAttrShape
libtensorflow.so:TFE_OpSetAttrShapeList
libtensorflow.so:TFE_OpSetAttrString
libtensorflow.so:TFE_OpSetAttrStringList
libtensorflow.so:TFE_OpSetAttrType
libtensorflow.so:TFE_OpSetAttrTypeList
libtensorflow.so:TFE_OpSetDevice
libtensorflow.so:TFE_OpSetXLACompilation
libtensorflow.so:TFE_TensorDebugInfoOnDeviceDim
libtensorflow.so:TFE_TensorDebugInfoOnDeviceNumDims
libtensorflow.so:TFE_TensorHandleCopyToDevice
libtensorflow.so:TFE_TensorHandleDataType
libtensorflow.so:TFE_TensorHandleDeviceName
libtensorflow.so:TFE_TensorHandleDim
libtensorflow.so:TFE_TensorHandleNumDims
libtensorflow.so:TFE_TensorHandleResolve
libtensorflow.so:TFE_TensorHandleTensorDebugInfo
libtensorflow.so:TF_AbortWhile
libtensorflow.so:TF_AddControlInput
libtensorflow.so:TF_AddGradients
libtensorflow.so:TF_AddInput
libtensorflow.so:TF_AddInputList
libtensorflow.so:TF_AllocateTensor
libtensorflow.so:TF_ApiDefMapGet
libtensorflow.so:TF_ApiDefMapPut
libtensorflow.so:TF_CloseDeprecatedSession
libtensorflow.so:TF_CloseSession
libtensorflow.so:TF_ColocateWith
libtensorflow.so:TF_CreateConfig
libtensorflow.so:TF_DataTypeSize
libtensorflow.so:TF_DeleteApiDefMap
libtensorflow.so:TF_DeleteBuffer
libtensorflow.so:TF_DeleteDeprecatedSession
libtensorflow.so:TF_DeleteDeviceList
libtensorflow.so:TF_DeleteFunction
libtensorflow.so:TF_DeleteGraph
libtensorflow.so:TF_DeleteImportGraphDefOptions
libtensorflow.so:TF_DeleteImportGraphDefResults
libtensorflow.so:TF_DeleteLibraryHandle
libtensorflow.so:TF_DeletePRunHandle
libtensorflow.so:TF_DeleteSession
libtensorflow.so:TF_DeleteSessionOptions
libtensorflow.so:TF_DeleteStatus
libtensorflow.so:TF_DeleteTensor
libtensorflow.so:TF_DeprecatedSessionListDevices
libtensorflow.so:TF_DequeueNamedTensor
libtensorflow.so:TF_DeviceListCount
libtensorflow.so:TF_DeviceListMemoryBytes
libtensorflow.so:TF_DeviceListName
libtensorflow.so:TF_DeviceListType
libtensorflow.so:TF_Dim
libtensorflow.so:TF_EnableXLACompilation
libtensorflow.so:TF_EnqueueNamedTensor
libtensorflow.so:TF_ExtendGraph
libtensorflow.so:TF_FinishOperation
libtensorflow.so:TF_FinishWhile
libtensorflow.so:TF_FinishWhileHelper
libtensorflow.so:TF_FunctionGetAttrValueProto
libtensorflow.so:TF_FunctionImportFunctionDef
libtensorflow.so:TF_FunctionSetAttrValueProto
libtensorflow.so:TF_FunctionToFunctionDef
libtensorflow.so:TF_GetAllOpList
libtensorflow.so:TF_GetBuffer
libtensorflow.so:TF_GetCode
libtensorflow.so:TF_GetOpList
libtensorflow.so:TF_GraphCopyFunction
libtensorflow.so:TF_GraphDebugString
libtensorflow.so:TF_GraphGetFunctions
libtensorflow.so:TF_GraphGetOpDef
libtensorflow.so:TF_GraphGetTensorNumDims
libtensorflow.so:TF_GraphGetTensorShape
libtensorflow.so:TF_GraphImportGraphDef
libtensorflow.so:TF_GraphImportGraphDefWithResults
libtensorflow.so:TF_GraphImportGraphDefWithReturnOutputs
libtensorflow.so:TF_GraphNextOperation
libtensorflow.so:TF_GraphNumFunctions
libtensorflow.so:TF_GraphOperationByName
libtensorflow.so:TF_GraphSetTensorShape
libtensorflow.so:TF_GraphToFunction
libtensorflow.so:TF_GraphToGraphDef
libtensorflow.so:TF_GraphVersions
libtensorflow.so:TF_ImportGraphDefOptionsAddControlDependency
libtensorflow.so:TF_ImportGraphDefOptionsAddInputMapping
libtensorflow.so:TF_ImportGraphDefOptionsAddReturnOperation
libtensorflow.so:TF_ImportGraphDefOptionsAddReturnOutput
libtensorflow.so:TF_ImportGraphDefOptionsNumReturnOperations
libtensorflow.so:TF_ImportGraphDefOptionsNumReturnOutputs
libtensorflow.so:TF_ImportGraphDefOptionsRemapControlDependency
libtensorflow.so:TF_ImportGraphDefOptionsSetPrefix
libtensorflow.so:TF_ImportGraphDefOptionsSetUniquifyNames
libtensorflow.so:TF_ImportGraphDefOptionsSetUniquifyPrefix
libtensorflow.so:TF_ImportGraphDefResultsMissingUnusedInputMappings
libtensorflow.so:TF_ImportGraphDefResultsReturnOperations
libtensorflow.so:TF_ImportGraphDefResultsReturnOutputs
libtensorflow.so:TF_LoadLibrary
libtensorflow.so:TF_LoadSessionFromSavedModel
libtensorflow.so:TF_MakeFakeIteratorGetNextWithDatasets
libtensorflow.so:TF_MakeFileBasedIteratorGetNextWithDatasets
libtensorflow.so:TF_Message
libtensorflow.so:TF_NewApiDefMap
libtensorflow.so:TF_NewBuffer
libtensorflow.so:TF_NewBufferFromString
libtensorflow.so:TF_NewDeprecatedSession
libtensorflow.so:TF_NewGraph
libtensorflow.so:TF_NewImportGraphDefOptions
libtensorflow.so:TF_NewOperation
libtensorflow.so:TF_NewSession
libtensorflow.so:TF_NewSessionOptions
libtensorflow.so:TF_NewStatus
libtensorflow.so:TF_NewTensor
libtensorflow.so:TF_NewWhile
libtensorflow.so:TF_NumDims
libtensorflow.so:TF_OperationDevice
libtensorflow.so:TF_OperationGetAttrBool
libtensorflow.so:TF_OperationGetAttrBoolList
libtensorflow.so:TF_OperationGetAttrFloat
libtensorflow.so:TF_OperationGetAttrFloatList
libtensorflow.so:TF_OperationGetAttrInt
libtensorflow.so:TF_OperationGetAttrIntList
libtensorflow.so:TF_OperationGetAttrMetadata
libtensorflow.so:TF_OperationGetAttrShape
libtensorflow.so:TF_OperationGetAttrShapeList
libtensorflow.so:TF_OperationGetAttrString
libtensorflow.so:TF_OperationGetAttrStringList
libtensorflow.so:TF_OperationGetAttrTensor
libtensorflow.so:TF_OperationGetAttrTensorList
libtensorflow.so:TF_OperationGetAttrTensorShapeProto
libtensorflow.so:TF_OperationGetAttrTensorShapeProtoList
libtensorflow.so:TF_OperationGetAttrType
libtensorflow.so:TF_OperationGetAttrTypeList
libtensorflow.so:TF_OperationGetAttrValueProto
libtensorflow.so:TF_OperationGetControlInputs
libtensorflow.so:TF_OperationGetControlOutputs
libtensorflow.so:TF_OperationInput
libtensorflow.so:TF_OperationInputListLength
libtensorflow.so:TF_OperationInputType
libtensorflow.so:TF_OperationName
libtensorflow.so:TF_OperationNumControlInputs
libtensorflow.so:TF_OperationNumControlOutputs
libtensorflow.so:TF_OperationNumInputs
libtensorflow.so:TF_OperationNumOutputs
libtensorflow.so:TF_OperationOpType
libtensorflow.so:TF_OperationOutputConsumers
libtensorflow.so:TF_OperationOutputListLength
libtensorflow.so:TF_OperationOutputNumConsumers
libtensorflow.so:TF_OperationOutputType
libtensorflow.so:TF_OperationToNodeDef
libtensorflow.so:TF_PRun
libtensorflow.so:TF_PRunSetup
libtensorflow.so:TF_Reset
libtensorflow.so:TF_Run
libtensorflow.so:TF_SessionListDevices
libtensorflow.so:TF_SessionPRun
libtensorflow.so:TF_SessionPRunSetup
libtensorflow.so:TF_SessionRun
libtensorflow.so:TF_SetAttrBool
libtensorflow.so:TF_SetAttrBoolList
libtensorflow.so:TF_SetAttrFloat
libtensorflow.so:TF_SetAttrFloatList
libtensorflow.so:TF_SetAttrFuncName
libtensorflow.so:TF_SetAttrInt
libtensorflow.so:TF_SetAttrIntList
libtensorflow.so:TF_SetAttrShape
libtensorflow.so:TF_SetAttrShapeList
libtensorflow.so:TF_SetAttrString
libtensorflow.so:TF_SetAttrStringList
libtensorflow.so:TF_SetAttrTensor
libtensorflow.so:TF_SetAttrTensorList
libtensorflow.so:TF_SetAttrTensorShapeProto
libtensorflow.so:TF_SetAttrTensorShapeProtoList
libtensorflow.so:TF_SetAttrType
libtensorflow.so:TF_SetAttrTypeList
libtensorflow.so:TF_SetAttrValueProto
libtensorflow.so:TF_SetConfig
libtensorflow.so:TF_SetDevice
libtensorflow.so:TF_SetStatus
libtensorflow.so:TF_SetTarget
libtensorflow.so:TF_StringDecode
libtensorflow.so:TF_StringEncode
libtensorflow.so:TF_StringEncodedSize
libtensorflow.so:TF_TensorByteSize
libtensorflow.so:TF_TensorData
libtensorflow.so:TF_TensorMaybeMove
libtensorflow.so:TF_TensorType
libtensorflow.so:TF_TryEvaluateConstant
libtensorflow.so:TF_Version
libtensorflow.so:VERS_1.0
libtensorflow.so:_Z19TFE_NewTensorHandleRKN10tensorflow6TensorE
libtensorflow.so:_Z44TFE_TensorHandleUnderlyingTensorInHostMemoryP16TFE_TensorHandleP9TF_Status
libtensorflow.so:_ZN10TF_SessionC1EPN10tensorflow7SessionEP8TF_Graph
libtensorflow.so:_ZN10TF_SessionC2EPN10tensorflow7SessionEP8TF_Graph
libtensorflow.so:_ZN10tensorflow14AttrTypeByNameERKSt13unordered_mapINSt7__cxx1112basic_stringIcSt11char_traitsIcESaIcEEEjSt4hashIS6_ESt8equal_toIS6_ESaISt4pairIKS6_jEEERSC_P11TF_AttrTypePh
libtensorflow.so:_ZN10tensorflow14RecordMutationEP8TF_GraphRK12TF_OperationPKc
libtensorflow.so:_ZN10tensorflow15MessageToBufferERKN6google8protobuf7MessageEP9TF_Buffer
libtensorflow.so:_ZN10tensorflow17TF_TensorToTensorEPK9TF_TensorPNS_6TensorE
libtensorflow.so:_ZN10tensorflow19StatusFromTF_StatusEPK9TF_Status
libtensorflow.so:_ZN10tensorflow19TF_TensorFromTensorERKNS_6TensorEP9TF_Status
libtensorflow.so:_ZN10tensorflow20SetOpAttrValueScalarEP11TFE_ContextP6TFE_OpRKNS_9AttrValueEPKcP9TF_Status
libtensorflow.so:_ZN10tensorflow24ExtendSessionGraphHelperEP10TF_SessionP9TF_Status
libtensorflow.so:_ZN10tensorflow25Set_TF_Status_from_StatusEP9TF_StatusRKNS_6StatusE
libtensorflow.so:_ZN10tensorflow37TF_GraphSetOutputHandleShapesAndTypesEP8TF_Graph9TF_OutputiPPKlPKiPK11TF_DataTypeP9TF_Status
libtensorflow.so:_ZN8TF_GraphC1Ev
libtensorflow.so:_ZN8TF_GraphC2Ev
libtensorflow.so:_ZN9TF_TensorD1Ev
libtensorflow.so:_ZN9TF_TensorD2Ev
libtensorflow_framework.so:AnnotateBenignRace
libtensorflow_framework.so:AnnotateBenignRaceSized
libtensorflow_framework.so:AnnotateEnableRaceDetection
libtensorflow_framework.so:AnnotateIgnoreReadsBegin
libtensorflow_framework.so:AnnotateIgnoreReadsEnd
libtensorflow_framework.so:AnnotateIgnoreWritesBegin
libtensorflow_framework.so:AnnotateIgnoreWritesEnd
libtensorflow_framework.so:AnnotateMemoryIsInitialized
libtensorflow_framework.so:AnnotateMemoryIsUninitialized
libtensorflow_framework.so:AnnotateRWLockAcquired
libtensorflow_framework.so:AnnotateRWLockCreate
libtensorflow_framework.so:AnnotateRWLockDestroy
libtensorflow_framework.so:AnnotateRWLockReleased
libtensorflow_framework.so:AnnotateThreadName
libtensorflow_framework.so:DGifCloseFile
libtensorflow_framework.so:DGifExtensionToGCB
libtensorflow_framework.so:DGifGetCode
libtensorflow_framework.so:DGifGetCodeNext
libtensorflow_framework.so:DGifGetExtension
libtensorflow_framework.so:DGifGetExtensionNext
libtensorflow_framework.so:DGifGetImageDesc
libtensorflow_framework.so:DGifGetLZCodes
libtensorflow_framework.so:DGifGetLine
libtensorflow_framework.so:DGifGetPixel
libtensorflow_framework.so:DGifGetRecordType
libtensorflow_framework.so:DGifGetScreenDesc
libtensorflow_framework.so:DGifOpen
libtensorflow_framework.so:DGifOpenFileHandle
libtensorflow_framework.so:DGifOpenFileName
libtensorflow_framework.so:DGifSavedExtensionToGCB
libtensorflow_framework.so:DGifSlurp
libtensorflow_framework.so:EGifCloseFile
libtensorflow_framework.so:EGifGCBToExtension
libtensorflow_framework.so:EGifGCBToSavedExtension
libtensorflow_framework.so:EGifGetGifVersion
libtensorflow_framework.so:EGifOpen
libtensorflow_framework.so:EGifOpenFileHandle
libtensorflow_framework.so:EGifOpenFileName
libtensorflow_framework.so:EGifPutCode
libtensorflow_framework.so:EGifPutCodeNext
libtensorflow_framework.so:EGifPutComment
libtensorflow_framework.so:EGifPutExtension
libtensorflow_framework.so:EGifPutExtensionBlock
libtensorflow_framework.so:EGifPutExtensionLeader
libtensorflow_framework.so:EGifPutExtensionTrailer
libtensorflow_framework.so:EGifPutImageDesc
libtensorflow_framework.so:EGifPutLine
libtensorflow_framework.so:EGifPutPixel
libtensorflow_framework.so:EGifPutScreenDesc
libtensorflow_framework.so:EGifSetGifVersion
libtensorflow_framework.so:EGifSpew
libtensorflow_framework.so:FreeLastSavedImage
libtensorflow_framework.so:GifAddExtensionBlock
libtensorflow_framework.so:GifApplyTranslation
libtensorflow_framework.so:GifBitSize
libtensorflow_framework.so:GifDrawBox
libtensorflow_framework.so:GifDrawBoxedText8x8
libtensorflow_framework.so:GifDrawRectangle
libtensorflow_framework.so:GifDrawText8x8
libtensorflow_framework.so:GifErrorString
libtensorflow_framework.so:GifFreeExtensions
libtensorflow_framework.so:GifFreeMapObject
libtensorflow_framework.so:GifFreeSavedImages
libtensorflow_framework.so:GifMakeMapObject
libtensorflow_framework.so:GifMakeSavedImage
libtensorflow_framework.so:GifQuantizeBuffer
libtensorflow_framework.so:GifUnionColorMap
libtensorflow_framework.so:RunningOnValgrind
libtensorflow_framework.so:SipHash13C
libtensorflow_framework.so:SipHashC
libtensorflow_framework.so:VERS_1.0
libtensorflow_framework.so:ValgrindSlowdown
libtensorflow_framework.so:_ClearHashTable
libtensorflow_framework.so:_ExistsHashTable
libtensorflow_framework.so:_InitHashTable
libtensorflow_framework.so:_InsertHashTable
libtensorflow_framework.so:_Z14tf_git_versionv
libtensorflow_framework.so:_Z17tf_cxx11_abi_flagv
libtensorflow_framework.so:_Z19tf_compiler_versionv
libtensorflow_framework.so:_Z19tf_monolithic_buildv
libtensorflow_framework.so:_ZN10farmhashcc14Fingerprint128EPKcm
libtensorflow_framework.so:_ZN10farmhashcc14Hash32WithSeedEPKcmj
libtensorflow_framework.so:_ZN10farmhashcc19CityHash128WithSeedEPKcmSt4pairImmE
libtensorflow_framework.so:_ZN10farmhashcc6Hash32EPKcm
libtensorflow_framework.so:_ZN10farmhashmk14Hash32WithSeedEPKcmj
libtensorflow_framework.so:_ZN10farmhashmk6Hash32EPKcm
libtensorflow_framework.so:_ZN10farmhashna14Hash64WithSeedEPKcmm
libtensorflow_framework.so:_ZN10farmhashna15Hash64WithSeedsEPKcmmm
libtensorflow_framework.so:_ZN10farmhashna6Hash64EPKcm
libtensorflow_framework.so:_ZN10farmhashnt14Hash32WithSeedEPKcmj
libtensorflow_framework.so:_ZN10farmhashnt6Hash32EPKcm
libtensorflow_framework.so:_ZN10farmhashsa14Hash32WithSeedEPKcmj
libtensorflow_framework.so:_ZN10farmhashsa6Hash32EPKcm
libtensorflow_framework.so:_ZN10farmhashsu14Hash32WithSeedEPKcmj
libtensorflow_framework.so:_ZN10farmhashsu6Hash32EPKcm
libtensorflow_framework.so:_ZN10farmhashte14Hash64WithSeedEPKcmm
libtensorflow_framework.so:_ZN10farmhashte15Hash64WithSeedsEPKcmmm
libtensorflow_framework.so:_ZN10farmhashte6Hash64EPKcm
libtensorflow_framework.so:_ZN10farmhashuo14Hash64WithSeedEPKcmm
libtensorflow_framework.so:_ZN10farmhashuo15Hash64WithSeedsEPKcmmm
libtensorflow_framework.so:_ZN10farmhashuo6Hash64EPKcm
libtensorflow_framework.so:_ZN10farmhashxo14Hash64WithSeedEPKcmm
libtensorflow_framework.so:_ZN10farmhashxo15Hash64WithSeedsEPKcmmm
libtensorflow_framework.so:_ZN10farmhashxo6Hash64EPKcm
libtensorflow_framework.so:_ZN10tensorflow10ApiDef_Arg10SharedCtorEv
libtensorflow_framework.so:_ZN10tensorflow10ApiDef_Arg10SharedDtorEv
libtensorflow_framework.so:_ZN10tensorflow10ApiDef_Arg10descriptorEv
libtensorflow_framework.so:_ZN10tensorflow10ApiDef_Arg12InternalSwapEPS0_
libtensorflow_framework.so:_ZN10tensorflow10ApiDef_Arg15UnsafeArenaSwapEPS0_
libtensorflow_framework.so:_ZN10tensorflow10ApiDef_Arg16default_instanceEv
libtensorflow_framework.so:_ZN10tensorflow10ApiDef_Arg21InitAsDefaultInstanceEv
libtensorflow_framework.so:_ZN10tensorflow10ApiDef_Arg27MergePartialFromCodedStreamEPN6google8protobuf2io16CodedInputStreamE
libtensorflow_framework.so:_ZN10tensorflow10ApiDef_Arg4SwapEPS0_
libtensorflow_framework.so:_ZN10tensorflow10ApiDef_Arg5ClearEv
libtensorflow_framework.so:_ZN10tensorflow10ApiDef_Arg8CopyFromERKN6google8protobuf7MessageE
libtensorflow_framework.so:_ZN10tensorflow10ApiDef_Arg8CopyFromERKS0_
libtensorflow_framework.so:_ZN10tensorflow10ApiDef_Arg9ArenaDtorEPv
libtensorflow_framework.so:_ZN10tensorflow10ApiDef_Arg9MergeFromERKN6google8protobuf7MessageE
libtensorflow_framework.so:_ZN10tensorflow10ApiDef_Arg9MergeFromERKS0_
libtensorflow_framework.so:_ZN10tensorflow10ApiDef_ArgC1EPN6google8protobuf5ArenaE
libtensorflow_framework.so:_ZN10tensorflow10ApiDef_ArgC1ERKS0_
libtensorflow_framework.so:_ZN10tensorflow10ApiDef_ArgC1Ev
libtensorflow_framework.so:_ZN10tensorflow10ApiDef_ArgC2EPN6google8protobuf5ArenaE
libtensorflow_framework.so:_ZN10tensorflow10ApiDef_ArgC2ERKS0_
libtensorflow_framework.so:_ZN10tensorflow10ApiDef_ArgC2Ev
libtensorflow_framework.so:_ZN10tensorflow10ApiDef_ArgD0Ev
libtensorflow_framework.so:_ZN10tensorflow10ApiDef_ArgD1Ev
libtensorflow_framework.so:_ZN10tensorflow10ApiDef_ArgD2Ev
libtensorflow_framework.so:_ZN10tensorflow10ArgNumTypeENS_9AttrSliceERKNS_12OpDef_ArgDefEPbPNS_3gtl13InlinedVectorINS_8DataTypeELi4EEE
libtensorflow_framework.so:_ZN10tensorflow10ClusterDef10SharedCtorEv
libtensorflow_framework.so:_ZN10tensorflow10ClusterDef10SharedDtorEv
libtensorflow_framework.so:_ZN10tensorflow10ClusterDef10descriptorEv
libtensorflow_framework.so:_ZN10tensorflow10ClusterDef12InternalSwapEPS0_
libtensorflow_framework.so:_ZN10tensorflow10ClusterDef15UnsafeArenaSwapEPS0_
libtensorflow_framework.so:_ZN10tensorflow10ClusterDef16default_instanceEv
libtensorflow_framework.so:_ZN10tensorflow10ClusterDef21InitAsDefaultInstanceEv
libtensorflow_framework.so:_ZN10tensorflow10ClusterDef27MergePartialFromCodedStreamEPN6google8protobuf2io16CodedInputStreamE
libtensorflow_framework.so:_ZN10tensorflow10ClusterDef4SwapEPS0_
libtensorflow_framework.so:_ZN10tensorflow10ClusterDef5ClearEv
libtensorflow_framework.so:_ZN10tensorflow10ClusterDef8CopyFromERKN6google8protobuf7MessageE
libtensorflow_framework.so:_ZN10tensorflow10ClusterDef8CopyFromERKS0_
libtensorflow_framework.so:_ZN10tensorflow10ClusterDef9ArenaDtorEPv
libtensorflow_framework.so:_ZN10tensorflow10ClusterDef9MergeFromERKN6google8protobuf7MessageE
libtensorflow_framework.so:_ZN10tensorflow10ClusterDef9MergeFromERKS0_
libtensorflow_framework.so:_ZN10tensorflow10ClusterDefC1EPN6google8protobuf5ArenaE
libtensorflow_framework.so:_ZN10tensorflow10ClusterDefC1ERKS0_
libtensorflow_framework.so:_ZN10tensorflow10ClusterDefC1Ev
libtensorflow_framework.so:_ZN10tensorflow10ClusterDefC2EPN6google8protobuf5ArenaE
libtensorflow_framework.so:_ZN10tensorflow10ClusterDefC2ERKS0_
libtensorflow_framework.so:_ZN10tensorflow10ClusterDefC2Ev
libtensorflow_framework.so:_ZN10tensorflow10ClusterDefD0Ev
libtensorflow_framework.so:_ZN10tensorflow10ClusterDefD1Ev
libtensorflow_framework.so:_ZN10tensorflow10ClusterDefD2Ev
libtensorflow_framework.so:_ZN10tensorflow10CopyTensor6ViaDMAENS_11StringPieceEPNS_13DeviceContextES3_PNS_6DeviceES5_NS_19AllocatorAttributesES6_PKNS_6TensorEPS7_iSt8functionIFvRKNS_6StatusEEE
libtensorflow_framework.so:_ZN10tensorflow10CopyTensor8RegisterENS_10DeviceTypeES1_PFvPNS_13DeviceContextES3_PNS_6DeviceES5_NS_19AllocatorAttributesES6_PKNS_6TensorEPS7_iSt8functionIFvRKNS_6StatusEEEE
libtensorflow_framework.so:_ZN10tensorflow10DeviceBase16eigen_cpu_deviceEv
libtensorflow_framework.so:_ZN10tensorflow10DeviceBase20set_eigen_cpu_deviceEPN5Eigen16ThreadPoolDeviceE
libtensorflow_framework.so:_ZN10tensorflow10DeviceBaseD0Ev
libtensorflow_framework.so:_ZN10tensorflow10DeviceBaseD1Ev
libtensorflow_framework.so:_ZN10tensorflow10DeviceBaseD2Ev
libtensorflow_framework.so:_ZN10tensorflow10EntryValue10SharedCtorEv
libtensorflow_framework.so:_ZN10tensorflow10EntryValue10SharedDtorEv
libtensorflow_framework.so:_ZN10tensorflow10EntryValue10clear_kindEv
libtensorflow_framework.so:_ZN10tensorflow10EntryValue10descriptorEv
libtensorflow_framework.so:_ZN10tensorflow10EntryValue12InternalSwapEPS0_
libtensorflow_framework.so:_ZN10tensorflow10EntryValue15UnsafeArenaSwapEPS0_
libtensorflow_framework.so:_ZN10tensorflow10EntryValue16default_instanceEv
libtensorflow_framework.so:_ZN10tensorflow10EntryValue21InitAsDefaultInstanceEv
libtensorflow_framework.so:_ZN10tensorflow10EntryValue27MergePartialFromCodedStreamEPN6google8protobuf2io16CodedInputStreamE
libtensorflow_framework.so:_ZN10tensorflow10EntryValue4SwapEPS0_
libtensorflow_framework.so:_ZN10tensorflow10EntryValue5ClearEv
libtensorflow_framework.so:_ZN10tensorflow10EntryValue8CopyFromERKN6google8protobuf7MessageE
libtensorflow_framework.so:_ZN10tensorflow10EntryValue8CopyFromERKS0_
libtensorflow_framework.so:_ZN10tensorflow10EntryValue9ArenaDtorEPv
libtensorflow_framework.so:_ZN10tensorflow10EntryValue9MergeFromERKN6google8protobuf7MessageE
libtensorflow_framework.so:_ZN10tensorflow10EntryValue9MergeFromERKS0_
libtensorflow_framework.so:_ZN10tensorflow10EntryValueC1EPN6google8protobuf5ArenaE
libtensorflow_framework.so:_ZN10tensorflow10EntryValueC1ERKS0_
libtensorflow_framework.so:_ZN10tensorflow10EntryValueC1Ev
libtensorflow_framework.so:_ZN10tensorflow10EntryValueC2EPN6google8protobuf5ArenaE
libtensorflow_framework.so:_ZN10tensorflow10EntryValueC2ERKS0_
libtensorflow_framework.so:_ZN10tensorflow10EntryValueC2Ev
libtensorflow_framework.so:_ZN10tensorflow10EntryValueD0Ev
libtensorflow_framework.so:_ZN10tensorflow10EntryValueD1Ev
libtensorflow_framework.so:_ZN10tensorflow10EntryValueD2Ev
libtensorflow_framework.so:_ZN10tensorflow10EnvWrapperD0Ev
libtensorflow_framework.so:_ZN10tensorflow10EnvWrapperD1Ev
libtensorflow_framework.so:_ZN10tensorflow10EnvWrapperD2Ev
libtensorflow_framework.so:_ZN10tensorflow10FileSystem10FilesExistERKSt6vectorINSt7__cxx1112basic_stringIcSt11char_traitsIcESaIcEEESaIS7_EEPS1_INS_6StatusESaISC_EE
libtensorflow_framework.so:_ZN10tensorflow10FileSystem11FlushCachesEv
libtensorflow_framework.so:_ZN10tensorflow10FileSystem11IsDirectoryERKNSt7__cxx1112basic_stringIcSt11char_traitsIcESaIcEEE
libtensorflow_framework.so:_ZN10tensorflow10FileSystem17DeleteRecursivelyERKNSt7__cxx1112basic_stringIcSt11char_traitsIcESaIcEEEPxS9_
libtensorflow_framework.so:_ZN10tensorflow10FileSystem20RecursivelyCreateDirERKNSt7__cxx1112basic_stringIcSt11char_traitsIcESaIcEEE
libtensorflow_framework.so:_ZN10tensorflow10FileSystem8CopyFileERKNSt7__cxx1112basic_stringIcSt11char_traitsIcESaIcEEES8_
libtensorflow_framework.so:_ZN10tensorflow10FileSystemD0Ev
libtensorflow_framework.so:_ZN10tensorflow10FileSystemD1Ev
libtensorflow_framework.so:_ZN10tensorflow10FileSystemD2Ev
libtensorflow_framework.so:_ZN10tensorflow10GPUOptions10SharedCtorEv
libtensorflow_framework.so:_ZN10tensorflow10GPUOptions10SharedDtorEv
libtensorflow_framework.so:_ZN10tensorflow10GPUOptions10descriptorEv
libtensorflow_framework.so:_ZN10tensorflow10GPUOptions12InternalSwapEPS0_
libtensorflow_framework.so:_ZN10tensorflow10GPUOptions15UnsafeArenaSwapEPS0_
libtensorflow_framework.so:_ZN10tensorflow10GPUOptions16default_instanceEv
libtensorflow_framework.so:_ZN10tensorflow10GPUOptions21InitAsDefaultInstanceEv
libtensorflow_framework.so:_ZN10tensorflow10GPUOptions27MergePartialFromCodedStreamEPN6google8protobuf2io16CodedInputStreamE
libtensorflow_framework.so:_ZN10tensorflow10GPUOptions39unsafe_arena_set_allocated_experimentalEPNS_23GPUOptions_ExperimentalE
libtensorflow_framework.so:_ZN10tensorflow10GPUOptions4SwapEPS0_
libtensorflow_framework.so:_ZN10tensorflow10GPUOptions5ClearEv
libtensorflow_framework.so:_ZN10tensorflow10GPUOptions8CopyFromERKN6google8protobuf7MessageE
libtensorflow_framework.so:_ZN10tensorflow10GPUOptions8CopyFromERKS0_
libtensorflow_framework.so:_ZN10tensorflow10GPUOptions9ArenaDtorEPv
libtensorflow_framework.so:_ZN10tensorflow10GPUOptions9MergeFromERKN6google8protobuf7MessageE
libtensorflow_framework.so:_ZN10tensorflow10GPUOptions9MergeFromERKS0_
libtensorflow_framework.so:_ZN10tensorflow10GPUOptionsC1EPN6google8protobuf5ArenaE
libtensorflow_framework.so:_ZN10tensorflow10GPUOptionsC1ERKS0_
libtensorflow_framework.so:_ZN10tensorflow10GPUOptionsC1Ev
libtensorflow_framework.so:_ZN10tensorflow10GPUOptionsC2EPN6google8protobuf5ArenaE
libtensorflow_framework.so:_ZN10tensorflow10GPUOptionsC2ERKS0_
libtensorflow_framework.so:_ZN10tensorflow10GPUOptionsC2Ev
libtensorflow_framework.so:_ZN10tensorflow10GPUOptionsD0Ev
libtensorflow_framework.so:_ZN10tensorflow10GPUOptionsD1Ev
libtensorflow_framework.so:_ZN10tensorflow10GPUOptionsD2Ev
libtensorflow_framework.so:_ZN10tensorflow10HasFeatureIJEEEbRKNSt7__cxx1112basic_stringIcSt11char_traitsIcESaIcEEERKNS_8FeaturesE
libtensorflow_framework.so:_ZN10tensorflow10HasFeatureIJNSt7__cxx1112basic_stringIcSt11char_traitsIcESaIcEEEEEEbRKS6_RKNS_8FeaturesE
libtensorflow_framework.so:_ZN10tensorflow10HasFeatureIJfEEEbRKNSt7__cxx1112basic_stringIcSt11char_traitsIcESaIcEEERKNS_8FeaturesE
libtensorflow_framework.so:_ZN10tensorflow10HasFeatureIJlEEEbRKNSt7__cxx1112basic_stringIcSt11char_traitsIcESaIcEEERKNS_8FeaturesE
libtensorflow_framework.so:_ZN10tensorflow10KernelList10SharedCtorEv
libtensorflow_framework.so:_ZN10tensorflow10KernelList10SharedDtorEv
libtensorflow_framework.so:_ZN10tensorflow10KernelList10descriptorEv
libtensorflow_framework.so:_ZN10tensorflow10KernelList12InternalSwapEPS0_
libtensorflow_framework.so:_ZN10tensorflow10KernelList15UnsafeArenaSwapEPS0_
libtensorflow_framework.so:_ZN10tensorflow10KernelList16default_instanceEv
libtensorflow_framework.so:_ZN10tensorflow10KernelList21InitAsDefaultInstanceEv
libtensorflow_framework.so:_ZN10tensorflow10KernelList27MergePartialFromCodedStreamEPN6google8protobuf2io16CodedInputStreamE
libtensorflow_framework.so:_ZN10tensorflow10KernelList4SwapEPS0_
libtensorflow_framework.so:_ZN10tensorflow10KernelList5ClearEv
libtensorflow_framework.so:_ZN10tensorflow10KernelList8CopyFromERKN6google8protobuf7MessageE
libtensorflow_framework.so:_ZN10tensorflow10KernelList8CopyFromERKS0_
libtensorflow_framework.so:_ZN10tensorflow10KernelList9ArenaDtorEPv
libtensorflow_framework.so:_ZN10tensorflow10KernelList9MergeFromERKN6google8protobuf7MessageE
libtensorflow_framework.so:_ZN10tensorflow10KernelList9MergeFromERKS0_
libtensorflow_framework.so:_ZN10tensorflow10KernelListC1EPN6google8protobuf5ArenaE
libtensorflow_framework.so:_ZN10tensorflow10KernelListC1ERKS0_
libtensorflow_framework.so:_ZN10tensorflow10KernelListC1Ev
libtensorflow_framework.so:_ZN10tensorflow10KernelListC2EPN6google8protobuf5ArenaE
libtensorflow_framework.so:_ZN10tensorflow10KernelListC2ERKS0_
libtensorflow_framework.so:_ZN10tensorflow10KernelListC2Ev
libtensorflow_framework.so:_ZN10tensorflow10KernelListD0Ev
libtensorflow_framework.so:_ZN10tensorflow10KernelListD1Ev
libtensorflow_framework.so:_ZN10tensorflow10KernelListD2Ev
libtensorflow_framework.so:_ZN10tensorflow10LocalLinks10SharedCtorEv
libtensorflow_framework.so:_ZN10tensorflow10LocalLinks10SharedDtorEv
libtensorflow_framework.so:_ZN10tensorflow10LocalLinks10descriptorEv
libtensorflow_framework.so:_ZN10tensorflow10LocalLinks12InternalSwapEPS0_
libtensorflow_framework.so:_ZN10tensorflow10LocalLinks15UnsafeArenaSwapEPS0_
libtensorflow_framework.so:_ZN10tensorflow10LocalLinks16default_instanceEv
libtensorflow_framework.so:_ZN10tensorflow10LocalLinks21InitAsDefaultInstanceEv
libtensorflow_framework.so:_ZN10tensorflow10LocalLinks27MergePartialFromCodedStreamEPN6google8protobuf2io16CodedInputStreamE
libtensorflow_framework.so:_ZN10tensorflow10LocalLinks4SwapEPS0_
libtensorflow_framework.so:_ZN10tensorflow10LocalLinks5ClearEv
libtensorflow_framework.so:_ZN10tensorflow10LocalLinks8CopyFromERKN6google8protobuf7MessageE
libtensorflow_framework.so:_ZN10tensorflow10LocalLinks8CopyFromERKS0_
libtensorflow_framework.so:_ZN10tensorflow10LocalLinks9ArenaDtorEPv
libtensorflow_framework.so:_ZN10tensorflow10LocalLinks9MergeFromERKN6google8protobuf7MessageE
libtensorflow_framework.so:_ZN10tensorflow10LocalLinks9MergeFromERKS0_
libtensorflow_framework.so:_ZN10tensorflow10LocalLinksC1EPN6google8protobuf5ArenaE
libtensorflow_framework.so:_ZN10tensorflow10LocalLinksC1ERKS0_
libtensorflow_framework.so:_ZN10tensorflow10LocalLinksC1Ev
libtensorflow_framework.so:_ZN10tensorflow10LocalLinksC2EPN6google8protobuf5ArenaE
libtensorflow_framework.so:_ZN10tensorflow10LocalLinksC2ERKS0_
libtensorflow_framework.so:_ZN10tensorflow10LocalLinksC2Ev
libtensorflow_framework.so:_ZN10tensorflow10LocalLinksD0Ev
libtensorflow_framework.so:_ZN10tensorflow10LocalLinksD1Ev
libtensorflow_framework.so:_ZN10tensorflow10LocalLinksD2Ev
libtensorflow_framework.so:_ZN10tensorflow10LogMessage10SharedCtorEv
libtensorflow_framework.so:_ZN10tensorflow10LogMessage10SharedDtorEv
libtensorflow_framework.so:_ZN10tensorflow10LogMessage10descriptorEv
libtensorflow_framework.so:_ZN10tensorflow10LogMessage12InternalSwapEPS0_
libtensorflow_framework.so:_ZN10tensorflow10LogMessage15UnsafeArenaSwapEPS0_
libtensorflow_framework.so:_ZN10tensorflow10LogMessage16default_instanceEv
libtensorflow_framework.so:_ZN10tensorflow10LogMessage21InitAsDefaultInstanceEv
libtensorflow_framework.so:_ZN10tensorflow10LogMessage27MergePartialFromCodedStreamEPN6google8protobuf2io16CodedInputStreamE
libtensorflow_framework.so:_ZN10tensorflow10LogMessage4SwapEPS0_
libtensorflow_framework.so:_ZN10tensorflow10LogMessage5ClearEv
libtensorflow_framework.so:_ZN10tensorflow10LogMessage8CopyFromERKN6google8protobuf7MessageE
libtensorflow_framework.so:_ZN10tensorflow10LogMessage8CopyFromERKS0_
libtensorflow_framework.so:_ZN10tensorflow10LogMessage9ArenaDtorEPv
libtensorflow_framework.so:_ZN10tensorflow10LogMessage9MergeFromERKN6google8protobuf7MessageE
libtensorflow_framework.so:_ZN10tensorflow10LogMessage9MergeFromERKS0_
libtensorflow_framework.so:_ZN10tensorflow10LogMessageC1EPN6google8protobuf5ArenaE
libtensorflow_framework.so:_ZN10tensorflow10LogMessageC1ERKS0_
libtensorflow_framework.so:_ZN10tensorflow10LogMessageC1Ev
libtensorflow_framework.so:_ZN10tensorflow10LogMessageC2EPN6google8protobuf5ArenaE
libtensorflow_framework.so:_ZN10tensorflow10LogMessageC2ERKS0_
libtensorflow_framework.so:_ZN10tensorflow10LogMessageC2Ev
libtensorflow_framework.so:_ZN10tensorflow10LogMessageD0Ev
libtensorflow_framework.so:_ZN10tensorflow10LogMessageD1Ev
libtensorflow_framework.so:_ZN10tensorflow10LogMessageD2Ev
libtensorflow_framework.so:_ZN10tensorflow10MemoryInfo10SharedCtorEv
libtensorflow_framework.so:_ZN10tensorflow10MemoryInfo10SharedDtorEv
libtensorflow_framework.so:_ZN10tensorflow10MemoryInfo10descriptorEv
libtensorflow_framework.so:_ZN10tensorflow10MemoryInfo12InternalSwapEPS0_
libtensorflow_framework.so:_ZN10tensorflow10MemoryInfo15UnsafeArenaSwapEPS0_
libtensorflow_framework.so:_ZN10tensorflow10MemoryInfo16default_instanceEv
libtensorflow_framework.so:_ZN10tensorflow10MemoryInfo21InitAsDefaultInstanceEv
libtensorflow_framework.so:_ZN10tensorflow10MemoryInfo27MergePartialFromCodedStreamEPN6google8protobuf2io16CodedInputStreamE
libtensorflow_framework.so:_ZN10tensorflow10MemoryInfo4SwapEPS0_
libtensorflow_framework.so:_ZN10tensorflow10MemoryInfo5ClearEv
libtensorflow_framework.so:_ZN10tensorflow10MemoryInfo8CopyFromERKN6google8protobuf7MessageE
libtensorflow_framework.so:_ZN10tensorflow10MemoryInfo8CopyFromERKS0_
libtensorflow_framework.so:_ZN10tensorflow10MemoryInfo9ArenaDtorEPv
libtensorflow_framework.so:_ZN10tensorflow10MemoryInfo9MergeFromERKN6google8protobuf7MessageE
libtensorflow_framework.so:_ZN10tensorflow10MemoryInfo9MergeFromERKS0_
libtensorflow_framework.so:_ZN10tensorflow10MemoryInfoC1EPN6google8protobuf5ArenaE
libtensorflow_framework.so:_ZN10tensorflow10MemoryInfoC1ERKS0_
libtensorflow_framework.so:_ZN10tensorflow10MemoryInfoC1Ev
libtensorflow_framework.so:_ZN10tensorflow10MemoryInfoC2EPN6google8protobuf5ArenaE
libtensorflow_framework.so:_ZN10tensorflow10MemoryInfoC2ERKS0_
libtensorflow_framework.so:_ZN10tensorflow10MemoryInfoC2Ev
libtensorflow_framework.so:_ZN10tensorflow10MemoryInfoD0Ev
libtensorflow_framework.so:_ZN10tensorflow10MemoryInfoD1Ev
libtensorflow_framework.so:_ZN10tensorflow10MemoryInfoD2Ev
libtensorflow_framework.so:_ZN10tensorflow10NewSessionERKNS_14SessionOptionsE
libtensorflow_framework.so:_ZN10tensorflow10NewSessionERKNS_14SessionOptionsEPPNS_7SessionE
libtensorflow_framework.so:_ZN10tensorflow10NodeOutput10SharedCtorEv
libtensorflow_framework.so:_ZN10tensorflow10NodeOutput10SharedDtorEv
libtensorflow_framework.so:_ZN10tensorflow10NodeOutput10descriptorEv
libtensorflow_framework.so:_ZN10tensorflow10NodeOutput12InternalSwapEPS0_
libtensorflow_framework.so:_ZN10tensorflow10NodeOutput15UnsafeArenaSwapEPS0_
libtensorflow_framework.so:_ZN10tensorflow10NodeOutput16default_instanceEv
libtensorflow_framework.so:_ZN10tensorflow10NodeOutput21InitAsDefaultInstanceEv
libtensorflow_framework.so:_ZN10tensorflow10NodeOutput24clear_tensor_descriptionEv
libtensorflow_framework.so:_ZN10tensorflow10NodeOutput27MergePartialFromCodedStreamEPN6google8protobuf2io16CodedInputStreamE
libtensorflow_framework.so:_ZN10tensorflow10NodeOutput45unsafe_arena_set_allocated_tensor_descriptionEPNS_17TensorDescriptionE
libtensorflow_framework.so:_ZN10tensorflow10NodeOutput4SwapEPS0_
libtensorflow_framework.so:_ZN10tensorflow10NodeOutput5ClearEv
libtensorflow_framework.so:_ZN10tensorflow10NodeOutput8CopyFromERKN6google8protobuf7MessageE
libtensorflow_framework.so:_ZN10tensorflow10NodeOutput8CopyFromERKS0_
libtensorflow_framework.so:_ZN10tensorflow10NodeOutput9ArenaDtorEPv
libtensorflow_framework.so:_ZN10tensorflow10NodeOutput9MergeFromERKN6google8protobuf7MessageE
libtensorflow_framework.so:_ZN10tensorflow10NodeOutput9MergeFromERKS0_
libtensorflow_framework.so:_ZN10tensorflow10NodeOutputC1EPN6google8protobuf5ArenaE
libtensorflow_framework.so:_ZN10tensorflow10NodeOutputC1ERKS0_
libtensorflow_framework.so:_ZN10tensorflow10NodeOutputC1Ev
libtensorflow_framework.so:_ZN10tensorflow10NodeOutputC2EPN6google8protobuf5ArenaE
libtensorflow_framework.so:_ZN10tensorflow10NodeOutputC2ERKS0_
libtensorflow_framework.so:_ZN10tensorflow10NodeOutputC2Ev
libtensorflow_framework.so:_ZN10tensorflow10NodeOutputD0Ev
libtensorflow_framework.so:_ZN10tensorflow10NodeOutputD1Ev
libtensorflow_framework.so:_ZN10tensorflow10NodeOutputD2Ev
libtensorflow_framework.so:_ZN10tensorflow10OpDefEqualERKNS_5OpDefES2_
libtensorflow_framework.so:_ZN10tensorflow10OpRegistry10SetWatcherERKSt8functionIFNS_6StatusERKS2_RKNS_5OpDefEEE
libtensorflow_framework.so:_ZN10tensorflow10OpRegistry16GetRegisteredOpsEPSt6vectorINS_5OpDefESaIS2_EE
libtensorflow_framework.so:_ZN10tensorflow10OpRegistry18DeferRegistrationsEv
libtensorflow_framework.so:_ZN10tensorflow10OpRegistry21GetOpRegistrationDataEPSt6vectorINS_18OpRegistrationDataESaIS2_EE
libtensorflow_framework.so:_ZN10tensorflow10OpRegistry26ClearDeferredRegistrationsEv
libtensorflow_framework.so:_ZN10tensorflow10OpRegistry6GlobalEv
libtensorflow_framework.so:_ZN10tensorflow10OpRegistry8RegisterERKSt8functionIFNS_6StatusEPNS_18OpRegistrationDataEEE
libtensorflow_framework.so:_ZN10tensorflow10OpRegistryC1Ev
libtensorflow_framework.so:_ZN10tensorflow10OpRegistryC2Ev
libtensorflow_framework.so:_ZN10tensorflow10OpRegistryD0Ev
libtensorflow_framework.so:_ZN10tensorflow10OpRegistryD1Ev
libtensorflow_framework.so:_ZN10tensorflow10OpRegistryD2Ev
libtensorflow_framework.so:_ZN10tensorflow10RPCOptions10SharedCtorEv
libtensorflow_framework.so:_ZN10tensorflow10RPCOptions10SharedDtorEv
libtensorflow_framework.so:_ZN10tensorflow10RPCOptions10descriptorEv
libtensorflow_framework.so:_ZN10tensorflow10RPCOptions12InternalSwapEPS0_
libtensorflow_framework.so:_ZN10tensorflow10RPCOptions15UnsafeArenaSwapEPS0_
libtensorflow_framework.so:_ZN10tensorflow10RPCOptions16default_instanceEv
libtensorflow_framework.so:_ZN10tensorflow10RPCOptions21InitAsDefaultInstanceEv
libtensorflow_framework.so:_ZN10tensorflow10RPCOptions27MergePartialFromCodedStreamEPN6google8protobuf2io16CodedInputStreamE
libtensorflow_framework.so:_ZN10tensorflow10RPCOptions4SwapEPS0_
libtensorflow_framework.so:_ZN10tensorflow10RPCOptions5ClearEv
libtensorflow_framework.so:_ZN10tensorflow10RPCOptions8CopyFromERKN6google8protobuf7MessageE
libtensorflow_framework.so:_ZN10tensorflow10RPCOptions8CopyFromERKS0_
libtensorflow_framework.so:_ZN10tensorflow10RPCOptions9ArenaDtorEPv
libtensorflow_framework.so:_ZN10tensorflow10RPCOptions9MergeFromERKN6google8protobuf7MessageE
libtensorflow_framework.so:_ZN10tensorflow10RPCOptions9MergeFromERKS0_
libtensorflow_framework.so:_ZN10tensorflow10RPCOptionsC1EPN6google8protobuf5ArenaE
libtensorflow_framework.so:_ZN10tensorflow10RPCOptionsC1ERKS0_
libtensorflow_framework.so:_ZN10tensorflow10RPCOptionsC1Ev
libtensorflow_framework.so:_ZN10tensorflow10RPCOptionsC2EPN6google8protobuf5ArenaE
libtensorflow_framework.so:_ZN10tensorflow10RPCOptionsC2ERKS0_
libtensorflow_framework.so:_ZN10tensorflow10RPCOptionsC2Ev
libtensorflow_framework.so:_ZN10tensorflow10RPCOptionsD0Ev
libtensorflow_framework.so:_ZN10tensorflow10RPCOptionsD1Ev
libtensorflow_framework.so:_ZN10tensorflow10RPCOptionsD2Ev
libtensorflow_framework.so:_ZN10tensorflow10Rendezvous4RecvERKNS0_9ParsedKeyERKNS0_4ArgsEPNS_6TensorEPb
libtensorflow_framework.so:_ZN10tensorflow10Rendezvous4RecvERKNS0_9ParsedKeyERKNS0_4ArgsEPNS_6TensorEPbx
libtensorflow_framework.so:_ZN10tensorflow10Rendezvous8ParseKeyENS_11StringPieceEPNS0_9ParsedKeyE
libtensorflow_framework.so:_ZN10tensorflow10Rendezvous9CreateKeyERKNSt7__cxx1112basic_stringIcSt11char_traitsIcESaIcEEEyS8_S8_RKNS_12FrameAndIterE
libtensorflow_framework.so:_ZN10tensorflow10Rendezvous9ParsedKeyaSERKS1_
libtensorflow_framework.so:_ZN10tensorflow10RendezvousD0Ev
libtensorflow_framework.so:_ZN10tensorflow10RendezvousD1Ev
libtensorflow_framework.so:_ZN10tensorflow10RendezvousD2Ev
libtensorflow_framework.so:_ZN10tensorflow10ReverseDFSERKNS_5GraphERKSt8functionIFvPNS_4NodeEEES9_RKS3_IFbPKS4_SB_EE
libtensorflow_framework.so:_ZN10tensorflow10RunOptions10SharedCtorEv
libtensorflow_framework.so:_ZN10tensorflow10RunOptions10SharedDtorEv
libtensorflow_framework.so:_ZN10tensorflow10RunOptions10descriptorEv
libtensorflow_framework.so:_ZN10tensorflow10RunOptions12InternalSwapEPS0_
libtensorflow_framework.so:_ZN10tensorflow10RunOptions15UnsafeArenaSwapEPS0_
libtensorflow_framework.so:_ZN10tensorflow10RunOptions16default_instanceEv
libtensorflow_framework.so:_ZN10tensorflow10RunOptions19clear_debug_optionsEv
libtensorflow_framework.so:_ZN10tensorflow10RunOptions21InitAsDefaultInstanceEv
libtensorflow_framework.so:_ZN10tensorflow10RunOptions27MergePartialFromCodedStreamEPN6google8protobuf2io16CodedInputStreamE
libtensorflow_framework.so:_ZN10tensorflow10RunOptions39unsafe_arena_set_allocated_experimentalEPNS_23RunOptions_ExperimentalE
libtensorflow_framework.so:_ZN10tensorflow10RunOptions40unsafe_arena_set_allocated_debug_optionsEPNS_12DebugOptionsE
libtensorflow_framework.so:_ZN10tensorflow10RunOptions4SwapEPS0_
libtensorflow_framework.so:_ZN10tensorflow10RunOptions5ClearEv
libtensorflow_framework.so:_ZN10tensorflow10RunOptions8CopyFromERKN6google8protobuf7MessageE
libtensorflow_framework.so:_ZN10tensorflow10RunOptions8CopyFromERKS0_
libtensorflow_framework.so:_ZN10tensorflow10RunOptions9ArenaDtorEPv
libtensorflow_framework.so:_ZN10tensorflow10RunOptions9MergeFromERKN6google8protobuf7MessageE
libtensorflow_framework.so:_ZN10tensorflow10RunOptions9MergeFromERKS0_
libtensorflow_framework.so:_ZN10tensorflow10RunOptionsC1EPN6google8protobuf5ArenaE
libtensorflow_framework.so:_ZN10tensorflow10RunOptionsC1ERKS0_
libtensorflow_framework.so:_ZN10tensorflow10RunOptionsC1Ev
libtensorflow_framework.so:_ZN10tensorflow10RunOptionsC2EPN6google8protobuf5ArenaE
libtensorflow_framework.so:_ZN10tensorflow10RunOptionsC2ERKS0_
libtensorflow_framework.so:_ZN10tensorflow10RunOptionsC2Ev
libtensorflow_framework.so:_ZN10tensorflow10RunOptionsD0Ev
libtensorflow_framework.so:_ZN10tensorflow10RunOptionsD1Ev
libtensorflow_framework.so:_ZN10tensorflow10RunOptionsD2Ev
libtensorflow_framework.so:_ZN10tensorflow10SavedModel10SharedCtorEv
libtensorflow_framework.so:_ZN10tensorflow10SavedModel10SharedDtorEv
libtensorflow_framework.so:_ZN10tensorflow10SavedModel10descriptorEv
libtensorflow_framework.so:_ZN10tensorflow10SavedModel12InternalSwapEPS0_
libtensorflow_framework.so:_ZN10tensorflow10SavedModel15UnsafeArenaSwapEPS0_
libtensorflow_framework.so:_ZN10tensorflow10SavedModel16default_instanceEv
libtensorflow_framework.so:_ZN10tensorflow10SavedModel17clear_meta_graphsEv
libtensorflow_framework.so:_ZN10tensorflow10SavedModel21InitAsDefaultInstanceEv
libtensorflow_framework.so:_ZN10tensorflow10SavedModel27MergePartialFromCodedStreamEPN6google8protobuf2io16CodedInputStreamE
libtensorflow_framework.so:_ZN10tensorflow10SavedModel4SwapEPS0_
libtensorflow_framework.so:_ZN10tensorflow10SavedModel5ClearEv
libtensorflow_framework.so:_ZN10tensorflow10SavedModel8CopyFromERKN6google8protobuf7MessageE
libtensorflow_framework.so:_ZN10tensorflow10SavedModel8CopyFromERKS0_
libtensorflow_framework.so:_ZN10tensorflow10SavedModel9ArenaDtorEPv
libtensorflow_framework.so:_ZN10tensorflow10SavedModel9MergeFromERKN6google8protobuf7MessageE
libtensorflow_framework.so:_ZN10tensorflow10SavedModel9MergeFromERKS0_
libtensorflow_framework.so:_ZN10tensorflow10SavedModelC1EPN6google8protobuf5ArenaE
libtensorflow_framework.so:_ZN10tensorflow10SavedModelC1ERKS0_
libtensorflow_framework.so:_ZN10tensorflow10SavedModelC1Ev
libtensorflow_framework.so:_ZN10tensorflow10SavedModelC2EPN6google8protobuf5ArenaE
libtensorflow_framework.so:_ZN10tensorflow10SavedModelC2ERKS0_
libtensorflow_framework.so:_ZN10tensorflow10SavedModelC2Ev
libtensorflow_framework.so:_ZN10tensorflow10SavedModelD0Ev
libtensorflow_framework.so:_ZN10tensorflow10SavedModelD1Ev
libtensorflow_framework.so:_ZN10tensorflow10SavedModelD2Ev
libtensorflow_framework.so:_ZN10tensorflow10SavedSlice10SharedCtorEv
libtensorflow_framework.so:_ZN10tensorflow10SavedSlice10SharedDtorEv
libtensorflow_framework.so:_ZN10tensorflow10SavedSlice10clear_dataEv
libtensorflow_framework.so:_ZN10tensorflow10SavedSlice10descriptorEv
libtensorflow_framework.so:_ZN10tensorflow10SavedSlice11clear_sliceEv
libtensorflow_framework.so:_ZN10tensorflow10SavedSlice12InternalSwapEPS0_
libtensorflow_framework.so:_ZN10tensorflow10SavedSlice15UnsafeArenaSwapEPS0_
libtensorflow_framework.so:_ZN10tensorflow10SavedSlice16default_instanceEv
libtensorflow_framework.so:_ZN10tensorflow10SavedSlice21InitAsDefaultInstanceEv
libtensorflow_framework.so:_ZN10tensorflow10SavedSlice27MergePartialFromCodedStreamEPN6google8protobuf2io16CodedInputStreamE
libtensorflow_framework.so:_ZN10tensorflow10SavedSlice31unsafe_arena_set_allocated_dataEPNS_11TensorProtoE
libtensorflow_framework.so:_ZN10tensorflow10SavedSlice32unsafe_arena_set_allocated_sliceEPNS_16TensorSliceProtoE
libtensorflow_framework.so:_ZN10tensorflow10SavedSlice4SwapEPS0_
libtensorflow_framework.so:_ZN10tensorflow10SavedSlice5ClearEv
libtensorflow_framework.so:_ZN10tensorflow10SavedSlice8CopyFromERKN6google8protobuf7MessageE
libtensorflow_framework.so:_ZN10tensorflow10SavedSlice8CopyFromERKS0_
libtensorflow_framework.so:_ZN10tensorflow10SavedSlice9ArenaDtorEPv
libtensorflow_framework.so:_ZN10tensorflow10SavedSlice9MergeFromERKN6google8protobuf7MessageE
libtensorflow_framework.so:_ZN10tensorflow10SavedSlice9MergeFromERKS0_
libtensorflow_framework.so:_ZN10tensorflow10SavedSliceC1EPN6google8protobuf5ArenaE
libtensorflow_framework.so:_ZN10tensorflow10SavedSliceC1ERKS0_
libtensorflow_framework.so:_ZN10tensorflow10SavedSliceC1Ev
libtensorflow_framework.so:_ZN10tensorflow10SavedSliceC2EPN6google8protobuf5ArenaE
libtensorflow_framework.so:_ZN10tensorflow10SavedSliceC2ERKS0_
libtensorflow_framework.so:_ZN10tensorflow10SavedSliceC2Ev
libtensorflow_framework.so:_ZN10tensorflow10SavedSliceD0Ev
libtensorflow_framework.so:_ZN10tensorflow10SavedSliceD1Ev
libtensorflow_framework.so:_ZN10tensorflow10SavedSliceD2Ev
libtensorflow_framework.so:_ZN10tensorflow10SessionLog10SharedCtorEv
libtensorflow_framework.so:_ZN10tensorflow10SessionLog10SharedDtorEv
libtensorflow_framework.so:_ZN10tensorflow10SessionLog10descriptorEv
libtensorflow_framework.so:_ZN10tensorflow10SessionLog12InternalSwapEPS0_
libtensorflow_framework.so:_ZN10tensorflow10SessionLog15UnsafeArenaSwapEPS0_
libtensorflow_framework.so:_ZN10tensorflow10SessionLog16default_instanceEv
libtensorflow_framework.so:_ZN10tensorflow10SessionLog21InitAsDefaultInstanceEv
libtensorflow_framework.so:_ZN10tensorflow10SessionLog27MergePartialFromCodedStreamEPN6google8protobuf2io16CodedInputStreamE
libtensorflow_framework.so:_ZN10tensorflow10SessionLog4SwapEPS0_
libtensorflow_framework.so:_ZN10tensorflow10SessionLog5ClearEv
libtensorflow_framework.so:_ZN10tensorflow10SessionLog8CopyFromERKN6google8protobuf7MessageE
libtensorflow_framework.so:_ZN10tensorflow10SessionLog8CopyFromERKS0_
libtensorflow_framework.so:_ZN10tensorflow10SessionLog9ArenaDtorEPv
libtensorflow_framework.so:_ZN10tensorflow10SessionLog9MergeFromERKN6google8protobuf7MessageE
libtensorflow_framework.so:_ZN10tensorflow10SessionLog9MergeFromERKS0_
libtensorflow_framework.so:_ZN10tensorflow10SessionLogC1EPN6google8protobuf5ArenaE
libtensorflow_framework.so:_ZN10tensorflow10SessionLogC1ERKS0_
libtensorflow_framework.so:_ZN10tensorflow10SessionLogC1Ev
libtensorflow_framework.so:_ZN10tensorflow10SessionLogC2EPN6google8protobuf5ArenaE
libtensorflow_framework.so:_ZN10tensorflow10SessionLogC2ERKS0_
libtensorflow_framework.so:_ZN10tensorflow10SessionLogC2Ev
libtensorflow_framework.so:_ZN10tensorflow10SessionLogD0Ev
libtensorflow_framework.so:_ZN10tensorflow10SessionLogD1Ev
libtensorflow_framework.so:_ZN10tensorflow10SessionLogD2Ev
libtensorflow_framework.so:_ZN10tensorflow10SubProcess10ClosePipesEv
libtensorflow_framework.so:_ZN10tensorflow10SubProcess10SetProgramERKNSt7__cxx1112basic_stringIcSt11char_traitsIcESaIcEEERKSt6vectorIS6_SaIS6_EE
libtensorflow_framework.so:_ZN10tensorflow10SubProcess11CommunicateEPKNSt7__cxx1112basic_stringIcSt11char_traitsIcESaIcEEEPS6_S9_
libtensorflow_framework.so:_ZN10tensorflow10SubProcess12WaitInternalEPi
libtensorflow_framework.so:_ZN10tensorflow10SubProcess16SetChannelActionENS_7ChannelENS_13ChannelActionE
libtensorflow_framework.so:_ZN10tensorflow10SubProcess4KillEi
libtensorflow_framework.so:_ZN10tensorflow10SubProcess4WaitEv
libtensorflow_framework.so:_ZN10tensorflow10SubProcess5StartEv
libtensorflow_framework.so:_ZN10tensorflow10SubProcess8FreeArgsEv
libtensorflow_framework.so:_ZN10tensorflow10SubProcessC1Ei
libtensorflow_framework.so:_ZN10tensorflow10SubProcessC2Ei
libtensorflow_framework.so:_ZN10tensorflow10SubProcessD0Ev
libtensorflow_framework.so:_ZN10tensorflow10SubProcessD1Ev
libtensorflow_framework.so:_ZN10tensorflow10SubProcessD2Ev
libtensorflow_framework.so:_ZN10tensorflow10TensorInfo10SharedCtorEv
libtensorflow_framework.so:_ZN10tensorflow10TensorInfo10SharedDtorEv
libtensorflow_framework.so:_ZN10tensorflow10TensorInfo10descriptorEv
libtensorflow_framework.so:_ZN10tensorflow10TensorInfo12InternalSwapEPS0_
libtensorflow_framework.so:_ZN10tensorflow10TensorInfo14clear_encodingEv
libtensorflow_framework.so:_ZN10tensorflow10TensorInfo15UnsafeArenaSwapEPS0_
libtensorflow_framework.so:_ZN10tensorflow10TensorInfo16default_instanceEv
libtensorflow_framework.so:_ZN10tensorflow10TensorInfo18clear_tensor_shapeEv
libtensorflow_framework.so:_ZN10tensorflow10TensorInfo21InitAsDefaultInstanceEv
libtensorflow_framework.so:_ZN10tensorflow10TensorInfo24set_allocated_coo_sparseEPNS_20TensorInfo_CooSparseE
libtensorflow_framework.so:_ZN10tensorflow10TensorInfo27MergePartialFromCodedStreamEPN6google8protobuf2io16CodedInputStreamE
libtensorflow_framework.so:_ZN10tensorflow10TensorInfo39unsafe_arena_set_allocated_tensor_shapeEPNS_16TensorShapeProtoE
libtensorflow_framework.so:_ZN10tensorflow10TensorInfo4SwapEPS0_
libtensorflow_framework.so:_ZN10tensorflow10TensorInfo5ClearEv
libtensorflow_framework.so:_ZN10tensorflow10TensorInfo8CopyFromERKN6google8protobuf7MessageE
libtensorflow_framework.so:_ZN10tensorflow10TensorInfo8CopyFromERKS0_
libtensorflow_framework.so:_ZN10tensorflow10TensorInfo9ArenaDtorEPv
libtensorflow_framework.so:_ZN10tensorflow10TensorInfo9MergeFromERKN6google8protobuf7MessageE
libtensorflow_framework.so:_ZN10tensorflow10TensorInfo9MergeFromERKS0_
libtensorflow_framework.so:_ZN10tensorflow10TensorInfoC1EPN6google8protobuf5ArenaE
libtensorflow_framework.so:_ZN10tensorflow10TensorInfoC1ERKS0_
libtensorflow_framework.so:_ZN10tensorflow10TensorInfoC1Ev
libtensorflow_framework.so:_ZN10tensorflow10TensorInfoC2EPN6google8protobuf5ArenaE
libtensorflow_framework.so:_ZN10tensorflow10TensorInfoC2ERKS0_
libtensorflow_framework.so:_ZN10tensorflow10TensorInfoC2Ev
libtensorflow_framework.so:_ZN10tensorflow10TensorInfoD0Ev
libtensorflow_framework.so:_ZN10tensorflow10TensorInfoD1Ev
libtensorflow_framework.so:_ZN10tensorflow10TensorInfoD2Ev
libtensorflow_framework.so:_ZN10tensorflow10ToGraphDefEPKNS_5GraphEPNS_8GraphDefEb
libtensorflow_framework.so:_ZN10tensorflow10VersionDef10SharedCtorEv
libtensorflow_framework.so:_ZN10tensorflow10VersionDef10SharedDtorEv
libtensorflow_framework.so:_ZN10tensorflow10VersionDef10descriptorEv
libtensorflow_framework.so:_ZN10tensorflow10VersionDef12InternalSwapEPS0_
libtensorflow_framework.so:_ZN10tensorflow10VersionDef15UnsafeArenaSwapEPS0_
libtensorflow_framework.so:_ZN10tensorflow10VersionDef16default_instanceEv
libtensorflow_framework.so:_ZN10tensorflow10VersionDef21InitAsDefaultInstanceEv
libtensorflow_framework.so:_ZN10tensorflow10VersionDef27MergePartialFromCodedStreamEPN6google8protobuf2io16CodedInputStreamE
libtensorflow_framework.so:_ZN10tensorflow10VersionDef4SwapEPS0_
libtensorflow_framework.so:_ZN10tensorflow10VersionDef5ClearEv
libtensorflow_framework.so:_ZN10tensorflow10VersionDef8CopyFromERKN6google8protobuf7MessageE
libtensorflow_framework.so:_ZN10tensorflow10VersionDef8CopyFromERKS0_
libtensorflow_framework.so:_ZN10tensorflow10VersionDef9ArenaDtorEPv
libtensorflow_framework.so:_ZN10tensorflow10VersionDef9MergeFromERKN6google8protobuf7MessageE
libtensorflow_framework.so:_ZN10tensorflow10VersionDef9MergeFromERKS0_
libtensorflow_framework.so:_ZN10tensorflow10VersionDefC1EPN6google8protobuf5ArenaE
libtensorflow_framework.so:_ZN10tensorflow10VersionDefC1ERKS0_
libtensorflow_framework.so:_ZN10tensorflow10VersionDefC1Ev
libtensorflow_framework.so:_ZN10tensorflow10VersionDefC2EPN6google8protobuf5ArenaE
libtensorflow_framework.so:_ZN10tensorflow10VersionDefC2ERKS0_
libtensorflow_framework.so:_ZN10tensorflow10VersionDefC2Ev
libtensorflow_framework.so:_ZN10tensorflow10VersionDefD0Ev
libtensorflow_framework.so:_ZN10tensorflow10VersionDefD1Ev
libtensorflow_framework.so:_ZN10tensorflow10VersionDefD2Ev
libtensorflow_framework.so:_ZN10tensorflow10batch_util14SetElementZeroEPNS_6TensorERKS1_
libtensorflow_framework.so:_ZN10tensorflow10batch_util18CopyElementToSliceENS_6TensorEPS1_x
libtensorflow_framework.so:_ZN10tensorflow10batch_util18CopySliceToElementERKNS_6TensorEPS1_x
libtensorflow_framework.so:_ZN10tensorflow10batch_util23MaybeMoveSliceToElementEPNS_6TensorES2_x
libtensorflow_framework.so:_ZN10tensorflow10batch_util24CopyElementToLargerSliceERKNS_6TensorEPS1_i
libtensorflow_framework.so:_ZN10tensorflow10batch_util28ValidateElementToLargerSliceERKNS_6TensorEPS1_
libtensorflow_framework.so:_ZN10tensorflow10checkpoint14TensorSliceSet8RegisterERKNS_11TensorSliceERKNSt7__cxx1112basic_stringIcSt11char_traitsIcESaIcEEEPKf
libtensorflow_framework.so:_ZN10tensorflow10checkpoint14TensorSliceSetC1ERKNS_11TensorShapeENS_8DataTypeE
libtensorflow_framework.so:_ZN10tensorflow10checkpoint14TensorSliceSetC2ERKNS_11TensorShapeENS_8DataTypeE
libtensorflow_framework.so:_ZN10tensorflow10checkpoint14TensorSliceSetD0Ev
libtensorflow_framework.so:_ZN10tensorflow10checkpoint14TensorSliceSetD1Ev
libtensorflow_framework.so:_ZN10tensorflow10checkpoint14TensorSliceSetD2Ev
libtensorflow_framework.so:_ZN10tensorflow10checkpoint17TensorSliceReader5TableD0Ev
libtensorflow_framework.so:_ZN10tensorflow10checkpoint17TensorSliceReader5TableD1Ev
libtensorflow_framework.so:_ZN10tensorflow10checkpoint17TensorSliceReader5TableD2Ev
libtensorflow_framework.so:_ZN10tensorflow10checkpoint17TensorSliceReaderC1ERKNSt7__cxx1112basic_stringIcSt11char_traitsIcESaIcEEE
libtensorflow_framework.so:_ZN10tensorflow10checkpoint17TensorSliceReaderC1ERKNSt7__cxx1112basic_stringIcSt11char_traitsIcESaIcEEESt8functionIFNS_6StatusES9_PPNS1_5TableEEE
libtensorflow_framework.so:_ZN10tensorflow10checkpoint17TensorSliceReaderC1ERKNSt7__cxx1112basic_stringIcSt11char_traitsIcESaIcEEESt8functionIFNS_6StatusES9_PPNS1_5TableEEEi
libtensorflow_framework.so:_ZN10tensorflow10checkpoint17TensorSliceReaderC2ERKNSt7__cxx1112basic_stringIcSt11char_traitsIcESaIcEEE
libtensorflow_framework.so:_ZN10tensorflow10checkpoint17TensorSliceReaderC2ERKNSt7__cxx1112basic_stringIcSt11char_traitsIcESaIcEEESt8functionIFNS_6StatusES9_PPNS1_5TableEEE
libtensorflow_framework.so:_ZN10tensorflow10checkpoint17TensorSliceReaderC2ERKNSt7__cxx1112basic_stringIcSt11char_traitsIcESaIcEEESt8functionIFNS_6StatusES9_PPNS1_5TableEEEi
libtensorflow_framework.so:_ZN10tensorflow10checkpoint17TensorSliceReaderD0Ev
libtensorflow_framework.so:_ZN10tensorflow10checkpoint17TensorSliceReaderD1Ev
libtensorflow_framework.so:_ZN10tensorflow10checkpoint17TensorSliceReaderD2Ev
libtensorflow_framework.so:_ZN10tensorflow10checkpoint17TensorSliceWriter18MaxBytesPerElementENS_8DataTypeE
libtensorflow_framework.so:_ZN10tensorflow10checkpoint17TensorSliceWriter6FinishEv
libtensorflow_framework.so:_ZN10tensorflow10checkpoint17TensorSliceWriter8SaveDataINSt7__cxx1112basic_stringIcSt11char_traitsIcESaIcEEEEENS_6StatusEPKT_xPNS_10SavedSliceE
libtensorflow_framework.so:_ZN10tensorflow10checkpoint17TensorSliceWriterC1ERKNSt7__cxx1112basic_stringIcSt11char_traitsIcESaIcEEESt8functionIFNS_6StatusES9_PPNS1_7BuilderEEE
libtensorflow_framework.so:_ZN10tensorflow10checkpoint17TensorSliceWriterC2ERKNSt7__cxx1112basic_stringIcSt11char_traitsIcESaIcEEESt8functionIFNS_6StatusES9_PPNS1_7BuilderEEE
libtensorflow_framework.so:_ZN10tensorflow10checkpoint18ParseShapeAndSliceERKNSt7__cxx1112basic_stringIcSt11char_traitsIcESaIcEEEPNS_11TensorShapeEPNS_11TensorSliceESA_
libtensorflow_framework.so:_ZN10tensorflow10checkpoint19RegisterTensorSliceERKNSt7__cxx1112basic_stringIcSt11char_traitsIcESaIcEEERKNS_11TensorShapeENS_8DataTypeES8_RKNS_11TensorSliceEPSt13unordered_mapIS6_PNS0_14TensorSliceSetESt4hashIS6_ESt8equal_toIS6_ESaISt4pairIS7_SI_EEE
libtensorflow_framework.so:_ZN10tensorflow10checkpoint21DecodeTensorNameSliceERKNSt7__cxx1112basic_stringIcSt11char_traitsIcESaIcEEEPS6_PNS_11TensorSliceE
libtensorflow_framework.so:_ZN10tensorflow10checkpoint21EncodeTensorNameSliceERKNSt7__cxx1112basic_stringIcSt11char_traitsIcESaIcEEERKNS_11TensorSliceE
libtensorflow_framework.so:_ZN10tensorflow10checkpoint22TensorSliceReaderCache9GetReaderERKNSt7__cxx1112basic_stringIcSt11char_traitsIcESaIcEEESt8functionIFNS_6StatusES9_PPNS0_17TensorSliceReader5TableEEEi
libtensorflow_framework.so:_ZN10tensorflow10checkpoint22TensorSliceReaderCacheC1Ev
libtensorflow_framework.so:_ZN10tensorflow10checkpoint22TensorSliceReaderCacheC2Ev
libtensorflow_framework.so:_ZN10tensorflow10checkpoint22TensorSliceReaderCacheD1Ev
libtensorflow_framework.so:_ZN10tensorflow10checkpoint22TensorSliceReaderCacheD2Ev
libtensorflow_framework.so:_ZN10tensorflow10checkpoint26OpenTableTensorSliceReaderERKNSt7__cxx1112basic_stringIcSt11char_traitsIcESaIcEEEPPNS0_17TensorSliceReader5TableE
libtensorflow_framework.so:_ZN10tensorflow10checkpoint29CreateTableTensorSliceBuilderERKNSt7__cxx1112basic_stringIcSt11char_traitsIcESaIcEEEPPNS0_17TensorSliceWriter7BuilderE
libtensorflow_framework.so:_ZN10tensorflow10checkpoint29TensorSliceReaderCacheWrapperC1Ev
libtensorflow_framework.so:_ZN10tensorflow10checkpoint29TensorSliceReaderCacheWrapperC2Ev
libtensorflow_framework.so:_ZN10tensorflow10checkpoint29TensorSliceReaderCacheWrapperD1Ev
libtensorflow_framework.so:_ZN10tensorflow10checkpoint29TensorSliceReaderCacheWrapperD2Ev
libtensorflow_framework.so:_ZN10tensorflow10monitoring18CollectionRegistry10UnregisterEPKNS0_17AbstractMetricDefE
libtensorflow_framework.so:_ZN10tensorflow10monitoring18CollectionRegistry7DefaultEv
libtensorflow_framework.so:_ZN10tensorflow10monitoring18CollectionRegistry8RegisterEPKNS0_17AbstractMetricDefERKSt8functionIFvNS0_21MetricCollectorGetterEEE
libtensorflow_framework.so:_ZN10tensorflow10monitoring18CollectionRegistryC1EPNS_3EnvE
libtensorflow_framework.so:_ZN10tensorflow10monitoring18CollectionRegistryC2EPNS_3EnvE
libtensorflow_framework.so:_ZN10tensorflow10monitoring7Buckets11ExponentialEddi
libtensorflow_framework.so:_ZN10tensorflow10monitoring7Buckets8ExplicitESt16initializer_listIdE
libtensorflow_framework.so:_ZN10tensorflow10monitoring8internal9Collector19CollectMetricValuesERKNS0_18CollectionRegistry14CollectionInfoE
libtensorflow_framework.so:_ZN10tensorflow10monitoring8internal9Collector23CollectMetricDescriptorEPKNS0_17AbstractMetricDefE
libtensorflow_framework.so:_ZN10tensorflow10monitoring8internal9Collector23ConsumeCollectedMetricsEv
libtensorflow_framework.so:_ZN10tensorflow11AddNodeAttrENS_11StringPieceENS_3gtl10ArraySliceINS_11TensorShapeEEEPNS_7NodeDefE
libtensorflow_framework.so:_ZN10tensorflow11AddNodeAttrENS_11StringPieceENS_3gtl10ArraySliceINS_12NameAttrListEEEPNS_7NodeDefE
libtensorflow_framework.so:_ZN10tensorflow11AddNodeAttrENS_11StringPieceENS_3gtl10ArraySliceINS_16TensorShapeProtoEEEPNS_7NodeDefE
libtensorflow_framework.so:_ZN10tensorflow11AddNodeAttrENS_11StringPieceENS_3gtl10ArraySliceINS_18PartialTensorShapeEEEPNS_7NodeDefE
libtensorflow_framework.so:_ZN10tensorflow11AddNodeAttrENS_11StringPieceENS_3gtl10ArraySliceINS_6TensorEEEPNS_7NodeDefE
libtensorflow_framework.so:_ZN10tensorflow11AddNodeAttrENS_11StringPieceENS_3gtl10ArraySliceINS_8DataTypeEEEPNS_7NodeDefE
libtensorflow_framework.so:_ZN10tensorflow11AddNodeAttrENS_11StringPieceENS_3gtl10ArraySliceINSt7__cxx1112basic_stringIcSt11char_traitsIcESaIcEEEEEPNS_7NodeDefE
libtensorflow_framework.so:_ZN10tensorflow11AddNodeAttrENS_11StringPieceENS_3gtl10ArraySliceIPKcEEPNS_7NodeDefE
libtensorflow_framework.so:_ZN10tensorflow11AddNodeAttrENS_11StringPieceENS_3gtl10ArraySliceIS0_EEPNS_7NodeDefE
libtensorflow_framework.so:_ZN10tensorflow11AddNodeAttrENS_11StringPieceENS_3gtl10ArraySliceIbEEPNS_7NodeDefE
libtensorflow_framework.so:_ZN10tensorflow11AddNodeAttrENS_11StringPieceENS_3gtl10ArraySliceIfEEPNS_7NodeDefE
libtensorflow_framework.so:_ZN10tensorflow11AddNodeAttrENS_11StringPieceENS_3gtl10ArraySliceIiEEPNS_7NodeDefE
libtensorflow_framework.so:_ZN10tensorflow11AddNodeAttrENS_11StringPieceENS_3gtl10ArraySliceIxEEPNS_7NodeDefE
libtensorflow_framework.so:_ZN10tensorflow11AddNodeAttrENS_11StringPieceENS_8DataTypeEPNS_7NodeDefE
libtensorflow_framework.so:_ZN10tensorflow11AddNodeAttrENS_11StringPieceEPKcPNS_7NodeDefE
libtensorflow_framework.so:_ZN10tensorflow11AddNodeAttrENS_11StringPieceERKNS_11TensorProtoEPNS_7NodeDefE
libtensorflow_framework.so:_ZN10tensorflow11AddNodeAttrENS_11StringPieceERKNS_12NameAttrListEPNS_7NodeDefE
libtensorflow_framework.so:_ZN10tensorflow11AddNodeAttrENS_11StringPieceERKNS_18PartialTensorShapeEPNS_7NodeDefE
libtensorflow_framework.so:_ZN10tensorflow11AddNodeAttrENS_11StringPieceERKNS_6TensorEPNS_7NodeDefE
libtensorflow_framework.so:_ZN10tensorflow11AddNodeAttrENS_11StringPieceERKNS_9AttrValueEPNS_7NodeDefE
libtensorflow_framework.so:_ZN10tensorflow11AddNodeAttrENS_11StringPieceERKSt6vectorIbSaIbEEPNS_7NodeDefE
libtensorflow_framework.so:_ZN10tensorflow11AddNodeAttrENS_11StringPieceES0_PNS_7NodeDefE
libtensorflow_framework.so:_ZN10tensorflow11AddNodeAttrENS_11StringPieceEbPNS_7NodeDefE
libtensorflow_framework.so:_ZN10tensorflow11AddNodeAttrENS_11StringPieceEdPNS_7NodeDefE
libtensorflow_framework.so:_ZN10tensorflow11AddNodeAttrENS_11StringPieceEfPNS_7NodeDefE
libtensorflow_framework.so:_ZN10tensorflow11AddNodeAttrENS_11StringPieceEiPNS_7NodeDefE
libtensorflow_framework.so:_ZN10tensorflow11AddNodeAttrENS_11StringPieceExPNS_7NodeDefE
libtensorflow_framework.so:_ZN10tensorflow11ApiDef_Attr10SharedCtorEv
libtensorflow_framework.so:_ZN10tensorflow11ApiDef_Attr10SharedDtorEv
libtensorflow_framework.so:_ZN10tensorflow11ApiDef_Attr10descriptorEv
libtensorflow_framework.so:_ZN10tensorflow11ApiDef_Attr12InternalSwapEPS0_
libtensorflow_framework.so:_ZN10tensorflow11ApiDef_Attr15UnsafeArenaSwapEPS0_
libtensorflow_framework.so:_ZN10tensorflow11ApiDef_Attr16default_instanceEv
libtensorflow_framework.so:_ZN10tensorflow11ApiDef_Attr19clear_default_valueEv
libtensorflow_framework.so:_ZN10tensorflow11ApiDef_Attr21InitAsDefaultInstanceEv
libtensorflow_framework.so:_ZN10tensorflow11ApiDef_Attr27MergePartialFromCodedStreamEPN6google8protobuf2io16CodedInputStreamE
libtensorflow_framework.so:_ZN10tensorflow11ApiDef_Attr40unsafe_arena_set_allocated_default_valueEPNS_9AttrValueE
libtensorflow_framework.so:_ZN10tensorflow11ApiDef_Attr4SwapEPS0_
libtensorflow_framework.so:_ZN10tensorflow11ApiDef_Attr5ClearEv
libtensorflow_framework.so:_ZN10tensorflow11ApiDef_Attr8CopyFromERKN6google8protobuf7MessageE
libtensorflow_framework.so:_ZN10tensorflow11ApiDef_Attr8CopyFromERKS0_
libtensorflow_framework.so:_ZN10tensorflow11ApiDef_Attr9ArenaDtorEPv
libtensorflow_framework.so:_ZN10tensorflow11ApiDef_Attr9MergeFromERKN6google8protobuf7MessageE
libtensorflow_framework.so:_ZN10tensorflow11ApiDef_Attr9MergeFromERKS0_
libtensorflow_framework.so:_ZN10tensorflow11ApiDef_AttrC1EPN6google8protobuf5ArenaE
libtensorflow_framework.so:_ZN10tensorflow11ApiDef_AttrC1ERKS0_
libtensorflow_framework.so:_ZN10tensorflow11ApiDef_AttrC1Ev
libtensorflow_framework.so:_ZN10tensorflow11ApiDef_AttrC2EPN6google8protobuf5ArenaE
libtensorflow_framework.so:_ZN10tensorflow11ApiDef_AttrC2ERKS0_
libtensorflow_framework.so:_ZN10tensorflow11ApiDef_AttrC2Ev
libtensorflow_framework.so:_ZN10tensorflow11ApiDef_AttrD0Ev
libtensorflow_framework.so:_ZN10tensorflow11ApiDef_AttrD1Ev
libtensorflow_framework.so:_ZN10tensorflow11ApiDef_AttrD2Ev
libtensorflow_framework.so:_ZN10tensorflow11AttrDefHashERKNS_13OpDef_AttrDefE
libtensorflow_framework.so:_ZN10tensorflow11Broadcaster10TreeSendToERKNS_16CollectiveParamsEPSt6vectorIiSaIiEE
libtensorflow_framework.so:_ZN10tensorflow11Broadcaster12DispatchRecvEiPNS_6TensorERKSt8functionIFvRKNS_6StatusEEE
libtensorflow_framework.so:_ZN10tensorflow11Broadcaster12DispatchSendEiPKNS_6TensorERKSt8functionIFvRKNS_6StatusEEE
libtensorflow_framework.so:_ZN10tensorflow11Broadcaster12TreeRecvFromERKNS_16CollectiveParamsE
libtensorflow_framework.so:_ZN10tensorflow11Broadcaster3RunESt8functionIFvRKNS_6StatusEEE
libtensorflow_framework.so:_ZN10tensorflow11Broadcaster7RunTreeEv
libtensorflow_framework.so:_ZN10tensorflow11BroadcasterC1EPNS_18CollectiveExecutorEPKNS_9DeviceMgrEPNS_15OpKernelContextEPNS6_6ParamsERKNS_16CollectiveParamsERKNSt7__cxx1112basic_stringIcSt11char_traitsIcESaIcEEExPNS_6TensorE
libtensorflow_framework.so:_ZN10tensorflow11BroadcasterC2EPNS_18CollectiveExecutorEPKNS_9DeviceMgrEPNS_15OpKernelContextEPNS6_6ParamsERKNS_16CollectiveParamsERKNSt7__cxx1112basic_stringIcSt11char_traitsIcESaIcEEExPNS_6TensorE
libtensorflow_framework.so:_ZN10tensorflow11CanUseCudnnEv
libtensorflow_framework.so:_ZN10tensorflow11ComputePoolERKNS_14SessionOptionsE
libtensorflow_framework.so:_ZN10tensorflow11ConfigProto10SharedCtorEv
libtensorflow_framework.so:_ZN10tensorflow11ConfigProto10SharedDtorEv
libtensorflow_framework.so:_ZN10tensorflow11ConfigProto10descriptorEv
libtensorflow_framework.so:_ZN10tensorflow11ConfigProto12InternalSwapEPS0_
libtensorflow_framework.so:_ZN10tensorflow11ConfigProto15UnsafeArenaSwapEPS0_
libtensorflow_framework.so:_ZN10tensorflow11ConfigProto16default_instanceEv
libtensorflow_framework.so:_ZN10tensorflow11ConfigProto17clear_cluster_defEv
libtensorflow_framework.so:_ZN10tensorflow11ConfigProto21InitAsDefaultInstanceEv
libtensorflow_framework.so:_ZN10tensorflow11ConfigProto27MergePartialFromCodedStreamEPN6google8protobuf2io16CodedInputStreamE
libtensorflow_framework.so:_ZN10tensorflow11ConfigProto38unsafe_arena_set_allocated_cluster_defEPNS_10ClusterDefE
libtensorflow_framework.so:_ZN10tensorflow11ConfigProto38unsafe_arena_set_allocated_gpu_optionsEPNS_10GPUOptionsE
libtensorflow_framework.so:_ZN10tensorflow11ConfigProto38unsafe_arena_set_allocated_rpc_optionsEPNS_10RPCOptionsE
libtensorflow_framework.so:_ZN10tensorflow11ConfigProto39unsafe_arena_set_allocated_experimentalEPNS_24ConfigProto_ExperimentalE
libtensorflow_framework.so:_ZN10tensorflow11ConfigProto40unsafe_arena_set_allocated_graph_optionsEPNS_12GraphOptionsE
libtensorflow_framework.so:_ZN10tensorflow11ConfigProto4SwapEPS0_
libtensorflow_framework.so:_ZN10tensorflow11ConfigProto5ClearEv
libtensorflow_framework.so:_ZN10tensorflow11ConfigProto8CopyFromERKN6google8protobuf7MessageE
libtensorflow_framework.so:_ZN10tensorflow11ConfigProto8CopyFromERKS0_
libtensorflow_framework.so:_ZN10tensorflow11ConfigProto9ArenaDtorEPv
libtensorflow_framework.so:_ZN10tensorflow11ConfigProto9MergeFromERKN6google8protobuf7MessageE
libtensorflow_framework.so:_ZN10tensorflow11ConfigProto9MergeFromERKS0_
libtensorflow_framework.so:_ZN10tensorflow11ConfigProtoC1EPN6google8protobuf5ArenaE
libtensorflow_framework.so:_ZN10tensorflow11ConfigProtoC1ERKS0_
libtensorflow_framework.so:_ZN10tensorflow11ConfigProtoC1Ev
libtensorflow_framework.so:_ZN10tensorflow11ConfigProtoC2EPN6google8protobuf5ArenaE
libtensorflow_framework.so:_ZN10tensorflow11ConfigProtoC2ERKS0_
libtensorflow_framework.so:_ZN10tensorflow11ConfigProtoC2Ev
libtensorflow_framework.so:_ZN10tensorflow11ConfigProtoD0Ev
libtensorflow_framework.so:_ZN10tensorflow11ConfigProtoD1Ev
libtensorflow_framework.so:_ZN10tensorflow11ConfigProtoD2Ev
libtensorflow_framework.so:_ZN10tensorflow11DebugStringB5cxx11ENS_3gtl10ArraySliceINS_7NodeDefEEE
libtensorflow_framework.so:_ZN10tensorflow11DebugStringB5cxx11EPKNS_5GraphE
libtensorflow_framework.so:_ZN10tensorflow11DebugStringB5cxx11ERKNS_11FunctionDefE
libtensorflow_framework.so:_ZN10tensorflow11DebugStringB5cxx11ERKNS_8GraphDefE
libtensorflow_framework.so:_ZN10tensorflow11ErrnoToCodeEi
libtensorflow_framework.so:_ZN10tensorflow11FeatureList10SharedCtorEv
libtensorflow_framework.so:_ZN10tensorflow11FeatureList10SharedDtorEv
libtensorflow_framework.so:_ZN10tensorflow11FeatureList10descriptorEv
libtensorflow_framework.so:_ZN10tensorflow11FeatureList12InternalSwapEPS0_
libtensorflow_framework.so:_ZN10tensorflow11FeatureList15UnsafeArenaSwapEPS0_
libtensorflow_framework.so:_ZN10tensorflow11FeatureList16default_instanceEv
libtensorflow_framework.so:_ZN10tensorflow11FeatureList21InitAsDefaultInstanceEv
libtensorflow_framework.so:_ZN10tensorflow11FeatureList27MergePartialFromCodedStreamEPN6google8protobuf2io16CodedInputStreamE
libtensorflow_framework.so:_ZN10tensorflow11FeatureList4SwapEPS0_
libtensorflow_framework.so:_ZN10tensorflow11FeatureList5ClearEv
libtensorflow_framework.so:_ZN10tensorflow11FeatureList8CopyFromERKN6google8protobuf7MessageE
libtensorflow_framework.so:_ZN10tensorflow11FeatureList8CopyFromERKS0_
libtensorflow_framework.so:_ZN10tensorflow11FeatureList9ArenaDtorEPv
libtensorflow_framework.so:_ZN10tensorflow11FeatureList9MergeFromERKN6google8protobuf7MessageE
libtensorflow_framework.so:_ZN10tensorflow11FeatureList9MergeFromERKS0_
libtensorflow_framework.so:_ZN10tensorflow11FeatureListC1EPN6google8protobuf5ArenaE
libtensorflow_framework.so:_ZN10tensorflow11FeatureListC1ERKS0_
libtensorflow_framework.so:_ZN10tensorflow11FeatureListC1Ev
libtensorflow_framework.so:_ZN10tensorflow11FeatureListC2EPN6google8protobuf5ArenaE
libtensorflow_framework.so:_ZN10tensorflow11FeatureListC2ERKS0_
libtensorflow_framework.so:_ZN10tensorflow11FeatureListC2Ev
libtensorflow_framework.so:_ZN10tensorflow11FeatureListD0Ev
libtensorflow_framework.so:_ZN10tensorflow11FeatureListD1Ev
libtensorflow_framework.so:_ZN10tensorflow11FeatureListD2Ev
libtensorflow_framework.so:_ZN10tensorflow11FunctionDef10SharedCtorEv
libtensorflow_framework.so:_ZN10tensorflow11FunctionDef10SharedDtorEv
libtensorflow_framework.so:_ZN10tensorflow11FunctionDef10clear_attrEv
libtensorflow_framework.so:_ZN10tensorflow11FunctionDef10descriptorEv
libtensorflow_framework.so:_ZN10tensorflow11FunctionDef12InternalSwapEPS0_
libtensorflow_framework.so:_ZN10tensorflow11FunctionDef14clear_node_defEv
libtensorflow_framework.so:_ZN10tensorflow11FunctionDef15UnsafeArenaSwapEPS0_
libtensorflow_framework.so:_ZN10tensorflow11FunctionDef15clear_signatureEv
libtensorflow_framework.so:_ZN10tensorflow11FunctionDef16default_instanceEv
libtensorflow_framework.so:_ZN10tensorflow11FunctionDef21InitAsDefaultInstanceEv
libtensorflow_framework.so:_ZN10tensorflow11FunctionDef27MergePartialFromCodedStreamEPN6google8protobuf2io16CodedInputStreamE
libtensorflow_framework.so:_ZN10tensorflow11FunctionDef36unsafe_arena_set_allocated_signatureEPNS_5OpDefE
libtensorflow_framework.so:_ZN10tensorflow11FunctionDef4SwapEPS0_
libtensorflow_framework.so:_ZN10tensorflow11FunctionDef5ClearEv
libtensorflow_framework.so:_ZN10tensorflow11FunctionDef8CopyFromERKN6google8protobuf7MessageE
libtensorflow_framework.so:_ZN10tensorflow11FunctionDef8CopyFromERKS0_
libtensorflow_framework.so:_ZN10tensorflow11FunctionDef9ArenaDtorEPv
libtensorflow_framework.so:_ZN10tensorflow11FunctionDef9MergeFromERKN6google8protobuf7MessageE
libtensorflow_framework.so:_ZN10tensorflow11FunctionDef9MergeFromERKS0_
libtensorflow_framework.so:_ZN10tensorflow11FunctionDefC1EPN6google8protobuf5ArenaE
libtensorflow_framework.so:_ZN10tensorflow11FunctionDefC1ERKS0_
libtensorflow_framework.so:_ZN10tensorflow11FunctionDefC1Ev
libtensorflow_framework.so:_ZN10tensorflow11FunctionDefC2EPN6google8protobuf5ArenaE
libtensorflow_framework.so:_ZN10tensorflow11FunctionDefC2ERKS0_
libtensorflow_framework.so:_ZN10tensorflow11FunctionDefC2Ev
libtensorflow_framework.so:_ZN10tensorflow11FunctionDefD0Ev
libtensorflow_framework.so:_ZN10tensorflow11FunctionDefD1Ev
libtensorflow_framework.so:_ZN10tensorflow11FunctionDefD2Ev
libtensorflow_framework.so:_ZN10tensorflow11GetFeaturesINS_7ExampleEEENSt9enable_ifIXsrNS_15TypeHasFeaturesIT_EE5valueEPNS_8FeaturesEE4typeEPS4_
libtensorflow_framework.so:_ZN10tensorflow11GetFeaturesINS_7ExampleEEENSt9enable_ifIXsrNS_15TypeHasFeaturesIT_EE5valueERKNS_8FeaturesEE4typeERKS4_
libtensorflow_framework.so:_ZN10tensorflow11GetFeaturesINS_8FeaturesEEENSt9enable_ifIXsrNS_15TypeHasFeaturesIT_EE5valueEPS1_E4typeEPS4_
libtensorflow_framework.so:_ZN10tensorflow11GetFeaturesINS_8FeaturesEEENSt9enable_ifIXsrNS_15TypeHasFeaturesIT_EE5valueERKS1_E4typeERKS4_
libtensorflow_framework.so:_ZN10tensorflow11GetNodeAttrERKNS_7NodeDefENS_11StringPieceEPNS_13MirrorPadModeE
libtensorflow_framework.so:_ZN10tensorflow11GetNodeAttrERKNS_7NodeDefENS_11StringPieceEPNS_7PaddingE
libtensorflow_framework.so:_ZN10tensorflow11GetNodeAttrERKNS_9AttrSliceENS_11StringPieceEPNS_11TensorShapeE
libtensorflow_framework.so:_ZN10tensorflow11GetNodeAttrERKNS_9AttrSliceENS_11StringPieceEPNS_12NameAttrListE
libtensorflow_framework.so:_ZN10tensorflow11GetNodeAttrERKNS_9AttrSliceENS_11StringPieceEPNS_16TensorShapeProtoE
libtensorflow_framework.so:_ZN10tensorflow11GetNodeAttrERKNS_9AttrSliceENS_11StringPieceEPNS_18PartialTensorShapeE
libtensorflow_framework.so:_ZN10tensorflow11GetNodeAttrERKNS_9AttrSliceENS_11StringPieceEPNS_3gtl13InlinedVectorINS_8DataTypeELi4EEE
libtensorflow_framework.so:_ZN10tensorflow11GetNodeAttrERKNS_9AttrSliceENS_11StringPieceEPNS_6TensorE
libtensorflow_framework.so:_ZN10tensorflow11GetNodeAttrERKNS_9AttrSliceENS_11StringPieceEPNS_8DataTypeE
libtensorflow_framework.so:_ZN10tensorflow11GetNodeAttrERKNS_9AttrSliceENS_11StringPieceEPNSt7__cxx1112basic_stringIcSt11char_traitsIcESaIcEEE
libtensorflow_framework.so:_ZN10tensorflow11GetNodeAttrERKNS_9AttrSliceENS_11StringPieceEPPKNS_11TensorProtoE
libtensorflow_framework.so:_ZN10tensorflow11GetNodeAttrERKNS_9AttrSliceENS_11StringPieceEPPKNS_12NameAttrListE
libtensorflow_framework.so:_ZN10tensorflow11GetNodeAttrERKNS_9AttrSliceENS_11StringPieceEPSt6vectorINS_11TensorShapeESaIS5_EE
libtensorflow_framework.so:_ZN10tensorflow11GetNodeAttrERKNS_9AttrSliceENS_11StringPieceEPSt6vectorINS_12NameAttrListESaIS5_EE
libtensorflow_framework.so:_ZN10tensorflow11GetNodeAttrERKNS_9AttrSliceENS_11StringPieceEPSt6vectorINS_16TensorShapeProtoESaIS5_EE
libtensorflow_framework.so:_ZN10tensorflow11GetNodeAttrERKNS_9AttrSliceENS_11StringPieceEPSt6vectorINS_18PartialTensorShapeESaIS5_EE
libtensorflow_framework.so:_ZN10tensorflow11GetNodeAttrERKNS_9AttrSliceENS_11StringPieceEPSt6vectorINS_6TensorESaIS5_EE
libtensorflow_framework.so:_ZN10tensorflow11GetNodeAttrERKNS_9AttrSliceENS_11StringPieceEPSt6vectorINS_8DataTypeESaIS5_EE
libtensorflow_framework.so:_ZN10tensorflow11GetNodeAttrERKNS_9AttrSliceENS_11StringPieceEPSt6vectorINSt7__cxx1112basic_stringIcSt11char_traitsIcESaIcEEESaISA_EE
libtensorflow_framework.so:_ZN10tensorflow11GetNodeAttrERKNS_9AttrSliceENS_11StringPieceEPSt6vectorIbSaIbEE
libtensorflow_framework.so:_ZN10tensorflow11GetNodeAttrERKNS_9AttrSliceENS_11StringPieceEPSt6vectorIfSaIfEE
libtensorflow_framework.so:_ZN10tensorflow11GetNodeAttrERKNS_9AttrSliceENS_11StringPieceEPSt6vectorIiSaIiEE
libtensorflow_framework.so:_ZN10tensorflow11GetNodeAttrERKNS_9AttrSliceENS_11StringPieceEPSt6vectorIxSaIxEE
libtensorflow_framework.so:_ZN10tensorflow11GetNodeAttrERKNS_9AttrSliceENS_11StringPieceEPb
libtensorflow_framework.so:_ZN10tensorflow11GetNodeAttrERKNS_9AttrSliceENS_11StringPieceEPf
libtensorflow_framework.so:_ZN10tensorflow11GetNodeAttrERKNS_9AttrSliceENS_11StringPieceEPi
libtensorflow_framework.so:_ZN10tensorflow11GetNodeAttrERKNS_9AttrSliceENS_11StringPieceEPx
libtensorflow_framework.so:_ZN10tensorflow11GradientDef10SharedCtorEv
libtensorflow_framework.so:_ZN10tensorflow11GradientDef10SharedDtorEv
libtensorflow_framework.so:_ZN10tensorflow11GradientDef10descriptorEv
libtensorflow_framework.so:_ZN10tensorflow11GradientDef12InternalSwapEPS0_
libtensorflow_framework.so:_ZN10tensorflow11GradientDef15UnsafeArenaSwapEPS0_
libtensorflow_framework.so:_ZN10tensorflow11GradientDef16default_instanceEv
libtensorflow_framework.so:_ZN10tensorflow11GradientDef21InitAsDefaultInstanceEv
libtensorflow_framework.so:_ZN10tensorflow11GradientDef27MergePartialFromCodedStreamEPN6google8protobuf2io16CodedInputStreamE
libtensorflow_framework.so:_ZN10tensorflow11GradientDef4SwapEPS0_
libtensorflow_framework.so:_ZN10tensorflow11GradientDef5ClearEv
libtensorflow_framework.so:_ZN10tensorflow11GradientDef8CopyFromERKN6google8protobuf7MessageE
libtensorflow_framework.so:_ZN10tensorflow11GradientDef8CopyFromERKS0_
libtensorflow_framework.so:_ZN10tensorflow11GradientDef9ArenaDtorEPv
libtensorflow_framework.so:_ZN10tensorflow11GradientDef9MergeFromERKN6google8protobuf7MessageE
libtensorflow_framework.so:_ZN10tensorflow11GradientDef9MergeFromERKS0_
libtensorflow_framework.so:_ZN10tensorflow11GradientDefC1EPN6google8protobuf5ArenaE
libtensorflow_framework.so:_ZN10tensorflow11GradientDefC1ERKS0_
libtensorflow_framework.so:_ZN10tensorflow11GradientDefC1Ev
libtensorflow_framework.so:_ZN10tensorflow11GradientDefC2EPN6google8protobuf5ArenaE
libtensorflow_framework.so:_ZN10tensorflow11GradientDefC2ERKS0_
libtensorflow_framework.so:_ZN10tensorflow11GradientDefC2Ev
libtensorflow_framework.so:_ZN10tensorflow11GradientDefD0Ev
libtensorflow_framework.so:_ZN10tensorflow11GradientDefD1Ev
libtensorflow_framework.so:_ZN10tensorflow11GradientDefD2Ev
libtensorflow_framework.so:_ZN10tensorflow11GraphRunner3RunEPNS_5GraphEPNS_22FunctionLibraryRuntimeERKSt6vectorISt4pairINSt7__cxx1112basic_stringIcSt11char_traitsIcESaIcEEENS_6TensorEESaISE_EERKS5_ISC_SaISC_EEPS5_ISD_SaISD_EE
libtensorflow_framework.so:_ZN10tensorflow11GraphRunnerC1EPNS_3EnvE
libtensorflow_framework.so:_ZN10tensorflow11GraphRunnerC1EPNS_6DeviceE
libtensorflow_framework.so:_ZN10tensorflow11GraphRunnerC2EPNS_3EnvE
libtensorflow_framework.so:_ZN10tensorflow11GraphRunnerC2EPNS_6DeviceE
libtensorflow_framework.so:_ZN10tensorflow11GraphRunnerD1Ev
libtensorflow_framework.so:_ZN10tensorflow11GraphRunnerD2Ev
libtensorflow_framework.so:_ZN10tensorflow11HasNodeAttrERKNS_7NodeDefENS_11StringPieceE
libtensorflow_framework.so:_ZN10tensorflow11LoadLibraryEPKcPPvPPKvPm
libtensorflow_framework.so:_ZN10tensorflow11LocalDeviceC1ERKNS_14SessionOptionsERKNS_16DeviceAttributesE
libtensorflow_framework.so:_ZN10tensorflow11LocalDeviceC2ERKNS_14SessionOptionsERKNS_16DeviceAttributesE
libtensorflow_framework.so:_ZN10tensorflow11LocalDeviceD0Ev
libtensorflow_framework.so:_ZN10tensorflow11LocalDeviceD1Ev
libtensorflow_framework.so:_ZN10tensorflow11LocalDeviceD2Ev
libtensorflow_framework.so:_ZN10tensorflow11MemoryStats10SharedCtorEv
libtensorflow_framework.so:_ZN10tensorflow11MemoryStats10SharedDtorEv
libtensorflow_framework.so:_ZN10tensorflow11MemoryStats10descriptorEv
libtensorflow_framework.so:_ZN10tensorflow11MemoryStats12InternalSwapEPS0_
libtensorflow_framework.so:_ZN10tensorflow11MemoryStats15UnsafeArenaSwapEPS0_
libtensorflow_framework.so:_ZN10tensorflow11MemoryStats16default_instanceEv
libtensorflow_framework.so:_ZN10tensorflow11MemoryStats21InitAsDefaultInstanceEv
libtensorflow_framework.so:_ZN10tensorflow11MemoryStats27MergePartialFromCodedStreamEPN6google8protobuf2io16CodedInputStreamE
libtensorflow_framework.so:_ZN10tensorflow11MemoryStats4SwapEPS0_
libtensorflow_framework.so:_ZN10tensorflow11MemoryStats5ClearEv
libtensorflow_framework.so:_ZN10tensorflow11MemoryStats8CopyFromERKN6google8protobuf7MessageE
libtensorflow_framework.so:_ZN10tensorflow11MemoryStats8CopyFromERKS0_
libtensorflow_framework.so:_ZN10tensorflow11MemoryStats9ArenaDtorEPv
libtensorflow_framework.so:_ZN10tensorflow11MemoryStats9MergeFromERKN6google8protobuf7MessageE
libtensorflow_framework.so:_ZN10tensorflow11MemoryStats9MergeFromERKS0_
libtensorflow_framework.so:_ZN10tensorflow11MemoryStatsC1EPN6google8protobuf5ArenaE
libtensorflow_framework.so:_ZN10tensorflow11MemoryStatsC1ERKS0_
libtensorflow_framework.so:_ZN10tensorflow11MemoryStatsC1Ev
libtensorflow_framework.so:_ZN10tensorflow11MemoryStatsC2EPN6google8protobuf5ArenaE
libtensorflow_framework.so:_ZN10tensorflow11MemoryStatsC2ERKS0_
libtensorflow_framework.so:_ZN10tensorflow11MemoryStatsC2Ev
libtensorflow_framework.so:_ZN10tensorflow11MemoryStatsD0Ev
libtensorflow_framework.so:_ZN10tensorflow11MemoryStatsD1Ev
libtensorflow_framework.so:_ZN10tensorflow11MemoryStatsD2Ev
libtensorflow_framework.so:_ZN10tensorflow11NamedDevice10SharedCtorEv
libtensorflow_framework.so:_ZN10tensorflow11NamedDevice10SharedDtorEv
libtensorflow_framework.so:_ZN10tensorflow11NamedDevice10descriptorEv
libtensorflow_framework.so:_ZN10tensorflow11NamedDevice12InternalSwapEPS0_
libtensorflow_framework.so:_ZN10tensorflow11NamedDevice15UnsafeArenaSwapEPS0_
libtensorflow_framework.so:_ZN10tensorflow11NamedDevice16default_instanceEv
libtensorflow_framework.so:_ZN10tensorflow11NamedDevice21InitAsDefaultInstanceEv
libtensorflow_framework.so:_ZN10tensorflow11NamedDevice27MergePartialFromCodedStreamEPN6google8protobuf2io16CodedInputStreamE
libtensorflow_framework.so:_ZN10tensorflow11NamedDevice37unsafe_arena_set_allocated_propertiesEPNS_16DevicePropertiesE
libtensorflow_framework.so:_ZN10tensorflow11NamedDevice4SwapEPS0_
libtensorflow_framework.so:_ZN10tensorflow11NamedDevice5ClearEv
libtensorflow_framework.so:_ZN10tensorflow11NamedDevice8CopyFromERKN6google8protobuf7MessageE
libtensorflow_framework.so:_ZN10tensorflow11NamedDevice8CopyFromERKS0_
libtensorflow_framework.so:_ZN10tensorflow11NamedDevice9ArenaDtorEPv
libtensorflow_framework.so:_ZN10tensorflow11NamedDevice9MergeFromERKN6google8protobuf7MessageE
libtensorflow_framework.so:_ZN10tensorflow11NamedDevice9MergeFromERKS0_
libtensorflow_framework.so:_ZN10tensorflow11NamedDeviceC1EPN6google8protobuf5ArenaE
libtensorflow_framework.so:_ZN10tensorflow11NamedDeviceC1ERKS0_
libtensorflow_framework.so:_ZN10tensorflow11NamedDeviceC1Ev
libtensorflow_framework.so:_ZN10tensorflow11NamedDeviceC2EPN6google8protobuf5ArenaE
libtensorflow_framework.so:_ZN10tensorflow11NamedDeviceC2ERKS0_
libtensorflow_framework.so:_ZN10tensorflow11NamedDeviceC2Ev
libtensorflow_framework.so:_ZN10tensorflow11NamedDeviceD0Ev
libtensorflow_framework.so:_ZN10tensorflow11NamedDeviceD1Ev
libtensorflow_framework.so:_ZN10tensorflow11NamedDeviceD2Ev
libtensorflow_framework.so:_ZN10tensorflow11NewExecutorERKNSt7__cxx1112basic_stringIcSt11char_traitsIcESaIcEEERKNS_19LocalExecutorParamsESt10unique_ptrIKNS_5GraphESt14default_deleteISD_EEPSB_INS_8ExecutorESE_ISH_EE
libtensorflow_framework.so:_ZN10tensorflow11NodeBuilder12ControlInputEPNS_4NodeE
libtensorflow_framework.so:_ZN10tensorflow11NodeBuilder13AddIndexErrorEPKNS_4NodeEi
libtensorflow_framework.so:_ZN10tensorflow11NodeBuilder13ControlInputsENS_3gtl10ArraySliceIPNS_4NodeEEE
libtensorflow_framework.so:_ZN10tensorflow11NodeBuilder13GetOutputTypeEPKNS_4NodeEiPNS_8DataTypeE
libtensorflow_framework.so:_ZN10tensorflow11NodeBuilder5InputENS0_7NodeOutE
libtensorflow_framework.so:_ZN10tensorflow11NodeBuilder5InputENS_3gtl10ArraySliceINS0_7NodeOutEEE
libtensorflow_framework.so:_ZN10tensorflow11NodeBuilder5InputEPNS_4NodeEi
libtensorflow_framework.so:_ZN10tensorflow11NodeBuilder6DeviceENS_11StringPieceE
libtensorflow_framework.so:_ZN10tensorflow11NodeBuilder7NodeOutC1ENS_11StringPieceEiNS_8DataTypeE
libtensorflow_framework.so:_ZN10tensorflow11NodeBuilder7NodeOutC1EPNS_4NodeEi
libtensorflow_framework.so:_ZN10tensorflow11NodeBuilder7NodeOutC1Ev
libtensorflow_framework.so:_ZN10tensorflow11NodeBuilder7NodeOutC2ENS_11StringPieceEiNS_8DataTypeE
libtensorflow_framework.so:_ZN10tensorflow11NodeBuilder7NodeOutC2EPNS_4NodeEi
libtensorflow_framework.so:_ZN10tensorflow11NodeBuilder7NodeOutC2Ev
libtensorflow_framework.so:_ZN10tensorflow11NodeBuilderC1ENS_11StringPieceEPKNS_5OpDefE
libtensorflow_framework.so:_ZN10tensorflow11NodeBuilderC1ENS_11StringPieceES1_PKNS_19OpRegistryInterfaceE
libtensorflow_framework.so:_ZN10tensorflow11NodeBuilderC1ERKNS_14NodeDefBuilderE
libtensorflow_framework.so:_ZN10tensorflow11NodeBuilderC2ENS_11StringPieceEPKNS_5OpDefE
libtensorflow_framework.so:_ZN10tensorflow11NodeBuilderC2ENS_11StringPieceES1_PKNS_19OpRegistryInterfaceE
libtensorflow_framework.so:_ZN10tensorflow11NodeBuilderC2ERKNS_14NodeDefBuilderE
libtensorflow_framework.so:_ZN10tensorflow11NodeDefHashERKNS_7NodeDefERKNS_20EqualGraphDefOptionsE
libtensorflow_framework.so:_ZN10tensorflow11OptimizeCSEEPNS_5GraphERKSt8functionIFbPKNS_4NodeEEE
libtensorflow_framework.so:_ZN10tensorflow11PrepareCopyEPNS_6DeviceEPKNS_13DeviceContextERKNS_6TensorEPS6_PPKNS_10DeviceBase13GpuDeviceInfoEPPN15stream_executor6StreamE
libtensorflow_framework.so:_ZN10tensorflow11PrintMemoryB5cxx11EPKcm
libtensorflow_framework.so:_ZN10tensorflow11ResourceMgr19InsertDebugTypeNameEyRKNSt7__cxx1112basic_stringIcSt11char_traitsIcESaIcEEE
libtensorflow_framework.so:_ZN10tensorflow11ResourceMgr5ClearEv
libtensorflow_framework.so:_ZN10tensorflow11ResourceMgr6DeleteERKNS_14ResourceHandleE
libtensorflow_framework.so:_ZN10tensorflow11ResourceMgr7CleanupERKNSt7__cxx1112basic_stringIcSt11char_traitsIcESaIcEEE
libtensorflow_framework.so:_ZN10tensorflow11ResourceMgr8DoCreateERKNSt7__cxx1112basic_stringIcSt11char_traitsIcESaIcEEESt10type_indexS8_PNS_12ResourceBaseE
libtensorflow_framework.so:_ZN10tensorflow11ResourceMgr8DoDeleteERKNSt7__cxx1112basic_stringIcSt11char_traitsIcESaIcEEESt10type_indexS8_
libtensorflow_framework.so:_ZN10tensorflow11ResourceMgr8DoDeleteERKNSt7__cxx1112basic_stringIcSt11char_traitsIcESaIcEEEyS8_S8_
libtensorflow_framework.so:_ZN10tensorflow11ResourceMgrC1ERKNSt7__cxx1112basic_stringIcSt11char_traitsIcESaIcEEE
libtensorflow_framework.so:_ZN10tensorflow11ResourceMgrC1Ev
libtensorflow_framework.so:_ZN10tensorflow11ResourceMgrC2ERKNSt7__cxx1112basic_stringIcSt11char_traitsIcESaIcEEE
libtensorflow_framework.so:_ZN10tensorflow11ResourceMgrC2Ev
libtensorflow_framework.so:_ZN10tensorflow11ResourceMgrD1Ev
libtensorflow_framework.so:_ZN10tensorflow11ResourceMgrD2Ev
libtensorflow_framework.so:_ZN10tensorflow11RingReducer10FieldStateB5cxx11Ev
libtensorflow_framework.so:_ZN10tensorflow11RingReducer10StartAbortERKNS_6StatusE
libtensorflow_framework.so:_ZN10tensorflow11RingReducer10SubContextC1EPNS_15OpKernelContextEPNS2_6ParamsEPNS_8OpKernelEPNS_6TensorES9_
libtensorflow_framework.so:_ZN10tensorflow11RingReducer10SubContextC2EPNS_15OpKernelContextEPNS2_6ParamsEPNS_8OpKernelEPNS_6TensorES9_
libtensorflow_framework.so:_ZN10tensorflow11RingReducer12ComputeBinOpEPNS_6DeviceEPNS_8OpKernelEPNS_6TensorES6_
libtensorflow_framework.so:_ZN10tensorflow11RingReducer12DispatchRecvEPNS0_9RingFieldERKSt8functionIFvRKNS_6StatusEEE
libtensorflow_framework.so:_ZN10tensorflow11RingReducer12DispatchSendEPNS0_9RingFieldERKSt8functionIFvRKNS_6StatusEEE
libtensorflow_framework.so:_ZN10tensorflow11RingReducer13InitRingFieldEPNS0_9RingFieldEiii
libtensorflow_framework.so:_ZN10tensorflow11RingReducer13RunAsyncPartsEv
libtensorflow_framework.so:_ZN10tensorflow11RingReducer17TensorDebugStringB5cxx11ENS_6TensorE
libtensorflow_framework.so:_ZN10tensorflow11RingReducer19AdvanceToSecondPassEPNS0_9RingFieldE
libtensorflow_framework.so:_ZN10tensorflow11RingReducer22ContinueAfterInputCopyEv
libtensorflow_framework.so:_ZN10tensorflow11RingReducer3RunESt8functionIFvRKNS_6StatusEEE
libtensorflow_framework.so:_ZN10tensorflow11RingReducer6FinishEb
libtensorflow_framework.so:_ZN10tensorflow11RingReducer7PCQueue7DequeueEv
libtensorflow_framework.so:_ZN10tensorflow11RingReducer7PCQueue7EnqueueEPNS0_9RingFieldE
libtensorflow_framework.so:_ZN10tensorflow11RingReducerC1EPNS_18CollectiveExecutorEPKNS_9DeviceMgrEPNS_15OpKernelContextEPNS6_6ParamsERKNS_16CollectiveParamsERKNSt7__cxx1112basic_stringIcSt11char_traitsIcESaIcEEExPKNS_6TensorEPSL_
libtensorflow_framework.so:_ZN10tensorflow11RingReducerC2EPNS_18CollectiveExecutorEPKNS_9DeviceMgrEPNS_15OpKernelContextEPNS6_6ParamsERKNS_16CollectiveParamsERKNSt7__cxx1112basic_stringIcSt11char_traitsIcESaIcEEExPKNS_6TensorEPSL_
libtensorflow_framework.so:_ZN10tensorflow11RingReducerD0Ev
libtensorflow_framework.so:_ZN10tensorflow11RingReducerD1Ev
libtensorflow_framework.so:_ZN10tensorflow11RingReducerD2Ev
libtensorflow_framework.so:_ZN10tensorflow11RunMetadata10SharedCtorEv
libtensorflow_framework.so:_ZN10tensorflow11RunMetadata10SharedDtorEv
libtensorflow_framework.so:_ZN10tensorflow11RunMetadata10descriptorEv
libtensorflow_framework.so:_ZN10tensorflow11RunMetadata12InternalSwapEPS0_
libtensorflow_framework.so:_ZN10tensorflow11RunMetadata15UnsafeArenaSwapEPS0_
libtensorflow_framework.so:_ZN10tensorflow11RunMetadata16clear_cost_graphEv
libtensorflow_framework.so:_ZN10tensorflow11RunMetadata16clear_step_statsEv
libtensorflow_framework.so:_ZN10tensorflow11RunMetadata16default_instanceEv
libtensorflow_framework.so:_ZN10tensorflow11RunMetadata21InitAsDefaultInstanceEv
libtensorflow_framework.so:_ZN10tensorflow11RunMetadata22clear_partition_graphsEv
libtensorflow_framework.so:_ZN10tensorflow11RunMetadata27MergePartialFromCodedStreamEPN6google8protobuf2io16CodedInputStreamE
libtensorflow_framework.so:_ZN10tensorflow11RunMetadata37unsafe_arena_set_allocated_cost_graphEPNS_12CostGraphDefE
libtensorflow_framework.so:_ZN10tensorflow11RunMetadata37unsafe_arena_set_allocated_step_statsEPNS_9StepStatsE
libtensorflow_framework.so:_ZN10tensorflow11RunMetadata4SwapEPS0_
libtensorflow_framework.so:_ZN10tensorflow11RunMetadata5ClearEv
libtensorflow_framework.so:_ZN10tensorflow11RunMetadata8CopyFromERKN6google8protobuf7MessageE
libtensorflow_framework.so:_ZN10tensorflow11RunMetadata8CopyFromERKS0_
libtensorflow_framework.so:_ZN10tensorflow11RunMetadata9ArenaDtorEPv
libtensorflow_framework.so:_ZN10tensorflow11RunMetadata9MergeFromERKN6google8protobuf7MessageE
libtensorflow_framework.so:_ZN10tensorflow11RunMetadata9MergeFromERKS0_
libtensorflow_framework.so:_ZN10tensorflow11RunMetadataC1EPN6google8protobuf5ArenaE
libtensorflow_framework.so:_ZN10tensorflow11RunMetadataC1ERKS0_
libtensorflow_framework.so:_ZN10tensorflow11RunMetadataC1Ev
libtensorflow_framework.so:_ZN10tensorflow11RunMetadataC2EPN6google8protobuf5ArenaE
libtensorflow_framework.so:_ZN10tensorflow11RunMetadataC2ERKS0_
libtensorflow_framework.so:_ZN10tensorflow11RunMetadataC2Ev
libtensorflow_framework.so:_ZN10tensorflow11RunMetadataD0Ev
libtensorflow_framework.so:_ZN10tensorflow11RunMetadataD1Ev
libtensorflow_framework.so:_ZN10tensorflow11RunMetadataD2Ev
libtensorflow_framework.so:_ZN10tensorflow11SessionInfo10SharedCtorEv
libtensorflow_framework.so:_ZN10tensorflow11SessionInfo10SharedDtorEv
libtensorflow_framework.so:_ZN10tensorflow11SessionInfo10descriptorEv
libtensorflow_framework.so:_ZN10tensorflow11SessionInfo12InternalSwapEPS0_
libtensorflow_framework.so:_ZN10tensorflow11SessionInfo15UnsafeArenaSwapEPS0_
libtensorflow_framework.so:_ZN10tensorflow11SessionInfo16default_instanceEv
libtensorflow_framework.so:_ZN10tensorflow11SessionInfo21InitAsDefaultInstanceEv
libtensorflow_framework.so:_ZN10tensorflow11SessionInfo27MergePartialFromCodedStreamEPN6google8protobuf2io16CodedInputStreamE
libtensorflow_framework.so:_ZN10tensorflow11SessionInfo4SwapEPS0_
libtensorflow_framework.so:_ZN10tensorflow11SessionInfo5ClearEv
libtensorflow_framework.so:_ZN10tensorflow11SessionInfo8CopyFromERKN6google8protobuf7MessageE
libtensorflow_framework.so:_ZN10tensorflow11SessionInfo8CopyFromERKS0_
libtensorflow_framework.so:_ZN10tensorflow11SessionInfo9ArenaDtorEPv
libtensorflow_framework.so:_ZN10tensorflow11SessionInfo9MergeFromERKN6google8protobuf7MessageE
libtensorflow_framework.so:_ZN10tensorflow11SessionInfo9MergeFromERKS0_
libtensorflow_framework.so:_ZN10tensorflow11SessionInfoC1EPN6google8protobuf5ArenaE
libtensorflow_framework.so:_ZN10tensorflow11SessionInfoC1ERKS0_
libtensorflow_framework.so:_ZN10tensorflow11SessionInfoC1Ev
libtensorflow_framework.so:_ZN10tensorflow11SessionInfoC2EPN6google8protobuf5ArenaE
libtensorflow_framework.so:_ZN10tensorflow11SessionInfoC2ERKS0_
libtensorflow_framework.so:_ZN10tensorflow11SessionInfoC2Ev
libtensorflow_framework.so:_ZN10tensorflow11SessionInfoD0Ev
libtensorflow_framework.so:_ZN10tensorflow11SessionInfoD1Ev
libtensorflow_framework.so:_ZN10tensorflow11SessionInfoD2Ev
libtensorflow_framework.so:_ZN10tensorflow11TensorProto10SharedCtorEv
libtensorflow_framework.so:_ZN10tensorflow11TensorProto10SharedDtorEv
libtensorflow_framework.so:_ZN10tensorflow11TensorProto10descriptorEv
libtensorflow_framework.so:_ZN10tensorflow11TensorProto12InternalSwapEPS0_
libtensorflow_framework.so:_ZN10tensorflow11TensorProto15UnsafeArenaSwapEPS0_
libtensorflow_framework.so:_ZN10tensorflow11TensorProto16default_instanceEv
libtensorflow_framework.so:_ZN10tensorflow11TensorProto18clear_tensor_shapeEv
libtensorflow_framework.so:_ZN10tensorflow11TensorProto21InitAsDefaultInstanceEv
libtensorflow_framework.so:_ZN10tensorflow11TensorProto25clear_resource_handle_valEv
libtensorflow_framework.so:_ZN10tensorflow11TensorProto27MergePartialFromCodedStreamEPN6google8protobuf2io16CodedInputStreamE
libtensorflow_framework.so:_ZN10tensorflow11TensorProto39unsafe_arena_set_allocated_tensor_shapeEPNS_16TensorShapeProtoE
libtensorflow_framework.so:_ZN10tensorflow11TensorProto4SwapEPS0_
libtensorflow_framework.so:_ZN10tensorflow11TensorProto5ClearEv
libtensorflow_framework.so:_ZN10tensorflow11TensorProto8CopyFromERKN6google8protobuf7MessageE
libtensorflow_framework.so:_ZN10tensorflow11TensorProto8CopyFromERKS0_
libtensorflow_framework.so:_ZN10tensorflow11TensorProto9ArenaDtorEPv
libtensorflow_framework.so:_ZN10tensorflow11TensorProto9MergeFromERKN6google8protobuf7MessageE
libtensorflow_framework.so:_ZN10tensorflow11TensorProto9MergeFromERKS0_
libtensorflow_framework.so:_ZN10tensorflow11TensorProtoC1EPN6google8protobuf5ArenaE
libtensorflow_framework.so:_ZN10tensorflow11TensorProtoC1ERKS0_
libtensorflow_framework.so:_ZN10tensorflow11TensorProtoC1Ev
libtensorflow_framework.so:_ZN10tensorflow11TensorProtoC2EPN6google8protobuf5ArenaE
libtensorflow_framework.so:_ZN10tensorflow11TensorProtoC2ERKS0_
libtensorflow_framework.so:_ZN10tensorflow11TensorProtoC2Ev
libtensorflow_framework.so:_ZN10tensorflow11TensorProtoD0Ev
libtensorflow_framework.so:_ZN10tensorflow11TensorProtoD1Ev
libtensorflow_framework.so:_ZN10tensorflow11TensorProtoD2Ev
libtensorflow_framework.so:_ZN10tensorflow11TensorSlice12SetFullSliceEi
libtensorflow_framework.so:_ZN10tensorflow11TensorSlice13UpdateToCoverERKS0_
libtensorflow_framework.so:_ZN10tensorflow11TensorSlice15GetExtentLengthERKNS_23TensorSliceProto_ExtentE
libtensorflow_framework.so:_ZN10tensorflow11TensorSlice15HasExtentLengthERKNS_23TensorSliceProto_ExtentE
libtensorflow_framework.so:_ZN10tensorflow11TensorSlice5ClearEv
libtensorflow_framework.so:_ZN10tensorflow11TensorSlice5ParseERKNSt7__cxx1112basic_stringIcSt11char_traitsIcESaIcEEEPS0_
libtensorflow_framework.so:_ZN10tensorflow11TensorSlice6ExtendEi
libtensorflow_framework.so:_ZN10tensorflow11TensorSliceC1ERKNS_16TensorSliceProtoE
libtensorflow_framework.so:_ZN10tensorflow11TensorSliceC1ESt16initializer_listISt4pairIxxEE
libtensorflow_framework.so:_ZN10tensorflow11TensorSliceC1Ei
libtensorflow_framework.so:_ZN10tensorflow11TensorSliceC2ERKNS_16TensorSliceProtoE
libtensorflow_framework.so:_ZN10tensorflow11TensorSliceC2ESt16initializer_listISt4pairIxxEE
libtensorflow_framework.so:_ZN10tensorflow11TensorSliceC2Ei
libtensorflow_framework.so:_ZN10tensorflow11TensorStore11SaveTensorsERKSt6vectorINSt7__cxx1112basic_stringIcSt11char_traitsIcESaIcEEESaIS7_EEPNS_12SessionStateE
libtensorflow_framework.so:_ZN10tensorflow11TensorStore9AddTensorERKNSt7__cxx1112basic_stringIcSt11char_traitsIcESaIcEEERKNS0_12TensorAndKeyE
libtensorflow_framework.so:_ZN10tensorflow11TestResults10SharedCtorEv
libtensorflow_framework.so:_ZN10tensorflow11TestResults10SharedDtorEv
libtensorflow_framework.so:_ZN10tensorflow11TestResults10descriptorEv
libtensorflow_framework.so:_ZN10tensorflow11TestResults12InternalSwapEPS0_
libtensorflow_framework.so:_ZN10tensorflow11TestResults15UnsafeArenaSwapEPS0_
libtensorflow_framework.so:_ZN10tensorflow11TestResults16default_instanceEv
libtensorflow_framework.so:_ZN10tensorflow11TestResults21InitAsDefaultInstanceEv
libtensorflow_framework.so:_ZN10tensorflow11TestResults27MergePartialFromCodedStreamEPN6google8protobuf2io16CodedInputStreamE
libtensorflow_framework.so:_ZN10tensorflow11TestResults34unsafe_arena_set_allocated_entriesEPNS_16BenchmarkEntriesE
libtensorflow_framework.so:_ZN10tensorflow11TestResults36unsafe_arena_set_allocated_commit_idEPNS_8CommitIdE
libtensorflow_framework.so:_ZN10tensorflow11TestResults44unsafe_arena_set_allocated_run_configurationEPNS_16RunConfigurationE
libtensorflow_framework.so:_ZN10tensorflow11TestResults46unsafe_arena_set_allocated_build_configurationEPNS_18BuildConfigurationE
libtensorflow_framework.so:_ZN10tensorflow11TestResults48unsafe_arena_set_allocated_machine_configurationEPNS_20MachineConfigurationE
libtensorflow_framework.so:_ZN10tensorflow11TestResults4SwapEPS0_
libtensorflow_framework.so:_ZN10tensorflow11TestResults5ClearEv
libtensorflow_framework.so:_ZN10tensorflow11TestResults8CopyFromERKN6google8protobuf7MessageE
libtensorflow_framework.so:_ZN10tensorflow11TestResults8CopyFromERKS0_
libtensorflow_framework.so:_ZN10tensorflow11TestResults9ArenaDtorEPv
libtensorflow_framework.so:_ZN10tensorflow11TestResults9MergeFromERKN6google8protobuf7MessageE
libtensorflow_framework.so:_ZN10tensorflow11TestResults9MergeFromERKS0_
libtensorflow_framework.so:_ZN10tensorflow11TestResultsC1EPN6google8protobuf5ArenaE
libtensorflow_framework.so:_ZN10tensorflow11TestResultsC1ERKS0_
libtensorflow_framework.so:_ZN10tensorflow11TestResultsC1Ev
libtensorflow_framework.so:_ZN10tensorflow11TestResultsC2EPN6google8protobuf5ArenaE
libtensorflow_framework.so:_ZN10tensorflow11TestResultsC2ERKS0_
libtensorflow_framework.so:_ZN10tensorflow11TestResultsC2Ev
libtensorflow_framework.so:_ZN10tensorflow11TestResultsD0Ev
libtensorflow_framework.so:_ZN10tensorflow11TestResultsD1Ev
libtensorflow_framework.so:_ZN10tensorflow11TestResultsD2Ev
libtensorflow_framework.so:_ZN10tensorflow11VariableDef10SharedCtorEv
libtensorflow_framework.so:_ZN10tensorflow11VariableDef10SharedDtorEv
libtensorflow_framework.so:_ZN10tensorflow11VariableDef10descriptorEv
libtensorflow_framework.so:_ZN10tensorflow11VariableDef12InternalSwapEPS0_
libtensorflow_framework.so:_ZN10tensorflow11VariableDef15UnsafeArenaSwapEPS0_
libtensorflow_framework.so:_ZN10tensorflow11VariableDef16default_instanceEv
libtensorflow_framework.so:_ZN10tensorflow11VariableDef21InitAsDefaultInstanceEv
libtensorflow_framework.so:_ZN10tensorflow11VariableDef27MergePartialFromCodedStreamEPN6google8protobuf2io16CodedInputStreamE
libtensorflow_framework.so:_ZN10tensorflow11VariableDef46unsafe_arena_set_allocated_save_slice_info_defEPNS_16SaveSliceInfoDefE
libtensorflow_framework.so:_ZN10tensorflow11VariableDef4SwapEPS0_
libtensorflow_framework.so:_ZN10tensorflow11VariableDef5ClearEv
libtensorflow_framework.so:_ZN10tensorflow11VariableDef8CopyFromERKN6google8protobuf7MessageE
libtensorflow_framework.so:_ZN10tensorflow11VariableDef8CopyFromERKS0_
libtensorflow_framework.so:_ZN10tensorflow11VariableDef9ArenaDtorEPv
libtensorflow_framework.so:_ZN10tensorflow11VariableDef9MergeFromERKN6google8protobuf7MessageE
libtensorflow_framework.so:_ZN10tensorflow11VariableDef9MergeFromERKS0_
libtensorflow_framework.so:_ZN10tensorflow11VariableDefC1EPN6google8protobuf5ArenaE
libtensorflow_framework.so:_ZN10tensorflow11VariableDefC1ERKS0_
libtensorflow_framework.so:_ZN10tensorflow11VariableDefC1Ev
libtensorflow_framework.so:_ZN10tensorflow11VariableDefC2EPN6google8protobuf5ArenaE
libtensorflow_framework.so:_ZN10tensorflow11VariableDefC2ERKS0_
libtensorflow_framework.so:_ZN10tensorflow11VariableDefC2Ev
libtensorflow_framework.so:_ZN10tensorflow11VariableDefD0Ev
libtensorflow_framework.so:_ZN10tensorflow11VariableDefD1Ev
libtensorflow_framework.so:_ZN10tensorflow11VariableDefD2Ev
libtensorflow_framework.so:_ZN10tensorflow11register_op20OpDefBuilderReceiverC1ERKNS0_19OpDefBuilderWrapperILb1EEE
libtensorflow_framework.so:_ZN10tensorflow11register_op20OpDefBuilderReceiverC2ERKNS0_19OpDefBuilderWrapperILb1EEE
libtensorflow_framework.so:_ZN10tensorflow12AssetFileDef10SharedCtorEv
libtensorflow_framework.so:_ZN10tensorflow12AssetFileDef10SharedDtorEv
libtensorflow_framework.so:_ZN10tensorflow12AssetFileDef10descriptorEv
libtensorflow_framework.so:_ZN10tensorflow12AssetFileDef12InternalSwapEPS0_
libtensorflow_framework.so:_ZN10tensorflow12AssetFileDef15UnsafeArenaSwapEPS0_
libtensorflow_framework.so:_ZN10tensorflow12AssetFileDef16default_instanceEv
libtensorflow_framework.so:_ZN10tensorflow12AssetFileDef21InitAsDefaultInstanceEv
libtensorflow_framework.so:_ZN10tensorflow12AssetFileDef27MergePartialFromCodedStreamEPN6google8protobuf2io16CodedInputStreamE
libtensorflow_framework.so:_ZN10tensorflow12AssetFileDef38unsafe_arena_set_allocated_tensor_infoEPNS_10TensorInfoE
libtensorflow_framework.so:_ZN10tensorflow12AssetFileDef4SwapEPS0_
libtensorflow_framework.so:_ZN10tensorflow12AssetFileDef5ClearEv
libtensorflow_framework.so:_ZN10tensorflow12AssetFileDef8CopyFromERKN6google8protobuf7MessageE
libtensorflow_framework.so:_ZN10tensorflow12AssetFileDef8CopyFromERKS0_
libtensorflow_framework.so:_ZN10tensorflow12AssetFileDef9ArenaDtorEPv
libtensorflow_framework.so:_ZN10tensorflow12AssetFileDef9MergeFromERKN6google8protobuf7MessageE
libtensorflow_framework.so:_ZN10tensorflow12AssetFileDef9MergeFromERKS0_
libtensorflow_framework.so:_ZN10tensorflow12AssetFileDefC1EPN6google8protobuf5ArenaE
libtensorflow_framework.so:_ZN10tensorflow12AssetFileDefC1ERKS0_
libtensorflow_framework.so:_ZN10tensorflow12AssetFileDefC1Ev
libtensorflow_framework.so:_ZN10tensorflow12AssetFileDefC2EPN6google8protobuf5ArenaE
libtensorflow_framework.so:_ZN10tensorflow12AssetFileDefC2ERKS0_
libtensorflow_framework.so:_ZN10tensorflow12AssetFileDefC2Ev
libtensorflow_framework.so:_ZN10tensorflow12AssetFileDefD0Ev
libtensorflow_framework.so:_ZN10tensorflow12AssetFileDefD1Ev
libtensorflow_framework.so:_ZN10tensorflow12AssetFileDefD2Ev
libtensorflow_framework.so:_ZN10tensorflow12AttrDefEqualERKNS_13OpDef_AttrDefES2_
libtensorflow_framework.so:_ZN10tensorflow12BFCAllocator10ClearStatsEv
libtensorflow_framework.so:_ZN10tensorflow12BFCAllocator10SplitChunkEmm
libtensorflow_framework.so:_ZN10tensorflow12BFCAllocator11AllocateRawEmm
libtensorflow_framework.so:_ZN10tensorflow12BFCAllocator11AllocateRawEmmRKNS_20AllocationAttributesE
libtensorflow_framework.so:_ZN10tensorflow12BFCAllocator11DeleteChunkEm
libtensorflow_framework.so:_ZN10tensorflow12BFCAllocator12AllocationIdEPKv
libtensorflow_framework.so:_ZN10tensorflow12BFCAllocator12FindChunkPtrEimm
libtensorflow_framework.so:_ZN10tensorflow12BFCAllocator12RoundedBytesEm
libtensorflow_framework.so:_ZN10tensorflow12BFCAllocator13AllocateChunkEv
libtensorflow_framework.so:_ZN10tensorflow12BFCAllocator13AllocatedSizeEPKv
libtensorflow_framework.so:_ZN10tensorflow12BFCAllocator13DeallocateRawEPv
libtensorflow_framework.so:_ZN10tensorflow12BFCAllocator13DumpMemoryLogEm
libtensorflow_framework.so:_ZN10tensorflow12BFCAllocator13RequestedSizeEPKv
libtensorflow_framework.so:_ZN10tensorflow12BFCAllocator15AddAllocVisitorESt8functionIFvPvmEE
libtensorflow_framework.so:_ZN10tensorflow12BFCAllocator15ChunkFromHandleEm
libtensorflow_framework.so:_ZN10tensorflow12BFCAllocator15DeallocateChunkEm
libtensorflow_framework.so:_ZN10tensorflow12BFCAllocator15RenderOccupancyB5cxx11Ev
libtensorflow_framework.so:_ZN10tensorflow12BFCAllocator18get_bin_debug_infoEv
libtensorflow_framework.so:_ZN10tensorflow12BFCAllocator19AllocateRawInternalEmmb
libtensorflow_framework.so:_ZN10tensorflow12BFCAllocator20FreeAndMaybeCoalesceEm
libtensorflow_framework.so:_ZN10tensorflow12BFCAllocator21DeallocateRawInternalEPv
libtensorflow_framework.so:_ZN10tensorflow12BFCAllocator21TracksAllocationSizesEv
libtensorflow_framework.so:_ZN10tensorflow12BFCAllocator22InsertFreeChunkIntoBinEm
libtensorflow_framework.so:_ZN10tensorflow12BFCAllocator22RemoveFreeChunkFromBinEm
libtensorflow_framework.so:_ZN10tensorflow12BFCAllocator26RemoveFreeChunkIterFromBinEPSt3setImNS0_3Bin15ChunkComparatorESaImEERKSt23_Rb_tree_const_iteratorImE
libtensorflow_framework.so:_ZN10tensorflow12BFCAllocator5MergeEmm
libtensorflow_framework.so:_ZN10tensorflow12BFCAllocator6ExtendEmm
libtensorflow_framework.so:_ZN10tensorflow12BFCAllocator8GetStatsEPNS_14AllocatorStatsE
libtensorflow_framework.so:_ZN10tensorflow12BFCAllocatorC1EPNS_12SubAllocatorEmbRKNSt7__cxx1112basic_stringIcSt11char_traitsIcESaIcEEE
libtensorflow_framework.so:_ZN10tensorflow12BFCAllocatorC2EPNS_12SubAllocatorEmbRKNSt7__cxx1112basic_stringIcSt11char_traitsIcESaIcEEE
libtensorflow_framework.so:_ZN10tensorflow12BFCAllocatorD0Ev
libtensorflow_framework.so:_ZN10tensorflow12BFCAllocatorD1Ev
libtensorflow_framework.so:_ZN10tensorflow12BFCAllocatorD2Ev
libtensorflow_framework.so:_ZN10tensorflow12Base64DecodeENS_11StringPieceEPNSt7__cxx1112basic_stringIcSt11char_traitsIcESaIcEEE
libtensorflow_framework.so:_ZN10tensorflow12Base64EncodeENS_11StringPieceEPNSt7__cxx1112basic_stringIcSt11char_traitsIcESaIcEEE
libtensorflow_framework.so:_ZN10tensorflow12Base64EncodeENS_11StringPieceEbPNSt7__cxx1112basic_stringIcSt11char_traitsIcESaIcEEE
libtensorflow_framework.so:_ZN10tensorflow12BundleReader11DebugStringB5cxx11Ev
libtensorflow_framework.so:_ZN10tensorflow12BundleReader11LookupSliceENS_11StringPieceERKNS_11TensorSliceEPNS_6TensorE
libtensorflow_framework.so:_ZN10tensorflow12BundleReader11ReadCurrentEPNS_6TensorE
libtensorflow_framework.so:_ZN10tensorflow12BundleReader13GetSliceValueENS_11StringPieceERKNS_16BundleEntryProtoERKNS_11TensorSliceEPNS_6TensorE
libtensorflow_framework.so:_ZN10tensorflow12BundleReader17LookupTensorShapeENS_11StringPieceEPNS_11TensorShapeE
libtensorflow_framework.so:_ZN10tensorflow12BundleReader18LookupTensorSlicesENS_11StringPieceEPSt6vectorINS_11TensorSliceESaIS3_EE
libtensorflow_framework.so:_ZN10tensorflow12BundleReader19GetBundleEntryProtoENS_11StringPieceEPNS_16BundleEntryProtoE
libtensorflow_framework.so:_ZN10tensorflow12BundleReader19LookupDtypeAndShapeENS_11StringPieceEPNS_8DataTypeEPNS_11TensorShapeE
libtensorflow_framework.so:_ZN10tensorflow12BundleReader6LookupENS_11StringPieceEPNS_6TensorE
libtensorflow_framework.so:_ZN10tensorflow12BundleReader8ContainsENS_11StringPieceE
libtensorflow_framework.so:_ZN10tensorflow12BundleReader8GetValueERKNS_16BundleEntryProtoEPNS_6TensorE
libtensorflow_framework.so:_ZN10tensorflow12BundleReaderC1EPNS_3EnvENS_11StringPieceE
libtensorflow_framework.so:_ZN10tensorflow12BundleReaderC2EPNS_3EnvENS_11StringPieceE
libtensorflow_framework.so:_ZN10tensorflow12BundleReaderD1Ev
libtensorflow_framework.so:_ZN10tensorflow12BundleReaderD2Ev
libtensorflow_framework.so:_ZN10tensorflow12BundleWriter3AddENS_11StringPieceERKNS_6TensorE
libtensorflow_framework.so:_ZN10tensorflow12BundleWriter6FinishEv
libtensorflow_framework.so:_ZN10tensorflow12BundleWriter8AddSliceENS_11StringPieceERKNS_11TensorShapeERKNS_11TensorSliceERKNS_6TensorE
libtensorflow_framework.so:_ZN10tensorflow12BundleWriterC1EPNS_3EnvENS_11StringPieceERKNS0_7OptionsE
libtensorflow_framework.so:_ZN10tensorflow12BundleWriterC2EPNS_3EnvENS_11StringPieceERKNS0_7OptionsE
libtensorflow_framework.so:_ZN10tensorflow12CanonicalizeERKNSt7__cxx1112basic_stringIcSt11char_traitsIcESaIcEEENS_9AttrSliceERKNS_22FunctionLibraryRuntime18InstantiateOptionsE
libtensorflow_framework.so:_ZN10tensorflow12ConstantFoldERKNS_22ConstantFoldingOptionsEPNS_22FunctionLibraryRuntimeEPNS_3EnvEPNS_6DeviceEPNS_5GraphEPb
libtensorflow_framework.so:_ZN10tensorflow12CostGraphDef10SharedCtorEv
libtensorflow_framework.so:_ZN10tensorflow12CostGraphDef10SharedDtorEv
libtensorflow_framework.so:_ZN10tensorflow12CostGraphDef10descriptorEv
libtensorflow_framework.so:_ZN10tensorflow12CostGraphDef12InternalSwapEPS0_
libtensorflow_framework.so:_ZN10tensorflow12CostGraphDef15UnsafeArenaSwapEPS0_
libtensorflow_framework.so:_ZN10tensorflow12CostGraphDef16default_instanceEv
libtensorflow_framework.so:_ZN10tensorflow12CostGraphDef21InitAsDefaultInstanceEv
libtensorflow_framework.so:_ZN10tensorflow12CostGraphDef27MergePartialFromCodedStreamEPN6google8protobuf2io16CodedInputStreamE
libtensorflow_framework.so:_ZN10tensorflow12CostGraphDef4SwapEPS0_
libtensorflow_framework.so:_ZN10tensorflow12CostGraphDef5ClearEv
libtensorflow_framework.so:_ZN10tensorflow12CostGraphDef8CopyFromERKN6google8protobuf7MessageE
libtensorflow_framework.so:_ZN10tensorflow12CostGraphDef8CopyFromERKS0_
libtensorflow_framework.so:_ZN10tensorflow12CostGraphDef9ArenaDtorEPv
libtensorflow_framework.so:_ZN10tensorflow12CostGraphDef9MergeFromERKN6google8protobuf7MessageE
libtensorflow_framework.so:_ZN10tensorflow12CostGraphDef9MergeFromERKS0_
libtensorflow_framework.so:_ZN10tensorflow12CostGraphDefC1EPN6google8protobuf5ArenaE
libtensorflow_framework.so:_ZN10tensorflow12CostGraphDefC1ERKS0_
libtensorflow_framework.so:_ZN10tensorflow12CostGraphDefC1Ev
libtensorflow_framework.so:_ZN10tensorflow12CostGraphDefC2EPN6google8protobuf5ArenaE
libtensorflow_framework.so:_ZN10tensorflow12CostGraphDefC2ERKS0_
libtensorflow_framework.so:_ZN10tensorflow12CostGraphDefC2Ev
libtensorflow_framework.so:_ZN10tensorflow12CostGraphDefD0Ev
libtensorflow_framework.so:_ZN10tensorflow12CostGraphDefD1Ev
libtensorflow_framework.so:_ZN10tensorflow12CostGraphDefD2Ev
libtensorflow_framework.so:_ZN10tensorflow12DataFilenameB5cxx11ENS_11StringPieceEii
libtensorflow_framework.so:_ZN10tensorflow12DataTypeSizeENS_8DataTypeE
libtensorflow_framework.so:_ZN10tensorflow12DebugOptions10SharedCtorEv
libtensorflow_framework.so:_ZN10tensorflow12DebugOptions10SharedDtorEv
libtensorflow_framework.so:_ZN10tensorflow12DebugOptions10descriptorEv
libtensorflow_framework.so:_ZN10tensorflow12DebugOptions12InternalSwapEPS0_
libtensorflow_framework.so:_ZN10tensorflow12DebugOptions15UnsafeArenaSwapEPS0_
libtensorflow_framework.so:_ZN10tensorflow12DebugOptions16default_instanceEv
libtensorflow_framework.so:_ZN10tensorflow12DebugOptions21InitAsDefaultInstanceEv
libtensorflow_framework.so:_ZN10tensorflow12DebugOptions27MergePartialFromCodedStreamEPN6google8protobuf2io16CodedInputStreamE
libtensorflow_framework.so:_ZN10tensorflow12DebugOptions4SwapEPS0_
libtensorflow_framework.so:_ZN10tensorflow12DebugOptions5ClearEv
libtensorflow_framework.so:_ZN10tensorflow12DebugOptions8CopyFromERKN6google8protobuf7MessageE
libtensorflow_framework.so:_ZN10tensorflow12DebugOptions8CopyFromERKS0_
libtensorflow_framework.so:_ZN10tensorflow12DebugOptions9ArenaDtorEPv
libtensorflow_framework.so:_ZN10tensorflow12DebugOptions9MergeFromERKN6google8protobuf7MessageE
libtensorflow_framework.so:_ZN10tensorflow12DebugOptions9MergeFromERKS0_
libtensorflow_framework.so:_ZN10tensorflow12DebugOptionsC1EPN6google8protobuf5ArenaE
libtensorflow_framework.so:_ZN10tensorflow12DebugOptionsC1ERKS0_
libtensorflow_framework.so:_ZN10tensorflow12DebugOptionsC1Ev
libtensorflow_framework.so:_ZN10tensorflow12DebugOptionsC2EPN6google8protobuf5ArenaE
libtensorflow_framework.so:_ZN10tensorflow12DebugOptionsC2ERKS0_
libtensorflow_framework.so:_ZN10tensorflow12DebugOptionsC2Ev
libtensorflow_framework.so:_ZN10tensorflow12DebugOptionsD0Ev
libtensorflow_framework.so:_ZN10tensorflow12DebugOptionsD1Ev
libtensorflow_framework.so:_ZN10tensorflow12DebugOptionsD2Ev
libtensorflow_framework.so:_ZN10tensorflow12EqualNodeDefERKNS_7NodeDefES2_PNSt7__cxx1112basic_stringIcSt11char_traitsIcESaIcEEERKNS_20EqualGraphDefOptionsE
libtensorflow_framework.so:_ZN10tensorflow12EventsWriter10WriteEventERKNS_5EventE
libtensorflow_framework.so:_ZN10tensorflow12EventsWriter12InitIfNeededEv
libtensorflow_framework.so:_ZN10tensorflow12EventsWriter14InitWithSuffixERKNSt7__cxx1112basic_stringIcSt11char_traitsIcESaIcEEE
libtensorflow_framework.so:_ZN10tensorflow12EventsWriter15FileStillExistsEv
libtensorflow_framework.so:_ZN10tensorflow12EventsWriter20WriteSerializedEventENS_11StringPieceE
libtensorflow_framework.so:_ZN10tensorflow12EventsWriter4InitEv
libtensorflow_framework.so:_ZN10tensorflow12EventsWriter5CloseEv
libtensorflow_framework.so:_ZN10tensorflow12EventsWriter5FlushEv
libtensorflow_framework.so:_ZN10tensorflow12EventsWriter8FileNameB5cxx11Ev
libtensorflow_framework.so:_ZN10tensorflow12EventsWriterC1ERKNSt7__cxx1112basic_stringIcSt11char_traitsIcESaIcEEE
libtensorflow_framework.so:_ZN10tensorflow12EventsWriterC2ERKNSt7__cxx1112basic_stringIcSt11char_traitsIcESaIcEEE
libtensorflow_framework.so:_ZN10tensorflow12EventsWriterD1Ev
libtensorflow_framework.so:_ZN10tensorflow12EventsWriterD2Ev
libtensorflow_framework.so:_ZN10tensorflow12FeatureLists10SharedCtorEv
libtensorflow_framework.so:_ZN10tensorflow12FeatureLists10SharedDtorEv
libtensorflow_framework.so:_ZN10tensorflow12FeatureLists10descriptorEv
libtensorflow_framework.so:_ZN10tensorflow12FeatureLists12InternalSwapEPS0_
libtensorflow_framework.so:_ZN10tensorflow12FeatureLists15UnsafeArenaSwapEPS0_
libtensorflow_framework.so:_ZN10tensorflow12FeatureLists16default_instanceEv
libtensorflow_framework.so:_ZN10tensorflow12FeatureLists21InitAsDefaultInstanceEv
libtensorflow_framework.so:_ZN10tensorflow12FeatureLists27MergePartialFromCodedStreamEPN6google8protobuf2io16CodedInputStreamE
libtensorflow_framework.so:_ZN10tensorflow12FeatureLists4SwapEPS0_
libtensorflow_framework.so:_ZN10tensorflow12FeatureLists5ClearEv
libtensorflow_framework.so:_ZN10tensorflow12FeatureLists8CopyFromERKN6google8protobuf7MessageE
libtensorflow_framework.so:_ZN10tensorflow12FeatureLists8CopyFromERKS0_
libtensorflow_framework.so:_ZN10tensorflow12FeatureLists9ArenaDtorEPv
libtensorflow_framework.so:_ZN10tensorflow12FeatureLists9MergeFromERKN6google8protobuf7MessageE
libtensorflow_framework.so:_ZN10tensorflow12FeatureLists9MergeFromERKS0_
libtensorflow_framework.so:_ZN10tensorflow12FeatureListsC1EPN6google8protobuf5ArenaE
libtensorflow_framework.so:_ZN10tensorflow12FeatureListsC1ERKS0_
libtensorflow_framework.so:_ZN10tensorflow12FeatureListsC1Ev
libtensorflow_framework.so:_ZN10tensorflow12FeatureListsC2EPN6google8protobuf5ArenaE
libtensorflow_framework.so:_ZN10tensorflow12FeatureListsC2ERKS0_
libtensorflow_framework.so:_ZN10tensorflow12FeatureListsC2Ev
libtensorflow_framework.so:_ZN10tensorflow12FeatureListsD0Ev
libtensorflow_framework.so:_ZN10tensorflow12FeatureListsD1Ev
libtensorflow_framework.so:_ZN10tensorflow12FeatureListsD2Ev
libtensorflow_framework.so:_ZN10tensorflow12FindInputArgENS_11StringPieceERKNS_5OpDefE
libtensorflow_framework.so:_ZN10tensorflow12FunctionBodyC1ERKNS_11FunctionDefENS_3gtl10ArraySliceINS_8DataTypeEEES7_PNS_5GraphE
libtensorflow_framework.so:_ZN10tensorflow12FunctionBodyC2ERKNS_11FunctionDefENS_3gtl10ArraySliceINS_8DataTypeEEES7_PNS_5GraphE
libtensorflow_framework.so:_ZN10tensorflow12FunctionBodyD1Ev
libtensorflow_framework.so:_ZN10tensorflow12FunctionBodyD2Ev
libtensorflow_framework.so:_ZN10tensorflow12GetPostOrderERKNS_5GraphEPSt6vectorIPNS_4NodeESaIS5_EERKSt8functionIFbPKS4_SB_EE
libtensorflow_framework.so:_ZN10tensorflow12GpuIdManager13TestOnlyResetEv
libtensorflow_framework.so:_ZN10tensorflow12GpuIdManager13TfToCudaGpuIdENS_3gtl7IntTypeINS_12TfGpuId_tag_EiEEPNS2_INS_14CudaGpuId_tag_EiEE
libtensorflow_framework.so:_ZN10tensorflow12GpuIdManager21InsertTfCudaGpuIdPairENS_3gtl7IntTypeINS_12TfGpuId_tag_EiEENS2_INS_14CudaGpuId_tag_EiEE
libtensorflow_framework.so:_ZN10tensorflow12GraphDefHashERKNS_8GraphDefERKNS_20EqualGraphDefOptionsE
libtensorflow_framework.so:_ZN10tensorflow12GraphOptions10SharedCtorEv
libtensorflow_framework.so:_ZN10tensorflow12GraphOptions10SharedDtorEv
libtensorflow_framework.so:_ZN10tensorflow12GraphOptions10descriptorEv
libtensorflow_framework.so:_ZN10tensorflow12GraphOptions12InternalSwapEPS0_
libtensorflow_framework.so:_ZN10tensorflow12GraphOptions15UnsafeArenaSwapEPS0_
libtensorflow_framework.so:_ZN10tensorflow12GraphOptions16default_instanceEv
libtensorflow_framework.so:_ZN10tensorflow12GraphOptions21InitAsDefaultInstanceEv
libtensorflow_framework.so:_ZN10tensorflow12GraphOptions21clear_rewrite_optionsEv
libtensorflow_framework.so:_ZN10tensorflow12GraphOptions27MergePartialFromCodedStreamEPN6google8protobuf2io16CodedInputStreamE
libtensorflow_framework.so:_ZN10tensorflow12GraphOptions42unsafe_arena_set_allocated_rewrite_optionsEPNS_14RewriterConfigE
libtensorflow_framework.so:_ZN10tensorflow12GraphOptions44unsafe_arena_set_allocated_optimizer_optionsEPNS_16OptimizerOptionsE
libtensorflow_framework.so:_ZN10tensorflow12GraphOptions4SwapEPS0_
libtensorflow_framework.so:_ZN10tensorflow12GraphOptions5ClearEv
libtensorflow_framework.so:_ZN10tensorflow12GraphOptions8CopyFromERKN6google8protobuf7MessageE
libtensorflow_framework.so:_ZN10tensorflow12GraphOptions8CopyFromERKS0_
libtensorflow_framework.so:_ZN10tensorflow12GraphOptions9ArenaDtorEPv
libtensorflow_framework.so:_ZN10tensorflow12GraphOptions9MergeFromERKN6google8protobuf7MessageE
libtensorflow_framework.so:_ZN10tensorflow12GraphOptions9MergeFromERKS0_
libtensorflow_framework.so:_ZN10tensorflow12GraphOptionsC1EPN6google8protobuf5ArenaE
libtensorflow_framework.so:_ZN10tensorflow12GraphOptionsC1ERKS0_
libtensorflow_framework.so:_ZN10tensorflow12GraphOptionsC1Ev
libtensorflow_framework.so:_ZN10tensorflow12GraphOptionsC2EPN6google8protobuf5ArenaE
libtensorflow_framework.so:_ZN10tensorflow12GraphOptionsC2ERKS0_
libtensorflow_framework.so:_ZN10tensorflow12GraphOptionsC2Ev
libtensorflow_framework.so:_ZN10tensorflow12GraphOptionsD0Ev
libtensorflow_framework.so:_ZN10tensorflow12GraphOptionsD1Ev
libtensorflow_framework.so:_ZN10tensorflow12GraphOptionsD2Ev
libtensorflow_framework.so:_ZN10tensorflow12IsMklEnabledEv
libtensorflow_framework.so:_ZN10tensorflow12MemmappedEnv18InitializeFromFileERKNSt7__cxx1112basic_stringIcSt11char_traitsIcESaIcEEE
libtensorflow_framework.so:_ZN10tensorflow12MemmappedEnv20GetFileSystemForFileERKNSt7__cxx1112basic_stringIcSt11char_traitsIcESaIcEEEPPNS_10FileSystemE
libtensorflow_framework.so:_ZN10tensorflow12MemmappedEnv30GetRegisteredFileSystemSchemesEPSt6vectorINSt7__cxx1112basic_stringIcSt11char_traitsIcESaIcEEESaIS7_EE
libtensorflow_framework.so:_ZN10tensorflow12MemmappedEnvC1EPNS_3EnvE
libtensorflow_framework.so:_ZN10tensorflow12MemmappedEnvC2EPNS_3EnvE
libtensorflow_framework.so:_ZN10tensorflow12MergeBundlesEPNS_3EnvENS_3gtl10ArraySliceINSt7__cxx1112basic_stringIcSt11char_traitsIcESaIcEEEEENS_11StringPieceE
libtensorflow_framework.so:_ZN10tensorflow12MetaFilenameB5cxx11ENS_11StringPieceE
libtensorflow_framework.so:_ZN10tensorflow12MetaGraphDef10SharedCtorEv
libtensorflow_framework.so:_ZN10tensorflow12MetaGraphDef10SharedDtorEv
libtensorflow_framework.so:_ZN10tensorflow12MetaGraphDef10descriptorEv
libtensorflow_framework.so:_ZN10tensorflow12MetaGraphDef12InternalSwapEPS0_
libtensorflow_framework.so:_ZN10tensorflow12MetaGraphDef15UnsafeArenaSwapEPS0_
libtensorflow_framework.so:_ZN10tensorflow12MetaGraphDef15clear_graph_defEv
libtensorflow_framework.so:_ZN10tensorflow12MetaGraphDef15clear_saver_defEv
libtensorflow_framework.so:_ZN10tensorflow12MetaGraphDef16default_instanceEv
libtensorflow_framework.so:_ZN10tensorflow12MetaGraphDef21InitAsDefaultInstanceEv
libtensorflow_framework.so:_ZN10tensorflow12MetaGraphDef27MergePartialFromCodedStreamEPN6google8protobuf2io16CodedInputStreamE
libtensorflow_framework.so:_ZN10tensorflow12MetaGraphDef36unsafe_arena_set_allocated_graph_defEPNS_8GraphDefE
libtensorflow_framework.so:_ZN10tensorflow12MetaGraphDef36unsafe_arena_set_allocated_saver_defEPNS_8SaverDefE
libtensorflow_framework.so:_ZN10tensorflow12MetaGraphDef40unsafe_arena_set_allocated_meta_info_defEPNS_24MetaGraphDef_MetaInfoDefE
libtensorflow_framework.so:_ZN10tensorflow12MetaGraphDef4SwapEPS0_
libtensorflow_framework.so:_ZN10tensorflow12MetaGraphDef5ClearEv
libtensorflow_framework.so:_ZN10tensorflow12MetaGraphDef8CopyFromERKN6google8protobuf7MessageE
libtensorflow_framework.so:_ZN10tensorflow12MetaGraphDef8CopyFromERKS0_
libtensorflow_framework.so:_ZN10tensorflow12MetaGraphDef9ArenaDtorEPv
libtensorflow_framework.so:_ZN10tensorflow12MetaGraphDef9MergeFromERKN6google8protobuf7MessageE
libtensorflow_framework.so:_ZN10tensorflow12MetaGraphDef9MergeFromERKS0_
libtensorflow_framework.so:_ZN10tensorflow12MetaGraphDefC1EPN6google8protobuf5ArenaE
libtensorflow_framework.so:_ZN10tensorflow12MetaGraphDefC1ERKS0_
libtensorflow_framework.so:_ZN10tensorflow12MetaGraphDefC1Ev
libtensorflow_framework.so:_ZN10tensorflow12MetaGraphDefC2EPN6google8protobuf5ArenaE
libtensorflow_framework.so:_ZN10tensorflow12MetaGraphDefC2ERKS0_
libtensorflow_framework.so:_ZN10tensorflow12MetaGraphDefC2Ev
libtensorflow_framework.so:_ZN10tensorflow12MetaGraphDefD0Ev
libtensorflow_framework.so:_ZN10tensorflow12MetaGraphDefD1Ev
libtensorflow_framework.so:_ZN10tensorflow12MetaGraphDefD2Ev
libtensorflow_framework.so:_ZN10tensorflow12NameAttrList10SharedCtorEv
libtensorflow_framework.so:_ZN10tensorflow12NameAttrList10SharedDtorEv
libtensorflow_framework.so:_ZN10tensorflow12NameAttrList10descriptorEv
libtensorflow_framework.so:_ZN10tensorflow12NameAttrList12InternalSwapEPS0_
libtensorflow_framework.so:_ZN10tensorflow12NameAttrList15UnsafeArenaSwapEPS0_
libtensorflow_framework.so:_ZN10tensorflow12NameAttrList16default_instanceEv
libtensorflow_framework.so:_ZN10tensorflow12NameAttrList21InitAsDefaultInstanceEv
libtensorflow_framework.so:_ZN10tensorflow12NameAttrList27MergePartialFromCodedStreamEPN6google8protobuf2io16CodedInputStreamE
libtensorflow_framework.so:_ZN10tensorflow12NameAttrList4SwapEPS0_
libtensorflow_framework.so:_ZN10tensorflow12NameAttrList5ClearEv
libtensorflow_framework.so:_ZN10tensorflow12NameAttrList8CopyFromERKN6google8protobuf7MessageE
libtensorflow_framework.so:_ZN10tensorflow12NameAttrList8CopyFromERKS0_
libtensorflow_framework.so:_ZN10tensorflow12NameAttrList9ArenaDtorEPv
libtensorflow_framework.so:_ZN10tensorflow12NameAttrList9MergeFromERKN6google8protobuf7MessageE
libtensorflow_framework.so:_ZN10tensorflow12NameAttrList9MergeFromERKS0_
libtensorflow_framework.so:_ZN10tensorflow12NameAttrListC1EPN6google8protobuf5ArenaE
libtensorflow_framework.so:_ZN10tensorflow12NameAttrListC1ERKS0_
libtensorflow_framework.so:_ZN10tensorflow12NameAttrListC1Ev
libtensorflow_framework.so:_ZN10tensorflow12NameAttrListC2EPN6google8protobuf5ArenaE
libtensorflow_framework.so:_ZN10tensorflow12NameAttrListC2ERKS0_
libtensorflow_framework.so:_ZN10tensorflow12NameAttrListC2Ev
libtensorflow_framework.so:_ZN10tensorflow12NameAttrListD0Ev
libtensorflow_framework.so:_ZN10tensorflow12NameAttrListD1Ev
libtensorflow_framework.so:_ZN10tensorflow12NameAttrListD2Ev
libtensorflow_framework.so:_ZN10tensorflow12OpDefBuilder10DeprecatedEiNS_11StringPieceE
libtensorflow_framework.so:_ZN10tensorflow12OpDefBuilder10SetShapeFnEPFNS_6StatusEPNS_15shape_inference16InferenceContextEE
libtensorflow_framework.so:_ZN10tensorflow12OpDefBuilder13SetIsStatefulEv
libtensorflow_framework.so:_ZN10tensorflow12OpDefBuilder14SetIsAggregateEv
libtensorflow_framework.so:_ZN10tensorflow12OpDefBuilder16SetIsCommutativeEv
libtensorflow_framework.so:_ZN10tensorflow12OpDefBuilder27SetAllowsUninitializedInputEv
libtensorflow_framework.so:_ZN10tensorflow12OpDefBuilder3DocENS_11StringPieceE
libtensorflow_framework.so:_ZN10tensorflow12OpDefBuilder4AttrENS_11StringPieceE
libtensorflow_framework.so:_ZN10tensorflow12OpDefBuilder5InputENS_11StringPieceE
libtensorflow_framework.so:_ZN10tensorflow12OpDefBuilder6OutputENS_11StringPieceE
libtensorflow_framework.so:_ZN10tensorflow12OpDefBuilderC1ENS_11StringPieceE
libtensorflow_framework.so:_ZN10tensorflow12OpDefBuilderC2ENS_11StringPieceE
libtensorflow_framework.so:_ZN10tensorflow12OpDef_ArgDef10SharedCtorEv
libtensorflow_framework.so:_ZN10tensorflow12OpDef_ArgDef10SharedDtorEv
libtensorflow_framework.so:_ZN10tensorflow12OpDef_ArgDef10descriptorEv
libtensorflow_framework.so:_ZN10tensorflow12OpDef_ArgDef12InternalSwapEPS0_
libtensorflow_framework.so:_ZN10tensorflow12OpDef_ArgDef15UnsafeArenaSwapEPS0_
libtensorflow_framework.so:_ZN10tensorflow12OpDef_ArgDef16default_instanceEv
libtensorflow_framework.so:_ZN10tensorflow12OpDef_ArgDef21InitAsDefaultInstanceEv
libtensorflow_framework.so:_ZN10tensorflow12OpDef_ArgDef27MergePartialFromCodedStreamEPN6google8protobuf2io16CodedInputStreamE
libtensorflow_framework.so:_ZN10tensorflow12OpDef_ArgDef4SwapEPS0_
libtensorflow_framework.so:_ZN10tensorflow12OpDef_ArgDef5ClearEv
libtensorflow_framework.so:_ZN10tensorflow12OpDef_ArgDef8CopyFromERKN6google8protobuf7MessageE
libtensorflow_framework.so:_ZN10tensorflow12OpDef_ArgDef8CopyFromERKS0_
libtensorflow_framework.so:_ZN10tensorflow12OpDef_ArgDef9ArenaDtorEPv
libtensorflow_framework.so:_ZN10tensorflow12OpDef_ArgDef9MergeFromERKN6google8protobuf7MessageE
libtensorflow_framework.so:_ZN10tensorflow12OpDef_ArgDef9MergeFromERKS0_
libtensorflow_framework.so:_ZN10tensorflow12OpDef_ArgDefC1EPN6google8protobuf5ArenaE
libtensorflow_framework.so:_ZN10tensorflow12OpDef_ArgDefC1ERKS0_
libtensorflow_framework.so:_ZN10tensorflow12OpDef_ArgDefC1Ev
libtensorflow_framework.so:_ZN10tensorflow12OpDef_ArgDefC2EPN6google8protobuf5ArenaE
libtensorflow_framework.so:_ZN10tensorflow12OpDef_ArgDefC2ERKS0_
libtensorflow_framework.so:_ZN10tensorflow12OpDef_ArgDefC2Ev
libtensorflow_framework.so:_ZN10tensorflow12OpDef_ArgDefD0Ev
libtensorflow_framework.so:_ZN10tensorflow12OpDef_ArgDefD1Ev
libtensorflow_framework.so:_ZN10tensorflow12OpDef_ArgDefD2Ev
libtensorflow_framework.so:_ZN10tensorflow12OptimizerCSE10EquivalentEPKNS_4NodeES3_PNS_9AttrSlice7ScratchE
libtensorflow_framework.so:_ZN10tensorflow12OptimizerCSE8NodeHashEPKNS_4NodeE
libtensorflow_framework.so:_ZN10tensorflow12OptimizerCSE8OptimizeERKSt8functionIFbPKNS_4NodeEEE
libtensorflow_framework.so:_ZN10tensorflow12PlatformInfo10SharedCtorEv
libtensorflow_framework.so:_ZN10tensorflow12PlatformInfo10SharedDtorEv
libtensorflow_framework.so:_ZN10tensorflow12PlatformInfo10descriptorEv
libtensorflow_framework.so:_ZN10tensorflow12PlatformInfo12InternalSwapEPS0_
libtensorflow_framework.so:_ZN10tensorflow12PlatformInfo15UnsafeArenaSwapEPS0_
libtensorflow_framework.so:_ZN10tensorflow12PlatformInfo16default_instanceEv
libtensorflow_framework.so:_ZN10tensorflow12PlatformInfo21InitAsDefaultInstanceEv
libtensorflow_framework.so:_ZN10tensorflow12PlatformInfo27MergePartialFromCodedStreamEPN6google8protobuf2io16CodedInputStreamE
libtensorflow_framework.so:_ZN10tensorflow12PlatformInfo4SwapEPS0_
libtensorflow_framework.so:_ZN10tensorflow12PlatformInfo5ClearEv
libtensorflow_framework.so:_ZN10tensorflow12PlatformInfo8CopyFromERKN6google8protobuf7MessageE
libtensorflow_framework.so:_ZN10tensorflow12PlatformInfo8CopyFromERKS0_
libtensorflow_framework.so:_ZN10tensorflow12PlatformInfo9ArenaDtorEPv
libtensorflow_framework.so:_ZN10tensorflow12PlatformInfo9MergeFromERKN6google8protobuf7MessageE
libtensorflow_framework.so:_ZN10tensorflow12PlatformInfo9MergeFromERKS0_
libtensorflow_framework.so:_ZN10tensorflow12PlatformInfoC1EPN6google8protobuf5ArenaE
libtensorflow_framework.so:_ZN10tensorflow12PlatformInfoC1ERKS0_
libtensorflow_framework.so:_ZN10tensorflow12PlatformInfoC1Ev
libtensorflow_framework.so:_ZN10tensorflow12PlatformInfoC2EPN6google8protobuf5ArenaE
libtensorflow_framework.so:_ZN10tensorflow12PlatformInfoC2ERKS0_
libtensorflow_framework.so:_ZN10tensorflow12PlatformInfoC2Ev
libtensorflow_framework.so:_ZN10tensorflow12PlatformInfoD0Ev
libtensorflow_framework.so:_ZN10tensorflow12PlatformInfoD1Ev
libtensorflow_framework.so:_ZN10tensorflow12PlatformInfoD2Ev
libtensorflow_framework.so:_ZN10tensorflow12ProcessState13TestOnlyResetEv
libtensorflow_framework.so:_ZN10tensorflow12ProcessState15GetCPUAllocatorEi
libtensorflow_framework.so:_ZN10tensorflow12ProcessState7MemDesc11DebugStringB5cxx11Ev
libtensorflow_framework.so:_ZN10tensorflow12ProcessState7PtrTypeEPKv
libtensorflow_framework.so:_ZN10tensorflow12ProcessState9singletonEv
libtensorflow_framework.so:_ZN10tensorflow12ProcessStateC1Ev
libtensorflow_framework.so:_ZN10tensorflow12ProcessStateC2Ev
libtensorflow_framework.so:_ZN10tensorflow12ProcessStateD0Ev
libtensorflow_framework.so:_ZN10tensorflow12ProcessStateD1Ev
libtensorflow_framework.so:_ZN10tensorflow12ProcessStateD2Ev
libtensorflow_framework.so:_ZN10tensorflow12RowDenseCopyERKmRKNS_8DataTypeERKNS_6TensorEPS5_
libtensorflow_framework.so:_ZN10tensorflow12SafeTensorIdC1ERKNS_8TensorIdE
libtensorflow_framework.so:_ZN10tensorflow12SafeTensorIdC2ERKNS_8TensorIdE
libtensorflow_framework.so:_ZN10tensorflow12SchedClosureESt8functionIFvvEE
libtensorflow_framework.so:_ZN10tensorflow12SessionState12DeleteTensorERKNSt7__cxx1112basic_stringIcSt11char_traitsIcESaIcEEE
libtensorflow_framework.so:_ZN10tensorflow12SessionState8GetNewIdEv
libtensorflow_framework.so:_ZN10tensorflow12SessionState9AddTensorERKNSt7__cxx1112basic_stringIcSt11char_traitsIcESaIcEEERKNS_6TensorE
libtensorflow_framework.so:_ZN10tensorflow12SessionState9GetTensorERKNSt7__cxx1112basic_stringIcSt11char_traitsIcESaIcEEEPNS_6TensorE
libtensorflow_framework.so:_ZN10tensorflow12SetAttrValueENS_11StringPieceEPNS_9AttrValueE
libtensorflow_framework.so:_ZN10tensorflow12SetAttrValueENS_3gtl10ArraySliceINS_11StringPieceEEEPNS_9AttrValueE
libtensorflow_framework.so:_ZN10tensorflow12SetAttrValueENS_3gtl10ArraySliceINS_11TensorProtoEEEPNS_9AttrValueE
libtensorflow_framework.so:_ZN10tensorflow12SetAttrValueENS_3gtl10ArraySliceINS_11TensorShapeEEEPNS_9AttrValueE
libtensorflow_framework.so:_ZN10tensorflow12SetAttrValueENS_3gtl10ArraySliceINS_12NameAttrListEEEPNS_9AttrValueE
libtensorflow_framework.so:_ZN10tensorflow12SetAttrValueENS_3gtl10ArraySliceINS_16TensorShapeProtoEEEPNS_9AttrValueE
libtensorflow_framework.so:_ZN10tensorflow12SetAttrValueENS_3gtl10ArraySliceINS_18PartialTensorShapeEEEPNS_9AttrValueE
libtensorflow_framework.so:_ZN10tensorflow12SetAttrValueENS_3gtl10ArraySliceINS_6TensorEEEPNS_9AttrValueE
libtensorflow_framework.so:_ZN10tensorflow12SetAttrValueENS_3gtl10ArraySliceINS_8DataTypeEEEPNS_9AttrValueE
libtensorflow_framework.so:_ZN10tensorflow12SetAttrValueENS_3gtl10ArraySliceINSt7__cxx1112basic_stringIcSt11char_traitsIcESaIcEEEEEPNS_9AttrValueE
libtensorflow_framework.so:_ZN10tensorflow12SetAttrValueENS_3gtl10ArraySliceIPKcEEPNS_9AttrValueE
libtensorflow_framework.so:_ZN10tensorflow12SetAttrValueENS_3gtl10ArraySliceIbEEPNS_9AttrValueE
libtensorflow_framework.so:_ZN10tensorflow12SetAttrValueENS_3gtl10ArraySliceIdEEPNS_9AttrValueE
libtensorflow_framework.so:_ZN10tensorflow12SetAttrValueENS_3gtl10ArraySliceIfEEPNS_9AttrValueE
libtensorflow_framework.so:_ZN10tensorflow12SetAttrValueENS_3gtl10ArraySliceIiEEPNS_9AttrValueE
libtensorflow_framework.so:_ZN10tensorflow12SetAttrValueENS_3gtl10ArraySliceIxEEPNS_9AttrValueE
libtensorflow_framework.so:_ZN10tensorflow12SetAttrValueENS_8DataTypeEPNS_9AttrValueE
libtensorflow_framework.so:_ZN10tensorflow12SetAttrValueEPKcPNS_9AttrValueE
libtensorflow_framework.so:_ZN10tensorflow12SetAttrValueERKNS_11TensorProtoEPNS_9AttrValueE
libtensorflow_framework.so:_ZN10tensorflow12SetAttrValueERKNS_11TensorShapeEPNS_9AttrValueE
libtensorflow_framework.so:_ZN10tensorflow12SetAttrValueERKNS_12NameAttrListEPNS_9AttrValueE
libtensorflow_framework.so:_ZN10tensorflow12SetAttrValueERKNS_16TensorShapeProtoEPNS_9AttrValueE
libtensorflow_framework.so:_ZN10tensorflow12SetAttrValueERKNS_18PartialTensorShapeEPNS_9AttrValueE
libtensorflow_framework.so:_ZN10tensorflow12SetAttrValueERKNS_6TensorEPNS_9AttrValueE
libtensorflow_framework.so:_ZN10tensorflow12SetAttrValueERKNS_9AttrValueEPS0_
libtensorflow_framework.so:_ZN10tensorflow12SetAttrValueERKNSt7__cxx1112basic_stringIcSt11char_traitsIcESaIcEEEPNS_9AttrValueE
libtensorflow_framework.so:_ZN10tensorflow12SetAttrValueERKSt6vectorIbSaIbEEPNS_9AttrValueE
libtensorflow_framework.so:_ZN10tensorflow12SetAttrValueESt16initializer_listIbEPNS_9AttrValueE
libtensorflow_framework.so:_ZN10tensorflow12SetAttrValueEbPNS_9AttrValueE
libtensorflow_framework.so:_ZN10tensorflow12SetAttrValueEdPNS_9AttrValueE
libtensorflow_framework.so:_ZN10tensorflow12SetAttrValueEfPNS_9AttrValueE
libtensorflow_framework.so:_ZN10tensorflow12SetAttrValueEiPNS_9AttrValueE
libtensorflow_framework.so:_ZN10tensorflow12SetAttrValueExPNS_9AttrValueE
libtensorflow_framework.so:_ZN10tensorflow12ShapeRefiner10RunShapeFnEPKNS_4NodeEPKNS_18OpRegistrationDataEPNS_24ExtendedInferenceContextE
libtensorflow_framework.so:_ZN10tensorflow12ShapeRefiner10UpdateNodeEPKNS_4NodeEbPb
libtensorflow_framework.so:_ZN10tensorflow12ShapeRefiner16SameDefinedShapeEPNS_15shape_inference16InferenceContextENS1_11ShapeHandleES4_
libtensorflow_framework.so:_ZN10tensorflow12ShapeRefiner20ConstantPartialShapeEPNS_15shape_inference16InferenceContextEPKNS_4NodeEiPNS1_11ShapeHandleE
libtensorflow_framework.so:_ZN10tensorflow12ShapeRefiner22InferShapesForFunctionEPKNS_11FunctionDefEbPNS_24ExtendedInferenceContextE
libtensorflow_framework.so:_ZN10tensorflow12ShapeRefiner22IsUpdatedShapesOrTypesEPNS_15shape_inference16InferenceContextERKSt6vectorINS1_12ShapeAndTypeESaIS5_EES9_
libtensorflow_framework.so:_ZN10tensorflow12ShapeRefiner24PartialStridedSliceShapeEPNS_4NodeEPNS_15shape_inference16InferenceContextEPNS3_11ShapeHandleE
libtensorflow_framework.so:_ZN10tensorflow12ShapeRefiner29EvaluateConstantIntScalarEdgeEPKNS_4NodeEiPbPx
libtensorflow_framework.so:_ZN10tensorflow12ShapeRefiner29EvaluateConstantTensorForEdgeEPKNS_4NodeEiPbPNS_6TensorE
libtensorflow_framework.so:_ZN10tensorflow12ShapeRefiner7AddNodeEPKNS_4NodeE
libtensorflow_framework.so:_ZN10tensorflow12ShapeRefiner8SetShapeEPKNS_4NodeEiNS_15shape_inference11ShapeHandleE
libtensorflow_framework.so:_ZN10tensorflow12ShapeRefinerC1ERKNS_10VersionDefEPKNS_19OpRegistryInterfaceE
libtensorflow_framework.so:_ZN10tensorflow12ShapeRefinerC1EiPKNS_19OpRegistryInterfaceE
libtensorflow_framework.so:_ZN10tensorflow12ShapeRefinerC2ERKNS_10VersionDefEPKNS_19OpRegistryInterfaceE
libtensorflow_framework.so:_ZN10tensorflow12ShapeRefinerC2EiPKNS_19OpRegistryInterfaceE
libtensorflow_framework.so:_ZN10tensorflow12ShapeRefinerD1Ev
libtensorflow_framework.so:_ZN10tensorflow12ShapeRefinerD2Ev
libtensorflow_framework.so:_ZN10tensorflow12SignatureDef10SharedCtorEv
libtensorflow_framework.so:_ZN10tensorflow12SignatureDef10SharedDtorEv
libtensorflow_framework.so:_ZN10tensorflow12SignatureDef10descriptorEv
libtensorflow_framework.so:_ZN10tensorflow12SignatureDef12InternalSwapEPS0_
libtensorflow_framework.so:_ZN10tensorflow12SignatureDef15UnsafeArenaSwapEPS0_
libtensorflow_framework.so:_ZN10tensorflow12SignatureDef16default_instanceEv
libtensorflow_framework.so:_ZN10tensorflow12SignatureDef21InitAsDefaultInstanceEv
libtensorflow_framework.so:_ZN10tensorflow12SignatureDef27MergePartialFromCodedStreamEPN6google8protobuf2io16CodedInputStreamE
libtensorflow_framework.so:_ZN10tensorflow12SignatureDef4SwapEPS0_
libtensorflow_framework.so:_ZN10tensorflow12SignatureDef5ClearEv
libtensorflow_framework.so:_ZN10tensorflow12SignatureDef8CopyFromERKN6google8protobuf7MessageE
libtensorflow_framework.so:_ZN10tensorflow12SignatureDef8CopyFromERKS0_
libtensorflow_framework.so:_ZN10tensorflow12SignatureDef9ArenaDtorEPv
libtensorflow_framework.so:_ZN10tensorflow12SignatureDef9MergeFromERKN6google8protobuf7MessageE
libtensorflow_framework.so:_ZN10tensorflow12SignatureDef9MergeFromERKS0_
libtensorflow_framework.so:_ZN10tensorflow12SignatureDefC1EPN6google8protobuf5ArenaE
libtensorflow_framework.so:_ZN10tensorflow12SignatureDefC1ERKS0_
libtensorflow_framework.so:_ZN10tensorflow12SignatureDefC1Ev
libtensorflow_framework.so:_ZN10tensorflow12SignatureDefC2EPN6google8protobuf5ArenaE
libtensorflow_framework.so:_ZN10tensorflow12SignatureDefC2ERKS0_
libtensorflow_framework.so:_ZN10tensorflow12SignatureDefC2Ev
libtensorflow_framework.so:_ZN10tensorflow12SignatureDefD0Ev
libtensorflow_framework.so:_ZN10tensorflow12SignatureDefD1Ev
libtensorflow_framework.so:_ZN10tensorflow12SignatureDefD2Ev
libtensorflow_framework.so:_ZN10tensorflow12WhileContextC1ENS_11StringPieceESt6vectorIPNS_4NodeESaIS4_EES6_NS_12OutputTensorES2_IS7_SaIS7_EES9_
libtensorflow_framework.so:_ZN10tensorflow12WhileContextC2ENS_11StringPieceESt6vectorIPNS_4NodeESaIS4_EES6_NS_12OutputTensorES2_IS7_SaIS7_EES9_
libtensorflow_framework.so:_ZN10tensorflow12WritableFileD0Ev
libtensorflow_framework.so:_ZN10tensorflow12WritableFileD1Ev
libtensorflow_framework.so:_ZN10tensorflow12WritableFileD2Ev
libtensorflow_framework.so:_ZN10tensorflow13AsyncOpKernel7ComputeEPNS_15OpKernelContextE
libtensorflow_framework.so:_ZN10tensorflow13AttrValueHashERKNS_9AttrValueE
libtensorflow_framework.so:_ZN10tensorflow13BaseGPUDevice12ComputeAsyncEPNS_13AsyncOpKernelEPNS_15OpKernelContextESt8functionIFvvEE
libtensorflow_framework.so:_ZN10tensorflow13BaseGPUDevice13ComputeHelperEPNS_8OpKernelEPNS_15OpKernelContextE
libtensorflow_framework.so:_ZN10tensorflow13BaseGPUDevice13MakeGpuDeviceEv
libtensorflow_framework.so:_ZN10tensorflow13BaseGPUDevice14FillContextMapEPKNS_5GraphEPSt6vectorIPNS_13DeviceContextESaIS6_EE
libtensorflow_framework.so:_ZN10tensorflow13BaseGPUDevice18GetScopedAllocatorENS_19AllocatorAttributesEx
libtensorflow_framework.so:_ZN10tensorflow13BaseGPUDevice18ReinitializeDeviceEPNS_15OpKernelContextEPNS_14PerOpGpuDeviceEiPNS_9AllocatorE
libtensorflow_framework.so:_ZN10tensorflow13BaseGPUDevice19MakeTensorFromProtoERKNS_11TensorProtoENS_19AllocatorAttributesEPNS_6TensorE
libtensorflow_framework.so:_ZN10tensorflow13BaseGPUDevice20MaybeCopyTensorToGPUERKNS_19AllocatorAttributesERKNS_6TensorEPS4_St8functionIFvRKNS_6StatusEEE
libtensorflow_framework.so:_ZN10tensorflow13BaseGPUDevice21ReinitializeGpuDeviceEPNS_15OpKernelContextEPNS_14PerOpGpuDeviceEPNS_13DeviceContextEPNS_9AllocatorE
libtensorflow_framework.so:_ZN10tensorflow13BaseGPUDevice26ComputeOpKernelDebugStringB5cxx11ERKNS_8OpKernelERKi
libtensorflow_framework.so:_ZN10tensorflow13BaseGPUDevice28ConsumeListOfAccessedTensorsEPNS_13DeviceContextERKNS_3gtl13InlinedVectorINS_15TensorReferenceELi4EEE
libtensorflow_framework.so:_ZN10tensorflow13BaseGPUDevice4InitERKNS_14SessionOptionsE
libtensorflow_framework.so:_ZN10tensorflow13BaseGPUDevice4SyncEv
libtensorflow_framework.so:_ZN10tensorflow13BaseGPUDevice7ComputeEPNS_8OpKernelEPNS_15OpKernelContextE
libtensorflow_framework.so:_ZN10tensorflow13BaseGPUDeviceC1ERKNS_14SessionOptionsERKNSt7__cxx1112basic_stringIcSt11char_traitsIcESaIcEEENS_3gtl7IntTypeINS_10Bytes_tag_ExEERKNS_14DeviceLocalityENSD_INS_12TfGpuId_tag_EiEESB_PNS_9AllocatorESM_bi
libtensorflow_framework.so:_ZN10tensorflow13BaseGPUDeviceC2ERKNS_14SessionOptionsERKNSt7__cxx1112basic_stringIcSt11char_traitsIcESaIcEEENS_3gtl7IntTypeINS_10Bytes_tag_ExEERKNS_14DeviceLocalityENSD_INS_12TfGpuId_tag_EiEESB_PNS_9AllocatorESM_bi
libtensorflow_framework.so:_ZN10tensorflow13BaseGPUDeviceD0Ev
libtensorflow_framework.so:_ZN10tensorflow13BaseGPUDeviceD1Ev
libtensorflow_framework.so:_ZN10tensorflow13BaseGPUDeviceD2Ev
libtensorflow_framework.so:_ZN10tensorflow13BufRendezvous10ConsumeBufERKNSt7__cxx1112basic_stringIcSt11char_traitsIcESaIcEEERKSt8functionIFvRKNS_6StatusEPNS0_4HookEEE
libtensorflow_framework.so:_ZN10tensorflow13BufRendezvous10ProvideBufERKNSt7__cxx1112basic_stringIcSt11char_traitsIcESaIcEEEPNS_6DeviceEPNS_13DeviceContextEPKNS_6TensorERKNS_19AllocatorAttributesERKSt8functionIFvRKNS_6StatusEEE
libtensorflow_framework.so:_ZN10tensorflow13BufRendezvous10PurgeTableERKNS_6StatusEPNS_3gtl7FlatMapINSt7__cxx1112basic_stringIcSt11char_traitsIcESaIcEEEPNS0_4HookENS_4hashISB_vEESt8equal_toISB_EEE
libtensorflow_framework.so:_ZN10tensorflow13BufRendezvous10StartAbortERKNS_6StatusE
libtensorflow_framework.so:_ZN10tensorflow13BufRendezvous11LogContentsEv
libtensorflow_framework.so:_ZN10tensorflow13BufRendezvous12DoneWithHookEPNS0_4HookE
libtensorflow_framework.so:_ZN10tensorflow13BufRendezvousD1Ev
libtensorflow_framework.so:_ZN10tensorflow13BufRendezvousD2Ev
libtensorflow_framework.so:_ZN10tensorflow13CheckVersionsERKNS_10VersionDefEiiPKcS4_
libtensorflow_framework.so:_ZN10tensorflow13CollectionDef10SharedCtorEv
libtensorflow_framework.so:_ZN10tensorflow13CollectionDef10SharedDtorEv
libtensorflow_framework.so:_ZN10tensorflow13CollectionDef10clear_kindEv
libtensorflow_framework.so:_ZN10tensorflow13CollectionDef10descriptorEv
libtensorflow_framework.so:_ZN10tensorflow13CollectionDef12InternalSwapEPS0_
libtensorflow_framework.so:_ZN10tensorflow13CollectionDef15UnsafeArenaSwapEPS0_
libtensorflow_framework.so:_ZN10tensorflow13CollectionDef16default_instanceEv
libtensorflow_framework.so:_ZN10tensorflow13CollectionDef21InitAsDefaultInstanceEv
libtensorflow_framework.so:_ZN10tensorflow13CollectionDef22set_allocated_any_listEPNS_21CollectionDef_AnyListE
libtensorflow_framework.so:_ZN10tensorflow13CollectionDef23set_allocated_node_listEPNS_22CollectionDef_NodeListE
libtensorflow_framework.so:_ZN10tensorflow13CollectionDef24set_allocated_bytes_listEPNS_23CollectionDef_BytesListE
libtensorflow_framework.so:_ZN10tensorflow13CollectionDef24set_allocated_float_listEPNS_23CollectionDef_FloatListE
libtensorflow_framework.so:_ZN10tensorflow13CollectionDef24set_allocated_int64_listEPNS_23CollectionDef_Int64ListE
libtensorflow_framework.so:_ZN10tensorflow13CollectionDef27MergePartialFromCodedStreamEPN6google8protobuf2io16CodedInputStreamE
libtensorflow_framework.so:_ZN10tensorflow13CollectionDef4SwapEPS0_
libtensorflow_framework.so:_ZN10tensorflow13CollectionDef5ClearEv
libtensorflow_framework.so:_ZN10tensorflow13CollectionDef8CopyFromERKN6google8protobuf7MessageE
libtensorflow_framework.so:_ZN10tensorflow13CollectionDef8CopyFromERKS0_
libtensorflow_framework.so:_ZN10tensorflow13CollectionDef9ArenaDtorEPv
libtensorflow_framework.so:_ZN10tensorflow13CollectionDef9MergeFromERKN6google8protobuf7MessageE
libtensorflow_framework.so:_ZN10tensorflow13CollectionDef9MergeFromERKS0_
libtensorflow_framework.so:_ZN10tensorflow13CollectionDefC1EPN6google8protobuf5ArenaE
libtensorflow_framework.so:_ZN10tensorflow13CollectionDefC1ERKS0_
libtensorflow_framework.so:_ZN10tensorflow13CollectionDefC1Ev
libtensorflow_framework.so:_ZN10tensorflow13CollectionDefC2EPN6google8protobuf5ArenaE
libtensorflow_framework.so:_ZN10tensorflow13CollectionDefC2ERKS0_
libtensorflow_framework.so:_ZN10tensorflow13CollectionDefC2Ev
libtensorflow_framework.so:_ZN10tensorflow13CollectionDefD0Ev
libtensorflow_framework.so:_ZN10tensorflow13CollectionDefD1Ev
libtensorflow_framework.so:_ZN10tensorflow13CollectionDefD2Ev
libtensorflow_framework.so:_ZN10tensorflow13ContainerInfo4InitEPNS_11ResourceMgrERKNS_7NodeDefEb
libtensorflow_framework.so:_ZN10tensorflow13DebugCudnnRnnEv
libtensorflow_framework.so:_ZN10tensorflow13DecodeVariantINS_22VariantTensorDataProtoEEEbRKNS_17VariantTensorDataEPT_
libtensorflow_framework.so:_ZN10tensorflow13DecodeVariantINS_22VariantTensorDataProtoEEEbRKNSt7__cxx1112basic_stringIcSt11char_traitsIcESaIcEEEPT_
libtensorflow_framework.so:_ZN10tensorflow13DeviceFactory10AddDevicesERKNS_14SessionOptionsERKNSt7__cxx1112basic_stringIcSt11char_traitsIcESaIcEEEPSt6vectorIPNS_6DeviceESaISE_EE
libtensorflow_framework.so:_ZN10tensorflow13DeviceFactory10GetFactoryERKNSt7__cxx1112basic_stringIcSt11char_traitsIcESaIcEEE
libtensorflow_framework.so:_ZN10tensorflow13DeviceFactory14DevicePriorityERKNSt7__cxx1112basic_stringIcSt11char_traitsIcESaIcEEE
libtensorflow_framework.so:_ZN10tensorflow13DeviceFactory8RegisterERKNSt7__cxx1112basic_stringIcSt11char_traitsIcESaIcEEEPS0_i
libtensorflow_framework.so:_ZN10tensorflow13DeviceFactory9NewDeviceERKNSt7__cxx1112basic_stringIcSt11char_traitsIcESaIcEEERKNS_14SessionOptionsES8_
libtensorflow_framework.so:_ZN10tensorflow13EncodeVariantINS_22VariantTensorDataProtoEEEvRKT_PNS_17VariantTensorDataE
libtensorflow_framework.so:_ZN10tensorflow13EncodeVariantINS_22VariantTensorDataProtoEEEvRKT_PNSt7__cxx1112basic_stringIcSt11char_traitsIcESaIcEEE
libtensorflow_framework.so:_ZN10tensorflow13EqualGraphDefERKNS_8GraphDefES2_PNSt7__cxx1112basic_stringIcSt11char_traitsIcESaIcEEERKNS_20EqualGraphDefOptionsE
libtensorflow_framework.so:_ZN10tensorflow13FindKernelDefERKNS_10DeviceTypeERKNS_7NodeDefEPPKNS_9KernelDefEPNSt7__cxx1112basic_stringIcSt11char_traitsIcESaIcEEE
libtensorflow_framework.so:_ZN10tensorflow13LowerIfOpPass11RewriteNodeEPNS_4NodeEPNS_5GraphE
libtensorflow_framework.so:_ZN10tensorflow13LowerIfOpPass3RunERKNS_28GraphOptimizationPassOptionsE
libtensorflow_framework.so:_ZN10tensorflow13MemoryLogStep10SharedCtorEv
libtensorflow_framework.so:_ZN10tensorflow13MemoryLogStep10SharedDtorEv
libtensorflow_framework.so:_ZN10tensorflow13MemoryLogStep10descriptorEv
libtensorflow_framework.so:_ZN10tensorflow13MemoryLogStep12InternalSwapEPS0_
libtensorflow_framework.so:_ZN10tensorflow13MemoryLogStep15UnsafeArenaSwapEPS0_
libtensorflow_framework.so:_ZN10tensorflow13MemoryLogStep16default_instanceEv
libtensorflow_framework.so:_ZN10tensorflow13MemoryLogStep21InitAsDefaultInstanceEv
libtensorflow_framework.so:_ZN10tensorflow13MemoryLogStep27MergePartialFromCodedStreamEPN6google8protobuf2io16CodedInputStreamE
libtensorflow_framework.so:_ZN10tensorflow13MemoryLogStep4SwapEPS0_
libtensorflow_framework.so:_ZN10tensorflow13MemoryLogStep5ClearEv
libtensorflow_framework.so:_ZN10tensorflow13MemoryLogStep8CopyFromERKN6google8protobuf7MessageE
libtensorflow_framework.so:_ZN10tensorflow13MemoryLogStep8CopyFromERKS0_
libtensorflow_framework.so:_ZN10tensorflow13MemoryLogStep9ArenaDtorEPv
libtensorflow_framework.so:_ZN10tensorflow13MemoryLogStep9MergeFromERKN6google8protobuf7MessageE
libtensorflow_framework.so:_ZN10tensorflow13MemoryLogStep9MergeFromERKS0_
libtensorflow_framework.so:_ZN10tensorflow13MemoryLogStepC1EPN6google8protobuf5ArenaE
libtensorflow_framework.so:_ZN10tensorflow13MemoryLogStepC1ERKS0_
libtensorflow_framework.so:_ZN10tensorflow13MemoryLogStepC1Ev
libtensorflow_framework.so:_ZN10tensorflow13MemoryLogStepC2EPN6google8protobuf5ArenaE
libtensorflow_framework.so:_ZN10tensorflow13MemoryLogStepC2ERKS0_
libtensorflow_framework.so:_ZN10tensorflow13MemoryLogStepC2Ev
libtensorflow_framework.so:_ZN10tensorflow13MemoryLogStepD0Ev
libtensorflow_framework.so:_ZN10tensorflow13MemoryLogStepD1Ev
libtensorflow_framework.so:_ZN10tensorflow13MemoryLogStepD2Ev
libtensorflow_framework.so:_ZN10tensorflow13MovingAverage5ClearEv
libtensorflow_framework.so:_ZN10tensorflow13MovingAverage8AddValueEd
libtensorflow_framework.so:_ZN10tensorflow13MovingAverageC1Ei
libtensorflow_framework.so:_ZN10tensorflow13MovingAverageC2Ei
libtensorflow_framework.so:_ZN10tensorflow13MovingAverageD1Ev
libtensorflow_framework.so:_ZN10tensorflow13MovingAverageD2Ev
libtensorflow_framework.so:_ZN10tensorflow13NodeExecStats10SharedCtorEv
libtensorflow_framework.so:_ZN10tensorflow13NodeExecStats10SharedDtorEv
libtensorflow_framework.so:_ZN10tensorflow13NodeExecStats10descriptorEv
libtensorflow_framework.so:_ZN10tensorflow13NodeExecStats12InternalSwapEPS0_
libtensorflow_framework.so:_ZN10tensorflow13NodeExecStats15UnsafeArenaSwapEPS0_
libtensorflow_framework.so:_ZN10tensorflow13NodeExecStats16default_instanceEv
libtensorflow_framework.so:_ZN10tensorflow13NodeExecStats21InitAsDefaultInstanceEv
libtensorflow_framework.so:_ZN10tensorflow13NodeExecStats23clear_referenced_tensorEv
libtensorflow_framework.so:_ZN10tensorflow13NodeExecStats27MergePartialFromCodedStreamEPN6google8protobuf2io16CodedInputStreamE
libtensorflow_framework.so:_ZN10tensorflow13NodeExecStats39unsafe_arena_set_allocated_memory_statsEPNS_11MemoryStatsE
libtensorflow_framework.so:_ZN10tensorflow13NodeExecStats4SwapEPS0_
libtensorflow_framework.so:_ZN10tensorflow13NodeExecStats5ClearEv
libtensorflow_framework.so:_ZN10tensorflow13NodeExecStats8CopyFromERKN6google8protobuf7MessageE
libtensorflow_framework.so:_ZN10tensorflow13NodeExecStats8CopyFromERKS0_
libtensorflow_framework.so:_ZN10tensorflow13NodeExecStats9ArenaDtorEPv
libtensorflow_framework.so:_ZN10tensorflow13NodeExecStats9MergeFromERKN6google8protobuf7MessageE
libtensorflow_framework.so:_ZN10tensorflow13NodeExecStats9MergeFromERKS0_
libtensorflow_framework.so:_ZN10tensorflow13NodeExecStatsC1EPN6google8protobuf5ArenaE
libtensorflow_framework.so:_ZN10tensorflow13NodeExecStatsC1ERKS0_
libtensorflow_framework.so:_ZN10tensorflow13NodeExecStatsC1Ev
libtensorflow_framework.so:_ZN10tensorflow13NodeExecStatsC2EPN6google8protobuf5ArenaE
libtensorflow_framework.so:_ZN10tensorflow13NodeExecStatsC2ERKS0_
libtensorflow_framework.so:_ZN10tensorflow13NodeExecStatsC2Ev
libtensorflow_framework.so:_ZN10tensorflow13NodeExecStatsD0Ev
libtensorflow_framework.so:_ZN10tensorflow13NodeExecStatsD1Ev
libtensorflow_framework.so:_ZN10tensorflow13NodeExecStatsD2Ev
libtensorflow_framework.so:_ZN10tensorflow13OpDef_AttrDef10SharedCtorEv
libtensorflow_framework.so:_ZN10tensorflow13OpDef_AttrDef10SharedDtorEv
libtensorflow_framework.so:_ZN10tensorflow13OpDef_AttrDef10descriptorEv
libtensorflow_framework.so:_ZN10tensorflow13OpDef_AttrDef12InternalSwapEPS0_
libtensorflow_framework.so:_ZN10tensorflow13OpDef_AttrDef15UnsafeArenaSwapEPS0_
libtensorflow_framework.so:_ZN10tensorflow13OpDef_AttrDef16default_instanceEv
libtensorflow_framework.so:_ZN10tensorflow13OpDef_AttrDef19clear_default_valueEv
libtensorflow_framework.so:_ZN10tensorflow13OpDef_AttrDef20clear_allowed_valuesEv
libtensorflow_framework.so:_ZN10tensorflow13OpDef_AttrDef21InitAsDefaultInstanceEv
libtensorflow_framework.so:_ZN10tensorflow13OpDef_AttrDef27MergePartialFromCodedStreamEPN6google8protobuf2io16CodedInputStreamE
libtensorflow_framework.so:_ZN10tensorflow13OpDef_AttrDef40unsafe_arena_set_allocated_default_valueEPNS_9AttrValueE
libtensorflow_framework.so:_ZN10tensorflow13OpDef_AttrDef41unsafe_arena_set_allocated_allowed_valuesEPNS_9AttrValueE
libtensorflow_framework.so:_ZN10tensorflow13OpDef_AttrDef4SwapEPS0_
libtensorflow_framework.so:_ZN10tensorflow13OpDef_AttrDef5ClearEv
libtensorflow_framework.so:_ZN10tensorflow13OpDef_AttrDef8CopyFromERKN6google8protobuf7MessageE
libtensorflow_framework.so:_ZN10tensorflow13OpDef_AttrDef8CopyFromERKS0_
libtensorflow_framework.so:_ZN10tensorflow13OpDef_AttrDef9ArenaDtorEPv
libtensorflow_framework.so:_ZN10tensorflow13OpDef_AttrDef9MergeFromERKN6google8protobuf7MessageE
libtensorflow_framework.so:_ZN10tensorflow13OpDef_AttrDef9MergeFromERKS0_
libtensorflow_framework.so:_ZN10tensorflow13OpDef_AttrDefC1EPN6google8protobuf5ArenaE
libtensorflow_framework.so:_ZN10tensorflow13OpDef_AttrDefC1ERKS0_
libtensorflow_framework.so:_ZN10tensorflow13OpDef_AttrDefC1Ev
libtensorflow_framework.so:_ZN10tensorflow13OpDef_AttrDefC2EPN6google8protobuf5ArenaE
libtensorflow_framework.so:_ZN10tensorflow13OpDef_AttrDefC2ERKS0_
libtensorflow_framework.so:_ZN10tensorflow13OpDef_AttrDefC2Ev
libtensorflow_framework.so:_ZN10tensorflow13OpDef_AttrDefD0Ev
libtensorflow_framework.so:_ZN10tensorflow13OpDef_AttrDefD1Ev
libtensorflow_framework.so:_ZN10tensorflow13OpDef_AttrDefD2Ev
libtensorflow_framework.so:_ZN10tensorflow13OpDeprecation10SharedCtorEv
libtensorflow_framework.so:_ZN10tensorflow13OpDeprecation10SharedDtorEv
libtensorflow_framework.so:_ZN10tensorflow13OpDeprecation10descriptorEv
libtensorflow_framework.so:_ZN10tensorflow13OpDeprecation12InternalSwapEPS0_
libtensorflow_framework.so:_ZN10tensorflow13OpDeprecation15UnsafeArenaSwapEPS0_
libtensorflow_framework.so:_ZN10tensorflow13OpDeprecation16default_instanceEv
libtensorflow_framework.so:_ZN10tensorflow13OpDeprecation21InitAsDefaultInstanceEv
libtensorflow_framework.so:_ZN10tensorflow13OpDeprecation27MergePartialFromCodedStreamEPN6google8protobuf2io16CodedInputStreamE
libtensorflow_framework.so:_ZN10tensorflow13OpDeprecation4SwapEPS0_
libtensorflow_framework.so:_ZN10tensorflow13OpDeprecation5ClearEv
libtensorflow_framework.so:_ZN10tensorflow13OpDeprecation8CopyFromERKN6google8protobuf7MessageE
libtensorflow_framework.so:_ZN10tensorflow13OpDeprecation8CopyFromERKS0_
libtensorflow_framework.so:_ZN10tensorflow13OpDeprecation9ArenaDtorEPv
libtensorflow_framework.so:_ZN10tensorflow13OpDeprecation9MergeFromERKN6google8protobuf7MessageE
libtensorflow_framework.so:_ZN10tensorflow13OpDeprecation9MergeFromERKS0_
libtensorflow_framework.so:_ZN10tensorflow13OpDeprecationC1EPN6google8protobuf5ArenaE
libtensorflow_framework.so:_ZN10tensorflow13OpDeprecationC1ERKS0_
libtensorflow_framework.so:_ZN10tensorflow13OpDeprecationC1Ev
libtensorflow_framework.so:_ZN10tensorflow13OpDeprecationC2EPN6google8protobuf5ArenaE
libtensorflow_framework.so:_ZN10tensorflow13OpDeprecationC2ERKS0_
libtensorflow_framework.so:_ZN10tensorflow13OpDeprecationC2Ev
libtensorflow_framework.so:_ZN10tensorflow13OpDeprecationD0Ev
libtensorflow_framework.so:_ZN10tensorflow13OpDeprecationD1Ev
libtensorflow_framework.so:_ZN10tensorflow13OpDeprecationD2Ev
libtensorflow_framework.so:_ZN10tensorflow13OpPerformance10SharedCtorEv
libtensorflow_framework.so:_ZN10tensorflow13OpPerformance10SharedDtorEv
libtensorflow_framework.so:_ZN10tensorflow13OpPerformance10descriptorEv
libtensorflow_framework.so:_ZN10tensorflow13OpPerformance12InternalSwapEPS0_
libtensorflow_framework.so:_ZN10tensorflow13OpPerformance15UnsafeArenaSwapEPS0_
libtensorflow_framework.so:_ZN10tensorflow13OpPerformance16default_instanceEv
libtensorflow_framework.so:_ZN10tensorflow13OpPerformance20clear_execution_timeEv
libtensorflow_framework.so:_ZN10tensorflow13OpPerformance21InitAsDefaultInstanceEv
libtensorflow_framework.so:_ZN10tensorflow13OpPerformance27MergePartialFromCodedStreamEPN6google8protobuf2io16CodedInputStreamE
libtensorflow_framework.so:_ZN10tensorflow13OpPerformance29unsafe_arena_set_allocated_opEPNS_6OpInfoE
libtensorflow_framework.so:_ZN10tensorflow13OpPerformance35set_allocated_execution_time_normalEPNS_18NormalDistributionE
libtensorflow_framework.so:_ZN10tensorflow13OpPerformance36unsafe_arena_set_allocated_op_memoryEPNS_22OpPerformance_OpMemoryE
libtensorflow_framework.so:_ZN10tensorflow13OpPerformance39set_allocated_execution_time_log_normalEPNS_21LogNormalDistributionE
libtensorflow_framework.so:_ZN10tensorflow13OpPerformance39unsafe_arena_set_allocated_session_infoEPNS_11SessionInfoE
libtensorflow_framework.so:_ZN10tensorflow13OpPerformance4SwapEPS0_
libtensorflow_framework.so:_ZN10tensorflow13OpPerformance5ClearEv
libtensorflow_framework.so:_ZN10tensorflow13OpPerformance8CopyFromERKN6google8protobuf7MessageE
libtensorflow_framework.so:_ZN10tensorflow13OpPerformance8CopyFromERKS0_
libtensorflow_framework.so:_ZN10tensorflow13OpPerformance9ArenaDtorEPv
libtensorflow_framework.so:_ZN10tensorflow13OpPerformance9MergeFromERKN6google8protobuf7MessageE
libtensorflow_framework.so:_ZN10tensorflow13OpPerformance9MergeFromERKS0_
libtensorflow_framework.so:_ZN10tensorflow13OpPerformanceC1EPN6google8protobuf5ArenaE
libtensorflow_framework.so:_ZN10tensorflow13OpPerformanceC1ERKS0_
libtensorflow_framework.so:_ZN10tensorflow13OpPerformanceC1Ev
libtensorflow_framework.so:_ZN10tensorflow13OpPerformanceC2EPN6google8protobuf5ArenaE
libtensorflow_framework.so:_ZN10tensorflow13OpPerformanceC2ERKS0_
libtensorflow_framework.so:_ZN10tensorflow13OpPerformanceC2Ev
libtensorflow_framework.so:_ZN10tensorflow13OpPerformanceD0Ev
libtensorflow_framework.so:_ZN10tensorflow13OpPerformanceD1Ev
libtensorflow_framework.so:_ZN10tensorflow13OpPerformanceD2Ev
libtensorflow_framework.so:_ZN10tensorflow13OptimizeGraphEPNS_22FunctionLibraryRuntimeEPSt10unique_ptrINS_5GraphESt14default_deleteIS3_EE
libtensorflow_framework.so:_ZN10tensorflow13PoolAllocator11AllocateRawEmm
libtensorflow_framework.so:_ZN10tensorflow13PoolAllocator13DeallocateRawEPv
libtensorflow_framework.so:_ZN10tensorflow13PoolAllocator14AddFreeVisitorESt8functionIFvPvmEE
libtensorflow_framework.so:_ZN10tensorflow13PoolAllocator14RemoveFromListEPNS0_9PtrRecordE
libtensorflow_framework.so:_ZN10tensorflow13PoolAllocator15AddAllocVisitorESt8functionIFvPvmEE
libtensorflow_framework.so:_ZN10tensorflow13PoolAllocator5ClearEv
libtensorflow_framework.so:_ZN10tensorflow13PoolAllocator8EvictOneEv
libtensorflow_framework.so:_ZN10tensorflow13PoolAllocator9AddToListEPNS0_9PtrRecordE
libtensorflow_framework.so:_ZN10tensorflow13PoolAllocatorC1EmbPNS_12SubAllocatorEPNS_16RoundUpInterfaceENSt7__cxx1112basic_stringIcSt11char_traitsIcESaIcEEE
libtensorflow_framework.so:_ZN10tensorflow13PoolAllocatorC2EmbPNS_12SubAllocatorEPNS_16RoundUpInterfaceENSt7__cxx1112basic_stringIcSt11char_traitsIcESaIcEEE
libtensorflow_framework.so:_ZN10tensorflow13PoolAllocatorD0Ev
libtensorflow_framework.so:_ZN10tensorflow13PoolAllocatorD1Ev
libtensorflow_framework.so:_ZN10tensorflow13PoolAllocatorD2Ev
libtensorflow_framework.so:_ZN10tensorflow13ReadTextProtoEPNS_3EnvERKNSt7__cxx1112basic_stringIcSt11char_traitsIcESaIcEEEPN6google8protobuf7MessageE
libtensorflow_framework.so:_ZN10tensorflow13RenamedDevice16NewRenamedDeviceERKNSt7__cxx1112basic_stringIcSt11char_traitsIcESaIcEEEPNS_6DeviceEbb
libtensorflow_framework.so:_ZN10tensorflow13RenamedDeviceC1EPNS_6DeviceERKNS_16DeviceAttributesEbb
libtensorflow_framework.so:_ZN10tensorflow13RenamedDeviceC2EPNS_6DeviceERKNS_16DeviceAttributesEbb
libtensorflow_framework.so:_ZN10tensorflow13RenamedDeviceD0Ev
libtensorflow_framework.so:_ZN10tensorflow13RenamedDeviceD1Ev
libtensorflow_framework.so:_ZN10tensorflow13RenamedDeviceD2Ev
libtensorflow_framework.so:_ZN10tensorflow13SummarizeNodeB5cxx11ERKNS_4NodeE
libtensorflow_framework.so:_ZN10tensorflow13Summary_Audio10SharedCtorEv
libtensorflow_framework.so:_ZN10tensorflow13Summary_Audio10SharedDtorEv
libtensorflow_framework.so:_ZN10tensorflow13Summary_Audio10descriptorEv
libtensorflow_framework.so:_ZN10tensorflow13Summary_Audio12InternalSwapEPS0_
libtensorflow_framework.so:_ZN10tensorflow13Summary_Audio15UnsafeArenaSwapEPS0_
libtensorflow_framework.so:_ZN10tensorflow13Summary_Audio16default_instanceEv
libtensorflow_framework.so:_ZN10tensorflow13Summary_Audio21InitAsDefaultInstanceEv
libtensorflow_framework.so:_ZN10tensorflow13Summary_Audio27MergePartialFromCodedStreamEPN6google8protobuf2io16CodedInputStreamE
libtensorflow_framework.so:_ZN10tensorflow13Summary_Audio4SwapEPS0_
libtensorflow_framework.so:_ZN10tensorflow13Summary_Audio5ClearEv
libtensorflow_framework.so:_ZN10tensorflow13Summary_Audio8CopyFromERKN6google8protobuf7MessageE
libtensorflow_framework.so:_ZN10tensorflow13Summary_Audio8CopyFromERKS0_
libtensorflow_framework.so:_ZN10tensorflow13Summary_Audio9ArenaDtorEPv
libtensorflow_framework.so:_ZN10tensorflow13Summary_Audio9MergeFromERKN6google8protobuf7MessageE
libtensorflow_framework.so:_ZN10tensorflow13Summary_Audio9MergeFromERKS0_
libtensorflow_framework.so:_ZN10tensorflow13Summary_AudioC1EPN6google8protobuf5ArenaE
libtensorflow_framework.so:_ZN10tensorflow13Summary_AudioC1ERKS0_
libtensorflow_framework.so:_ZN10tensorflow13Summary_AudioC1Ev
libtensorflow_framework.so:_ZN10tensorflow13Summary_AudioC2EPN6google8protobuf5ArenaE
libtensorflow_framework.so:_ZN10tensorflow13Summary_AudioC2ERKS0_
libtensorflow_framework.so:_ZN10tensorflow13Summary_AudioC2Ev
libtensorflow_framework.so:_ZN10tensorflow13Summary_AudioD0Ev
libtensorflow_framework.so:_ZN10tensorflow13Summary_AudioD1Ev
libtensorflow_framework.so:_ZN10tensorflow13Summary_AudioD2Ev
libtensorflow_framework.so:_ZN10tensorflow13Summary_Image10SharedCtorEv
libtensorflow_framework.so:_ZN10tensorflow13Summary_Image10SharedDtorEv
libtensorflow_framework.so:_ZN10tensorflow13Summary_Image10descriptorEv
libtensorflow_framework.so:_ZN10tensorflow13Summary_Image12InternalSwapEPS0_
libtensorflow_framework.so:_ZN10tensorflow13Summary_Image15UnsafeArenaSwapEPS0_
libtensorflow_framework.so:_ZN10tensorflow13Summary_Image16default_instanceEv
libtensorflow_framework.so:_ZN10tensorflow13Summary_Image21InitAsDefaultInstanceEv
libtensorflow_framework.so:_ZN10tensorflow13Summary_Image27MergePartialFromCodedStreamEPN6google8protobuf2io16CodedInputStreamE
libtensorflow_framework.so:_ZN10tensorflow13Summary_Image4SwapEPS0_
libtensorflow_framework.so:_ZN10tensorflow13Summary_Image5ClearEv
libtensorflow_framework.so:_ZN10tensorflow13Summary_Image8CopyFromERKN6google8protobuf7MessageE
libtensorflow_framework.so:_ZN10tensorflow13Summary_Image8CopyFromERKS0_
libtensorflow_framework.so:_ZN10tensorflow13Summary_Image9ArenaDtorEPv
libtensorflow_framework.so:_ZN10tensorflow13Summary_Image9MergeFromERKN6google8protobuf7MessageE
libtensorflow_framework.so:_ZN10tensorflow13Summary_Image9MergeFromERKS0_
libtensorflow_framework.so:_ZN10tensorflow13Summary_ImageC1EPN6google8protobuf5ArenaE
libtensorflow_framework.so:_ZN10tensorflow13Summary_ImageC1ERKS0_
libtensorflow_framework.so:_ZN10tensorflow13Summary_ImageC1Ev
libtensorflow_framework.so:_ZN10tensorflow13Summary_ImageC2EPN6google8protobuf5ArenaE
libtensorflow_framework.so:_ZN10tensorflow13Summary_ImageC2ERKS0_
libtensorflow_framework.so:_ZN10tensorflow13Summary_ImageC2Ev
libtensorflow_framework.so:_ZN10tensorflow13Summary_ImageD0Ev
libtensorflow_framework.so:_ZN10tensorflow13Summary_ImageD1Ev
libtensorflow_framework.so:_ZN10tensorflow13Summary_ImageD2Ev
libtensorflow_framework.so:_ZN10tensorflow13Summary_Value10SharedCtorEv
libtensorflow_framework.so:_ZN10tensorflow13Summary_Value10SharedDtorEv
libtensorflow_framework.so:_ZN10tensorflow13Summary_Value10descriptorEv
libtensorflow_framework.so:_ZN10tensorflow13Summary_Value11clear_valueEv
libtensorflow_framework.so:_ZN10tensorflow13Summary_Value12InternalSwapEPS0_
libtensorflow_framework.so:_ZN10tensorflow13Summary_Value12clear_tensorEv
libtensorflow_framework.so:_ZN10tensorflow13Summary_Value15UnsafeArenaSwapEPS0_
libtensorflow_framework.so:_ZN10tensorflow13Summary_Value16default_instanceEv
libtensorflow_framework.so:_ZN10tensorflow13Summary_Value19set_allocated_audioEPNS_13Summary_AudioE
libtensorflow_framework.so:_ZN10tensorflow13Summary_Value19set_allocated_histoEPNS_14HistogramProtoE
libtensorflow_framework.so:_ZN10tensorflow13Summary_Value19set_allocated_imageEPNS_13Summary_ImageE
libtensorflow_framework.so:_ZN10tensorflow13Summary_Value20set_allocated_tensorEPNS_11TensorProtoE
libtensorflow_framework.so:_ZN10tensorflow13Summary_Value21InitAsDefaultInstanceEv
libtensorflow_framework.so:_ZN10tensorflow13Summary_Value27MergePartialFromCodedStreamEPN6google8protobuf2io16CodedInputStreamE
libtensorflow_framework.so:_ZN10tensorflow13Summary_Value35unsafe_arena_set_allocated_metadataEPNS_15SummaryMetadataE
libtensorflow_framework.so:_ZN10tensorflow13Summary_Value4SwapEPS0_
libtensorflow_framework.so:_ZN10tensorflow13Summary_Value5ClearEv
libtensorflow_framework.so:_ZN10tensorflow13Summary_Value8CopyFromERKN6google8protobuf7MessageE
libtensorflow_framework.so:_ZN10tensorflow13Summary_Value8CopyFromERKS0_
libtensorflow_framework.so:_ZN10tensorflow13Summary_Value9ArenaDtorEPv
libtensorflow_framework.so:_ZN10tensorflow13Summary_Value9MergeFromERKN6google8protobuf7MessageE
libtensorflow_framework.so:_ZN10tensorflow13Summary_Value9MergeFromERKS0_
libtensorflow_framework.so:_ZN10tensorflow13Summary_ValueC1EPN6google8protobuf5ArenaE
libtensorflow_framework.so:_ZN10tensorflow13Summary_ValueC1ERKS0_
libtensorflow_framework.so:_ZN10tensorflow13Summary_ValueC1Ev
libtensorflow_framework.so:_ZN10tensorflow13Summary_ValueC2EPN6google8protobuf5ArenaE
libtensorflow_framework.so:_ZN10tensorflow13Summary_ValueC2ERKS0_
libtensorflow_framework.so:_ZN10tensorflow13Summary_ValueC2Ev
libtensorflow_framework.so:_ZN10tensorflow13Summary_ValueD0Ev
libtensorflow_framework.so:_ZN10tensorflow13Summary_ValueD1Ev
libtensorflow_framework.so:_ZN10tensorflow13Summary_ValueD2Ev
libtensorflow_framework.so:_ZN10tensorflow13ValidateOpDefERKNS_5OpDefE
libtensorflow_framework.so:_ZN10tensorflow13cpu_allocatorEv
libtensorflow_framework.so:_ZN10tensorflow13profile_utils8CpuUtils15ResetClockCycleEv
libtensorflow_framework.so:_ZN10tensorflow13profile_utils8CpuUtils19GetMicroSecPerClockEv
libtensorflow_framework.so:_ZN10tensorflow13profile_utils8CpuUtils23ConvertClockCycleToTimeEx
libtensorflow_framework.so:_ZN10tensorflow13profile_utils8CpuUtils24GetCycleCounterFrequencyEv
libtensorflow_framework.so:_ZN10tensorflow13profile_utils8CpuUtils25EnableClockCycleProfilingEb
libtensorflow_framework.so:_ZN10tensorflow13profile_utils8CpuUtils28GetCycleCounterFrequencyImplEv
libtensorflow_framework.so:_ZN10tensorflow13profile_utils8CpuUtils34GetCpuUtilsHelperSingletonInstanceEv
libtensorflow_framework.so:_ZN10tensorflow14AllocatorRetry11AllocateRawESt8functionIFPvmmbEEimm
libtensorflow_framework.so:_ZN10tensorflow14AllocatorRetryC1Ev
libtensorflow_framework.so:_ZN10tensorflow14AllocatorRetryC2Ev
libtensorflow_framework.so:_ZN10tensorflow14AllocatorStats5ClearEv
libtensorflow_framework.so:_ZN10tensorflow14BenchmarkEntry10SharedCtorEv
libtensorflow_framework.so:_ZN10tensorflow14BenchmarkEntry10SharedDtorEv
libtensorflow_framework.so:_ZN10tensorflow14BenchmarkEntry10descriptorEv
libtensorflow_framework.so:_ZN10tensorflow14BenchmarkEntry12InternalSwapEPS0_
libtensorflow_framework.so:_ZN10tensorflow14BenchmarkEntry15UnsafeArenaSwapEPS0_
libtensorflow_framework.so:_ZN10tensorflow14BenchmarkEntry16default_instanceEv
libtensorflow_framework.so:_ZN10tensorflow14BenchmarkEntry21InitAsDefaultInstanceEv
libtensorflow_framework.so:_ZN10tensorflow14BenchmarkEntry27MergePartialFromCodedStreamEPN6google8protobuf2io16CodedInputStreamE
libtensorflow_framework.so:_ZN10tensorflow14BenchmarkEntry4SwapEPS0_
libtensorflow_framework.so:_ZN10tensorflow14BenchmarkEntry5ClearEv
libtensorflow_framework.so:_ZN10tensorflow14BenchmarkEntry8CopyFromERKN6google8protobuf7MessageE
libtensorflow_framework.so:_ZN10tensorflow14BenchmarkEntry8CopyFromERKS0_
libtensorflow_framework.so:_ZN10tensorflow14BenchmarkEntry9ArenaDtorEPv
libtensorflow_framework.so:_ZN10tensorflow14BenchmarkEntry9MergeFromERKN6google8protobuf7MessageE
libtensorflow_framework.so:_ZN10tensorflow14BenchmarkEntry9MergeFromERKS0_
libtensorflow_framework.so:_ZN10tensorflow14BenchmarkEntryC1EPN6google8protobuf5ArenaE
libtensorflow_framework.so:_ZN10tensorflow14BenchmarkEntryC1ERKS0_
libtensorflow_framework.so:_ZN10tensorflow14BenchmarkEntryC1Ev
libtensorflow_framework.so:_ZN10tensorflow14BenchmarkEntryC2EPN6google8protobuf5ArenaE
libtensorflow_framework.so:_ZN10tensorflow14BenchmarkEntryC2ERKS0_
libtensorflow_framework.so:_ZN10tensorflow14BenchmarkEntryC2Ev
libtensorflow_framework.so:_ZN10tensorflow14BenchmarkEntryD0Ev
libtensorflow_framework.so:_ZN10tensorflow14BenchmarkEntryD1Ev
libtensorflow_framework.so:_ZN10tensorflow14BenchmarkEntryD2Ev
libtensorflow_framework.so:_ZN10tensorflow14CheckValidTypeERKNS_8DataTypeE
libtensorflow_framework.so:_ZN10tensorflow14CondContextDef10SharedCtorEv
libtensorflow_framework.so:_ZN10tensorflow14CondContextDef10SharedDtorEv
libtensorflow_framework.so:_ZN10tensorflow14CondContextDef10descriptorEv
libtensorflow_framework.so:_ZN10tensorflow14CondContextDef12InternalSwapEPS0_
libtensorflow_framework.so:_ZN10tensorflow14CondContextDef15UnsafeArenaSwapEPS0_
libtensorflow_framework.so:_ZN10tensorflow14CondContextDef16default_instanceEv
libtensorflow_framework.so:_ZN10tensorflow14CondContextDef21InitAsDefaultInstanceEv
libtensorflow_framework.so:_ZN10tensorflow14CondContextDef27MergePartialFromCodedStreamEPN6google8protobuf2io16CodedInputStreamE
libtensorflow_framework.so:_ZN10tensorflow14CondContextDef37unsafe_arena_set_allocated_values_defEPNS_9ValuesDefE
libtensorflow_framework.so:_ZN10tensorflow14CondContextDef4SwapEPS0_
libtensorflow_framework.so:_ZN10tensorflow14CondContextDef5ClearEv
libtensorflow_framework.so:_ZN10tensorflow14CondContextDef8CopyFromERKN6google8protobuf7MessageE
libtensorflow_framework.so:_ZN10tensorflow14CondContextDef8CopyFromERKS0_
libtensorflow_framework.so:_ZN10tensorflow14CondContextDef9ArenaDtorEPv
libtensorflow_framework.so:_ZN10tensorflow14CondContextDef9MergeFromERKN6google8protobuf7MessageE
libtensorflow_framework.so:_ZN10tensorflow14CondContextDef9MergeFromERKS0_
libtensorflow_framework.so:_ZN10tensorflow14CondContextDefC1EPN6google8protobuf5ArenaE
libtensorflow_framework.so:_ZN10tensorflow14CondContextDefC1ERKS0_
libtensorflow_framework.so:_ZN10tensorflow14CondContextDefC1Ev
libtensorflow_framework.so:_ZN10tensorflow14CondContextDefC2EPN6google8protobuf5ArenaE
libtensorflow_framework.so:_ZN10tensorflow14CondContextDefC2ERKS0_
libtensorflow_framework.so:_ZN10tensorflow14CondContextDefC2Ev
libtensorflow_framework.so:_ZN10tensorflow14CondContextDefD0Ev
libtensorflow_framework.so:_ZN10tensorflow14CondContextDefD1Ev
libtensorflow_framework.so:_ZN10tensorflow14CondContextDefD2Ev
libtensorflow_framework.so:_ZN10tensorflow14CreateOpKernelENS_10DeviceTypeEPNS_10DeviceBaseEPNS_9AllocatorEPNS_22FunctionLibraryRuntimeERKNS_7NodeDefEiPPNS_8OpKernelE
libtensorflow_framework.so:_ZN10tensorflow14CreateOpKernelENS_10DeviceTypeEPNS_10DeviceBaseEPNS_9AllocatorERKNS_7NodeDefEiPNS_6StatusE
libtensorflow_framework.so:_ZN10tensorflow14DataTypeStringB5cxx11ENS_8DataTypeE
libtensorflow_framework.so:_ZN10tensorflow14DeleteResourceEPNS_15OpKernelContextERKNS_14ResourceHandleE
libtensorflow_framework.so:_ZN10tensorflow14DeviceLocality10SharedCtorEv
libtensorflow_framework.so:_ZN10tensorflow14DeviceLocality10SharedDtorEv
libtensorflow_framework.so:_ZN10tensorflow14DeviceLocality10descriptorEv
libtensorflow_framework.so:_ZN10tensorflow14DeviceLocality12InternalSwapEPS0_
libtensorflow_framework.so:_ZN10tensorflow14DeviceLocality15UnsafeArenaSwapEPS0_
libtensorflow_framework.so:_ZN10tensorflow14DeviceLocality16default_instanceEv
libtensorflow_framework.so:_ZN10tensorflow14DeviceLocality21InitAsDefaultInstanceEv
libtensorflow_framework.so:_ZN10tensorflow14DeviceLocality27MergePartialFromCodedStreamEPN6google8protobuf2io16CodedInputStreamE
libtensorflow_framework.so:_ZN10tensorflow14DeviceLocality32unsafe_arena_set_allocated_linksEPNS_10LocalLinksE
libtensorflow_framework.so:_ZN10tensorflow14DeviceLocality4SwapEPS0_
libtensorflow_framework.so:_ZN10tensorflow14DeviceLocality5ClearEv
libtensorflow_framework.so:_ZN10tensorflow14DeviceLocality8CopyFromERKN6google8protobuf7MessageE
libtensorflow_framework.so:_ZN10tensorflow14DeviceLocality8CopyFromERKS0_
libtensorflow_framework.so:_ZN10tensorflow14DeviceLocality9ArenaDtorEPv
libtensorflow_framework.so:_ZN10tensorflow14DeviceLocality9MergeFromERKN6google8protobuf7MessageE
libtensorflow_framework.so:_ZN10tensorflow14DeviceLocality9MergeFromERKS0_
libtensorflow_framework.so:_ZN10tensorflow14DeviceLocalityC1EPN6google8protobuf5ArenaE
libtensorflow_framework.so:_ZN10tensorflow14DeviceLocalityC1ERKS0_
libtensorflow_framework.so:_ZN10tensorflow14DeviceLocalityC1Ev
libtensorflow_framework.so:_ZN10tensorflow14DeviceLocalityC2EPN6google8protobuf5ArenaE
libtensorflow_framework.so:_ZN10tensorflow14DeviceLocalityC2ERKS0_
libtensorflow_framework.so:_ZN10tensorflow14DeviceLocalityC2Ev
libtensorflow_framework.so:_ZN10tensorflow14DeviceLocalityD0Ev
libtensorflow_framework.so:_ZN10tensorflow14DeviceLocalityD1Ev
libtensorflow_framework.so:_ZN10tensorflow14DeviceLocalityD2Ev
libtensorflow_framework.so:_ZN10tensorflow14GetFeatureListERKNSt7__cxx1112basic_stringIcSt11char_traitsIcESaIcEEEPNS_15SequenceExampleE
libtensorflow_framework.so:_ZN10tensorflow14GetFeatureListERKNSt7__cxx1112basic_stringIcSt11char_traitsIcESaIcEEERKNS_15SequenceExampleE
libtensorflow_framework.so:_ZN10tensorflow14GraphOptimizer8OptimizeEPNS_22FunctionLibraryRuntimeEPNS_3EnvEPNS_6DeviceEPSt10unique_ptrINS_5GraphESt14default_deleteIS8_EEPKSt13unordered_mapINSt7__cxx1112basic_stringIcSt11char_traitsIcESaIcEEESt6vectorINS_18PartialTensorShapeESaISL_EESt4hashISJ_ESt8equal_toISJ_ESaISt4pairIKSJ_SN_EEERKSt8functionIFbPKNS_4NodeEEE
libtensorflow_framework.so:_ZN10tensorflow14GraphOptimizerC1ERKNS_16OptimizerOptionsE
libtensorflow_framework.so:_ZN10tensorflow14GraphOptimizerC2ERKNS_16OptimizerOptionsE
libtensorflow_framework.so:_ZN10tensorflow14GraphOptimizerD1Ev
libtensorflow_framework.so:_ZN10tensorflow14GraphOptimizerD2Ev
libtensorflow_framework.so:_ZN10tensorflow14HasFeatureListERKNSt7__cxx1112basic_stringIcSt11char_traitsIcESaIcEEERKNS_15SequenceExampleE
libtensorflow_framework.so:_ZN10tensorflow14HasPlaceHolderERKNS_9AttrValueE
libtensorflow_framework.so:_ZN10tensorflow14HistogramProto10SharedCtorEv
libtensorflow_framework.so:_ZN10tensorflow14HistogramProto10SharedDtorEv
libtensorflow_framework.so:_ZN10tensorflow14HistogramProto10descriptorEv
libtensorflow_framework.so:_ZN10tensorflow14HistogramProto12InternalSwapEPS0_
libtensorflow_framework.so:_ZN10tensorflow14HistogramProto15UnsafeArenaSwapEPS0_
libtensorflow_framework.so:_ZN10tensorflow14HistogramProto16default_instanceEv
libtensorflow_framework.so:_ZN10tensorflow14HistogramProto21InitAsDefaultInstanceEv
libtensorflow_framework.so:_ZN10tensorflow14HistogramProto27MergePartialFromCodedStreamEPN6google8protobuf2io16CodedInputStreamE
libtensorflow_framework.so:_ZN10tensorflow14HistogramProto4SwapEPS0_
libtensorflow_framework.so:_ZN10tensorflow14HistogramProto5ClearEv
libtensorflow_framework.so:_ZN10tensorflow14HistogramProto8CopyFromERKN6google8protobuf7MessageE
libtensorflow_framework.so:_ZN10tensorflow14HistogramProto8CopyFromERKS0_
libtensorflow_framework.so:_ZN10tensorflow14HistogramProto9ArenaDtorEPv
libtensorflow_framework.so:_ZN10tensorflow14HistogramProto9MergeFromERKN6google8protobuf7MessageE
libtensorflow_framework.so:_ZN10tensorflow14HistogramProto9MergeFromERKS0_
libtensorflow_framework.so:_ZN10tensorflow14HistogramProtoC1EPN6google8protobuf5ArenaE
libtensorflow_framework.so:_ZN10tensorflow14HistogramProtoC1ERKS0_
libtensorflow_framework.so:_ZN10tensorflow14HistogramProtoC1Ev
libtensorflow_framework.so:_ZN10tensorflow14HistogramProtoC2EPN6google8protobuf5ArenaE
libtensorflow_framework.so:_ZN10tensorflow14HistogramProtoC2ERKS0_
libtensorflow_framework.so:_ZN10tensorflow14HistogramProtoC2Ev
libtensorflow_framework.so:_ZN10tensorflow14HistogramProtoD0Ev
libtensorflow_framework.so:_ZN10tensorflow14HistogramProtoD1Ev
libtensorflow_framework.so:_ZN10tensorflow14HistogramProtoD2Ev
libtensorflow_framework.so:_ZN10tensorflow14ImportGraphDefERKNS_21ImportGraphDefOptionsERKNS_8GraphDefEPNS_5GraphEPNS_12ShapeRefinerEPNS_21ImportGraphDefResultsE
libtensorflow_framework.so:_ZN10tensorflow14MTypeFromDTypeENS_8DataTypeE
libtensorflow_framework.so:_ZN10tensorflow14NodeDefBuilder10InitializeEv
libtensorflow_framework.so:_ZN10tensorflow14NodeDefBuilder10NextArgDefEv
libtensorflow_framework.so:_ZN10tensorflow14NodeDefBuilder11SingleInputEPKNS_12OpDef_ArgDefENS_11StringPieceEiNS_8DataTypeE
libtensorflow_framework.so:_ZN10tensorflow14NodeDefBuilder12ControlInputENS_11StringPieceE
libtensorflow_framework.so:_ZN10tensorflow14NodeDefBuilder14VerifyInputRefEPKNS_12OpDef_ArgDefENS_8DataTypeE
libtensorflow_framework.so:_ZN10tensorflow14NodeDefBuilder15VerifyInputTypeEPKNS_12OpDef_ArgDefENS_8DataTypeES4_
libtensorflow_framework.so:_ZN10tensorflow14NodeDefBuilder16NextArgAvailableEv
libtensorflow_framework.so:_ZN10tensorflow14NodeDefBuilder4AttrENS_11StringPieceENS_3gtl10ArraySliceINS_11TensorShapeEEE
libtensorflow_framework.so:_ZN10tensorflow14NodeDefBuilder4AttrENS_11StringPieceENS_3gtl10ArraySliceINS_12NameAttrListEEE
libtensorflow_framework.so:_ZN10tensorflow14NodeDefBuilder4AttrENS_11StringPieceENS_3gtl10ArraySliceINS_16TensorShapeProtoEEE
libtensorflow_framework.so:_ZN10tensorflow14NodeDefBuilder4AttrENS_11StringPieceENS_3gtl10ArraySliceINS_18PartialTensorShapeEEE
libtensorflow_framework.so:_ZN10tensorflow14NodeDefBuilder4AttrENS_11StringPieceENS_3gtl10ArraySliceINS_6TensorEEE
libtensorflow_framework.so:_ZN10tensorflow14NodeDefBuilder4AttrENS_11StringPieceENS_3gtl10ArraySliceINS_8DataTypeEEE
libtensorflow_framework.so:_ZN10tensorflow14NodeDefBuilder4AttrENS_11StringPieceENS_3gtl10ArraySliceINSt7__cxx1112basic_stringIcSt11char_traitsIcESaIcEEEEE
libtensorflow_framework.so:_ZN10tensorflow14NodeDefBuilder4AttrENS_11StringPieceENS_3gtl10ArraySliceIPKcEE
libtensorflow_framework.so:_ZN10tensorflow14NodeDefBuilder4AttrENS_11StringPieceENS_3gtl10ArraySliceIS1_EE
libtensorflow_framework.so:_ZN10tensorflow14NodeDefBuilder4AttrENS_11StringPieceENS_3gtl10ArraySliceIbEE
libtensorflow_framework.so:_ZN10tensorflow14NodeDefBuilder4AttrENS_11StringPieceENS_3gtl10ArraySliceIfEE
libtensorflow_framework.so:_ZN10tensorflow14NodeDefBuilder4AttrENS_11StringPieceENS_3gtl10ArraySliceIiEE
libtensorflow_framework.so:_ZN10tensorflow14NodeDefBuilder4AttrENS_11StringPieceENS_3gtl10ArraySliceIxEE
libtensorflow_framework.so:_ZN10tensorflow14NodeDefBuilder4AttrENS_11StringPieceENS_8DataTypeE
libtensorflow_framework.so:_ZN10tensorflow14NodeDefBuilder4AttrENS_11StringPieceEPKc
libtensorflow_framework.so:_ZN10tensorflow14NodeDefBuilder4AttrENS_11StringPieceERKNS_11TensorProtoE
libtensorflow_framework.so:_ZN10tensorflow14NodeDefBuilder4AttrENS_11StringPieceERKNS_12NameAttrListE
libtensorflow_framework.so:_ZN10tensorflow14NodeDefBuilder4AttrENS_11StringPieceERKNS_18PartialTensorShapeE
libtensorflow_framework.so:_ZN10tensorflow14NodeDefBuilder4AttrENS_11StringPieceERKNS_6TensorE
libtensorflow_framework.so:_ZN10tensorflow14NodeDefBuilder4AttrENS_11StringPieceERKNS_9AttrValueE
libtensorflow_framework.so:_ZN10tensorflow14NodeDefBuilder4AttrENS_11StringPieceERKSt6vectorIbSaIbEE
libtensorflow_framework.so:_ZN10tensorflow14NodeDefBuilder4AttrENS_11StringPieceES1_
libtensorflow_framework.so:_ZN10tensorflow14NodeDefBuilder4AttrENS_11StringPieceEb
libtensorflow_framework.so:_ZN10tensorflow14NodeDefBuilder4AttrENS_11StringPieceEd
libtensorflow_framework.so:_ZN10tensorflow14NodeDefBuilder4AttrENS_11StringPieceEf
libtensorflow_framework.so:_ZN10tensorflow14NodeDefBuilder4AttrENS_11StringPieceEi
libtensorflow_framework.so:_ZN10tensorflow14NodeDefBuilder4AttrENS_11StringPieceEx
libtensorflow_framework.so:_ZN10tensorflow14NodeDefBuilder5InputENS_11StringPieceEiNS_8DataTypeE
libtensorflow_framework.so:_ZN10tensorflow14NodeDefBuilder5InputENS_3gtl10ArraySliceINS0_7NodeOutEEE
libtensorflow_framework.so:_ZN10tensorflow14NodeDefBuilder5InputERKNS0_7NodeOutE
libtensorflow_framework.so:_ZN10tensorflow14NodeDefBuilder5InputESt8functionIFNS_6StatusERKNS_5OpDefEiRKNS_7NodeDefEPS0_EE
libtensorflow_framework.so:_ZN10tensorflow14NodeDefBuilder6DeviceENS_11StringPieceE
libtensorflow_framework.so:_ZN10tensorflow14NodeDefBuilder7NodeOut5ResetENS_11StringPieceEiNS_8DataTypeE
libtensorflow_framework.so:_ZN10tensorflow14NodeDefBuilder7NodeOutC1ENS_11StringPieceEiNS_8DataTypeE
libtensorflow_framework.so:_ZN10tensorflow14NodeDefBuilder7NodeOutC1Ev
libtensorflow_framework.so:_ZN10tensorflow14NodeDefBuilder7NodeOutC2ENS_11StringPieceEiNS_8DataTypeE
libtensorflow_framework.so:_ZN10tensorflow14NodeDefBuilder7NodeOutC2Ev
libtensorflow_framework.so:_ZN10tensorflow14NodeDefBuilder8AddInputENS_11StringPieceEi
libtensorflow_framework.so:_ZN10tensorflow14NodeDefBuilder9ListInputEPKNS_12OpDef_ArgDefENS_3gtl10ArraySliceINS0_7NodeOutEEE
libtensorflow_framework.so:_ZN10tensorflow14NodeDefBuilderC1ENS_11StringPieceEPKNS_5OpDefE
libtensorflow_framework.so:_ZN10tensorflow14NodeDefBuilderC1ENS_11StringPieceES1_PKNS_19OpRegistryInterfaceE
libtensorflow_framework.so:_ZN10tensorflow14NodeDefBuilderC2ENS_11StringPieceEPKNS_5OpDefE
libtensorflow_framework.so:_ZN10tensorflow14NodeDefBuilderC2ENS_11StringPieceES1_PKNS_19OpRegistryInterfaceE
libtensorflow_framework.so:_ZN10tensorflow14NodeNamePrefixERKNS_11StringPieceE
libtensorflow_framework.so:_ZN10tensorflow14OpsUsedByGraphERKNS_8GraphDefEPSt3setINSt7__cxx1112basic_stringIcSt11char_traitsIcESaIcEEESt4lessIS9_ESaIS9_EE
libtensorflow_framework.so:_ZN10tensorflow14ParseAttrValueENS_11StringPieceES0_PNS_9AttrValueE
libtensorflow_framework.so:_ZN10tensorflow14QueueRunnerDef10SharedCtorEv
libtensorflow_framework.so:_ZN10tensorflow14QueueRunnerDef10SharedDtorEv
libtensorflow_framework.so:_ZN10tensorflow14QueueRunnerDef10descriptorEv
libtensorflow_framework.so:_ZN10tensorflow14QueueRunnerDef12InternalSwapEPS0_
libtensorflow_framework.so:_ZN10tensorflow14QueueRunnerDef15UnsafeArenaSwapEPS0_
libtensorflow_framework.so:_ZN10tensorflow14QueueRunnerDef16default_instanceEv
libtensorflow_framework.so:_ZN10tensorflow14QueueRunnerDef21InitAsDefaultInstanceEv
libtensorflow_framework.so:_ZN10tensorflow14QueueRunnerDef27MergePartialFromCodedStreamEPN6google8protobuf2io16CodedInputStreamE
libtensorflow_framework.so:_ZN10tensorflow14QueueRunnerDef4SwapEPS0_
libtensorflow_framework.so:_ZN10tensorflow14QueueRunnerDef5ClearEv
libtensorflow_framework.so:_ZN10tensorflow14QueueRunnerDef8CopyFromERKN6google8protobuf7MessageE
libtensorflow_framework.so:_ZN10tensorflow14QueueRunnerDef8CopyFromERKS0_
libtensorflow_framework.so:_ZN10tensorflow14QueueRunnerDef9ArenaDtorEPv
libtensorflow_framework.so:_ZN10tensorflow14QueueRunnerDef9MergeFromERKN6google8protobuf7MessageE
libtensorflow_framework.so:_ZN10tensorflow14QueueRunnerDef9MergeFromERKS0_
libtensorflow_framework.so:_ZN10tensorflow14QueueRunnerDefC1EPN6google8protobuf5ArenaE
libtensorflow_framework.so:_ZN10tensorflow14QueueRunnerDefC1ERKS0_
libtensorflow_framework.so:_ZN10tensorflow14QueueRunnerDefC1Ev
libtensorflow_framework.so:_ZN10tensorflow14QueueRunnerDefC2EPN6google8protobuf5ArenaE
libtensorflow_framework.so:_ZN10tensorflow14QueueRunnerDefC2ERKS0_
libtensorflow_framework.so:_ZN10tensorflow14QueueRunnerDefC2Ev
libtensorflow_framework.so:_ZN10tensorflow14QueueRunnerDefD0Ev
libtensorflow_framework.so:_ZN10tensorflow14QueueRunnerDefD1Ev
libtensorflow_framework.so:_ZN10tensorflow14QueueRunnerDefD2Ev
libtensorflow_framework.so:_ZN10tensorflow14ResourceHandle15ParseFromStringERKNSt7__cxx1112basic_stringIcSt11char_traitsIcESaIcEEE
libtensorflow_framework.so:_ZN10tensorflow14ResourceHandle9FromProtoERKNS_19ResourceHandleProtoE
libtensorflow_framework.so:_ZN10tensorflow14ResourceHandleC1ERKNS_19ResourceHandleProtoE
libtensorflow_framework.so:_ZN10tensorflow14ResourceHandleC1Ev
libtensorflow_framework.so:_ZN10tensorflow14ResourceHandleC2ERKNS_19ResourceHandleProtoE
libtensorflow_framework.so:_ZN10tensorflow14ResourceHandleC2Ev
libtensorflow_framework.so:_ZN10tensorflow14ResourceHandleD1Ev
libtensorflow_framework.so:_ZN10tensorflow14ResourceHandleD2Ev
libtensorflow_framework.so:_ZN10tensorflow14ReverseDFSFromERKNS_5GraphENS_3gtl10ArraySliceIPKNS_4NodeEEERKSt8functionIFvS7_EESD_RKS9_IFbS7_S7_EE
libtensorflow_framework.so:_ZN10tensorflow14ReverseDFSFromERKNS_5GraphENS_3gtl10ArraySliceIPNS_4NodeEEERKSt8functionIFvS6_EESC_RKS8_IFbPKS5_SE_EE
libtensorflow_framework.so:_ZN10tensorflow14RewriterConfig10SharedCtorEv
libtensorflow_framework.so:_ZN10tensorflow14RewriterConfig10SharedDtorEv
libtensorflow_framework.so:_ZN10tensorflow14RewriterConfig10descriptorEv
libtensorflow_framework.so:_ZN10tensorflow14RewriterConfig12InternalSwapEPS0_
libtensorflow_framework.so:_ZN10tensorflow14RewriterConfig15UnsafeArenaSwapEPS0_
libtensorflow_framework.so:_ZN10tensorflow14RewriterConfig16default_instanceEv
libtensorflow_framework.so:_ZN10tensorflow14RewriterConfig21InitAsDefaultInstanceEv
libtensorflow_framework.so:_ZN10tensorflow14RewriterConfig27MergePartialFromCodedStreamEPN6google8protobuf2io16CodedInputStreamE
libtensorflow_framework.so:_ZN10tensorflow14RewriterConfig40unsafe_arena_set_allocated_auto_parallelEPNS_19AutoParallelOptionsE
libtensorflow_framework.so:_ZN10tensorflow14RewriterConfig48unsafe_arena_set_allocated_scoped_allocator_optsEPNS_22ScopedAllocatorOptionsE
libtensorflow_framework.so:_ZN10tensorflow14RewriterConfig4SwapEPS0_
libtensorflow_framework.so:_ZN10tensorflow14RewriterConfig5ClearEv
libtensorflow_framework.so:_ZN10tensorflow14RewriterConfig8CopyFromERKN6google8protobuf7MessageE
libtensorflow_framework.so:_ZN10tensorflow14RewriterConfig8CopyFromERKS0_
libtensorflow_framework.so:_ZN10tensorflow14RewriterConfig9ArenaDtorEPv
libtensorflow_framework.so:_ZN10tensorflow14RewriterConfig9MergeFromERKN6google8protobuf7MessageE
libtensorflow_framework.so:_ZN10tensorflow14RewriterConfig9MergeFromERKS0_
libtensorflow_framework.so:_ZN10tensorflow14RewriterConfigC1EPN6google8protobuf5ArenaE
libtensorflow_framework.so:_ZN10tensorflow14RewriterConfigC1ERKS0_
libtensorflow_framework.so:_ZN10tensorflow14RewriterConfigC1Ev
libtensorflow_framework.so:_ZN10tensorflow14RewriterConfigC2EPN6google8protobuf5ArenaE
libtensorflow_framework.so:_ZN10tensorflow14RewriterConfigC2ERKS0_
libtensorflow_framework.so:_ZN10tensorflow14RewriterConfigC2Ev
libtensorflow_framework.so:_ZN10tensorflow14RewriterConfigD0Ev
libtensorflow_framework.so:_ZN10tensorflow14RewriterConfigD1Ev
libtensorflow_framework.so:_ZN10tensorflow14RewriterConfigD2Ev
libtensorflow_framework.so:_ZN10tensorflow14SavedSliceMeta10SharedCtorEv
libtensorflow_framework.so:_ZN10tensorflow14SavedSliceMeta10SharedDtorEv
libtensorflow_framework.so:_ZN10tensorflow14SavedSliceMeta10descriptorEv
libtensorflow_framework.so:_ZN10tensorflow14SavedSliceMeta11clear_shapeEv
libtensorflow_framework.so:_ZN10tensorflow14SavedSliceMeta11clear_sliceEv
libtensorflow_framework.so:_ZN10tensorflow14SavedSliceMeta12InternalSwapEPS0_
libtensorflow_framework.so:_ZN10tensorflow14SavedSliceMeta15UnsafeArenaSwapEPS0_
libtensorflow_framework.so:_ZN10tensorflow14SavedSliceMeta16default_instanceEv
libtensorflow_framework.so:_ZN10tensorflow14SavedSliceMeta21InitAsDefaultInstanceEv
libtensorflow_framework.so:_ZN10tensorflow14SavedSliceMeta27MergePartialFromCodedStreamEPN6google8protobuf2io16CodedInputStreamE
libtensorflow_framework.so:_ZN10tensorflow14SavedSliceMeta32unsafe_arena_set_allocated_shapeEPNS_16TensorShapeProtoE
libtensorflow_framework.so:_ZN10tensorflow14SavedSliceMeta4SwapEPS0_
libtensorflow_framework.so:_ZN10tensorflow14SavedSliceMeta5ClearEv
libtensorflow_framework.so:_ZN10tensorflow14SavedSliceMeta8CopyFromERKN6google8protobuf7MessageE
libtensorflow_framework.so:_ZN10tensorflow14SavedSliceMeta8CopyFromERKS0_
libtensorflow_framework.so:_ZN10tensorflow14SavedSliceMeta9ArenaDtorEPv
libtensorflow_framework.so:_ZN10tensorflow14SavedSliceMeta9MergeFromERKN6google8protobuf7MessageE
libtensorflow_framework.so:_ZN10tensorflow14SavedSliceMeta9MergeFromERKS0_
libtensorflow_framework.so:_ZN10tensorflow14SavedSliceMetaC1EPN6google8protobuf5ArenaE
libtensorflow_framework.so:_ZN10tensorflow14SavedSliceMetaC1ERKS0_
libtensorflow_framework.so:_ZN10tensorflow14SavedSliceMetaC1Ev
libtensorflow_framework.so:_ZN10tensorflow14SavedSliceMetaC2EPN6google8protobuf5ArenaE
libtensorflow_framework.so:_ZN10tensorflow14SavedSliceMetaC2ERKS0_
libtensorflow_framework.so:_ZN10tensorflow14SavedSliceMetaC2Ev
libtensorflow_framework.so:_ZN10tensorflow14SavedSliceMetaD0Ev
libtensorflow_framework.so:_ZN10tensorflow14SavedSliceMetaD1Ev
libtensorflow_framework.so:_ZN10tensorflow14SavedSliceMetaD2Ev
libtensorflow_framework.so:_ZN10tensorflow14SessionFactory10GetFactoryERKNS_14SessionOptionsEPPS0_
libtensorflow_framework.so:_ZN10tensorflow14SessionFactory8RegisterERKNSt7__cxx1112basic_stringIcSt11char_traitsIcESaIcEEEPS0_
libtensorflow_framework.so:_ZN10tensorflow14SessionOptionsC1Ev
libtensorflow_framework.so:_ZN10tensorflow14SessionOptionsC2Ev
libtensorflow_framework.so:_ZN10tensorflow14SetIncarnationERKNS_16PartitionOptionsEPNS_7NodeDefE
libtensorflow_framework.so:_ZN10tensorflow14SetIncarnationERKNS_16PartitionOptionsEPNS_8GraphDefE
libtensorflow_framework.so:_ZN10tensorflow14StatSummarizer16ProcessStepStatsERKNS_9StepStatsE
libtensorflow_framework.so:_ZN10tensorflow14StatSummarizerC1ERKNS_21StatSummarizerOptionsE
libtensorflow_framework.so:_ZN10tensorflow14StatSummarizerC1ERKNS_8GraphDefE
libtensorflow_framework.so:_ZN10tensorflow14StatSummarizerC2ERKNS_21StatSummarizerOptionsE
libtensorflow_framework.so:_ZN10tensorflow14StatSummarizerC2ERKNS_8GraphDefE
libtensorflow_framework.so:_ZN10tensorflow14StatSummarizerD1Ev
libtensorflow_framework.so:_ZN10tensorflow14StatSummarizerD2Ev
libtensorflow_framework.so:_ZN10tensorflow14SummarizeOpDefB5cxx11ERKNS_5OpDefE
libtensorflow_framework.so:_ZN10tensorflow14TensorShapeRep11DebugStringB5cxx11ERKNS_16TensorShapeProtoE
libtensorflow_framework.so:_ZN10tensorflow14TensorShapeRep12SlowCopyFromERKS0_
libtensorflow_framework.so:_ZN10tensorflow14TensorShapeRep19ClearAllButDataTypeEv
libtensorflow_framework.so:_ZN10tensorflow14TensorShapeRep19DestructorOutOfLineEv
libtensorflow_framework.so:_ZN10tensorflow14TensorShapeRep5ClearEv
libtensorflow_framework.so:_ZN10tensorflow14ValidateOpNameERKNSt7__cxx1112basic_stringIcSt11char_traitsIcESaIcEEE
libtensorflow_framework.so:_ZN10tensorflow14WatchdogConfig10SharedCtorEv
libtensorflow_framework.so:_ZN10tensorflow14WatchdogConfig10SharedDtorEv
libtensorflow_framework.so:_ZN10tensorflow14WatchdogConfig10descriptorEv
libtensorflow_framework.so:_ZN10tensorflow14WatchdogConfig12InternalSwapEPS0_
libtensorflow_framework.so:_ZN10tensorflow14WatchdogConfig15UnsafeArenaSwapEPS0_
libtensorflow_framework.so:_ZN10tensorflow14WatchdogConfig16default_instanceEv
libtensorflow_framework.so:_ZN10tensorflow14WatchdogConfig21InitAsDefaultInstanceEv
libtensorflow_framework.so:_ZN10tensorflow14WatchdogConfig27MergePartialFromCodedStreamEPN6google8protobuf2io16CodedInputStreamE
libtensorflow_framework.so:_ZN10tensorflow14WatchdogConfig4SwapEPS0_
libtensorflow_framework.so:_ZN10tensorflow14WatchdogConfig5ClearEv
libtensorflow_framework.so:_ZN10tensorflow14WatchdogConfig8CopyFromERKN6google8protobuf7MessageE
libtensorflow_framework.so:_ZN10tensorflow14WatchdogConfig8CopyFromERKS0_
libtensorflow_framework.so:_ZN10tensorflow14WatchdogConfig9ArenaDtorEPv
libtensorflow_framework.so:_ZN10tensorflow14WatchdogConfig9MergeFromERKN6google8protobuf7MessageE
libtensorflow_framework.so:_ZN10tensorflow14WatchdogConfig9MergeFromERKS0_
libtensorflow_framework.so:_ZN10tensorflow14WatchdogConfigC1EPN6google8protobuf5ArenaE
libtensorflow_framework.so:_ZN10tensorflow14WatchdogConfigC1ERKS0_
libtensorflow_framework.so:_ZN10tensorflow14WatchdogConfigC1Ev
libtensorflow_framework.so:_ZN10tensorflow14WatchdogConfigC2EPN6google8protobuf5ArenaE
libtensorflow_framework.so:_ZN10tensorflow14WatchdogConfigC2ERKS0_
libtensorflow_framework.so:_ZN10tensorflow14WatchdogConfigC2Ev
libtensorflow_framework.so:_ZN10tensorflow14WatchdogConfigD0Ev
libtensorflow_framework.so:_ZN10tensorflow14WatchdogConfigD1Ev
libtensorflow_framework.so:_ZN10tensorflow14WatchdogConfigD2Ev
libtensorflow_framework.so:_ZN10tensorflow14WriteTextProtoEPNS_3EnvERKNSt7__cxx1112basic_stringIcSt11char_traitsIcESaIcEEERKN6google8protobuf7MessageE
libtensorflow_framework.so:_ZN10tensorflow14kernel_factory17OpKernelRegistrar12InitInternalEPKNS_9KernelDefENS_11StringPieceEPFPNS_8OpKernelEPNS_20OpKernelConstructionEE
libtensorflow_framework.so:_ZN10tensorflow15AddControlEdgesERKNS_16PartitionOptionsEPSt13unordered_mapINSt7__cxx1112basic_stringIcSt11char_traitsIcESaIcEEENS_8GraphDefESt4hashIS9_ESt8equal_toIS9_ESaISt4pairIKS9_SA_EEE
libtensorflow_framework.so:_ZN10tensorflow15ApiDef_Endpoint10SharedCtorEv
libtensorflow_framework.so:_ZN10tensorflow15ApiDef_Endpoint10SharedDtorEv
libtensorflow_framework.so:_ZN10tensorflow15ApiDef_Endpoint10descriptorEv
libtensorflow_framework.so:_ZN10tensorflow15ApiDef_Endpoint12InternalSwapEPS0_
libtensorflow_framework.so:_ZN10tensorflow15ApiDef_Endpoint15UnsafeArenaSwapEPS0_
libtensorflow_framework.so:_ZN10tensorflow15ApiDef_Endpoint16default_instanceEv
libtensorflow_framework.so:_ZN10tensorflow15ApiDef_Endpoint21InitAsDefaultInstanceEv
libtensorflow_framework.so:_ZN10tensorflow15ApiDef_Endpoint27MergePartialFromCodedStreamEPN6google8protobuf2io16CodedInputStreamE
libtensorflow_framework.so:_ZN10tensorflow15ApiDef_Endpoint4SwapEPS0_
libtensorflow_framework.so:_ZN10tensorflow15ApiDef_Endpoint5ClearEv
libtensorflow_framework.so:_ZN10tensorflow15ApiDef_Endpoint8CopyFromERKN6google8protobuf7MessageE
libtensorflow_framework.so:_ZN10tensorflow15ApiDef_Endpoint8CopyFromERKS0_
libtensorflow_framework.so:_ZN10tensorflow15ApiDef_Endpoint9ArenaDtorEPv
libtensorflow_framework.so:_ZN10tensorflow15ApiDef_Endpoint9MergeFromERKN6google8protobuf7MessageE
libtensorflow_framework.so:_ZN10tensorflow15ApiDef_Endpoint9MergeFromERKS0_
libtensorflow_framework.so:_ZN10tensorflow15ApiDef_EndpointC1EPN6google8protobuf5ArenaE
libtensorflow_framework.so:_ZN10tensorflow15ApiDef_EndpointC1ERKS0_
libtensorflow_framework.so:_ZN10tensorflow15ApiDef_EndpointC1Ev
libtensorflow_framework.so:_ZN10tensorflow15ApiDef_EndpointC2EPN6google8protobuf5ArenaE
libtensorflow_framework.so:_ZN10tensorflow15ApiDef_EndpointC2ERKS0_
libtensorflow_framework.so:_ZN10tensorflow15ApiDef_EndpointC2Ev
libtensorflow_framework.so:_ZN10tensorflow15ApiDef_EndpointD0Ev
libtensorflow_framework.so:_ZN10tensorflow15ApiDef_EndpointD1Ev
libtensorflow_framework.so:_ZN10tensorflow15ApiDef_EndpointD2Ev
libtensorflow_framework.so:_ZN10tensorflow15BFloat16ToFloatEPKNS_8bfloat16EPfx
libtensorflow_framework.so:_ZN10tensorflow15CallableOptions10SharedCtorEv
libtensorflow_framework.so:_ZN10tensorflow15CallableOptions10SharedDtorEv
libtensorflow_framework.so:_ZN10tensorflow15CallableOptions10descriptorEv
libtensorflow_framework.so:_ZN10tensorflow15CallableOptions12InternalSwapEPS0_
libtensorflow_framework.so:_ZN10tensorflow15CallableOptions15UnsafeArenaSwapEPS0_
libtensorflow_framework.so:_ZN10tensorflow15CallableOptions16default_instanceEv
libtensorflow_framework.so:_ZN10tensorflow15CallableOptions21InitAsDefaultInstanceEv
libtensorflow_framework.so:_ZN10tensorflow15CallableOptions27MergePartialFromCodedStreamEPN6google8protobuf2io16CodedInputStreamE
libtensorflow_framework.so:_ZN10tensorflow15CallableOptions38unsafe_arena_set_allocated_run_optionsEPNS_10RunOptionsE
libtensorflow_framework.so:_ZN10tensorflow15CallableOptions4SwapEPS0_
libtensorflow_framework.so:_ZN10tensorflow15CallableOptions5ClearEv
libtensorflow_framework.so:_ZN10tensorflow15CallableOptions8CopyFromERKN6google8protobuf7MessageE
libtensorflow_framework.so:_ZN10tensorflow15CallableOptions8CopyFromERKS0_
libtensorflow_framework.so:_ZN10tensorflow15CallableOptions9ArenaDtorEPv
libtensorflow_framework.so:_ZN10tensorflow15CallableOptions9MergeFromERKN6google8protobuf7MessageE
libtensorflow_framework.so:_ZN10tensorflow15CallableOptions9MergeFromERKS0_
libtensorflow_framework.so:_ZN10tensorflow15CallableOptionsC1EPN6google8protobuf5ArenaE
libtensorflow_framework.so:_ZN10tensorflow15CallableOptionsC1ERKS0_
libtensorflow_framework.so:_ZN10tensorflow15CallableOptionsC1Ev
libtensorflow_framework.so:_ZN10tensorflow15CallableOptionsC2EPN6google8protobuf5ArenaE
libtensorflow_framework.so:_ZN10tensorflow15CallableOptionsC2ERKS0_
libtensorflow_framework.so:_ZN10tensorflow15CallableOptionsC2Ev
libtensorflow_framework.so:_ZN10tensorflow15CallableOptionsD0Ev
libtensorflow_framework.so:_ZN10tensorflow15CallableOptionsD1Ev
libtensorflow_framework.so:_ZN10tensorflow15CallableOptionsD2Ev
libtensorflow_framework.so:_ZN10tensorflow15CheckTypesMatchERKNS_7FeatureERKNS_8DataTypeEPb
libtensorflow_framework.so:_ZN10tensorflow15DatasetOpKernel7ComputeEPNS_15OpKernelContextE
libtensorflow_framework.so:_ZN10tensorflow15DeviceNameUtils13MergeDevNamesEPNS0_10ParsedNameERKS1_b
libtensorflow_framework.so:_ZN10tensorflow15DeviceNameUtils13ParseFullNameENS_11StringPieceEPNS0_10ParsedNameE
libtensorflow_framework.so:_ZN10tensorflow15DeviceNameUtils14ParseLocalNameENS_11StringPieceEPNS0_10ParsedNameE
libtensorflow_framework.so:_ZN10tensorflow15DeviceNameUtils15IsSpecificationERKNS0_10ParsedNameES3_
libtensorflow_framework.so:_ZN10tensorflow15DeviceNameUtils15SplitDeviceNameENS_11StringPieceEPNSt7__cxx1112basic_stringIcSt11char_traitsIcESaIcEEES8_
libtensorflow_framework.so:_ZN10tensorflow15DeviceNameUtils18IsSameAddressSpaceENS_11StringPieceES1_
libtensorflow_framework.so:_ZN10tensorflow15DeviceNameUtils18IsSameAddressSpaceERKNS0_10ParsedNameES3_
libtensorflow_framework.so:_ZN10tensorflow15DeviceNameUtils18ParsedNameToStringB5cxx11ERKNS0_10ParsedNameE
libtensorflow_framework.so:_ZN10tensorflow15DeviceNameUtils22CanonicalizeDeviceNameENS_11StringPieceES1_PNSt7__cxx1112basic_stringIcSt11char_traitsIcESaIcEEE
libtensorflow_framework.so:_ZN10tensorflow15DeviceNameUtils23IsCompleteSpecificationERKNS0_10ParsedNameES3_
libtensorflow_framework.so:_ZN10tensorflow15DeviceNameUtils25GetNamesForDeviceMappingsB5cxx11ERKNS0_10ParsedNameE
libtensorflow_framework.so:_ZN10tensorflow15DeviceNameUtils30GetLocalNamesForDeviceMappingsB5cxx11ERKNS0_10ParsedNameE
libtensorflow_framework.so:_ZN10tensorflow15DeviceNameUtils8FullNameERKNSt7__cxx1112basic_stringIcSt11char_traitsIcESaIcEEEiiS8_i
libtensorflow_framework.so:_ZN10tensorflow15DeviceNameUtils9LocalNameB5cxx11ENS_11StringPieceE
libtensorflow_framework.so:_ZN10tensorflow15DeviceNameUtils9LocalNameB5cxx11ENS_11StringPieceEi
libtensorflow_framework.so:_ZN10tensorflow15DeviceStepStats10SharedCtorEv
libtensorflow_framework.so:_ZN10tensorflow15DeviceStepStats10SharedDtorEv
libtensorflow_framework.so:_ZN10tensorflow15DeviceStepStats10descriptorEv
libtensorflow_framework.so:_ZN10tensorflow15DeviceStepStats12InternalSwapEPS0_
libtensorflow_framework.so:_ZN10tensorflow15DeviceStepStats15UnsafeArenaSwapEPS0_
libtensorflow_framework.so:_ZN10tensorflow15DeviceStepStats16default_instanceEv
libtensorflow_framework.so:_ZN10tensorflow15DeviceStepStats21InitAsDefaultInstanceEv
libtensorflow_framework.so:_ZN10tensorflow15DeviceStepStats27MergePartialFromCodedStreamEPN6google8protobuf2io16CodedInputStreamE
libtensorflow_framework.so:_ZN10tensorflow15DeviceStepStats4SwapEPS0_
libtensorflow_framework.so:_ZN10tensorflow15DeviceStepStats5ClearEv
libtensorflow_framework.so:_ZN10tensorflow15DeviceStepStats8CopyFromERKN6google8protobuf7MessageE
libtensorflow_framework.so:_ZN10tensorflow15DeviceStepStats8CopyFromERKS0_
libtensorflow_framework.so:_ZN10tensorflow15DeviceStepStats9ArenaDtorEPv
libtensorflow_framework.so:_ZN10tensorflow15DeviceStepStats9MergeFromERKN6google8protobuf7MessageE
libtensorflow_framework.so:_ZN10tensorflow15DeviceStepStats9MergeFromERKS0_
libtensorflow_framework.so:_ZN10tensorflow15DeviceStepStatsC1EPN6google8protobuf5ArenaE
libtensorflow_framework.so:_ZN10tensorflow15DeviceStepStatsC1ERKS0_
libtensorflow_framework.so:_ZN10tensorflow15DeviceStepStatsC1Ev
libtensorflow_framework.so:_ZN10tensorflow15DeviceStepStatsC2EPN6google8protobuf5ArenaE
libtensorflow_framework.so:_ZN10tensorflow15DeviceStepStatsC2ERKS0_
libtensorflow_framework.so:_ZN10tensorflow15DeviceStepStatsC2Ev
libtensorflow_framework.so:_ZN10tensorflow15DeviceStepStatsD0Ev
libtensorflow_framework.so:_ZN10tensorflow15DeviceStepStatsD1Ev
libtensorflow_framework.so:_ZN10tensorflow15DeviceStepStatsD2Ev
libtensorflow_framework.so:_ZN10tensorflow15ExecutorFactory10GetFactoryERKNSt7__cxx1112basic_stringIcSt11char_traitsIcESaIcEEEPPS0_
libtensorflow_framework.so:_ZN10tensorflow15ExecutorFactory8RegisterERKNSt7__cxx1112basic_stringIcSt11char_traitsIcESaIcEEEPS0_
libtensorflow_framework.so:_ZN10tensorflow15FindAttrMutableENS_11StringPieceEPNS_5OpDefE
libtensorflow_framework.so:_ZN10tensorflow15FloatToBFloat16EPKfPNS_8bfloat16Ex
libtensorflow_framework.so:_ZN10tensorflow15FunctionDefHashERKNS_11FunctionDefE
libtensorflow_framework.so:_ZN10tensorflow15GPUBFCAllocatorC1ENS_3gtl7IntTypeINS_14CudaGpuId_tag_EiEEmRKNS_10GPUOptionsERKNSt7__cxx1112basic_stringIcSt11char_traitsIcESaIcEEE
libtensorflow_framework.so:_ZN10tensorflow15GPUBFCAllocatorC1ENS_3gtl7IntTypeINS_14CudaGpuId_tag_EiEEmRKNSt7__cxx1112basic_stringIcSt11char_traitsIcESaIcEEE
libtensorflow_framework.so:_ZN10tensorflow15GPUBFCAllocatorC2ENS_3gtl7IntTypeINS_14CudaGpuId_tag_EiEEmRKNS_10GPUOptionsERKNSt7__cxx1112basic_stringIcSt11char_traitsIcESaIcEEE
libtensorflow_framework.so:_ZN10tensorflow15GPUBFCAllocatorC2ENS_3gtl7IntTypeINS_14CudaGpuId_tag_EiEEmRKNSt7__cxx1112basic_stringIcSt11char_traitsIcESaIcEEE
libtensorflow_framework.so:_ZN10tensorflow15GPUProcessState13TestOnlyResetEv
libtensorflow_framework.so:_ZN10tensorflow15GPUProcessState15GetGPUAllocatorERKNS_10GPUOptionsENS_3gtl7IntTypeINS_12TfGpuId_tag_EiEEm
libtensorflow_framework.so:_ZN10tensorflow15GPUProcessState18AddGPUAllocVisitorEiRKSt8functionIFvPvmEE
libtensorflow_framework.so:_ZN10tensorflow15GPUProcessState20GetCUDAHostAllocatorEi
libtensorflow_framework.so:_ZN10tensorflow15GPUProcessState9singletonEv
libtensorflow_framework.so:_ZN10tensorflow15GPUProcessStateC1Ev
libtensorflow_framework.so:_ZN10tensorflow15GPUProcessStateC2Ev
libtensorflow_framework.so:_ZN10tensorflow15GPUProcessStateD0Ev
libtensorflow_framework.so:_ZN10tensorflow15GPUProcessStateD1Ev
libtensorflow_framework.so:_ZN10tensorflow15GPUProcessStateD2Ev
libtensorflow_framework.so:_ZN10tensorflow15Get3dOutputSizeERKSt5arrayIxLm3EES3_S3_NS_7PaddingEPS1_S5_
libtensorflow_framework.so:_ZN10tensorflow15GraphDefBuilder7Options12WithNameImplENS_11StringPieceE
libtensorflow_framework.so:_ZN10tensorflow15GraphDefBuilder7Options14WithDeviceImplENS_11StringPieceE
libtensorflow_framework.so:_ZN10tensorflow15GraphDefBuilder7Options20WithControlInputImplEPNS_4NodeE
libtensorflow_framework.so:_ZN10tensorflow15GraphDefBuilder7Options21WithControlInputsImplENS_3gtl10ArraySliceIPNS_4NodeEEE
libtensorflow_framework.so:_ZN10tensorflow15GraphDefBuilder7OptionsC1EPNS_5GraphEPNS_6StatusE
libtensorflow_framework.so:_ZN10tensorflow15GraphDefBuilder7OptionsC2EPNS_5GraphEPNS_6StatusE
libtensorflow_framework.so:_ZN10tensorflow15GraphDefBuilder7OptionsD1Ev
libtensorflow_framework.so:_ZN10tensorflow15GraphDefBuilder7OptionsD2Ev
libtensorflow_framework.so:_ZN10tensorflow15HandleFromInputEPNS_15OpKernelContextENS_11StringPieceEPNS_14ResourceHandleE
libtensorflow_framework.so:_ZN10tensorflow15HandleFromInputEPNS_15OpKernelContextEi
libtensorflow_framework.so:_ZN10tensorflow15OpDefCompatibleERKNS_5OpDefES2_
libtensorflow_framework.so:_ZN10tensorflow15OpKernelContext10CtxFailureEPKciRKNS_6StatusE
libtensorflow_framework.so:_ZN10tensorflow15OpKernelContext10CtxFailureERKNS_6StatusE
libtensorflow_framework.so:_ZN10tensorflow15OpKernelContext10input_listENS_11StringPieceEPNS_11OpInputListE
libtensorflow_framework.so:_ZN10tensorflow15OpKernelContext10set_outputENS_11StringPieceERKNS_6TensorE
libtensorflow_framework.so:_ZN10tensorflow15OpKernelContext10set_outputEiRKNS_6TensorE
libtensorflow_framework.so:_ZN10tensorflow15OpKernelContext11output_listENS_11StringPieceEPNS_12OpOutputListE
libtensorflow_framework.so:_ZN10tensorflow15OpKernelContext13allocate_tempENS_8DataTypeERKNS_11TensorShapeEPNS_6TensorENS_19AllocatorAttributesERKNS_20AllocationAttributesE
libtensorflow_framework.so:_ZN10tensorflow15OpKernelContext13forward_inputEiiNS_8DataTypeERKNS_11TensorShapeENS_10MemoryTypeERKNS_19AllocatorAttributesE
libtensorflow_framework.so:_ZN10tensorflow15OpKernelContext13get_allocatorENS_19AllocatorAttributesE
libtensorflow_framework.so:_ZN10tensorflow15OpKernelContext13mutable_inputENS_11StringPieceEPNS_6TensorEb
libtensorflow_framework.so:_ZN10tensorflow15OpKernelContext13mutable_inputEib
libtensorflow_framework.so:_ZN10tensorflow15OpKernelContext14MatchSignatureENS_3gtl10ArraySliceINS_8DataTypeEEES4_
libtensorflow_framework.so:_ZN10tensorflow15OpKernelContext14mutable_outputENS_11StringPieceEPPNS_6TensorE
libtensorflow_framework.so:_ZN10tensorflow15OpKernelContext14release_outputENS_11StringPieceEPNS_11TensorValueE
libtensorflow_framework.so:_ZN10tensorflow15OpKernelContext14set_output_refENS_11StringPieceEPNS_5mutexEPNS_6TensorE
libtensorflow_framework.so:_ZN10tensorflow15OpKernelContext14set_output_refEiPNS_5mutexEPNS_6TensorE
libtensorflow_framework.so:_ZN10tensorflow15OpKernelContext15allocate_outputENS_11StringPieceERKNS_11TensorShapeEPPNS_6TensorE
libtensorflow_framework.so:_ZN10tensorflow15OpKernelContext15allocate_outputENS_11StringPieceERKNS_11TensorShapeEPPNS_6TensorENS_19AllocatorAttributesE
libtensorflow_framework.so:_ZN10tensorflow15OpKernelContext15allocate_outputEiRKNS_11TensorShapeEPPNS_6TensorE
libtensorflow_framework.so:_ZN10tensorflow15OpKernelContext15allocate_outputEiRKNS_11TensorShapeEPPNS_6TensorENS_19AllocatorAttributesE
libtensorflow_framework.so:_ZN10tensorflow15OpKernelContext15allocate_tensorENS_8DataTypeERKNS_11TensorShapeEPNS_6TensorENS_19AllocatorAttributesERKNS_20AllocationAttributesE
libtensorflow_framework.so:_ZN10tensorflow15OpKernelContext15input_ref_mutexENS_11StringPieceEPPNS_5mutexE
libtensorflow_framework.so:_ZN10tensorflow15OpKernelContext16delete_ref_inputEib
libtensorflow_framework.so:_ZN10tensorflow15OpKernelContext17replace_ref_inputENS_11StringPieceERKNS_6TensorEb
libtensorflow_framework.so:_ZN10tensorflow15OpKernelContext17replace_ref_inputEiRKNS_6TensorEb
libtensorflow_framework.so:_ZN10tensorflow15OpKernelContext18mutable_input_listENS_11StringPieceEPNS_18OpMutableInputListE
libtensorflow_framework.so:_ZN10tensorflow15OpKernelContext19allocate_persistentENS_8DataTypeERKNS_11TensorShapeEPNS_16PersistentTensorEPPNS_6TensorENS_19AllocatorAttributesE
libtensorflow_framework.so:_ZN10tensorflow15OpKernelContext21CtxFailureWithWarningEPKciRKNS_6StatusE
libtensorflow_framework.so:_ZN10tensorflow15OpKernelContext21CtxFailureWithWarningERKNS_6StatusE
libtensorflow_framework.so:_ZN10tensorflow15OpKernelContext21clear_recorded_memoryEv
libtensorflow_framework.so:_ZN10tensorflow15OpKernelContext26ValidateInputsAreSameShapeEPNS_8OpKernelE
libtensorflow_framework.so:_ZN10tensorflow15OpKernelContext29record_temp_memory_allocationExRKNS_6TensorE
libtensorflow_framework.so:_ZN10tensorflow15OpKernelContext30forward_input_or_allocate_tempENS_3gtl10ArraySliceIiEENS_8DataTypeERKNS_11TensorShapeERKNS_19AllocatorAttributesEPNS_6TensorE
libtensorflow_framework.so:_ZN10tensorflow15OpKernelContext30really_record_tensor_referenceERKNS_6TensorE
libtensorflow_framework.so:_ZN10tensorflow15OpKernelContext31forward_ref_input_to_ref_outputEii
libtensorflow_framework.so:_ZN10tensorflow15OpKernelContext34forward_input_to_output_with_shapeENS_11StringPieceES1_RKNS_11TensorShapeEPPNS_6TensorE
libtensorflow_framework.so:_ZN10tensorflow15OpKernelContext34forward_input_to_output_with_shapeEiiRKNS_11TensorShapeEPPNS_6TensorE
libtensorflow_framework.so:_ZN10tensorflow15OpKernelContext35record_persistent_memory_allocationExx
libtensorflow_framework.so:_ZN10tensorflow15OpKernelContext5inputENS_11StringPieceEPPKNS_6TensorE
libtensorflow_framework.so:_ZN10tensorflow15OpKernelContext5inputEi
libtensorflow_framework.so:_ZN10tensorflow15OpKernelContext9SetStatusERKNS_6StatusE
libtensorflow_framework.so:_ZN10tensorflow15OpKernelContextC1EPNS0_6ParamsE
libtensorflow_framework.so:_ZN10tensorflow15OpKernelContextC1EPNS0_6ParamsEi
libtensorflow_framework.so:_ZN10tensorflow15OpKernelContextC2EPNS0_6ParamsE
libtensorflow_framework.so:_ZN10tensorflow15OpKernelContextC2EPNS0_6ParamsEi
libtensorflow_framework.so:_ZN10tensorflow15OpKernelContextD1Ev
libtensorflow_framework.so:_ZN10tensorflow15OpKernelContextD2Ev
libtensorflow_framework.so:_ZN10tensorflow15ParseTensorNameENS_11StringPieceE
libtensorflow_framework.so:_ZN10tensorflow15ParseTensorNameERKNSt7__cxx1112basic_stringIcSt11char_traitsIcESaIcEEE
libtensorflow_framework.so:_ZN10tensorflow15PosixFileSystem10DeleteFileERKNSt7__cxx1112basic_stringIcSt11char_traitsIcESaIcEEE
libtensorflow_framework.so:_ZN10tensorflow15PosixFileSystem10FileExistsERKNSt7__cxx1112basic_stringIcSt11char_traitsIcESaIcEEE
libtensorflow_framework.so:_ZN10tensorflow15PosixFileSystem10RenameFileERKNSt7__cxx1112basic_stringIcSt11char_traitsIcESaIcEEES8_
libtensorflow_framework.so:_ZN10tensorflow15PosixFileSystem11GetChildrenERKNSt7__cxx1112basic_stringIcSt11char_traitsIcESaIcEEEPSt6vectorIS6_SaIS6_EE
libtensorflow_framework.so:_ZN10tensorflow15PosixFileSystem11GetFileSizeERKNSt7__cxx1112basic_stringIcSt11char_traitsIcESaIcEEEPy
libtensorflow_framework.so:_ZN10tensorflow15PosixFileSystem15NewWritableFileERKNSt7__cxx1112basic_stringIcSt11char_traitsIcESaIcEEEPSt10unique_ptrINS_12WritableFileESt14default_deleteISA_EE
libtensorflow_framework.so:_ZN10tensorflow15PosixFileSystem16GetMatchingPathsERKNSt7__cxx1112basic_stringIcSt11char_traitsIcESaIcEEEPSt6vectorIS6_SaIS6_EE
libtensorflow_framework.so:_ZN10tensorflow15PosixFileSystem17NewAppendableFileERKNSt7__cxx1112basic_stringIcSt11char_traitsIcESaIcEEEPSt10unique_ptrINS_12WritableFileESt14default_deleteISA_EE
libtensorflow_framework.so:_ZN10tensorflow15PosixFileSystem19NewRandomAccessFileERKNSt7__cxx1112basic_stringIcSt11char_traitsIcESaIcEEEPSt10unique_ptrINS_16RandomAccessFileESt14default_deleteISA_EE
libtensorflow_framework.so:_ZN10tensorflow15PosixFileSystem31NewReadOnlyMemoryRegionFromFileERKNSt7__cxx1112basic_stringIcSt11char_traitsIcESaIcEEEPSt10unique_ptrINS_20ReadOnlyMemoryRegionESt14default_deleteISA_EE
libtensorflow_framework.so:_ZN10tensorflow15PosixFileSystem4StatERKNSt7__cxx1112basic_stringIcSt11char_traitsIcESaIcEEEPNS_14FileStatisticsE
libtensorflow_framework.so:_ZN10tensorflow15PosixFileSystem8CopyFileERKNSt7__cxx1112basic_stringIcSt11char_traitsIcESaIcEEES8_
libtensorflow_framework.so:_ZN10tensorflow15PosixFileSystem9CreateDirERKNSt7__cxx1112basic_stringIcSt11char_traitsIcESaIcEEE
libtensorflow_framework.so:_ZN10tensorflow15PosixFileSystem9DeleteDirERKNSt7__cxx1112basic_stringIcSt11char_traitsIcESaIcEEE
libtensorflow_framework.so:_ZN10tensorflow15ReadBinaryProtoEPNS_3EnvERKNSt7__cxx1112basic_stringIcSt11char_traitsIcESaIcEEEPN6google8protobuf11MessageLiteE
libtensorflow_framework.so:_ZN10tensorflow15ReaderBaseState10SharedCtorEv
libtensorflow_framework.so:_ZN10tensorflow15ReaderBaseState10SharedDtorEv
libtensorflow_framework.so:_ZN10tensorflow15ReaderBaseState10descriptorEv
libtensorflow_framework.so:_ZN10tensorflow15ReaderBaseState12InternalSwapEPS0_
libtensorflow_framework.so:_ZN10tensorflow15ReaderBaseState15UnsafeArenaSwapEPS0_
libtensorflow_framework.so:_ZN10tensorflow15ReaderBaseState16default_instanceEv
libtensorflow_framework.so:_ZN10tensorflow15ReaderBaseState21InitAsDefaultInstanceEv
libtensorflow_framework.so:_ZN10tensorflow15ReaderBaseState27MergePartialFromCodedStreamEPN6google8protobuf2io16CodedInputStreamE
libtensorflow_framework.so:_ZN10tensorflow15ReaderBaseState4SwapEPS0_
libtensorflow_framework.so:_ZN10tensorflow15ReaderBaseState5ClearEv
libtensorflow_framework.so:_ZN10tensorflow15ReaderBaseState8CopyFromERKN6google8protobuf7MessageE
libtensorflow_framework.so:_ZN10tensorflow15ReaderBaseState8CopyFromERKS0_
libtensorflow_framework.so:_ZN10tensorflow15ReaderBaseState9ArenaDtorEPv
libtensorflow_framework.so:_ZN10tensorflow15ReaderBaseState9MergeFromERKN6google8protobuf7MessageE
libtensorflow_framework.so:_ZN10tensorflow15ReaderBaseState9MergeFromERKS0_
libtensorflow_framework.so:_ZN10tensorflow15ReaderBaseStateC1EPN6google8protobuf5ArenaE
libtensorflow_framework.so:_ZN10tensorflow15ReaderBaseStateC1ERKS0_
libtensorflow_framework.so:_ZN10tensorflow15ReaderBaseStateC1Ev
libtensorflow_framework.so:_ZN10tensorflow15ReaderBaseStateC2EPN6google8protobuf5ArenaE
libtensorflow_framework.so:_ZN10tensorflow15ReaderBaseStateC2ERKS0_
libtensorflow_framework.so:_ZN10tensorflow15ReaderBaseStateC2Ev
libtensorflow_framework.so:_ZN10tensorflow15ReaderBaseStateD0Ev
libtensorflow_framework.so:_ZN10tensorflow15ReaderBaseStateD1Ev
libtensorflow_framework.so:_ZN10tensorflow15ReaderBaseStateD2Ev
libtensorflow_framework.so:_ZN10tensorflow15RemoveDeadNodesEPNS_5GraphE
libtensorflow_framework.so:_ZN10tensorflow15RunResourceCtorEPNS_14ResourceHandleEm
libtensorflow_framework.so:_ZN10tensorflow15RunResourceDtorEPNS_14ResourceHandleEm
libtensorflow_framework.so:_ZN10tensorflow15ScopedAllocator11AllocateRawEim
libtensorflow_framework.so:_ZN10tensorflow15ScopedAllocator12VerifyTensorEPKNS_6TensorE
libtensorflow_framework.so:_ZN10tensorflow15ScopedAllocator13DeallocateRawEPv
libtensorflow_framework.so:_ZN10tensorflow15ScopedAllocator13VerifyPointerEPKv
libtensorflow_framework.so:_ZN10tensorflow15ScopedAllocatorC1ERKNS_6TensorEiRKNSt7__cxx1112basic_stringIcSt11char_traitsIcESaIcEEERKNS_3gtl10ArraySliceINS0_5FieldEEEiPNS_24ScopedAllocatorContainerE
libtensorflow_framework.so:_ZN10tensorflow15ScopedAllocatorC2ERKNS_6TensorEiRKNSt7__cxx1112basic_stringIcSt11char_traitsIcESaIcEEERKNS_3gtl10ArraySliceINS0_5FieldEEEiPNS_24ScopedAllocatorContainerE
libtensorflow_framework.so:_ZN10tensorflow15ScopedAllocatorD1Ev
libtensorflow_framework.so:_ZN10tensorflow15ScopedAllocatorD2Ev
libtensorflow_framework.so:_ZN10tensorflow15SequenceExample10SharedCtorEv
libtensorflow_framework.so:_ZN10tensorflow15SequenceExample10SharedDtorEv
libtensorflow_framework.so:_ZN10tensorflow15SequenceExample10descriptorEv
libtensorflow_framework.so:_ZN10tensorflow15SequenceExample12InternalSwapEPS0_
libtensorflow_framework.so:_ZN10tensorflow15SequenceExample13clear_contextEv
libtensorflow_framework.so:_ZN10tensorflow15SequenceExample15UnsafeArenaSwapEPS0_
libtensorflow_framework.so:_ZN10tensorflow15SequenceExample16default_instanceEv
libtensorflow_framework.so:_ZN10tensorflow15SequenceExample19clear_feature_listsEv
libtensorflow_framework.so:_ZN10tensorflow15SequenceExample21InitAsDefaultInstanceEv
libtensorflow_framework.so:_ZN10tensorflow15SequenceExample27MergePartialFromCodedStreamEPN6google8protobuf2io16CodedInputStreamE
libtensorflow_framework.so:_ZN10tensorflow15SequenceExample34unsafe_arena_set_allocated_contextEPNS_8FeaturesE
libtensorflow_framework.so:_ZN10tensorflow15SequenceExample40unsafe_arena_set_allocated_feature_listsEPNS_12FeatureListsE
libtensorflow_framework.so:_ZN10tensorflow15SequenceExample4SwapEPS0_
libtensorflow_framework.so:_ZN10tensorflow15SequenceExample5ClearEv
libtensorflow_framework.so:_ZN10tensorflow15SequenceExample8CopyFromERKN6google8protobuf7MessageE
libtensorflow_framework.so:_ZN10tensorflow15SequenceExample8CopyFromERKS0_
libtensorflow_framework.so:_ZN10tensorflow15SequenceExample9ArenaDtorEPv
libtensorflow_framework.so:_ZN10tensorflow15SequenceExample9MergeFromERKN6google8protobuf7MessageE
libtensorflow_framework.so:_ZN10tensorflow15SequenceExample9MergeFromERKS0_
libtensorflow_framework.so:_ZN10tensorflow15SequenceExampleC1EPN6google8protobuf5ArenaE
libtensorflow_framework.so:_ZN10tensorflow15SequenceExampleC1ERKS0_
libtensorflow_framework.so:_ZN10tensorflow15SequenceExampleC1Ev
libtensorflow_framework.so:_ZN10tensorflow15SequenceExampleC2EPN6google8protobuf5ArenaE
libtensorflow_framework.so:_ZN10tensorflow15SequenceExampleC2ERKS0_
libtensorflow_framework.so:_ZN10tensorflow15SequenceExampleC2Ev
libtensorflow_framework.so:_ZN10tensorflow15SequenceExampleD0Ev
libtensorflow_framework.so:_ZN10tensorflow15SequenceExampleD1Ev
libtensorflow_framework.so:_ZN10tensorflow15SequenceExampleD2Ev
libtensorflow_framework.so:_ZN10tensorflow15StatsCalculator13UpdateDetailsERKSt3mapINSt7__cxx1112basic_stringIcSt11char_traitsIcESaIcEEENS0_6DetailESt4lessIS7_ESaISt4pairIKS7_S8_EEE
libtensorflow_framework.so:_ZN10tensorflow15StatsCalculatorC1ERKNS_21StatSummarizerOptionsE
libtensorflow_framework.so:_ZN10tensorflow15StatsCalculatorC2ERKNS_21StatSummarizerOptionsE
libtensorflow_framework.so:_ZN10tensorflow15SummaryMetadata10SharedCtorEv
libtensorflow_framework.so:_ZN10tensorflow15SummaryMetadata10SharedDtorEv
libtensorflow_framework.so:_ZN10tensorflow15SummaryMetadata10descriptorEv
libtensorflow_framework.so:_ZN10tensorflow15SummaryMetadata12InternalSwapEPS0_
libtensorflow_framework.so:_ZN10tensorflow15SummaryMetadata15UnsafeArenaSwapEPS0_
libtensorflow_framework.so:_ZN10tensorflow15SummaryMetadata16default_instanceEv
libtensorflow_framework.so:_ZN10tensorflow15SummaryMetadata21InitAsDefaultInstanceEv
libtensorflow_framework.so:_ZN10tensorflow15SummaryMetadata27MergePartialFromCodedStreamEPN6google8protobuf2io16CodedInputStreamE
libtensorflow_framework.so:_ZN10tensorflow15SummaryMetadata38unsafe_arena_set_allocated_plugin_dataEPNS_26SummaryMetadata_PluginDataE
libtensorflow_framework.so:_ZN10tensorflow15SummaryMetadata4SwapEPS0_
libtensorflow_framework.so:_ZN10tensorflow15SummaryMetadata5ClearEv
libtensorflow_framework.so:_ZN10tensorflow15SummaryMetadata8CopyFromERKN6google8protobuf7MessageE
libtensorflow_framework.so:_ZN10tensorflow15SummaryMetadata8CopyFromERKS0_
libtensorflow_framework.so:_ZN10tensorflow15SummaryMetadata9ArenaDtorEPv
libtensorflow_framework.so:_ZN10tensorflow15SummaryMetadata9MergeFromERKN6google8protobuf7MessageE
libtensorflow_framework.so:_ZN10tensorflow15SummaryMetadata9MergeFromERKS0_
libtensorflow_framework.so:_ZN10tensorflow15SummaryMetadataC1EPN6google8protobuf5ArenaE
libtensorflow_framework.so:_ZN10tensorflow15SummaryMetadataC1ERKS0_
libtensorflow_framework.so:_ZN10tensorflow15SummaryMetadataC1Ev
libtensorflow_framework.so:_ZN10tensorflow15SummaryMetadataC2EPN6google8protobuf5ArenaE
libtensorflow_framework.so:_ZN10tensorflow15SummaryMetadataC2ERKS0_
libtensorflow_framework.so:_ZN10tensorflow15SummaryMetadataC2Ev
libtensorflow_framework.so:_ZN10tensorflow15SummaryMetadataD0Ev
libtensorflow_framework.so:_ZN10tensorflow15SummaryMetadataD1Ev
libtensorflow_framework.so:_ZN10tensorflow15SummaryMetadataD2Ev
libtensorflow_framework.so:_ZN10tensorflow15TensorReferenceC1ERKNS_6TensorE
libtensorflow_framework.so:_ZN10tensorflow15TensorReferenceC2ERKNS_6TensorE
libtensorflow_framework.so:_ZN10tensorflow15TypeNameVariantINS_22VariantTensorDataProtoEEENSt7__cxx1112basic_stringIcSt11char_traitsIcESaIcEEERKT_
libtensorflow_framework.so:_ZN10tensorflow15ValidateNodeDefERKNS_7NodeDefERKNS_5OpDefE
libtensorflow_framework.so:_ZN10tensorflow15ValidateOpInputERKNSt7__cxx1112basic_stringIcSt11char_traitsIcESaIcEEEPb
libtensorflow_framework.so:_ZN10tensorflow15WhileContextDef10SharedCtorEv
libtensorflow_framework.so:_ZN10tensorflow15WhileContextDef10SharedDtorEv
libtensorflow_framework.so:_ZN10tensorflow15WhileContextDef10descriptorEv
libtensorflow_framework.so:_ZN10tensorflow15WhileContextDef12InternalSwapEPS0_
libtensorflow_framework.so:_ZN10tensorflow15WhileContextDef15UnsafeArenaSwapEPS0_
libtensorflow_framework.so:_ZN10tensorflow15WhileContextDef16default_instanceEv
libtensorflow_framework.so:_ZN10tensorflow15WhileContextDef21InitAsDefaultInstanceEv
libtensorflow_framework.so:_ZN10tensorflow15WhileContextDef27MergePartialFromCodedStreamEPN6google8protobuf2io16CodedInputStreamE
libtensorflow_framework.so:_ZN10tensorflow15WhileContextDef37unsafe_arena_set_allocated_values_defEPNS_9ValuesDefE
libtensorflow_framework.so:_ZN10tensorflow15WhileContextDef4SwapEPS0_
libtensorflow_framework.so:_ZN10tensorflow15WhileContextDef5ClearEv
libtensorflow_framework.so:_ZN10tensorflow15WhileContextDef8CopyFromERKN6google8protobuf7MessageE
libtensorflow_framework.so:_ZN10tensorflow15WhileContextDef8CopyFromERKS0_
libtensorflow_framework.so:_ZN10tensorflow15WhileContextDef9ArenaDtorEPv
libtensorflow_framework.so:_ZN10tensorflow15WhileContextDef9MergeFromERKN6google8protobuf7MessageE
libtensorflow_framework.so:_ZN10tensorflow15WhileContextDef9MergeFromERKS0_
libtensorflow_framework.so:_ZN10tensorflow15WhileContextDefC1EPN6google8protobuf5ArenaE
libtensorflow_framework.so:_ZN10tensorflow15WhileContextDefC1ERKS0_
libtensorflow_framework.so:_ZN10tensorflow15WhileContextDefC1Ev
libtensorflow_framework.so:_ZN10tensorflow15WhileContextDefC2EPN6google8protobuf5ArenaE
libtensorflow_framework.so:_ZN10tensorflow15WhileContextDefC2ERKS0_
libtensorflow_framework.so:_ZN10tensorflow15WhileContextDefC2Ev
libtensorflow_framework.so:_ZN10tensorflow15WhileContextDefD0Ev
libtensorflow_framework.so:_ZN10tensorflow15WhileContextDefD1Ev
libtensorflow_framework.so:_ZN10tensorflow15WhileContextDefD2Ev
libtensorflow_framework.so:_ZN10tensorflow15gpu_stream_util13AssignStreamsEPKNS_5GraphERKNS0_17AssignStreamsOptsEPSt13unordered_mapIiiSt4hashIiESt8equal_toIiESaISt4pairIKiiEEE
libtensorflow_framework.so:_ZN10tensorflow15shape_inference11ConcatShapeEPNS0_16InferenceContextEi
libtensorflow_framework.so:_ZN10tensorflow15shape_inference11Conv2DShapeEPNS0_16InferenceContextE
libtensorflow_framework.so:_ZN10tensorflow15shape_inference11Conv3DShapeEPNS0_16InferenceContextE
libtensorflow_framework.so:_ZN10tensorflow15shape_inference11MatMulShapeEPNS0_16InferenceContextE
libtensorflow_framework.so:_ZN10tensorflow15shape_inference11Pool3DShapeEPNS0_16InferenceContextE
libtensorflow_framework.so:_ZN10tensorflow15shape_inference11RandomShapeEPNS0_16InferenceContextE
libtensorflow_framework.so:_ZN10tensorflow15shape_inference12AvgPoolShapeEPNS0_16InferenceContextE
libtensorflow_framework.so:_ZN10tensorflow15shape_inference12BiasAddShapeEPNS0_16InferenceContextE
libtensorflow_framework.so:_ZN10tensorflow15shape_inference12MaxPoolShapeEPNS0_16InferenceContextE
libtensorflow_framework.so:_ZN10tensorflow15shape_inference12UnknownShapeEPNS0_16InferenceContextE
libtensorflow_framework.so:_ZN10tensorflow15shape_inference13ConcatV2ShapeEPNS0_16InferenceContextE
libtensorflow_framework.so:_ZN10tensorflow15shape_inference13ExplicitShapeEPNS0_16InferenceContextE
libtensorflow_framework.so:_ZN10tensorflow15shape_inference14ExplicitShapesEPNS0_16InferenceContextE
libtensorflow_framework.so:_ZN10tensorflow15shape_inference14MaxPoolV2ShapeEPNS0_16InferenceContextEi
libtensorflow_framework.so:_ZN10tensorflow15shape_inference14ReductionShapeEPNS0_16InferenceContextE
libtensorflow_framework.so:_ZN10tensorflow15shape_inference14UnchangedShapeEPNS0_16InferenceContextE
libtensorflow_framework.so:_ZN10tensorflow15shape_inference16BiasAddGradShapeEPNS0_16InferenceContextE
libtensorflow_framework.so:_ZN10tensorflow15shape_inference16InferenceContext10ReplaceDimENS0_11ShapeHandleExNS0_15DimensionHandleEPS2_
libtensorflow_framework.so:_ZN10tensorflow15shape_inference16InferenceContext10set_outputENS_11StringPieceERKSt6vectorINS0_11ShapeHandleESaIS4_EE
libtensorflow_framework.so:_ZN10tensorflow15shape_inference16InferenceContext11ConcatenateENS0_11ShapeHandleES2_PS2_
libtensorflow_framework.so:_ZN10tensorflow15shape_inference16InferenceContext11DebugStringB5cxx11ENS0_11ShapeHandleE
libtensorflow_framework.so:_ZN10tensorflow15shape_inference16InferenceContext11DebugStringB5cxx11ENS0_15DimensionHandleE
libtensorflow_framework.so:_ZN10tensorflow15shape_inference16InferenceContext11DebugStringB5cxx11ENS_3gtl10ArraySliceINS0_12ShapeAndTypeEEE
libtensorflow_framework.so:_ZN10tensorflow15shape_inference16InferenceContext11DebugStringB5cxx11ERKNS0_12ShapeAndTypeE
libtensorflow_framework.so:_ZN10tensorflow15shape_inference16InferenceContext11MergePrefixENS0_11ShapeHandleES2_PS2_S3_
libtensorflow_framework.so:_ZN10tensorflow15shape_inference16InferenceContext11NumElementsENS0_11ShapeHandleE
libtensorflow_framework.so:_ZN10tensorflow15shape_inference16InferenceContext12FullyDefinedENS0_11ShapeHandleE
libtensorflow_framework.so:_ZN10tensorflow15shape_inference16InferenceContext12PreInputInitERKNS_5OpDefERKSt6vectorIPKNS_6TensorESaIS8_EERKS5_INS0_11ShapeHandleESaISD_EE
libtensorflow_framework.so:_ZN10tensorflow15shape_inference16InferenceContext12ShapeManager12UnknownShapeEv
libtensorflow_framework.so:_ZN10tensorflow15shape_inference16InferenceContext12ShapeManager9MakeShapeERKSt6vectorINS0_15DimensionHandleESaIS4_EE
libtensorflow_framework.so:_ZN10tensorflow15shape_inference16InferenceContext12ShapeManagerC1Ev
libtensorflow_framework.so:_ZN10tensorflow15shape_inference16InferenceContext12ShapeManagerC2Ev
libtensorflow_framework.so:_ZN10tensorflow15shape_inference16InferenceContext12ShapeManagerD1Ev
libtensorflow_framework.so:_ZN10tensorflow15shape_inference16InferenceContext12ShapeManagerD2Ev
libtensorflow_framework.so:_ZN10tensorflow15shape_inference16InferenceContext12UnknownShapeEv
libtensorflow_framework.so:_ZN10tensorflow15shape_inference16InferenceContext13AttachContextERKNS_6StatusE
libtensorflow_framework.so:_ZN10tensorflow15shape_inference16InferenceContext13PostInputInitESt6vectorISt10unique_ptrIS2_INS0_12ShapeAndTypeESaIS4_EESt14default_deleteIS6_EESaIS9_EE
libtensorflow_framework.so:_ZN10tensorflow15shape_inference16InferenceContext14WithRankAtMostENS0_11ShapeHandleExPS2_
libtensorflow_framework.so:_ZN10tensorflow15shape_inference16InferenceContext15WithRankAtLeastENS0_11ShapeHandleExPS2_
libtensorflow_framework.so:_ZN10tensorflow15shape_inference16InferenceContext18ShapeHandleToProtoENS0_11ShapeHandleEPNS_16TensorShapeProtoE
libtensorflow_framework.so:_ZN10tensorflow15shape_inference16InferenceContext18UnknownShapeOfRankEx
libtensorflow_framework.so:_ZN10tensorflow15shape_inference16InferenceContext19GetScalarFromTensorEPKNS_6TensorEPx
libtensorflow_framework.so:_ZN10tensorflow15shape_inference16InferenceContext19MakeShapeFromTensorEPKNS_6TensorENS0_11ShapeHandleEPS5_
libtensorflow_framework.so:_ZN10tensorflow15shape_inference16InferenceContext21MakeDimForScalarInputEiPNS0_15DimensionHandleE
libtensorflow_framework.so:_ZN10tensorflow15shape_inference16InferenceContext23MakeShapeFromShapeProtoERKNS_16TensorShapeProtoEPNS0_11ShapeHandleE
libtensorflow_framework.so:_ZN10tensorflow15shape_inference16InferenceContext24MakeShapeFromShapeTensorEiPNS0_11ShapeHandleE
libtensorflow_framework.so:_ZN10tensorflow15shape_inference16InferenceContext24MakeShapeFromTensorShapeERKNS_11TensorShapeEPNS0_11ShapeHandleE
libtensorflow_framework.so:_ZN10tensorflow15shape_inference16InferenceContext25MergeHandleShapesAndTypesERKSt6vectorINS0_12ShapeAndTypeESaIS3_EEPS5_
libtensorflow_framework.so:_ZN10tensorflow15shape_inference16InferenceContext27InternalMakeShapeFromTensorEbPKNS_6TensorENS0_11ShapeHandleEPS5_
libtensorflow_framework.so:_ZN10tensorflow15shape_inference16InferenceContext30MergeInputHandleShapesAndTypesEiRKSt6vectorINS0_12ShapeAndTypeESaIS3_EE
libtensorflow_framework.so:_ZN10tensorflow15shape_inference16InferenceContext30RelaxHandleShapesAndMergeTypesERKSt6vectorINS0_12ShapeAndTypeESaIS3_EEPS5_
libtensorflow_framework.so:_ZN10tensorflow15shape_inference16InferenceContext31MakeShapeFromPartialTensorShapeERKNS_18PartialTensorShapeEPNS0_11ShapeHandleE
libtensorflow_framework.so:_ZN10tensorflow15shape_inference16InferenceContext31MergeOutputHandleShapesAndTypesEiRKSt6vectorINS0_12ShapeAndTypeESaIS3_EE
libtensorflow_framework.so:_ZN10tensorflow15shape_inference16InferenceContext35RelaxInputHandleShapesAndMergeTypesEiRKSt6vectorINS0_12ShapeAndTypeESaIS3_EE
libtensorflow_framework.so:_ZN10tensorflow15shape_inference16InferenceContext36RelaxOutputHandleShapesAndMergeTypesEiRKSt6vectorINS0_12ShapeAndTypeESaIS3_EE
libtensorflow_framework.so:_ZN10tensorflow15shape_inference16InferenceContext3AddENS0_15DimensionHandleENS0_19DimensionOrConstantEPS2_
libtensorflow_framework.so:_ZN10tensorflow15shape_inference16InferenceContext3MaxENS0_15DimensionHandleENS0_19DimensionOrConstantEPS2_
libtensorflow_framework.so:_ZN10tensorflow15shape_inference16InferenceContext3MinENS0_15DimensionHandleENS0_19DimensionOrConstantEPS2_
libtensorflow_framework.so:_ZN10tensorflow15shape_inference16InferenceContext3RunERKSt8functionIFNS_6StatusEPS1_EE
libtensorflow_framework.so:_ZN10tensorflow15shape_inference16InferenceContext41MakeDimForScalarInputWithNegativeIndexingEiiPNS0_15DimensionHandleE
libtensorflow_framework.so:_ZN10tensorflow15shape_inference16InferenceContext49MakeShapeFromShapeTensorTreatScalarAsUnknownShapeEiPNS0_11ShapeHandleE
libtensorflow_framework.so:_ZN10tensorflow15shape_inference16InferenceContext5MergeENS0_11ShapeHandleES2_PS2_
libtensorflow_framework.so:_ZN10tensorflow15shape_inference16InferenceContext5MergeENS0_15DimensionHandleES2_PS2_
libtensorflow_framework.so:_ZN10tensorflow15shape_inference16InferenceContext5RelaxENS0_11ShapeHandleES2_PS2_
libtensorflow_framework.so:_ZN10tensorflow15shape_inference16InferenceContext5RelaxENS0_15DimensionHandleES2_PS2_
libtensorflow_framework.so:_ZN10tensorflow15shape_inference16InferenceContext6DivideENS0_15DimensionHandleENS0_19DimensionOrConstantEbPS2_
libtensorflow_framework.so:_ZN10tensorflow15shape_inference16InferenceContext6MatrixENS0_19DimensionOrConstantES2_
libtensorflow_framework.so:_ZN10tensorflow15shape_inference16InferenceContext6ScalarEv
libtensorflow_framework.so:_ZN10tensorflow15shape_inference16InferenceContext6VectorENS0_19DimensionOrConstantE
libtensorflow_framework.so:_ZN10tensorflow15shape_inference16InferenceContext8MultiplyENS0_15DimensionHandleENS0_19DimensionOrConstantEPS2_
libtensorflow_framework.so:_ZN10tensorflow15shape_inference16InferenceContext8SubshapeENS0_11ShapeHandleExPS2_
libtensorflow_framework.so:_ZN10tensorflow15shape_inference16InferenceContext8SubshapeENS0_11ShapeHandleExxPS2_
libtensorflow_framework.so:_ZN10tensorflow15shape_inference16InferenceContext8SubshapeENS0_11ShapeHandleExxxPS2_
libtensorflow_framework.so:_ZN10tensorflow15shape_inference16InferenceContext8SubtractENS0_15DimensionHandleENS0_19DimensionOrConstantEPS2_
libtensorflow_framework.so:_ZN10tensorflow15shape_inference16InferenceContext8WithRankENS0_11ShapeHandleExPS2_
libtensorflow_framework.so:_ZN10tensorflow15shape_inference16InferenceContext9MakeShapeERKSt6vectorINS0_15DimensionHandleESaIS3_EE
libtensorflow_framework.so:_ZN10tensorflow15shape_inference16InferenceContext9MakeShapeESt16initializer_listINS0_19DimensionOrConstantEE
libtensorflow_framework.so:_ZN10tensorflow15shape_inference16InferenceContext9WithValueENS0_15DimensionHandleExPS2_
libtensorflow_framework.so:_ZN10tensorflow15shape_inference16InferenceContextC1EiPKNS_7NodeDefERKNS_5OpDefERKSt6vectorINS0_11ShapeHandleESaIS9_EERKS8_IPKNS_6TensorESaISG_EESD_S8_ISt10unique_ptrIS8_INS0_12ShapeAndTypeESaISM_EESt14default_deleteISO_EESaISR_EE
libtensorflow_framework.so:_ZN10tensorflow15shape_inference16InferenceContextC1EiPKNS_7NodeDefERKNS_5OpDefERKSt6vectorINS_16TensorShapeProtoESaIS9_EERKS8_IPKNS_6TensorESaISG_EESD_RKS8_ISt10unique_ptrIS8_ISt4pairIS9_NS_8DataTypeEESaISO_EESt14default_deleteISQ_EESaIST_EE
libtensorflow_framework.so:_ZN10tensorflow15shape_inference16InferenceContextC1EiPKNS_7NodeDefERKNS_5OpDefERKSt6vectorINS_18PartialTensorShapeESaIS9_EERKS8_IPKNS_6TensorESaISG_EESD_RKS8_ISt10unique_ptrIS8_ISt4pairIS9_NS_8DataTypeEESaISO_EESt14default_deleteISQ_EESaIST_EE
libtensorflow_framework.so:_ZN10tensorflow15shape_inference16InferenceContextC2EiPKNS_7NodeDefERKNS_5OpDefERKSt6vectorINS0_11ShapeHandleESaIS9_EERKS8_IPKNS_6TensorESaISG_EESD_S8_ISt10unique_ptrIS8_INS0_12ShapeAndTypeESaISM_EESt14default_deleteISO_EESaISR_EE
libtensorflow_framework.so:_ZN10tensorflow15shape_inference16InferenceContextC2EiPKNS_7NodeDefERKNS_5OpDefERKSt6vectorINS_16TensorShapeProtoESaIS9_EERKS8_IPKNS_6TensorESaISG_EESD_RKS8_ISt10unique_ptrIS8_ISt4pairIS9_NS_8DataTypeEESaISO_EESt14default_deleteISQ_EESaIST_EE
libtensorflow_framework.so:_ZN10tensorflow15shape_inference16InferenceContextC2EiPKNS_7NodeDefERKNS_5OpDefERKSt6vectorINS_18PartialTensorShapeESaIS9_EERKS8_IPKNS_6TensorESaISG_EESD_RKS8_ISt10unique_ptrIS8_ISt4pairIS9_NS_8DataTypeEESaISO_EESt14default_deleteISQ_EESaIST_EE
libtensorflow_framework.so:_ZN10tensorflow15shape_inference16InferenceContextD1Ev
libtensorflow_framework.so:_ZN10tensorflow15shape_inference16InferenceContextD2Ev
libtensorflow_framework.so:_ZN10tensorflow15shape_inference17ConcatShapeHelperEPNS0_16InferenceContextEiii
libtensorflow_framework.so:_ZN10tensorflow15shape_inference19DimensionsFromShapeENS0_11ShapeHandleENS_12TensorFormatEPNS0_15DimensionHandleENS_3gtl17MutableArraySliceIS3_EES4_PNS0_16InferenceContextE
libtensorflow_framework.so:_ZN10tensorflow15shape_inference19FusedBatchNormShapeEPNS0_16InferenceContextE
libtensorflow_framework.so:_ZN10tensorflow15shape_inference19MakeShapeFromFormatENS_12TensorFormatENS0_19DimensionOrConstantERKSt6vectorIS2_SaIS2_EES2_PNS0_11ShapeHandleEPNS0_16InferenceContextE
libtensorflow_framework.so:_ZN10tensorflow15shape_inference19ShapeFromDimensionsENS0_15DimensionHandleENS_3gtl10ArraySliceIS1_EES1_NS_12TensorFormatEPNS0_16InferenceContextEPNS0_11ShapeHandleE
libtensorflow_framework.so:_ZN10tensorflow15shape_inference20ScatterNdUpdateShapeEPNS0_16InferenceContextE
libtensorflow_framework.so:_ZN10tensorflow15shape_inference20ValidateSparseTensorEPNS0_16InferenceContextENS0_11ShapeHandleES3_S3_
libtensorflow_framework.so:_ZN10tensorflow15shape_inference23FusedBatchNormGradShapeEPNS0_16InferenceContextE
libtensorflow_framework.so:_ZN10tensorflow15shape_inference26DepthwiseConv2DNativeShapeEPNS0_16InferenceContextE
libtensorflow_framework.so:_ZN10tensorflow15shape_inference29CheckFormatConstraintsOnShapeENS_12TensorFormatENS0_11ShapeHandleERKNSt7__cxx1112basic_stringIcSt11char_traitsIcESaIcEEEPNS0_16InferenceContextE
libtensorflow_framework.so:_ZN10tensorflow15shape_inference29GetWindowedOutputSizeFromDimsEPNS0_16InferenceContextENS0_15DimensionHandleENS0_19DimensionOrConstantExNS_7PaddingEPS3_
libtensorflow_framework.so:_ZN10tensorflow15shape_inference31GetWindowedOutputSizeFromDimsV2EPNS0_16InferenceContextENS0_15DimensionHandleENS0_19DimensionOrConstantExxNS_7PaddingEPS3_
libtensorflow_framework.so:_ZN10tensorflow15shape_inference36BroadcastBinaryOpOutputShapeFnHelperEPNS0_16InferenceContextENS0_11ShapeHandleES3_PS3_
libtensorflow_framework.so:_ZN10tensorflow16AllocationRecord10SharedCtorEv
libtensorflow_framework.so:_ZN10tensorflow16AllocationRecord10SharedDtorEv
libtensorflow_framework.so:_ZN10tensorflow16AllocationRecord10descriptorEv
libtensorflow_framework.so:_ZN10tensorflow16AllocationRecord12InternalSwapEPS0_
libtensorflow_framework.so:_ZN10tensorflow16AllocationRecord15UnsafeArenaSwapEPS0_
libtensorflow_framework.so:_ZN10tensorflow16AllocationRecord16default_instanceEv
libtensorflow_framework.so:_ZN10tensorflow16AllocationRecord21InitAsDefaultInstanceEv
libtensorflow_framework.so:_ZN10tensorflow16AllocationRecord27MergePartialFromCodedStreamEPN6google8protobuf2io16CodedInputStreamE
libtensorflow_framework.so:_ZN10tensorflow16AllocationRecord4SwapEPS0_
libtensorflow_framework.so:_ZN10tensorflow16AllocationRecord5ClearEv
libtensorflow_framework.so:_ZN10tensorflow16AllocationRecord8CopyFromERKN6google8protobuf7MessageE
libtensorflow_framework.so:_ZN10tensorflow16AllocationRecord8CopyFromERKS0_
libtensorflow_framework.so:_ZN10tensorflow16AllocationRecord9ArenaDtorEPv
libtensorflow_framework.so:_ZN10tensorflow16AllocationRecord9MergeFromERKN6google8protobuf7MessageE
libtensorflow_framework.so:_ZN10tensorflow16AllocationRecord9MergeFromERKS0_
libtensorflow_framework.so:_ZN10tensorflow16AllocationRecordC1EPN6google8protobuf5ArenaE
libtensorflow_framework.so:_ZN10tensorflow16AllocationRecordC1ERKS0_
libtensorflow_framework.so:_ZN10tensorflow16AllocationRecordC1Ev
libtensorflow_framework.so:_ZN10tensorflow16AllocationRecordC2EPN6google8protobuf5ArenaE
libtensorflow_framework.so:_ZN10tensorflow16AllocationRecordC2ERKS0_
libtensorflow_framework.so:_ZN10tensorflow16AllocationRecordC2Ev
libtensorflow_framework.so:_ZN10tensorflow16AllocationRecordD0Ev
libtensorflow_framework.so:_ZN10tensorflow16AllocationRecordD1Ev
libtensorflow_framework.so:_ZN10tensorflow16AllocationRecordD2Ev
libtensorflow_framework.so:_ZN10tensorflow16AttrValueHasTypeERKNS_9AttrValueENS_11StringPieceE
libtensorflow_framework.so:_ZN10tensorflow16BenchmarkEntries10SharedCtorEv
libtensorflow_framework.so:_ZN10tensorflow16BenchmarkEntries10SharedDtorEv
libtensorflow_framework.so:_ZN10tensorflow16BenchmarkEntries10descriptorEv
libtensorflow_framework.so:_ZN10tensorflow16BenchmarkEntries12InternalSwapEPS0_
libtensorflow_framework.so:_ZN10tensorflow16BenchmarkEntries15UnsafeArenaSwapEPS0_
libtensorflow_framework.so:_ZN10tensorflow16BenchmarkEntries16default_instanceEv
libtensorflow_framework.so:_ZN10tensorflow16BenchmarkEntries21InitAsDefaultInstanceEv
libtensorflow_framework.so:_ZN10tensorflow16BenchmarkEntries27MergePartialFromCodedStreamEPN6google8protobuf2io16CodedInputStreamE
libtensorflow_framework.so:_ZN10tensorflow16BenchmarkEntries4SwapEPS0_
libtensorflow_framework.so:_ZN10tensorflow16BenchmarkEntries5ClearEv
libtensorflow_framework.so:_ZN10tensorflow16BenchmarkEntries8CopyFromERKN6google8protobuf7MessageE
libtensorflow_framework.so:_ZN10tensorflow16BenchmarkEntries8CopyFromERKS0_
libtensorflow_framework.so:_ZN10tensorflow16BenchmarkEntries9ArenaDtorEPv
libtensorflow_framework.so:_ZN10tensorflow16BenchmarkEntries9MergeFromERKN6google8protobuf7MessageE
libtensorflow_framework.so:_ZN10tensorflow16BenchmarkEntries9MergeFromERKS0_
libtensorflow_framework.so:_ZN10tensorflow16BenchmarkEntriesC1EPN6google8protobuf5ArenaE
libtensorflow_framework.so:_ZN10tensorflow16BenchmarkEntriesC1ERKS0_
libtensorflow_framework.so:_ZN10tensorflow16BenchmarkEntriesC1Ev
libtensorflow_framework.so:_ZN10tensorflow16BenchmarkEntriesC2EPN6google8protobuf5ArenaE
libtensorflow_framework.so:_ZN10tensorflow16BenchmarkEntriesC2ERKS0_
libtensorflow_framework.so:_ZN10tensorflow16BenchmarkEntriesC2Ev
libtensorflow_framework.so:_ZN10tensorflow16BenchmarkEntriesD0Ev
libtensorflow_framework.so:_ZN10tensorflow16BenchmarkEntriesD1Ev
libtensorflow_framework.so:_ZN10tensorflow16BenchmarkEntriesD2Ev
libtensorflow_framework.so:_ZN10tensorflow16BundleEntryProto10SharedCtorEv
libtensorflow_framework.so:_ZN10tensorflow16BundleEntryProto10SharedDtorEv
libtensorflow_framework.so:_ZN10tensorflow16BundleEntryProto10descriptorEv
libtensorflow_framework.so:_ZN10tensorflow16BundleEntryProto11clear_shapeEv
libtensorflow_framework.so:_ZN10tensorflow16BundleEntryProto12InternalSwapEPS0_
libtensorflow_framework.so:_ZN10tensorflow16BundleEntryProto12clear_slicesEv
libtensorflow_framework.so:_ZN10tensorflow16BundleEntryProto15UnsafeArenaSwapEPS0_
libtensorflow_framework.so:_ZN10tensorflow16BundleEntryProto16default_instanceEv
libtensorflow_framework.so:_ZN10tensorflow16BundleEntryProto21InitAsDefaultInstanceEv
libtensorflow_framework.so:_ZN10tensorflow16BundleEntryProto27MergePartialFromCodedStreamEPN6google8protobuf2io16CodedInputStreamE
libtensorflow_framework.so:_ZN10tensorflow16BundleEntryProto32unsafe_arena_set_allocated_shapeEPNS_16TensorShapeProtoE
libtensorflow_framework.so:_ZN10tensorflow16BundleEntryProto4SwapEPS0_
libtensorflow_framework.so:_ZN10tensorflow16BundleEntryProto5ClearEv
libtensorflow_framework.so:_ZN10tensorflow16BundleEntryProto8CopyFromERKN6google8protobuf7MessageE
libtensorflow_framework.so:_ZN10tensorflow16BundleEntryProto8CopyFromERKS0_
libtensorflow_framework.so:_ZN10tensorflow16BundleEntryProto9ArenaDtorEPv
libtensorflow_framework.so:_ZN10tensorflow16BundleEntryProto9MergeFromERKN6google8protobuf7MessageE
libtensorflow_framework.so:_ZN10tensorflow16BundleEntryProto9MergeFromERKS0_
libtensorflow_framework.so:_ZN10tensorflow16BundleEntryProtoC1EPN6google8protobuf5ArenaE
libtensorflow_framework.so:_ZN10tensorflow16BundleEntryProtoC1ERKS0_
libtensorflow_framework.so:_ZN10tensorflow16BundleEntryProtoC1Ev
libtensorflow_framework.so:_ZN10tensorflow16BundleEntryProtoC2EPN6google8protobuf5ArenaE
libtensorflow_framework.so:_ZN10tensorflow16BundleEntryProtoC2ERKS0_
libtensorflow_framework.so:_ZN10tensorflow16BundleEntryProtoC2Ev
libtensorflow_framework.so:_ZN10tensorflow16BundleEntryProtoD0Ev
libtensorflow_framework.so:_ZN10tensorflow16BundleEntryProtoD1Ev
libtensorflow_framework.so:_ZN10tensorflow16BundleEntryProtoD2Ev
libtensorflow_framework.so:_ZN10tensorflow16CostModelManager17AddToCostGraphDefEPKNS_5GraphEPNS_12CostGraphDefE
libtensorflow_framework.so:_ZN10tensorflow16CostModelManager21FindOrCreateCostModelEPKNS_5GraphE
libtensorflow_framework.so:_ZN10tensorflow16CostModelManager23RemoveCostModelForGraphEPKNS_5GraphE
libtensorflow_framework.so:_ZN10tensorflow16CostModelManagerD1Ev
libtensorflow_framework.so:_ZN10tensorflow16CostModelManagerD2Ev
libtensorflow_framework.so:_ZN10tensorflow16CreateSubProcessERKSt6vectorINSt7__cxx1112basic_stringIcSt11char_traitsIcESaIcEEESaIS6_EE
libtensorflow_framework.so:_ZN10tensorflow16CudnnUseAutotuneEv
libtensorflow_framework.so:_ZN10tensorflow16DataType_IsValidEi
libtensorflow_framework.so:_ZN10tensorflow16DebugStringWholeB5cxx11ERKNS_8GraphDefE
libtensorflow_framework.so:_ZN10tensorflow16DebugTensorWatch10SharedCtorEv
libtensorflow_framework.so:_ZN10tensorflow16DebugTensorWatch10SharedDtorEv
libtensorflow_framework.so:_ZN10tensorflow16DebugTensorWatch10descriptorEv
libtensorflow_framework.so:_ZN10tensorflow16DebugTensorWatch12InternalSwapEPS0_
libtensorflow_framework.so:_ZN10tensorflow16DebugTensorWatch15UnsafeArenaSwapEPS0_
libtensorflow_framework.so:_ZN10tensorflow16DebugTensorWatch16default_instanceEv
libtensorflow_framework.so:_ZN10tensorflow16DebugTensorWatch21InitAsDefaultInstanceEv
libtensorflow_framework.so:_ZN10tensorflow16DebugTensorWatch27MergePartialFromCodedStreamEPN6google8protobuf2io16CodedInputStreamE
libtensorflow_framework.so:_ZN10tensorflow16DebugTensorWatch4SwapEPS0_
libtensorflow_framework.so:_ZN10tensorflow16DebugTensorWatch5ClearEv
libtensorflow_framework.so:_ZN10tensorflow16DebugTensorWatch8CopyFromERKN6google8protobuf7MessageE
libtensorflow_framework.so:_ZN10tensorflow16DebugTensorWatch8CopyFromERKS0_
libtensorflow_framework.so:_ZN10tensorflow16DebugTensorWatch9ArenaDtorEPv
libtensorflow_framework.so:_ZN10tensorflow16DebugTensorWatch9MergeFromERKN6google8protobuf7MessageE
libtensorflow_framework.so:_ZN10tensorflow16DebugTensorWatch9MergeFromERKS0_
libtensorflow_framework.so:_ZN10tensorflow16DebugTensorWatchC1EPN6google8protobuf5ArenaE
libtensorflow_framework.so:_ZN10tensorflow16DebugTensorWatchC1ERKS0_
libtensorflow_framework.so:_ZN10tensorflow16DebugTensorWatchC1Ev
libtensorflow_framework.so:_ZN10tensorflow16DebugTensorWatchC2EPN6google8protobuf5ArenaE
libtensorflow_framework.so:_ZN10tensorflow16DebugTensorWatchC2ERKS0_
libtensorflow_framework.so:_ZN10tensorflow16DebugTensorWatchC2Ev
libtensorflow_framework.so:_ZN10tensorflow16DebugTensorWatchD0Ev
libtensorflow_framework.so:_ZN10tensorflow16DebugTensorWatchD1Ev
libtensorflow_framework.so:_ZN10tensorflow16DebugTensorWatchD2Ev
libtensorflow_framework.so:_ZN10tensorflow16DeviceAttributes10SharedCtorEv
libtensorflow_framework.so:_ZN10tensorflow16DeviceAttributes10SharedDtorEv
libtensorflow_framework.so:_ZN10tensorflow16DeviceAttributes10descriptorEv
libtensorflow_framework.so:_ZN10tensorflow16DeviceAttributes12InternalSwapEPS0_
libtensorflow_framework.so:_ZN10tensorflow16DeviceAttributes15UnsafeArenaSwapEPS0_
libtensorflow_framework.so:_ZN10tensorflow16DeviceAttributes16default_instanceEv
libtensorflow_framework.so:_ZN10tensorflow16DeviceAttributes21InitAsDefaultInstanceEv
libtensorflow_framework.so:_ZN10tensorflow16DeviceAttributes27MergePartialFromCodedStreamEPN6google8protobuf2io16CodedInputStreamE
libtensorflow_framework.so:_ZN10tensorflow16DeviceAttributes35unsafe_arena_set_allocated_localityEPNS_14DeviceLocalityE
libtensorflow_framework.so:_ZN10tensorflow16DeviceAttributes4SwapEPS0_
libtensorflow_framework.so:_ZN10tensorflow16DeviceAttributes5ClearEv
libtensorflow_framework.so:_ZN10tensorflow16DeviceAttributes8CopyFromERKN6google8protobuf7MessageE
libtensorflow_framework.so:_ZN10tensorflow16DeviceAttributes8CopyFromERKS0_
libtensorflow_framework.so:_ZN10tensorflow16DeviceAttributes9ArenaDtorEPv
libtensorflow_framework.so:_ZN10tensorflow16DeviceAttributes9MergeFromERKN6google8protobuf7MessageE
libtensorflow_framework.so:_ZN10tensorflow16DeviceAttributes9MergeFromERKS0_
libtensorflow_framework.so:_ZN10tensorflow16DeviceAttributesC1EPN6google8protobuf5ArenaE
libtensorflow_framework.so:_ZN10tensorflow16DeviceAttributesC1ERKS0_
libtensorflow_framework.so:_ZN10tensorflow16DeviceAttributesC1Ev
libtensorflow_framework.so:_ZN10tensorflow16DeviceAttributesC2EPN6google8protobuf5ArenaE
libtensorflow_framework.so:_ZN10tensorflow16DeviceAttributesC2ERKS0_
libtensorflow_framework.so:_ZN10tensorflow16DeviceAttributesC2Ev
libtensorflow_framework.so:_ZN10tensorflow16DeviceAttributesD0Ev
libtensorflow_framework.so:_ZN10tensorflow16DeviceAttributesD1Ev
libtensorflow_framework.so:_ZN10tensorflow16DeviceAttributesD2Ev
libtensorflow_framework.so:_ZN10tensorflow16DeviceProperties10SharedCtorEv
libtensorflow_framework.so:_ZN10tensorflow16DeviceProperties10SharedDtorEv
libtensorflow_framework.so:_ZN10tensorflow16DeviceProperties10descriptorEv
libtensorflow_framework.so:_ZN10tensorflow16DeviceProperties12InternalSwapEPS0_
libtensorflow_framework.so:_ZN10tensorflow16DeviceProperties15UnsafeArenaSwapEPS0_
libtensorflow_framework.so:_ZN10tensorflow16DeviceProperties16default_instanceEv
libtensorflow_framework.so:_ZN10tensorflow16DeviceProperties21InitAsDefaultInstanceEv
libtensorflow_framework.so:_ZN10tensorflow16DeviceProperties27MergePartialFromCodedStreamEPN6google8protobuf2io16CodedInputStreamE
libtensorflow_framework.so:_ZN10tensorflow16DeviceProperties4SwapEPS0_
libtensorflow_framework.so:_ZN10tensorflow16DeviceProperties5ClearEv
libtensorflow_framework.so:_ZN10tensorflow16DeviceProperties8CopyFromERKN6google8protobuf7MessageE
libtensorflow_framework.so:_ZN10tensorflow16DeviceProperties8CopyFromERKS0_
libtensorflow_framework.so:_ZN10tensorflow16DeviceProperties9ArenaDtorEPv
libtensorflow_framework.so:_ZN10tensorflow16DeviceProperties9MergeFromERKN6google8protobuf7MessageE
libtensorflow_framework.so:_ZN10tensorflow16DeviceProperties9MergeFromERKS0_
libtensorflow_framework.so:_ZN10tensorflow16DevicePropertiesC1EPN6google8protobuf5ArenaE
libtensorflow_framework.so:_ZN10tensorflow16DevicePropertiesC1ERKS0_
libtensorflow_framework.so:_ZN10tensorflow16DevicePropertiesC1Ev
libtensorflow_framework.so:_ZN10tensorflow16DevicePropertiesC2EPN6google8protobuf5ArenaE
libtensorflow_framework.so:_ZN10tensorflow16DevicePropertiesC2ERKS0_
libtensorflow_framework.so:_ZN10tensorflow16DevicePropertiesC2Ev
libtensorflow_framework.so:_ZN10tensorflow16DevicePropertiesD0Ev
libtensorflow_framework.so:_ZN10tensorflow16DevicePropertiesD1Ev
libtensorflow_framework.so:_ZN10tensorflow16DevicePropertiesD2Ev
libtensorflow_framework.so:_ZN10tensorflow16DeviceTypeStringB5cxx11ERKNS_10DeviceTypeE
libtensorflow_framework.so:_ZN10tensorflow16FeatureDenseCopyEmRKNSt7__cxx1112basic_stringIcSt11char_traitsIcESaIcEEES7_RKNS_8DataTypeERKNS_11TensorShapeERKNS_7FeatureEPNS_6TensorE
libtensorflow_framework.so:_ZN10tensorflow16FileOutputBuffer11FlushBufferEv
libtensorflow_framework.so:_ZN10tensorflow16FileOutputBuffer5CloseEv
libtensorflow_framework.so:_ZN10tensorflow16FileOutputBuffer6AppendENS_11StringPieceE
libtensorflow_framework.so:_ZN10tensorflow16FileOutputBufferD1Ev
libtensorflow_framework.so:_ZN10tensorflow16FileOutputBufferD2Ev
libtensorflow_framework.so:_ZN10tensorflow16FormatFromStringERKNSt7__cxx1112basic_stringIcSt11char_traitsIcESaIcEEEPNS_12TensorFormatE
libtensorflow_framework.so:_ZN10tensorflow16GPUDeviceContext21CopyDeviceTensorToCPUEPKNS_6TensorENS_11StringPieceEPNS_6DeviceEPS1_St8functionIFvRKNS_6StatusEEE
libtensorflow_framework.so:_ZN10tensorflow16GetBroadcastSizeEiiiiiPiS0_
libtensorflow_framework.so:_ZN10tensorflow16GetFeatureValuesINSt7__cxx1112basic_stringIcSt11char_traitsIcESaIcEEEEEPNS_8internal18RepeatedFieldTraitIT_E4TypeEPNS_7FeatureE
libtensorflow_framework.so:_ZN10tensorflow16GetFeatureValuesINSt7__cxx1112basic_stringIcSt11char_traitsIcESaIcEEEEERKNS_8internal18RepeatedFieldTraitIT_E4TypeERKNS_7FeatureE
libtensorflow_framework.so:_ZN10tensorflow16GetFeatureValuesIfEEPNS_8internal18RepeatedFieldTraitIT_E4TypeEPNS_7FeatureE
libtensorflow_framework.so:_ZN10tensorflow16GetFeatureValuesIfEERKNS_8internal18RepeatedFieldTraitIT_E4TypeERKNS_7FeatureE
libtensorflow_framework.so:_ZN10tensorflow16GetFeatureValuesIlEEPNS_8internal18RepeatedFieldTraitIT_E4TypeEPNS_7FeatureE
libtensorflow_framework.so:_ZN10tensorflow16GetFeatureValuesIlEERKNS_8internal18RepeatedFieldTraitIT_E4TypeERKNS_7FeatureE
libtensorflow_framework.so:_ZN10tensorflow16InputTypeForNodeERKNS_7NodeDefERKNS_5OpDefEiPNS_8DataTypeE
libtensorflow_framework.so:_ZN10tensorflow16InterconnectLink10SharedCtorEv
libtensorflow_framework.so:_ZN10tensorflow16InterconnectLink10SharedDtorEv
libtensorflow_framework.so:_ZN10tensorflow16InterconnectLink10descriptorEv
libtensorflow_framework.so:_ZN10tensorflow16InterconnectLink12InternalSwapEPS0_
libtensorflow_framework.so:_ZN10tensorflow16InterconnectLink15UnsafeArenaSwapEPS0_
libtensorflow_framework.so:_ZN10tensorflow16InterconnectLink16default_instanceEv
libtensorflow_framework.so:_ZN10tensorflow16InterconnectLink21InitAsDefaultInstanceEv
libtensorflow_framework.so:_ZN10tensorflow16InterconnectLink27MergePartialFromCodedStreamEPN6google8protobuf2io16CodedInputStreamE
libtensorflow_framework.so:_ZN10tensorflow16InterconnectLink4SwapEPS0_
libtensorflow_framework.so:_ZN10tensorflow16InterconnectLink5ClearEv
libtensorflow_framework.so:_ZN10tensorflow16InterconnectLink8CopyFromERKN6google8protobuf7MessageE
libtensorflow_framework.so:_ZN10tensorflow16InterconnectLink8CopyFromERKS0_
libtensorflow_framework.so:_ZN10tensorflow16InterconnectLink9ArenaDtorEPv
libtensorflow_framework.so:_ZN10tensorflow16InterconnectLink9MergeFromERKN6google8protobuf7MessageE
libtensorflow_framework.so:_ZN10tensorflow16InterconnectLink9MergeFromERKS0_
libtensorflow_framework.so:_ZN10tensorflow16InterconnectLinkC1EPN6google8protobuf5ArenaE
libtensorflow_framework.so:_ZN10tensorflow16InterconnectLinkC1ERKS0_
libtensorflow_framework.so:_ZN10tensorflow16InterconnectLinkC1Ev
libtensorflow_framework.so:_ZN10tensorflow16InterconnectLinkC2EPN6google8protobuf5ArenaE
libtensorflow_framework.so:_ZN10tensorflow16InterconnectLinkC2ERKS0_
libtensorflow_framework.so:_ZN10tensorflow16InterconnectLinkC2Ev
libtensorflow_framework.so:_ZN10tensorflow16InterconnectLinkD0Ev
libtensorflow_framework.so:_ZN10tensorflow16InterconnectLinkD1Ev
libtensorflow_framework.so:_ZN10tensorflow16InterconnectLinkD2Ev
libtensorflow_framework.so:_ZN10tensorflow16KernelAttrsMatchERKNS_9KernelDefENS_9AttrSliceEPb
libtensorflow_framework.so:_ZN10tensorflow16KernelDefBuilder10HostMemoryEPKc
libtensorflow_framework.so:_ZN10tensorflow16KernelDefBuilder14TypeConstraintEPKcNS_3gtl10ArraySliceINS_8DataTypeEEE
libtensorflow_framework.so:_ZN10tensorflow16KernelDefBuilder14TypeConstraintEPKcNS_8DataTypeE
libtensorflow_framework.so:_ZN10tensorflow16KernelDefBuilder5BuildEv
libtensorflow_framework.so:_ZN10tensorflow16KernelDefBuilder5LabelEPKc
libtensorflow_framework.so:_ZN10tensorflow16KernelDefBuilder6DeviceEPKc
libtensorflow_framework.so:_ZN10tensorflow16KernelDefBuilderC1EPKc
libtensorflow_framework.so:_ZN10tensorflow16KernelDefBuilderC2EPKc
libtensorflow_framework.so:_ZN10tensorflow16KernelDefBuilderD1Ev
libtensorflow_framework.so:_ZN10tensorflow16KernelDefBuilderD2Ev
libtensorflow_framework.so:_ZN10tensorflow16NamedTensorProto10SharedCtorEv
libtensorflow_framework.so:_ZN10tensorflow16NamedTensorProto10SharedDtorEv
libtensorflow_framework.so:_ZN10tensorflow16NamedTensorProto10descriptorEv
libtensorflow_framework.so:_ZN10tensorflow16NamedTensorProto12InternalSwapEPS0_
libtensorflow_framework.so:_ZN10tensorflow16NamedTensorProto12clear_tensorEv
libtensorflow_framework.so:_ZN10tensorflow16NamedTensorProto15UnsafeArenaSwapEPS0_
libtensorflow_framework.so:_ZN10tensorflow16NamedTensorProto16default_instanceEv
libtensorflow_framework.so:_ZN10tensorflow16NamedTensorProto21InitAsDefaultInstanceEv
libtensorflow_framework.so:_ZN10tensorflow16NamedTensorProto27MergePartialFromCodedStreamEPN6google8protobuf2io16CodedInputStreamE
libtensorflow_framework.so:_ZN10tensorflow16NamedTensorProto33unsafe_arena_set_allocated_tensorEPNS_11TensorProtoE
libtensorflow_framework.so:_ZN10tensorflow16NamedTensorProto4SwapEPS0_
libtensorflow_framework.so:_ZN10tensorflow16NamedTensorProto5ClearEv
libtensorflow_framework.so:_ZN10tensorflow16NamedTensorProto8CopyFromERKN6google8protobuf7MessageE
libtensorflow_framework.so:_ZN10tensorflow16NamedTensorProto8CopyFromERKS0_
libtensorflow_framework.so:_ZN10tensorflow16NamedTensorProto9ArenaDtorEPv
libtensorflow_framework.so:_ZN10tensorflow16NamedTensorProto9MergeFromERKN6google8protobuf7MessageE
libtensorflow_framework.so:_ZN10tensorflow16NamedTensorProto9MergeFromERKS0_
libtensorflow_framework.so:_ZN10tensorflow16NamedTensorProtoC1EPN6google8protobuf5ArenaE
libtensorflow_framework.so:_ZN10tensorflow16NamedTensorProtoC1ERKS0_
libtensorflow_framework.so:_ZN10tensorflow16NamedTensorProtoC1Ev
libtensorflow_framework.so:_ZN10tensorflow16NamedTensorProtoC2EPN6google8protobuf5ArenaE
libtensorflow_framework.so:_ZN10tensorflow16NamedTensorProtoC2ERKS0_
libtensorflow_framework.so:_ZN10tensorflow16NamedTensorProtoC2Ev
libtensorflow_framework.so:_ZN10tensorflow16NamedTensorProtoD0Ev
libtensorflow_framework.so:_ZN10tensorflow16NamedTensorProtoD1Ev
libtensorflow_framework.so:_ZN10tensorflow16NamedTensorProtoD2Ev
libtensorflow_framework.so:_ZN10tensorflow16NewLocalExecutorERKNS_19LocalExecutorParamsESt10unique_ptrIKNS_5GraphESt14default_deleteIS5_EEPPNS_8ExecutorE
libtensorflow_framework.so:_ZN10tensorflow16OpListOpRegistryC1EPKNS_6OpListE
libtensorflow_framework.so:_ZN10tensorflow16OpListOpRegistryC2EPKNS_6OpListE
libtensorflow_framework.so:_ZN10tensorflow16OpListOpRegistryD0Ev
libtensorflow_framework.so:_ZN10tensorflow16OpListOpRegistryD1Ev
libtensorflow_framework.so:_ZN10tensorflow16OpListOpRegistryD2Ev
libtensorflow_framework.so:_ZN10tensorflow16OptimizerOptions10SharedCtorEv
libtensorflow_framework.so:_ZN10tensorflow16OptimizerOptions10SharedDtorEv
libtensorflow_framework.so:_ZN10tensorflow16OptimizerOptions10descriptorEv
libtensorflow_framework.so:_ZN10tensorflow16OptimizerOptions12InternalSwapEPS0_
libtensorflow_framework.so:_ZN10tensorflow16OptimizerOptions15UnsafeArenaSwapEPS0_
libtensorflow_framework.so:_ZN10tensorflow16OptimizerOptions16default_instanceEv
libtensorflow_framework.so:_ZN10tensorflow16OptimizerOptions21InitAsDefaultInstanceEv
libtensorflow_framework.so:_ZN10tensorflow16OptimizerOptions27MergePartialFromCodedStreamEPN6google8protobuf2io16CodedInputStreamE
libtensorflow_framework.so:_ZN10tensorflow16OptimizerOptions4SwapEPS0_
libtensorflow_framework.so:_ZN10tensorflow16OptimizerOptions5ClearEv
libtensorflow_framework.so:_ZN10tensorflow16OptimizerOptions8CopyFromERKN6google8protobuf7MessageE
libtensorflow_framework.so:_ZN10tensorflow16OptimizerOptions8CopyFromERKS0_
libtensorflow_framework.so:_ZN10tensorflow16OptimizerOptions9ArenaDtorEPv
libtensorflow_framework.so:_ZN10tensorflow16OptimizerOptions9MergeFromERKN6google8protobuf7MessageE
libtensorflow_framework.so:_ZN10tensorflow16OptimizerOptions9MergeFromERKS0_
libtensorflow_framework.so:_ZN10tensorflow16OptimizerOptionsC1EPN6google8protobuf5ArenaE
libtensorflow_framework.so:_ZN10tensorflow16OptimizerOptionsC1ERKS0_
libtensorflow_framework.so:_ZN10tensorflow16OptimizerOptionsC1Ev
libtensorflow_framework.so:_ZN10tensorflow16OptimizerOptionsC2EPN6google8protobuf5ArenaE
libtensorflow_framework.so:_ZN10tensorflow16OptimizerOptionsC2ERKS0_
libtensorflow_framework.so:_ZN10tensorflow16OptimizerOptionsC2Ev
libtensorflow_framework.so:_ZN10tensorflow16OptimizerOptionsD0Ev
libtensorflow_framework.so:_ZN10tensorflow16OptimizerOptionsD1Ev
libtensorflow_framework.so:_ZN10tensorflow16OptimizerOptionsD2Ev
libtensorflow_framework.so:_ZN10tensorflow16PersistentTensor12AccessTensorEPNS_15OpKernelContextE
libtensorflow_framework.so:_ZN10tensorflow16PersistentTensor12AccessTensorEPNS_20OpKernelConstructionE
libtensorflow_framework.so:_ZN10tensorflow16ProtoDebugStringB5cxx11ERKNS_10ApiDef_ArgE
libtensorflow_framework.so:_ZN10tensorflow16ProtoDebugStringB5cxx11ERKNS_10ClusterDefE
libtensorflow_framework.so:_ZN10tensorflow16ProtoDebugStringB5cxx11ERKNS_10GPUOptionsE
libtensorflow_framework.so:_ZN10tensorflow16ProtoDebugStringB5cxx11ERKNS_10KernelListE
libtensorflow_framework.so:_ZN10tensorflow16ProtoDebugStringB5cxx11ERKNS_10LocalLinksE
libtensorflow_framework.so:_ZN10tensorflow16ProtoDebugStringB5cxx11ERKNS_10LogMessageE
libtensorflow_framework.so:_ZN10tensorflow16ProtoDebugStringB5cxx11ERKNS_10NodeOutputE
libtensorflow_framework.so:_ZN10tensorflow16ProtoDebugStringB5cxx11ERKNS_10RPCOptionsE
libtensorflow_framework.so:_ZN10tensorflow16ProtoDebugStringB5cxx11ERKNS_10RunOptionsE
libtensorflow_framework.so:_ZN10tensorflow16ProtoDebugStringB5cxx11ERKNS_10SavedSliceE
libtensorflow_framework.so:_ZN10tensorflow16ProtoDebugStringB5cxx11ERKNS_10SessionLogE
libtensorflow_framework.so:_ZN10tensorflow16ProtoDebugStringB5cxx11ERKNS_10VersionDefE
libtensorflow_framework.so:_ZN10tensorflow16ProtoDebugStringB5cxx11ERKNS_11ApiDef_AttrE
libtensorflow_framework.so:_ZN10tensorflow16ProtoDebugStringB5cxx11ERKNS_11ConfigProtoE
libtensorflow_framework.so:_ZN10tensorflow16ProtoDebugStringB5cxx11ERKNS_11FeatureListE
libtensorflow_framework.so:_ZN10tensorflow16ProtoDebugStringB5cxx11ERKNS_11FunctionDefE
libtensorflow_framework.so:_ZN10tensorflow16ProtoDebugStringB5cxx11ERKNS_11GradientDefE
libtensorflow_framework.so:_ZN10tensorflow16ProtoDebugStringB5cxx11ERKNS_11MemoryStatsE
libtensorflow_framework.so:_ZN10tensorflow16ProtoDebugStringB5cxx11ERKNS_11NamedDeviceE
libtensorflow_framework.so:_ZN10tensorflow16ProtoDebugStringB5cxx11ERKNS_11RunMetadataE
libtensorflow_framework.so:_ZN10tensorflow16ProtoDebugStringB5cxx11ERKNS_11TensorProtoE
libtensorflow_framework.so:_ZN10tensorflow16ProtoDebugStringB5cxx11ERKNS_11VariableDefE
libtensorflow_framework.so:_ZN10tensorflow16ProtoDebugStringB5cxx11ERKNS_12CostGraphDefE
libtensorflow_framework.so:_ZN10tensorflow16ProtoDebugStringB5cxx11ERKNS_12DebugOptionsE
libtensorflow_framework.so:_ZN10tensorflow16ProtoDebugStringB5cxx11ERKNS_12FeatureListsE
libtensorflow_framework.so:_ZN10tensorflow16ProtoDebugStringB5cxx11ERKNS_12GraphOptionsE
libtensorflow_framework.so:_ZN10tensorflow16ProtoDebugStringB5cxx11ERKNS_12NameAttrListE
libtensorflow_framework.so:_ZN10tensorflow16ProtoDebugStringB5cxx11ERKNS_12OpDef_ArgDefE
libtensorflow_framework.so:_ZN10tensorflow16ProtoDebugStringB5cxx11ERKNS_13MemoryLogStepE
libtensorflow_framework.so:_ZN10tensorflow16ProtoDebugStringB5cxx11ERKNS_13NodeExecStatsE
libtensorflow_framework.so:_ZN10tensorflow16ProtoDebugStringB5cxx11ERKNS_13OpDef_AttrDefE
libtensorflow_framework.so:_ZN10tensorflow16ProtoDebugStringB5cxx11ERKNS_13OpDeprecationE
libtensorflow_framework.so:_ZN10tensorflow16ProtoDebugStringB5cxx11ERKNS_13Summary_AudioE
libtensorflow_framework.so:_ZN10tensorflow16ProtoDebugStringB5cxx11ERKNS_13Summary_ImageE
libtensorflow_framework.so:_ZN10tensorflow16ProtoDebugStringB5cxx11ERKNS_13Summary_ValueE
libtensorflow_framework.so:_ZN10tensorflow16ProtoDebugStringB5cxx11ERKNS_14DeviceLocalityE
libtensorflow_framework.so:_ZN10tensorflow16ProtoDebugStringB5cxx11ERKNS_14HistogramProtoE
libtensorflow_framework.so:_ZN10tensorflow16ProtoDebugStringB5cxx11ERKNS_14QueueRunnerDefE
libtensorflow_framework.so:_ZN10tensorflow16ProtoDebugStringB5cxx11ERKNS_14ResourceHandleE
libtensorflow_framework.so:_ZN10tensorflow16ProtoDebugStringB5cxx11ERKNS_14RewriterConfigE
libtensorflow_framework.so:_ZN10tensorflow16ProtoDebugStringB5cxx11ERKNS_14SavedSliceMetaE
libtensorflow_framework.so:_ZN10tensorflow16ProtoDebugStringB5cxx11ERKNS_14WatchdogConfigE
libtensorflow_framework.so:_ZN10tensorflow16ProtoDebugStringB5cxx11ERKNS_15ApiDef_EndpointE
libtensorflow_framework.so:_ZN10tensorflow16ProtoDebugStringB5cxx11ERKNS_15CallableOptionsE
libtensorflow_framework.so:_ZN10tensorflow16ProtoDebugStringB5cxx11ERKNS_15DeviceStepStatsE
libtensorflow_framework.so:_ZN10tensorflow16ProtoDebugStringB5cxx11ERKNS_15ReaderBaseStateE
libtensorflow_framework.so:_ZN10tensorflow16ProtoDebugStringB5cxx11ERKNS_15SequenceExampleE
libtensorflow_framework.so:_ZN10tensorflow16ProtoDebugStringB5cxx11ERKNS_15SummaryMetadataE
libtensorflow_framework.so:_ZN10tensorflow16ProtoDebugStringB5cxx11ERKNS_16AllocationRecordE
libtensorflow_framework.so:_ZN10tensorflow16ProtoDebugStringB5cxx11ERKNS_16BundleEntryProtoE
libtensorflow_framework.so:_ZN10tensorflow16ProtoDebugStringB5cxx11ERKNS_16DebugTensorWatchE
libtensorflow_framework.so:_ZN10tensorflow16ProtoDebugStringB5cxx11ERKNS_16DeviceAttributesE
libtensorflow_framework.so:_ZN10tensorflow16ProtoDebugStringB5cxx11ERKNS_16DevicePropertiesE
libtensorflow_framework.so:_ZN10tensorflow16ProtoDebugStringB5cxx11ERKNS_16InterconnectLinkE
libtensorflow_framework.so:_ZN10tensorflow16ProtoDebugStringB5cxx11ERKNS_16OptimizerOptionsE
libtensorflow_framework.so:_ZN10tensorflow16ProtoDebugStringB5cxx11ERKNS_16SaveSliceInfoDefE
libtensorflow_framework.so:_ZN10tensorflow16ProtoDebugStringB5cxx11ERKNS_16TensorConnectionE
libtensorflow_framework.so:_ZN10tensorflow16ProtoDebugStringB5cxx11ERKNS_16TensorShapeProtoE
libtensorflow_framework.so:_ZN10tensorflow16ProtoDebugStringB5cxx11ERKNS_16TensorSliceProtoE
libtensorflow_framework.so:_ZN10tensorflow16ProtoDebugStringB5cxx11ERKNS_17BundleHeaderProtoE
libtensorflow_framework.so:_ZN10tensorflow16ProtoDebugStringB5cxx11ERKNS_17CostGraphDef_NodeE
libtensorflow_framework.so:_ZN10tensorflow16ProtoDebugStringB5cxx11ERKNS_17GraphTransferInfoE
libtensorflow_framework.so:_ZN10tensorflow16ProtoDebugStringB5cxx11ERKNS_17SavedTensorSlicesE
libtensorflow_framework.so:_ZN10tensorflow16ProtoDebugStringB5cxx11ERKNS_17TaggedRunMetadataE
libtensorflow_framework.so:_ZN10tensorflow16ProtoDebugStringB5cxx11ERKNS_17TensorDescriptionE
libtensorflow_framework.so:_ZN10tensorflow16ProtoDebugStringB5cxx11ERKNS_17VariantTensorDataE
libtensorflow_framework.so:_ZN10tensorflow16ProtoDebugStringB5cxx11ERKNS_18DebuggedSourceFileE
libtensorflow_framework.so:_ZN10tensorflow16ProtoDebugStringB5cxx11ERKNS_18FunctionDefLibraryE
libtensorflow_framework.so:_ZN10tensorflow16ProtoDebugStringB5cxx11ERKNS_18SummaryDescriptionE
libtensorflow_framework.so:_ZN10tensorflow16ProtoDebugStringB5cxx11ERKNS_19AllocatorMemoryUsedE
libtensorflow_framework.so:_ZN10tensorflow16ProtoDebugStringB5cxx11ERKNS_19AttrValue_ListValueE
libtensorflow_framework.so:_ZN10tensorflow16ProtoDebugStringB5cxx11ERKNS_19AutoParallelOptionsE
libtensorflow_framework.so:_ZN10tensorflow16ProtoDebugStringB5cxx11ERKNS_19DebuggedSourceFilesE
libtensorflow_framework.so:_ZN10tensorflow16ProtoDebugStringB5cxx11ERKNS_19ResourceHandleProtoE
libtensorflow_framework.so:_ZN10tensorflow16ProtoDebugStringB5cxx11ERKNS_20SavedTensorSliceMetaE
libtensorflow_framework.so:_ZN10tensorflow16ProtoDebugStringB5cxx11ERKNS_20TensorShapeProto_DimE
libtensorflow_framework.so:_ZN10tensorflow16ProtoDebugStringB5cxx11ERKNS_21AllocationDescriptionE
libtensorflow_framework.so:_ZN10tensorflow16ProtoDebugStringB5cxx11ERKNS_21GraphTransferNodeInfoE
libtensorflow_framework.so:_ZN10tensorflow16ProtoDebugStringB5cxx11ERKNS_21IteratorStateMetadataE
libtensorflow_framework.so:_ZN10tensorflow16ProtoDebugStringB5cxx11ERKNS_21MemoryLogTensorOutputE
libtensorflow_framework.so:_ZN10tensorflow16ProtoDebugStringB5cxx11ERKNS_21ThreadPoolOptionProtoE
libtensorflow_framework.so:_ZN10tensorflow16ProtoDebugStringB5cxx11ERKNS_22GraphTransferNodeInputE
libtensorflow_framework.so:_ZN10tensorflow16ProtoDebugStringB5cxx11ERKNS_22MemoryLogRawAllocationE
libtensorflow_framework.so:_ZN10tensorflow16ProtoDebugStringB5cxx11ERKNS_22ScopedAllocatorOptionsE
libtensorflow_framework.so:_ZN10tensorflow16ProtoDebugStringB5cxx11ERKNS_22VariantTensorDataProtoE
libtensorflow_framework.so:_ZN10tensorflow16ProtoDebugStringB5cxx11ERKNS_22WorkerHeartbeatRequestE
libtensorflow_framework.so:_ZN10tensorflow16ProtoDebugStringB5cxx11ERKNS_23GPUOptions_ExperimentalE
libtensorflow_framework.so:_ZN10tensorflow16ProtoDebugStringB5cxx11ERKNS_23RunOptions_ExperimentalE
libtensorflow_framework.so:_ZN10tensorflow16ProtoDebugStringB5cxx11ERKNS_23TensorSliceProto_ExtentE
libtensorflow_framework.so:_ZN10tensorflow16ProtoDebugStringB5cxx11ERKNS_23WorkerHeartbeatResponseE
libtensorflow_framework.so:_ZN10tensorflow16ProtoDebugStringB5cxx11ERKNS_24ConfigProto_ExperimentalE
libtensorflow_framework.so:_ZN10tensorflow16ProtoDebugStringB5cxx11ERKNS_24KernelDef_AttrConstraintE
libtensorflow_framework.so:_ZN10tensorflow16ProtoDebugStringB5cxx11ERKNS_24MemoryLogRawDeallocationE
libtensorflow_framework.so:_ZN10tensorflow16ProtoDebugStringB5cxx11ERKNS_25MemoryLogTensorAllocationE
libtensorflow_framework.so:_ZN10tensorflow16ProtoDebugStringB5cxx11ERKNS_26GraphTransferConstNodeInfoE
libtensorflow_framework.so:_ZN10tensorflow16ProtoDebugStringB5cxx11ERKNS_26GraphTransferNodeInputInfoE
libtensorflow_framework.so:_ZN10tensorflow16ProtoDebugStringB5cxx11ERKNS_26SummaryMetadata_PluginDataE
libtensorflow_framework.so:_ZN10tensorflow16ProtoDebugStringB5cxx11ERKNS_27CostGraphDef_Node_InputInfoE
libtensorflow_framework.so:_ZN10tensorflow16ProtoDebugStringB5cxx11ERKNS_27GraphTransferNodeOutputInfoE
libtensorflow_framework.so:_ZN10tensorflow16ProtoDebugStringB5cxx11ERKNS_27MemoryLogTensorDeallocationE
libtensorflow_framework.so:_ZN10tensorflow16ProtoDebugStringB5cxx11ERKNS_27RemoteFusedGraphExecuteInfoE
libtensorflow_framework.so:_ZN10tensorflow16ProtoDebugStringB5cxx11ERKNS_28CostGraphDef_Node_OutputInfoE
libtensorflow_framework.so:_ZN10tensorflow16ProtoDebugStringB5cxx11ERKNS_28MemmappedFileSystemDirectoryE
libtensorflow_framework.so:_ZN10tensorflow16ProtoDebugStringB5cxx11ERKNS_31GraphTransferGraphInputNodeInfoE
libtensorflow_framework.so:_ZN10tensorflow16ProtoDebugStringB5cxx11ERKNS_32GraphTransferGraphOutputNodeInfoE
libtensorflow_framework.so:_ZN10tensorflow16ProtoDebugStringB5cxx11ERKNS_35MemmappedFileSystemDirectoryElementE
libtensorflow_framework.so:_ZN10tensorflow16ProtoDebugStringB5cxx11ERKNS_35RewriterConfig_CustomGraphOptimizerE
libtensorflow_framework.so:_ZN10tensorflow16ProtoDebugStringB5cxx11ERKNS_38GPUOptions_Experimental_VirtualDevicesE
libtensorflow_framework.so:_ZN10tensorflow16ProtoDebugStringB5cxx11ERKNS_48RemoteFusedGraphExecuteInfo_TensorShapeTypeProtoE
libtensorflow_framework.so:_ZN10tensorflow16ProtoDebugStringB5cxx11ERKNS_5EventE
libtensorflow_framework.so:_ZN10tensorflow16ProtoDebugStringB5cxx11ERKNS_5OpDefE
libtensorflow_framework.so:_ZN10tensorflow16ProtoDebugStringB5cxx11ERKNS_6ApiDefE
libtensorflow_framework.so:_ZN10tensorflow16ProtoDebugStringB5cxx11ERKNS_6JobDefE
libtensorflow_framework.so:_ZN10tensorflow16ProtoDebugStringB5cxx11ERKNS_6OpListE
libtensorflow_framework.so:_ZN10tensorflow16ProtoDebugStringB5cxx11ERKNS_7ApiDefsE
libtensorflow_framework.so:_ZN10tensorflow16ProtoDebugStringB5cxx11ERKNS_7ExampleE
libtensorflow_framework.so:_ZN10tensorflow16ProtoDebugStringB5cxx11ERKNS_7FeatureE
libtensorflow_framework.so:_ZN10tensorflow16ProtoDebugStringB5cxx11ERKNS_7NodeDefE
libtensorflow_framework.so:_ZN10tensorflow16ProtoDebugStringB5cxx11ERKNS_7SummaryE
libtensorflow_framework.so:_ZN10tensorflow16ProtoDebugStringB5cxx11ERKNS_8FeaturesE
libtensorflow_framework.so:_ZN10tensorflow16ProtoDebugStringB5cxx11ERKNS_8GraphDefE
libtensorflow_framework.so:_ZN10tensorflow16ProtoDebugStringB5cxx11ERKNS_8SaverDefE
libtensorflow_framework.so:_ZN10tensorflow16ProtoDebugStringB5cxx11ERKNS_9AttrValueE
libtensorflow_framework.so:_ZN10tensorflow16ProtoDebugStringB5cxx11ERKNS_9BytesListE
libtensorflow_framework.so:_ZN10tensorflow16ProtoDebugStringB5cxx11ERKNS_9FloatListE
libtensorflow_framework.so:_ZN10tensorflow16ProtoDebugStringB5cxx11ERKNS_9Int64ListE
libtensorflow_framework.so:_ZN10tensorflow16ProtoDebugStringB5cxx11ERKNS_9KernelDefE
libtensorflow_framework.so:_ZN10tensorflow16ProtoDebugStringB5cxx11ERKNS_9StepStatsE
libtensorflow_framework.so:_ZN10tensorflow16RandomAccessFileD0Ev
libtensorflow_framework.so:_ZN10tensorflow16RandomAccessFileD1Ev
libtensorflow_framework.so:_ZN10tensorflow16RandomAccessFileD2Ev
libtensorflow_framework.so:_ZN10tensorflow16ReadFileToStringEPNS_3EnvERKNSt7__cxx1112basic_stringIcSt11char_traitsIcESaIcEEEPS7_
libtensorflow_framework.so:_ZN10tensorflow16RecvBufRespExtra10SharedCtorEv
libtensorflow_framework.so:_ZN10tensorflow16RecvBufRespExtra10SharedDtorEv
libtensorflow_framework.so:_ZN10tensorflow16RecvBufRespExtra10descriptorEv
libtensorflow_framework.so:_ZN10tensorflow16RecvBufRespExtra12InternalSwapEPS0_
libtensorflow_framework.so:_ZN10tensorflow16RecvBufRespExtra16default_instanceEv
libtensorflow_framework.so:_ZN10tensorflow16RecvBufRespExtra21InitAsDefaultInstanceEv
libtensorflow_framework.so:_ZN10tensorflow16RecvBufRespExtra27MergePartialFromCodedStreamEPN6google8protobuf2io16CodedInputStreamE
libtensorflow_framework.so:_ZN10tensorflow16RecvBufRespExtra4SwapEPS0_
libtensorflow_framework.so:_ZN10tensorflow16RecvBufRespExtra5ClearEv
libtensorflow_framework.so:_ZN10tensorflow16RecvBufRespExtra8CopyFromERKN6google8protobuf7MessageE
libtensorflow_framework.so:_ZN10tensorflow16RecvBufRespExtra8CopyFromERKS0_
libtensorflow_framework.so:_ZN10tensorflow16RecvBufRespExtra9MergeFromERKN6google8protobuf7MessageE
libtensorflow_framework.so:_ZN10tensorflow16RecvBufRespExtra9MergeFromERKS0_
libtensorflow_framework.so:_ZN10tensorflow16RecvBufRespExtraC1ERKS0_
libtensorflow_framework.so:_ZN10tensorflow16RecvBufRespExtraC1Ev
libtensorflow_framework.so:_ZN10tensorflow16RecvBufRespExtraC2ERKS0_
libtensorflow_framework.so:_ZN10tensorflow16RecvBufRespExtraC2Ev
libtensorflow_framework.so:_ZN10tensorflow16RecvBufRespExtraD0Ev
libtensorflow_framework.so:_ZN10tensorflow16RecvBufRespExtraD1Ev
libtensorflow_framework.so:_ZN10tensorflow16RecvBufRespExtraD2Ev
libtensorflow_framework.so:_ZN10tensorflow16RunConfiguration10SharedCtorEv
libtensorflow_framework.so:_ZN10tensorflow16RunConfiguration10SharedDtorEv
libtensorflow_framework.so:_ZN10tensorflow16RunConfiguration10descriptorEv
libtensorflow_framework.so:_ZN10tensorflow16RunConfiguration12InternalSwapEPS0_
libtensorflow_framework.so:_ZN10tensorflow16RunConfiguration15UnsafeArenaSwapEPS0_
libtensorflow_framework.so:_ZN10tensorflow16RunConfiguration16default_instanceEv
libtensorflow_framework.so:_ZN10tensorflow16RunConfiguration21InitAsDefaultInstanceEv
libtensorflow_framework.so:_ZN10tensorflow16RunConfiguration27MergePartialFromCodedStreamEPN6google8protobuf2io16CodedInputStreamE
libtensorflow_framework.so:_ZN10tensorflow16RunConfiguration4SwapEPS0_
libtensorflow_framework.so:_ZN10tensorflow16RunConfiguration5ClearEv
libtensorflow_framework.so:_ZN10tensorflow16RunConfiguration8CopyFromERKN6google8protobuf7MessageE
libtensorflow_framework.so:_ZN10tensorflow16RunConfiguration8CopyFromERKS0_
libtensorflow_framework.so:_ZN10tensorflow16RunConfiguration9ArenaDtorEPv
libtensorflow_framework.so:_ZN10tensorflow16RunConfiguration9MergeFromERKN6google8protobuf7MessageE
libtensorflow_framework.so:_ZN10tensorflow16RunConfiguration9MergeFromERKS0_
libtensorflow_framework.so:_ZN10tensorflow16RunConfigurationC1EPN6google8protobuf5ArenaE
libtensorflow_framework.so:_ZN10tensorflow16RunConfigurationC1ERKS0_
libtensorflow_framework.so:_ZN10tensorflow16RunConfigurationC1Ev
libtensorflow_framework.so:_ZN10tensorflow16RunConfigurationC2EPN6google8protobuf5ArenaE
libtensorflow_framework.so:_ZN10tensorflow16RunConfigurationC2ERKS0_
libtensorflow_framework.so:_ZN10tensorflow16RunConfigurationC2Ev
libtensorflow_framework.so:_ZN10tensorflow16RunConfigurationD0Ev
libtensorflow_framework.so:_ZN10tensorflow16RunConfigurationD1Ev
libtensorflow_framework.so:_ZN10tensorflow16RunConfigurationD2Ev
libtensorflow_framework.so:_ZN10tensorflow16SaveSliceInfoDef10SharedCtorEv
libtensorflow_framework.so:_ZN10tensorflow16SaveSliceInfoDef10SharedDtorEv
libtensorflow_framework.so:_ZN10tensorflow16SaveSliceInfoDef10descriptorEv
libtensorflow_framework.so:_ZN10tensorflow16SaveSliceInfoDef12InternalSwapEPS0_
libtensorflow_framework.so:_ZN10tensorflow16SaveSliceInfoDef15UnsafeArenaSwapEPS0_
libtensorflow_framework.so:_ZN10tensorflow16SaveSliceInfoDef16default_instanceEv
libtensorflow_framework.so:_ZN10tensorflow16SaveSliceInfoDef21InitAsDefaultInstanceEv
libtensorflow_framework.so:_ZN10tensorflow16SaveSliceInfoDef27MergePartialFromCodedStreamEPN6google8protobuf2io16CodedInputStreamE
libtensorflow_framework.so:_ZN10tensorflow16SaveSliceInfoDef4SwapEPS0_
libtensorflow_framework.so:_ZN10tensorflow16SaveSliceInfoDef5ClearEv
libtensorflow_framework.so:_ZN10tensorflow16SaveSliceInfoDef8CopyFromERKN6google8protobuf7MessageE
libtensorflow_framework.so:_ZN10tensorflow16SaveSliceInfoDef8CopyFromERKS0_
libtensorflow_framework.so:_ZN10tensorflow16SaveSliceInfoDef9ArenaDtorEPv
libtensorflow_framework.so:_ZN10tensorflow16SaveSliceInfoDef9MergeFromERKN6google8protobuf7MessageE
libtensorflow_framework.so:_ZN10tensorflow16SaveSliceInfoDef9MergeFromERKS0_
libtensorflow_framework.so:_ZN10tensorflow16SaveSliceInfoDefC1EPN6google8protobuf5ArenaE
libtensorflow_framework.so:_ZN10tensorflow16SaveSliceInfoDefC1ERKS0_
libtensorflow_framework.so:_ZN10tensorflow16SaveSliceInfoDefC1Ev
libtensorflow_framework.so:_ZN10tensorflow16SaveSliceInfoDefC2EPN6google8protobuf5ArenaE
libtensorflow_framework.so:_ZN10tensorflow16SaveSliceInfoDefC2ERKS0_
libtensorflow_framework.so:_ZN10tensorflow16SaveSliceInfoDefC2Ev
libtensorflow_framework.so:_ZN10tensorflow16SaveSliceInfoDefD0Ev
libtensorflow_framework.so:_ZN10tensorflow16SaveSliceInfoDefD1Ev
libtensorflow_framework.so:_ZN10tensorflow16SaveSliceInfoDefD2Ev
libtensorflow_framework.so:_ZN10tensorflow16SliceDebugStringB5cxx11ERKNS_11TensorShapeEx
libtensorflow_framework.so:_ZN10tensorflow16SummarizeNodeDefB5cxx11ERKNS_7NodeDefE
libtensorflow_framework.so:_ZN10tensorflow16SymbolicGradientERKNS_12FunctionBodyE
libtensorflow_framework.so:_ZN10tensorflow16TensorConnection10SharedCtorEv
libtensorflow_framework.so:_ZN10tensorflow16TensorConnection10SharedDtorEv
libtensorflow_framework.so:_ZN10tensorflow16TensorConnection10descriptorEv
libtensorflow_framework.so:_ZN10tensorflow16TensorConnection12InternalSwapEPS0_
libtensorflow_framework.so:_ZN10tensorflow16TensorConnection15UnsafeArenaSwapEPS0_
libtensorflow_framework.so:_ZN10tensorflow16TensorConnection16default_instanceEv
libtensorflow_framework.so:_ZN10tensorflow16TensorConnection21InitAsDefaultInstanceEv
libtensorflow_framework.so:_ZN10tensorflow16TensorConnection27MergePartialFromCodedStreamEPN6google8protobuf2io16CodedInputStreamE
libtensorflow_framework.so:_ZN10tensorflow16TensorConnection4SwapEPS0_
libtensorflow_framework.so:_ZN10tensorflow16TensorConnection5ClearEv
libtensorflow_framework.so:_ZN10tensorflow16TensorConnection8CopyFromERKN6google8protobuf7MessageE
libtensorflow_framework.so:_ZN10tensorflow16TensorConnection8CopyFromERKS0_
libtensorflow_framework.so:_ZN10tensorflow16TensorConnection9ArenaDtorEPv
libtensorflow_framework.so:_ZN10tensorflow16TensorConnection9MergeFromERKN6google8protobuf7MessageE
libtensorflow_framework.so:_ZN10tensorflow16TensorConnection9MergeFromERKS0_
libtensorflow_framework.so:_ZN10tensorflow16TensorConnectionC1EPN6google8protobuf5ArenaE
libtensorflow_framework.so:_ZN10tensorflow16TensorConnectionC1ERKS0_
libtensorflow_framework.so:_ZN10tensorflow16TensorConnectionC1Ev
libtensorflow_framework.so:_ZN10tensorflow16TensorConnectionC2EPN6google8protobuf5ArenaE
libtensorflow_framework.so:_ZN10tensorflow16TensorConnectionC2ERKS0_
libtensorflow_framework.so:_ZN10tensorflow16TensorConnectionC2Ev
libtensorflow_framework.so:_ZN10tensorflow16TensorConnectionD0Ev
libtensorflow_framework.so:_ZN10tensorflow16TensorConnectionD1Ev
libtensorflow_framework.so:_ZN10tensorflow16TensorConnectionD2Ev
libtensorflow_framework.so:_ZN10tensorflow16TensorShapeProto10SharedCtorEv
libtensorflow_framework.so:_ZN10tensorflow16TensorShapeProto10SharedDtorEv
libtensorflow_framework.so:_ZN10tensorflow16TensorShapeProto10descriptorEv
libtensorflow_framework.so:_ZN10tensorflow16TensorShapeProto12InternalSwapEPS0_
libtensorflow_framework.so:_ZN10tensorflow16TensorShapeProto15UnsafeArenaSwapEPS0_
libtensorflow_framework.so:_ZN10tensorflow16TensorShapeProto16default_instanceEv
libtensorflow_framework.so:_ZN10tensorflow16TensorShapeProto21InitAsDefaultInstanceEv
libtensorflow_framework.so:_ZN10tensorflow16TensorShapeProto27MergePartialFromCodedStreamEPN6google8protobuf2io16CodedInputStreamE
libtensorflow_framework.so:_ZN10tensorflow16TensorShapeProto4SwapEPS0_
libtensorflow_framework.so:_ZN10tensorflow16TensorShapeProto5ClearEv
libtensorflow_framework.so:_ZN10tensorflow16TensorShapeProto8CopyFromERKN6google8protobuf7MessageE
libtensorflow_framework.so:_ZN10tensorflow16TensorShapeProto8CopyFromERKS0_
libtensorflow_framework.so:_ZN10tensorflow16TensorShapeProto9ArenaDtorEPv
libtensorflow_framework.so:_ZN10tensorflow16TensorShapeProto9MergeFromERKN6google8protobuf7MessageE
libtensorflow_framework.so:_ZN10tensorflow16TensorShapeProto9MergeFromERKS0_
libtensorflow_framework.so:_ZN10tensorflow16TensorShapeProtoC1EPN6google8protobuf5ArenaE
libtensorflow_framework.so:_ZN10tensorflow16TensorShapeProtoC1ERKS0_
libtensorflow_framework.so:_ZN10tensorflow16TensorShapeProtoC1Ev
libtensorflow_framework.so:_ZN10tensorflow16TensorShapeProtoC2EPN6google8protobuf5ArenaE
libtensorflow_framework.so:_ZN10tensorflow16TensorShapeProtoC2ERKS0_
libtensorflow_framework.so:_ZN10tensorflow16TensorShapeProtoC2Ev
libtensorflow_framework.so:_ZN10tensorflow16TensorShapeProtoD0Ev
libtensorflow_framework.so:_ZN10tensorflow16TensorShapeProtoD1Ev
libtensorflow_framework.so:_ZN10tensorflow16TensorShapeProtoD2Ev
libtensorflow_framework.so:_ZN10tensorflow16TensorShapeUtils10StartsWithERKNS_11TensorShapeES3_
libtensorflow_framework.so:_ZN10tensorflow16TensorShapeUtils11NumElementsENS_3gtl10ArraySliceIxEEPx
libtensorflow_framework.so:_ZN10tensorflow16TensorShapeUtils15ShapeListStringB5cxx11ERKNS_3gtl10ArraySliceINS_11TensorShapeEEE
libtensorflow_framework.so:_ZN10tensorflow16TensorShapeUtils8EndsWithERKNS_11TensorShapeES3_
libtensorflow_framework.so:_ZN10tensorflow16TensorShapeUtils9MakeShapeENS_3gtl10ArraySliceIiEEPNS_11TensorShapeE
libtensorflow_framework.so:_ZN10tensorflow16TensorShapeUtils9MakeShapeENS_3gtl10ArraySliceIiEEPNS_18PartialTensorShapeE
libtensorflow_framework.so:_ZN10tensorflow16TensorShapeUtils9MakeShapeENS_3gtl10ArraySliceIxEEPNS_11TensorShapeE
libtensorflow_framework.so:_ZN10tensorflow16TensorShapeUtils9MakeShapeENS_3gtl10ArraySliceIxEEPNS_18PartialTensorShapeE
libtensorflow_framework.so:_ZN10tensorflow16TensorShapeUtils9MakeShapeEPKixPNS_11TensorShapeE
libtensorflow_framework.so:_ZN10tensorflow16TensorShapeUtils9MakeShapeEPKixPNS_18PartialTensorShapeE
libtensorflow_framework.so:_ZN10tensorflow16TensorShapeUtils9MakeShapeEPKxxPNS_11TensorShapeE
libtensorflow_framework.so:_ZN10tensorflow16TensorShapeUtils9MakeShapeEPKxxPNS_18PartialTensorShapeE
libtensorflow_framework.so:_ZN10tensorflow16TensorSliceProto10SharedCtorEv
libtensorflow_framework.so:_ZN10tensorflow16TensorSliceProto10SharedDtorEv
libtensorflow_framework.so:_ZN10tensorflow16TensorSliceProto10descriptorEv
libtensorflow_framework.so:_ZN10tensorflow16TensorSliceProto12InternalSwapEPS0_
libtensorflow_framework.so:_ZN10tensorflow16TensorSliceProto15UnsafeArenaSwapEPS0_
libtensorflow_framework.so:_ZN10tensorflow16TensorSliceProto16default_instanceEv
libtensorflow_framework.so:_ZN10tensorflow16TensorSliceProto21InitAsDefaultInstanceEv
libtensorflow_framework.so:_ZN10tensorflow16TensorSliceProto27MergePartialFromCodedStreamEPN6google8protobuf2io16CodedInputStreamE
libtensorflow_framework.so:_ZN10tensorflow16TensorSliceProto4SwapEPS0_
libtensorflow_framework.so:_ZN10tensorflow16TensorSliceProto5ClearEv
libtensorflow_framework.so:_ZN10tensorflow16TensorSliceProto8CopyFromERKN6google8protobuf7MessageE
libtensorflow_framework.so:_ZN10tensorflow16TensorSliceProto8CopyFromERKS0_
libtensorflow_framework.so:_ZN10tensorflow16TensorSliceProto9ArenaDtorEPv
libtensorflow_framework.so:_ZN10tensorflow16TensorSliceProto9MergeFromERKN6google8protobuf7MessageE
libtensorflow_framework.so:_ZN10tensorflow16TensorSliceProto9MergeFromERKS0_
libtensorflow_framework.so:_ZN10tensorflow16TensorSliceProtoC1EPN6google8protobuf5ArenaE
libtensorflow_framework.so:_ZN10tensorflow16TensorSliceProtoC1ERKS0_
libtensorflow_framework.so:_ZN10tensorflow16TensorSliceProtoC1Ev
libtensorflow_framework.so:_ZN10tensorflow16TensorSliceProtoC2EPN6google8protobuf5ArenaE
libtensorflow_framework.so:_ZN10tensorflow16TensorSliceProtoC2ERKS0_
libtensorflow_framework.so:_ZN10tensorflow16TensorSliceProtoC2Ev
libtensorflow_framework.so:_ZN10tensorflow16TensorSliceProtoD0Ev
libtensorflow_framework.so:_ZN10tensorflow16TensorSliceProtoD1Ev
libtensorflow_framework.so:_ZN10tensorflow16TensorSliceProtoD2Ev
libtensorflow_framework.so:_ZN10tensorflow16ThreadPoolDevice12GetAllocatorENS_19AllocatorAttributesE
libtensorflow_framework.so:_ZN10tensorflow16ThreadPoolDevice18GetScopedAllocatorENS_19AllocatorAttributesEx
libtensorflow_framework.so:_ZN10tensorflow16ThreadPoolDevice19MakeTensorFromProtoERKNS_11TensorProtoENS_19AllocatorAttributesEPNS_6TensorE
libtensorflow_framework.so:_ZN10tensorflow16ThreadPoolDevice7ComputeEPNS_8OpKernelEPNS_15OpKernelContextE
libtensorflow_framework.so:_ZN10tensorflow16ThreadPoolDeviceC1ERKNS_14SessionOptionsERKNSt7__cxx1112basic_stringIcSt11char_traitsIcESaIcEEENS_3gtl7IntTypeINS_10Bytes_tag_ExEERKNS_14DeviceLocalityEPNS_9AllocatorE
libtensorflow_framework.so:_ZN10tensorflow16ThreadPoolDeviceC2ERKNS_14SessionOptionsERKNSt7__cxx1112basic_stringIcSt11char_traitsIcESaIcEEENS_3gtl7IntTypeINS_10Bytes_tag_ExEERKNS_14DeviceLocalityEPNS_9AllocatorE
libtensorflow_framework.so:_ZN10tensorflow16ThreadPoolDeviceD0Ev
libtensorflow_framework.so:_ZN10tensorflow16ThreadPoolDeviceD1Ev
libtensorflow_framework.so:_ZN10tensorflow16ThreadPoolDeviceD2Ev
libtensorflow_framework.so:_ZN10tensorflow16WriteBinaryProtoEPNS_3EnvERKNSt7__cxx1112basic_stringIcSt11char_traitsIcESaIcEEERKN6google8protobuf11MessageLiteE
libtensorflow_framework.so:_ZN10tensorflow17AllocatorRegistry12GetAllocatorEv
libtensorflow_framework.so:_ZN10tensorflow17AllocatorRegistry22GetRegisteredAllocatorERKNSt7__cxx1112basic_stringIcSt11char_traitsIcESaIcEEEi
libtensorflow_framework.so:_ZN10tensorflow17AllocatorRegistry6GlobalEv
libtensorflow_framework.so:_ZN10tensorflow17AllocatorRegistry8RegisterERKNSt7__cxx1112basic_stringIcSt11char_traitsIcESaIcEEEiPNS_9AllocatorE
libtensorflow_framework.so:_ZN10tensorflow17BasicCPUAllocator4FreeEPvm
libtensorflow_framework.so:_ZN10tensorflow17BasicCPUAllocator5AllocEmm
libtensorflow_framework.so:_ZN10tensorflow17BundleHeaderProto10SharedCtorEv
libtensorflow_framework.so:_ZN10tensorflow17BundleHeaderProto10SharedDtorEv
libtensorflow_framework.so:_ZN10tensorflow17BundleHeaderProto10descriptorEv
libtensorflow_framework.so:_ZN10tensorflow17BundleHeaderProto12InternalSwapEPS0_
libtensorflow_framework.so:_ZN10tensorflow17BundleHeaderProto13clear_versionEv
libtensorflow_framework.so:_ZN10tensorflow17BundleHeaderProto15UnsafeArenaSwapEPS0_
libtensorflow_framework.so:_ZN10tensorflow17BundleHeaderProto16default_instanceEv
libtensorflow_framework.so:_ZN10tensorflow17BundleHeaderProto21InitAsDefaultInstanceEv
libtensorflow_framework.so:_ZN10tensorflow17BundleHeaderProto27MergePartialFromCodedStreamEPN6google8protobuf2io16CodedInputStreamE
libtensorflow_framework.so:_ZN10tensorflow17BundleHeaderProto34unsafe_arena_set_allocated_versionEPNS_10VersionDefE
libtensorflow_framework.so:_ZN10tensorflow17BundleHeaderProto4SwapEPS0_
libtensorflow_framework.so:_ZN10tensorflow17BundleHeaderProto5ClearEv
libtensorflow_framework.so:_ZN10tensorflow17BundleHeaderProto8CopyFromERKN6google8protobuf7MessageE
libtensorflow_framework.so:_ZN10tensorflow17BundleHeaderProto8CopyFromERKS0_
libtensorflow_framework.so:_ZN10tensorflow17BundleHeaderProto9ArenaDtorEPv
libtensorflow_framework.so:_ZN10tensorflow17BundleHeaderProto9MergeFromERKN6google8protobuf7MessageE
libtensorflow_framework.so:_ZN10tensorflow17BundleHeaderProto9MergeFromERKS0_
libtensorflow_framework.so:_ZN10tensorflow17BundleHeaderProtoC1EPN6google8protobuf5ArenaE
libtensorflow_framework.so:_ZN10tensorflow17BundleHeaderProtoC1ERKS0_
libtensorflow_framework.so:_ZN10tensorflow17BundleHeaderProtoC1Ev
libtensorflow_framework.so:_ZN10tensorflow17BundleHeaderProtoC2EPN6google8protobuf5ArenaE
libtensorflow_framework.so:_ZN10tensorflow17BundleHeaderProtoC2ERKS0_
libtensorflow_framework.so:_ZN10tensorflow17BundleHeaderProtoC2Ev
libtensorflow_framework.so:_ZN10tensorflow17BundleHeaderProtoD0Ev
libtensorflow_framework.so:_ZN10tensorflow17BundleHeaderProtoD1Ev
libtensorflow_framework.so:_ZN10tensorflow17BundleHeaderProtoD2Ev
libtensorflow_framework.so:_ZN10tensorflow17CollectiveAdapter16AlignedChunkEltsExxx
libtensorflow_framework.so:_ZN10tensorflow17CostGraphDef_Node10SharedCtorEv
libtensorflow_framework.so:_ZN10tensorflow17CostGraphDef_Node10SharedDtorEv
libtensorflow_framework.so:_ZN10tensorflow17CostGraphDef_Node10descriptorEv
libtensorflow_framework.so:_ZN10tensorflow17CostGraphDef_Node12InternalSwapEPS0_
libtensorflow_framework.so:_ZN10tensorflow17CostGraphDef_Node15UnsafeArenaSwapEPS0_
libtensorflow_framework.so:_ZN10tensorflow17CostGraphDef_Node16default_instanceEv
libtensorflow_framework.so:_ZN10tensorflow17CostGraphDef_Node21InitAsDefaultInstanceEv
libtensorflow_framework.so:_ZN10tensorflow17CostGraphDef_Node27MergePartialFromCodedStreamEPN6google8protobuf2io16CodedInputStreamE
libtensorflow_framework.so:_ZN10tensorflow17CostGraphDef_Node4SwapEPS0_
libtensorflow_framework.so:_ZN10tensorflow17CostGraphDef_Node5ClearEv
libtensorflow_framework.so:_ZN10tensorflow17CostGraphDef_Node8CopyFromERKN6google8protobuf7MessageE
libtensorflow_framework.so:_ZN10tensorflow17CostGraphDef_Node8CopyFromERKS0_
libtensorflow_framework.so:_ZN10tensorflow17CostGraphDef_Node9ArenaDtorEPv
libtensorflow_framework.so:_ZN10tensorflow17CostGraphDef_Node9MergeFromERKN6google8protobuf7MessageE
libtensorflow_framework.so:_ZN10tensorflow17CostGraphDef_Node9MergeFromERKS0_
libtensorflow_framework.so:_ZN10tensorflow17CostGraphDef_NodeC1EPN6google8protobuf5ArenaE
libtensorflow_framework.so:_ZN10tensorflow17CostGraphDef_NodeC1ERKS0_
libtensorflow_framework.so:_ZN10tensorflow17CostGraphDef_NodeC1Ev
libtensorflow_framework.so:_ZN10tensorflow17CostGraphDef_NodeC2EPN6google8protobuf5ArenaE
libtensorflow_framework.so:_ZN10tensorflow17CostGraphDef_NodeC2ERKS0_
libtensorflow_framework.so:_ZN10tensorflow17CostGraphDef_NodeC2Ev
libtensorflow_framework.so:_ZN10tensorflow17CostGraphDef_NodeD0Ev
libtensorflow_framework.so:_ZN10tensorflow17CostGraphDef_NodeD1Ev
libtensorflow_framework.so:_ZN10tensorflow17CostGraphDef_NodeD2Ev
libtensorflow_framework.so:_ZN10tensorflow17DebugCudnnRnnAlgoEv
libtensorflow_framework.so:_ZN10tensorflow17DecodeVariantListESt10unique_ptrINS_4port17StringListDecoderESt14default_deleteIS2_EEPNS_7VariantEx
libtensorflow_framework.so:_ZN10tensorflow17EncodeVariantListEPKNS_7VariantExSt10unique_ptrINS_4port17StringListEncoderESt14default_deleteIS5_EE
libtensorflow_framework.so:_ZN10tensorflow17EnsureMemoryTypesERKNS_10DeviceTypeERKNSt7__cxx1112basic_stringIcSt11char_traitsIcESaIcEEEPNS_5GraphE
libtensorflow_framework.so:_ZN10tensorflow17EnumName_DataTypeENS_8DataTypeE
libtensorflow_framework.so:_ZN10tensorflow17FastAttrValueHashERKNS_9AttrValueE
libtensorflow_framework.so:_ZN10tensorflow17FeatureSparseCopyEmRKNSt7__cxx1112basic_stringIcSt11char_traitsIcESaIcEEERKNS_8DataTypeERKNS_7FeatureE
libtensorflow_framework.so:_ZN10tensorflow17FunctionCallFrame14ConsumeRetvalsEPSt6vectorINS_6TensorESaIS2_EE
libtensorflow_framework.so:_ZN10tensorflow17FunctionCallFrame7SetArgsENS_3gtl10ArraySliceINS_6TensorEEE
libtensorflow_framework.so:_ZN10tensorflow17FunctionCallFrame9SetRetvalEiRKNS_6TensorE
libtensorflow_framework.so:_ZN10tensorflow17FunctionCallFrameC1ENS_3gtl10ArraySliceINS_8DataTypeEEES4_
libtensorflow_framework.so:_ZN10tensorflow17FunctionCallFrameC2ENS_3gtl10ArraySliceINS_8DataTypeEEES4_
libtensorflow_framework.so:_ZN10tensorflow17FunctionCallFrameD0Ev
libtensorflow_framework.so:_ZN10tensorflow17FunctionCallFrameD1Ev
libtensorflow_framework.so:_ZN10tensorflow17FunctionCallFrameD2Ev
libtensorflow_framework.so:_ZN10tensorflow17FunctionDefHelper11FunctionRefERKNSt7__cxx1112basic_stringIcSt11char_traitsIcESaIcEEENS_3gtl10ArraySliceISt4pairIS6_NS0_16AttrValueWrapperEEEE
libtensorflow_framework.so:_ZN10tensorflow17FunctionDefHelper16AttrValueWrapper14InitFromStringENS_11StringPieceE
libtensorflow_framework.so:_ZN10tensorflow17FunctionDefHelper6CreateERKNSt7__cxx1112basic_stringIcSt11char_traitsIcESaIcEEENS_3gtl10ArraySliceIS6_EESB_SB_NSA_INS0_4NodeEEENSA_ISt4pairIS6_S6_EEE
libtensorflow_framework.so:_ZN10tensorflow17FunctionDefHelper6DefineENS_3gtl10ArraySliceINSt7__cxx1112basic_stringIcSt11char_traitsIcESaIcEEEEES9_S9_NS2_INS0_4NodeEEE
libtensorflow_framework.so:_ZN10tensorflow17FunctionDefHelper6DefineERKNSt7__cxx1112basic_stringIcSt11char_traitsIcESaIcEEENS_3gtl10ArraySliceIS6_EESB_SB_NSA_INS0_4NodeEEE
libtensorflow_framework.so:_ZN10tensorflow17FunctionDefsEqualERKNS_11FunctionDefES2_
libtensorflow_framework.so:_ZN10tensorflow17GPUDebugAllocator10ClearStatsEv
libtensorflow_framework.so:_ZN10tensorflow17GPUDebugAllocator11AllocateRawEmm
libtensorflow_framework.so:_ZN10tensorflow17GPUDebugAllocator11CheckFooterEPv
libtensorflow_framework.so:_ZN10tensorflow17GPUDebugAllocator11CheckHeaderEPv
libtensorflow_framework.so:_ZN10tensorflow17GPUDebugAllocator12AllocationIdEPKv
libtensorflow_framework.so:_ZN10tensorflow17GPUDebugAllocator13AllocatedSizeEPKv
libtensorflow_framework.so:_ZN10tensorflow17GPUDebugAllocator13DeallocateRawEPv
libtensorflow_framework.so:_ZN10tensorflow17GPUDebugAllocator13RequestedSizeEPKv
libtensorflow_framework.so:_ZN10tensorflow17GPUDebugAllocator14AddFreeVisitorESt8functionIFvPvmEE
libtensorflow_framework.so:_ZN10tensorflow17GPUDebugAllocator15AddAllocVisitorESt8functionIFvPvmEE
libtensorflow_framework.so:_ZN10tensorflow17GPUDebugAllocator21TracksAllocationSizesEv
libtensorflow_framework.so:_ZN10tensorflow17GPUDebugAllocator8GetStatsEPNS_14AllocatorStatsE
libtensorflow_framework.so:_ZN10tensorflow17GPUDebugAllocatorC1EPNS_18VisitableAllocatorENS_3gtl7IntTypeINS_14CudaGpuId_tag_EiEE
libtensorflow_framework.so:_ZN10tensorflow17GPUDebugAllocatorC2EPNS_18VisitableAllocatorENS_3gtl7IntTypeINS_14CudaGpuId_tag_EiEE
libtensorflow_framework.so:_ZN10tensorflow17GPUDebugAllocatorD0Ev
libtensorflow_framework.so:_ZN10tensorflow17GPUDebugAllocatorD1Ev
libtensorflow_framework.so:_ZN10tensorflow17GPUDebugAllocatorD2Ev
libtensorflow_framework.so:_ZN10tensorflow17GPUMachineManagerEv
libtensorflow_framework.so:_ZN10tensorflow17Get3dOutputSizeV2ERKSt5arrayIxLm3EES3_S3_S3_NS_7PaddingEPS1_S5_
libtensorflow_framework.so:_ZN10tensorflow17GetNodeAttrSimpleERKNS_9AttrSliceENS_11StringPieceEPNSt7__cxx1112basic_stringIcSt11char_traitsIcESaIcEEE
libtensorflow_framework.so:_ZN10tensorflow17GetNodeAttrSimpleERKNS_9AttrSliceENS_11StringPieceEPSt6vectorINSt7__cxx1112basic_stringIcSt11char_traitsIcESaIcEEESaISA_EE
libtensorflow_framework.so:_ZN10tensorflow17GetNodeAttrStringB5cxx11ERKNS_9AttrSliceENS_11StringPieceE
libtensorflow_framework.so:_ZN10tensorflow17GraphTransferInfo10SharedCtorEv
libtensorflow_framework.so:_ZN10tensorflow17GraphTransferInfo10SharedDtorEv
libtensorflow_framework.so:_ZN10tensorflow17GraphTransferInfo10descriptorEv
libtensorflow_framework.so:_ZN10tensorflow17GraphTransferInfo12InternalSwapEPS0_
libtensorflow_framework.so:_ZN10tensorflow17GraphTransferInfo15UnsafeArenaSwapEPS0_
libtensorflow_framework.so:_ZN10tensorflow17GraphTransferInfo16default_instanceEv
libtensorflow_framework.so:_ZN10tensorflow17GraphTransferInfo21InitAsDefaultInstanceEv
libtensorflow_framework.so:_ZN10tensorflow17GraphTransferInfo27MergePartialFromCodedStreamEPN6google8protobuf2io16CodedInputStreamE
libtensorflow_framework.so:_ZN10tensorflow17GraphTransferInfo4SwapEPS0_
libtensorflow_framework.so:_ZN10tensorflow17GraphTransferInfo5ClearEv
libtensorflow_framework.so:_ZN10tensorflow17GraphTransferInfo8CopyFromERKN6google8protobuf7MessageE
libtensorflow_framework.so:_ZN10tensorflow17GraphTransferInfo8CopyFromERKS0_
libtensorflow_framework.so:_ZN10tensorflow17GraphTransferInfo9ArenaDtorEPv
libtensorflow_framework.so:_ZN10tensorflow17GraphTransferInfo9MergeFromERKN6google8protobuf7MessageE
libtensorflow_framework.so:_ZN10tensorflow17GraphTransferInfo9MergeFromERKS0_
libtensorflow_framework.so:_ZN10tensorflow17GraphTransferInfoC1EPN6google8protobuf5ArenaE
libtensorflow_framework.so:_ZN10tensorflow17GraphTransferInfoC1ERKS0_
libtensorflow_framework.so:_ZN10tensorflow17GraphTransferInfoC1Ev
libtensorflow_framework.so:_ZN10tensorflow17GraphTransferInfoC2EPN6google8protobuf5ArenaE
libtensorflow_framework.so:_ZN10tensorflow17GraphTransferInfoC2ERKS0_
libtensorflow_framework.so:_ZN10tensorflow17GraphTransferInfoC2Ev
libtensorflow_framework.so:_ZN10tensorflow17GraphTransferInfoD0Ev
libtensorflow_framework.so:_ZN10tensorflow17GraphTransferInfoD1Ev
libtensorflow_framework.so:_ZN10tensorflow17GraphTransferInfoD2Ev
libtensorflow_framework.so:_ZN10tensorflow17InOutTypesForNodeERKNS_7NodeDefERKNS_5OpDefEPNS_3gtl13InlinedVectorINS_8DataTypeELi4EEESA_
libtensorflow_framework.so:_ZN10tensorflow17NameRangesForNodeERKNS_4NodeERKNS_5OpDefEPNS_3gtl7FlatMapINS_11StringPieceESt4pairIiiENS_4hashIS8_vEESt8equal_toIS8_EEESG_
libtensorflow_framework.so:_ZN10tensorflow17NameRangesForNodeERKNS_7NodeDefERKNS_5OpDefEPNS_3gtl7FlatMapINS_11StringPieceESt4pairIiiENS_4hashIS8_vEESt8equal_toIS8_EEESG_
libtensorflow_framework.so:_ZN10tensorflow17OpPerformanceList10SharedCtorEv
libtensorflow_framework.so:_ZN10tensorflow17OpPerformanceList10SharedDtorEv
libtensorflow_framework.so:_ZN10tensorflow17OpPerformanceList10descriptorEv
libtensorflow_framework.so:_ZN10tensorflow17OpPerformanceList12InternalSwapEPS0_
libtensorflow_framework.so:_ZN10tensorflow17OpPerformanceList15UnsafeArenaSwapEPS0_
libtensorflow_framework.so:_ZN10tensorflow17OpPerformanceList16default_instanceEv
libtensorflow_framework.so:_ZN10tensorflow17OpPerformanceList21InitAsDefaultInstanceEv
libtensorflow_framework.so:_ZN10tensorflow17OpPerformanceList27MergePartialFromCodedStreamEPN6google8protobuf2io16CodedInputStreamE
libtensorflow_framework.so:_ZN10tensorflow17OpPerformanceList4SwapEPS0_
libtensorflow_framework.so:_ZN10tensorflow17OpPerformanceList5ClearEv
libtensorflow_framework.so:_ZN10tensorflow17OpPerformanceList8CopyFromERKN6google8protobuf7MessageE
libtensorflow_framework.so:_ZN10tensorflow17OpPerformanceList8CopyFromERKS0_
libtensorflow_framework.so:_ZN10tensorflow17OpPerformanceList9ArenaDtorEPv
libtensorflow_framework.so:_ZN10tensorflow17OpPerformanceList9MergeFromERKN6google8protobuf7MessageE
libtensorflow_framework.so:_ZN10tensorflow17OpPerformanceList9MergeFromERKS0_
libtensorflow_framework.so:_ZN10tensorflow17OpPerformanceListC1EPN6google8protobuf5ArenaE
libtensorflow_framework.so:_ZN10tensorflow17OpPerformanceListC1ERKS0_
libtensorflow_framework.so:_ZN10tensorflow17OpPerformanceListC1Ev
libtensorflow_framework.so:_ZN10tensorflow17OpPerformanceListC2EPN6google8protobuf5ArenaE
libtensorflow_framework.so:_ZN10tensorflow17OpPerformanceListC2ERKS0_
libtensorflow_framework.so:_ZN10tensorflow17OpPerformanceListC2Ev
libtensorflow_framework.so:_ZN10tensorflow17OpPerformanceListD0Ev
libtensorflow_framework.so:_ZN10tensorflow17OpPerformanceListD1Ev
libtensorflow_framework.so:_ZN10tensorflow17OpPerformanceListD2Ev
libtensorflow_framework.so:_ZN10tensorflow17OutputTypeForNodeERKNS_7NodeDefERKNS_5OpDefEiPNS_8DataTypeE
libtensorflow_framework.so:_ZN10tensorflow17ParseExampleAttrs10FinishInitEv
libtensorflow_framework.so:_ZN10tensorflow17SavedTensorSlices10SharedCtorEv
libtensorflow_framework.so:_ZN10tensorflow17SavedTensorSlices10SharedDtorEv
libtensorflow_framework.so:_ZN10tensorflow17SavedTensorSlices10descriptorEv
libtensorflow_framework.so:_ZN10tensorflow17SavedTensorSlices12InternalSwapEPS0_
libtensorflow_framework.so:_ZN10tensorflow17SavedTensorSlices15UnsafeArenaSwapEPS0_
libtensorflow_framework.so:_ZN10tensorflow17SavedTensorSlices16default_instanceEv
libtensorflow_framework.so:_ZN10tensorflow17SavedTensorSlices21InitAsDefaultInstanceEv
libtensorflow_framework.so:_ZN10tensorflow17SavedTensorSlices27MergePartialFromCodedStreamEPN6google8protobuf2io16CodedInputStreamE
libtensorflow_framework.so:_ZN10tensorflow17SavedTensorSlices31unsafe_arena_set_allocated_dataEPNS_10SavedSliceE
libtensorflow_framework.so:_ZN10tensorflow17SavedTensorSlices31unsafe_arena_set_allocated_metaEPNS_20SavedTensorSliceMetaE
libtensorflow_framework.so:_ZN10tensorflow17SavedTensorSlices4SwapEPS0_
libtensorflow_framework.so:_ZN10tensorflow17SavedTensorSlices5ClearEv
libtensorflow_framework.so:_ZN10tensorflow17SavedTensorSlices8CopyFromERKN6google8protobuf7MessageE
libtensorflow_framework.so:_ZN10tensorflow17SavedTensorSlices8CopyFromERKS0_
libtensorflow_framework.so:_ZN10tensorflow17SavedTensorSlices9ArenaDtorEPv
libtensorflow_framework.so:_ZN10tensorflow17SavedTensorSlices9MergeFromERKN6google8protobuf7MessageE
libtensorflow_framework.so:_ZN10tensorflow17SavedTensorSlices9MergeFromERKS0_
libtensorflow_framework.so:_ZN10tensorflow17SavedTensorSlicesC1EPN6google8protobuf5ArenaE
libtensorflow_framework.so:_ZN10tensorflow17SavedTensorSlicesC1ERKS0_
libtensorflow_framework.so:_ZN10tensorflow17SavedTensorSlicesC1Ev
libtensorflow_framework.so:_ZN10tensorflow17SavedTensorSlicesC2EPN6google8protobuf5ArenaE
libtensorflow_framework.so:_ZN10tensorflow17SavedTensorSlicesC2ERKS0_
libtensorflow_framework.so:_ZN10tensorflow17SavedTensorSlicesC2Ev
libtensorflow_framework.so:_ZN10tensorflow17SavedTensorSlicesD0Ev
libtensorflow_framework.so:_ZN10tensorflow17SavedTensorSlicesD1Ev
libtensorflow_framework.so:_ZN10tensorflow17SavedTensorSlicesD2Ev
libtensorflow_framework.so:_ZN10tensorflow17SummarizeGraphDefB5cxx11ERKNS_8GraphDefE
libtensorflow_framework.so:_ZN10tensorflow17TaggedRunMetadata10SharedCtorEv
libtensorflow_framework.so:_ZN10tensorflow17TaggedRunMetadata10SharedDtorEv
libtensorflow_framework.so:_ZN10tensorflow17TaggedRunMetadata10descriptorEv
libtensorflow_framework.so:_ZN10tensorflow17TaggedRunMetadata12InternalSwapEPS0_
libtensorflow_framework.so:_ZN10tensorflow17TaggedRunMetadata15UnsafeArenaSwapEPS0_
libtensorflow_framework.so:_ZN10tensorflow17TaggedRunMetadata16default_instanceEv
libtensorflow_framework.so:_ZN10tensorflow17TaggedRunMetadata21InitAsDefaultInstanceEv
libtensorflow_framework.so:_ZN10tensorflow17TaggedRunMetadata27MergePartialFromCodedStreamEPN6google8protobuf2io16CodedInputStreamE
libtensorflow_framework.so:_ZN10tensorflow17TaggedRunMetadata4SwapEPS0_
libtensorflow_framework.so:_ZN10tensorflow17TaggedRunMetadata5ClearEv
libtensorflow_framework.so:_ZN10tensorflow17TaggedRunMetadata8CopyFromERKN6google8protobuf7MessageE
libtensorflow_framework.so:_ZN10tensorflow17TaggedRunMetadata8CopyFromERKS0_
libtensorflow_framework.so:_ZN10tensorflow17TaggedRunMetadata9ArenaDtorEPv
libtensorflow_framework.so:_ZN10tensorflow17TaggedRunMetadata9MergeFromERKN6google8protobuf7MessageE
libtensorflow_framework.so:_ZN10tensorflow17TaggedRunMetadata9MergeFromERKS0_
libtensorflow_framework.so:_ZN10tensorflow17TaggedRunMetadataC1EPN6google8protobuf5ArenaE
libtensorflow_framework.so:_ZN10tensorflow17TaggedRunMetadataC1ERKS0_
libtensorflow_framework.so:_ZN10tensorflow17TaggedRunMetadataC1Ev
libtensorflow_framework.so:_ZN10tensorflow17TaggedRunMetadataC2EPN6google8protobuf5ArenaE
libtensorflow_framework.so:_ZN10tensorflow17TaggedRunMetadataC2ERKS0_
libtensorflow_framework.so:_ZN10tensorflow17TaggedRunMetadataC2Ev
libtensorflow_framework.so:_ZN10tensorflow17TaggedRunMetadataD0Ev
libtensorflow_framework.so:_ZN10tensorflow17TaggedRunMetadataD1Ev
libtensorflow_framework.so:_ZN10tensorflow17TaggedRunMetadataD2Ev
libtensorflow_framework.so:_ZN10tensorflow17TensorDescription10SharedCtorEv
libtensorflow_framework.so:_ZN10tensorflow17TensorDescription10SharedDtorEv
libtensorflow_framework.so:_ZN10tensorflow17TensorDescription10descriptorEv
libtensorflow_framework.so:_ZN10tensorflow17TensorDescription11clear_shapeEv
libtensorflow_framework.so:_ZN10tensorflow17TensorDescription12InternalSwapEPS0_
libtensorflow_framework.so:_ZN10tensorflow17TensorDescription15UnsafeArenaSwapEPS0_
libtensorflow_framework.so:_ZN10tensorflow17TensorDescription16default_instanceEv
libtensorflow_framework.so:_ZN10tensorflow17TensorDescription21InitAsDefaultInstanceEv
libtensorflow_framework.so:_ZN10tensorflow17TensorDescription27MergePartialFromCodedStreamEPN6google8protobuf2io16CodedInputStreamE
libtensorflow_framework.so:_ZN10tensorflow17TensorDescription28clear_allocation_descriptionEv
libtensorflow_framework.so:_ZN10tensorflow17TensorDescription32unsafe_arena_set_allocated_shapeEPNS_16TensorShapeProtoE
libtensorflow_framework.so:_ZN10tensorflow17TensorDescription49unsafe_arena_set_allocated_allocation_descriptionEPNS_21AllocationDescriptionE
libtensorflow_framework.so:_ZN10tensorflow17TensorDescription4SwapEPS0_
libtensorflow_framework.so:_ZN10tensorflow17TensorDescription5ClearEv
libtensorflow_framework.so:_ZN10tensorflow17TensorDescription8CopyFromERKN6google8protobuf7MessageE
libtensorflow_framework.so:_ZN10tensorflow17TensorDescription8CopyFromERKS0_
libtensorflow_framework.so:_ZN10tensorflow17TensorDescription9ArenaDtorEPv
libtensorflow_framework.so:_ZN10tensorflow17TensorDescription9MergeFromERKN6google8protobuf7MessageE
libtensorflow_framework.so:_ZN10tensorflow17TensorDescription9MergeFromERKS0_
libtensorflow_framework.so:_ZN10tensorflow17TensorDescriptionC1EPN6google8protobuf5ArenaE
libtensorflow_framework.so:_ZN10tensorflow17TensorDescriptionC1ERKS0_
libtensorflow_framework.so:_ZN10tensorflow17TensorDescriptionC1Ev
libtensorflow_framework.so:_ZN10tensorflow17TensorDescriptionC2EPN6google8protobuf5ArenaE
libtensorflow_framework.so:_ZN10tensorflow17TensorDescriptionC2ERKS0_
libtensorflow_framework.so:_ZN10tensorflow17TensorDescriptionC2Ev
libtensorflow_framework.so:_ZN10tensorflow17TensorDescriptionD0Ev
libtensorflow_framework.so:_ZN10tensorflow17TensorDescriptionD1Ev
libtensorflow_framework.so:_ZN10tensorflow17TensorDescriptionD2Ev
libtensorflow_framework.so:_ZN10tensorflow17TrackingAllocator10ClearStatsEv
libtensorflow_framework.so:_ZN10tensorflow17TrackingAllocator11AllocateRawEmmRKNS_20AllocationAttributesE
libtensorflow_framework.so:_ZN10tensorflow17TrackingAllocator12AllocationIdEPKv
libtensorflow_framework.so:_ZN10tensorflow17TrackingAllocator13AllocatedSizeEPKv
libtensorflow_framework.so:_ZN10tensorflow17TrackingAllocator13DeallocateRawEPv
libtensorflow_framework.so:_ZN10tensorflow17TrackingAllocator13RequestedSizeEPKv
libtensorflow_framework.so:_ZN10tensorflow17TrackingAllocator17GetCurrentRecordsEv
libtensorflow_framework.so:_ZN10tensorflow17TrackingAllocator18GetRecordsAndUnRefEv
libtensorflow_framework.so:_ZN10tensorflow17TrackingAllocator21TracksAllocationSizesEv
libtensorflow_framework.so:_ZN10tensorflow17TrackingAllocator5UnRefEv
libtensorflow_framework.so:_ZN10tensorflow17TrackingAllocator8GetSizesEv
libtensorflow_framework.so:_ZN10tensorflow17TrackingAllocator8GetStatsEPNS_14AllocatorStatsE
libtensorflow_framework.so:_ZN10tensorflow17TrackingAllocatorC1EPNS_9AllocatorEb
libtensorflow_framework.so:_ZN10tensorflow17TrackingAllocatorC2EPNS_9AllocatorEb
libtensorflow_framework.so:_ZN10tensorflow17ValidateAttrValueERKNS_9AttrValueERKNS_13OpDef_AttrDefE
libtensorflow_framework.so:_ZN10tensorflow17VariantDeviceCopyENS_26VariantDeviceCopyDirectionERKNS_7VariantEPS1_RKSt8functionIFNS_6StatusERKNS_6TensorEPS7_EE
libtensorflow_framework.so:_ZN10tensorflow17VariantTensorData11add_tensorsEv
libtensorflow_framework.so:_ZN10tensorflow17VariantTensorData15ParseFromStringERKNSt7__cxx1112basic_stringIcSt11char_traitsIcESaIcEEE
libtensorflow_framework.so:_ZN10tensorflow17VariantTensorData17SerializeToStringEPNSt7__cxx1112basic_stringIcSt11char_traitsIcESaIcEEE
libtensorflow_framework.so:_ZN10tensorflow17VariantTensorData9FromProtoERKNS_22VariantTensorDataProtoE
libtensorflow_framework.so:_ZN10tensorflow17VariantTensorDataC1ERKNS_22VariantTensorDataProtoE
libtensorflow_framework.so:_ZN10tensorflow17VariantTensorDataC1Ev
libtensorflow_framework.so:_ZN10tensorflow17VariantTensorDataC2ERKNS_22VariantTensorDataProtoE
libtensorflow_framework.so:_ZN10tensorflow17VariantTensorDataC2Ev
libtensorflow_framework.so:_ZN10tensorflow17VariantTensorDataD1Ev
libtensorflow_framework.so:_ZN10tensorflow17VariantTensorDataD2Ev
libtensorflow_framework.so:_ZN10tensorflow17WriteStringToFileEPNS_3EnvERKNSt7__cxx1112basic_stringIcSt11char_traitsIcESaIcEEERKNS_11StringPieceE
libtensorflow_framework.so:_ZN10tensorflow18AreAttrValuesEqualERKNS_9AttrValueES2_
libtensorflow_framework.so:_ZN10tensorflow18BuildConfiguration10SharedCtorEv
libtensorflow_framework.so:_ZN10tensorflow18BuildConfiguration10SharedDtorEv
libtensorflow_framework.so:_ZN10tensorflow18BuildConfiguration10descriptorEv
libtensorflow_framework.so:_ZN10tensorflow18BuildConfiguration12InternalSwapEPS0_
libtensorflow_framework.so:_ZN10tensorflow18BuildConfiguration15UnsafeArenaSwapEPS0_
libtensorflow_framework.so:_ZN10tensorflow18BuildConfiguration16default_instanceEv
libtensorflow_framework.so:_ZN10tensorflow18BuildConfiguration21InitAsDefaultInstanceEv
libtensorflow_framework.so:_ZN10tensorflow18BuildConfiguration27MergePartialFromCodedStreamEPN6google8protobuf2io16CodedInputStreamE
libtensorflow_framework.so:_ZN10tensorflow18BuildConfiguration4SwapEPS0_
libtensorflow_framework.so:_ZN10tensorflow18BuildConfiguration5ClearEv
libtensorflow_framework.so:_ZN10tensorflow18BuildConfiguration8CopyFromERKN6google8protobuf7MessageE
libtensorflow_framework.so:_ZN10tensorflow18BuildConfiguration8CopyFromERKS0_
libtensorflow_framework.so:_ZN10tensorflow18BuildConfiguration9ArenaDtorEPv
libtensorflow_framework.so:_ZN10tensorflow18BuildConfiguration9MergeFromERKN6google8protobuf7MessageE
libtensorflow_framework.so:_ZN10tensorflow18BuildConfiguration9MergeFromERKS0_
libtensorflow_framework.so:_ZN10tensorflow18BuildConfigurationC1EPN6google8protobuf5ArenaE
libtensorflow_framework.so:_ZN10tensorflow18BuildConfigurationC1ERKS0_
libtensorflow_framework.so:_ZN10tensorflow18BuildConfigurationC1Ev
libtensorflow_framework.so:_ZN10tensorflow18BuildConfigurationC2EPN6google8protobuf5ArenaE
libtensorflow_framework.so:_ZN10tensorflow18BuildConfigurationC2ERKS0_
libtensorflow_framework.so:_ZN10tensorflow18BuildConfigurationC2Ev
libtensorflow_framework.so:_ZN10tensorflow18BuildConfigurationD0Ev
libtensorflow_framework.so:_ZN10tensorflow18BuildConfigurationD1Ev
libtensorflow_framework.so:_ZN10tensorflow18BuildConfigurationD2Ev
libtensorflow_framework.so:_ZN10tensorflow18CheckOpDeprecationERKNS_5OpDefEi
libtensorflow_framework.so:_ZN10tensorflow18ClockCycleProfiler14DumpStatisticsERKNSt7__cxx1112basic_stringIcSt11char_traitsIcESaIcEEE
libtensorflow_framework.so:_ZN10tensorflow18CollInstanceParamsaSERKS0_
libtensorflow_framework.so:_ZN10tensorflow18CollectiveExecutor9CtxParamsEPNS_15OpKernelContextE
libtensorflow_framework.so:_ZN10tensorflow18DataTypeFromStringENS_11StringPieceEPNS_8DataTypeE
libtensorflow_framework.so:_ZN10tensorflow18DebuggedSourceFile10SharedCtorEv
libtensorflow_framework.so:_ZN10tensorflow18DebuggedSourceFile10SharedDtorEv
libtensorflow_framework.so:_ZN10tensorflow18DebuggedSourceFile10descriptorEv
libtensorflow_framework.so:_ZN10tensorflow18DebuggedSourceFile12InternalSwapEPS0_
libtensorflow_framework.so:_ZN10tensorflow18DebuggedSourceFile15UnsafeArenaSwapEPS0_
libtensorflow_framework.so:_ZN10tensorflow18DebuggedSourceFile16default_instanceEv
libtensorflow_framework.so:_ZN10tensorflow18DebuggedSourceFile21InitAsDefaultInstanceEv
libtensorflow_framework.so:_ZN10tensorflow18DebuggedSourceFile27MergePartialFromCodedStreamEPN6google8protobuf2io16CodedInputStreamE
libtensorflow_framework.so:_ZN10tensorflow18DebuggedSourceFile4SwapEPS0_
libtensorflow_framework.so:_ZN10tensorflow18DebuggedSourceFile5ClearEv
libtensorflow_framework.so:_ZN10tensorflow18DebuggedSourceFile8CopyFromERKN6google8protobuf7MessageE
libtensorflow_framework.so:_ZN10tensorflow18DebuggedSourceFile8CopyFromERKS0_
libtensorflow_framework.so:_ZN10tensorflow18DebuggedSourceFile9ArenaDtorEPv
libtensorflow_framework.so:_ZN10tensorflow18DebuggedSourceFile9MergeFromERKN6google8protobuf7MessageE
libtensorflow_framework.so:_ZN10tensorflow18DebuggedSourceFile9MergeFromERKS0_
libtensorflow_framework.so:_ZN10tensorflow18DebuggedSourceFileC1EPN6google8protobuf5ArenaE
libtensorflow_framework.so:_ZN10tensorflow18DebuggedSourceFileC1ERKS0_
libtensorflow_framework.so:_ZN10tensorflow18DebuggedSourceFileC1Ev
libtensorflow_framework.so:_ZN10tensorflow18DebuggedSourceFileC2EPN6google8protobuf5ArenaE
libtensorflow_framework.so:_ZN10tensorflow18DebuggedSourceFileC2ERKS0_
libtensorflow_framework.so:_ZN10tensorflow18DebuggedSourceFileC2Ev
libtensorflow_framework.so:_ZN10tensorflow18DebuggedSourceFileD0Ev
libtensorflow_framework.so:_ZN10tensorflow18DebuggedSourceFileD1Ev
libtensorflow_framework.so:_ZN10tensorflow18DebuggedSourceFileD2Ev
libtensorflow_framework.so:_ZN10tensorflow18DecodeUnaryVariantEPNS_7VariantE
libtensorflow_framework.so:_ZN10tensorflow18DoQuantizeTrainingEiRKNSt7__cxx1112basic_stringIcSt11char_traitsIcESaIcEEEPNS_5GraphE
libtensorflow_framework.so:_ZN10tensorflow18FileSystemCopyFileEPNS_10FileSystemERKNSt7__cxx1112basic_stringIcSt11char_traitsIcESaIcEEES1_S9_
libtensorflow_framework.so:_ZN10tensorflow18FileSystemRegistryD0Ev
libtensorflow_framework.so:_ZN10tensorflow18FileSystemRegistryD1Ev
libtensorflow_framework.so:_ZN10tensorflow18FileSystemRegistryD2Ev
libtensorflow_framework.so:_ZN10tensorflow18FunctionDefLibrary10SharedCtorEv
libtensorflow_framework.so:_ZN10tensorflow18FunctionDefLibrary10SharedDtorEv
libtensorflow_framework.so:_ZN10tensorflow18FunctionDefLibrary10descriptorEv
libtensorflow_framework.so:_ZN10tensorflow18FunctionDefLibrary12InternalSwapEPS0_
libtensorflow_framework.so:_ZN10tensorflow18FunctionDefLibrary15UnsafeArenaSwapEPS0_
libtensorflow_framework.so:_ZN10tensorflow18FunctionDefLibrary16default_instanceEv
libtensorflow_framework.so:_ZN10tensorflow18FunctionDefLibrary21InitAsDefaultInstanceEv
libtensorflow_framework.so:_ZN10tensorflow18FunctionDefLibrary27MergePartialFromCodedStreamEPN6google8protobuf2io16CodedInputStreamE
libtensorflow_framework.so:_ZN10tensorflow18FunctionDefLibrary4SwapEPS0_
libtensorflow_framework.so:_ZN10tensorflow18FunctionDefLibrary5ClearEv
libtensorflow_framework.so:_ZN10tensorflow18FunctionDefLibrary8CopyFromERKN6google8protobuf7MessageE
libtensorflow_framework.so:_ZN10tensorflow18FunctionDefLibrary8CopyFromERKS0_
libtensorflow_framework.so:_ZN10tensorflow18FunctionDefLibrary9ArenaDtorEPv
libtensorflow_framework.so:_ZN10tensorflow18FunctionDefLibrary9MergeFromERKN6google8protobuf7MessageE
libtensorflow_framework.so:_ZN10tensorflow18FunctionDefLibrary9MergeFromERKS0_
libtensorflow_framework.so:_ZN10tensorflow18FunctionDefLibraryC1EPN6google8protobuf5ArenaE
libtensorflow_framework.so:_ZN10tensorflow18FunctionDefLibraryC1ERKS0_
libtensorflow_framework.so:_ZN10tensorflow18FunctionDefLibraryC1Ev
libtensorflow_framework.so:_ZN10tensorflow18FunctionDefLibraryC2EPN6google8protobuf5ArenaE
libtensorflow_framework.so:_ZN10tensorflow18FunctionDefLibraryC2ERKS0_
libtensorflow_framework.so:_ZN10tensorflow18FunctionDefLibraryC2Ev
libtensorflow_framework.so:_ZN10tensorflow18FunctionDefLibraryD0Ev
libtensorflow_framework.so:_ZN10tensorflow18FunctionDefLibraryD1Ev
libtensorflow_framework.so:_ZN10tensorflow18FunctionDefLibraryD2Ev
libtensorflow_framework.so:_ZN10tensorflow18GraphToFunctionDefERKNS_5GraphERKNSt7__cxx1112basic_stringIcSt11char_traitsIcESaIcEEEPNS_11FunctionDefE
libtensorflow_framework.so:_ZN10tensorflow18InlineFunctionBodyERKNS_25FunctionLibraryDefinitionEPNS_5GraphEPNS_4NodeEPKNS_12FunctionBodyEb
libtensorflow_framework.so:_ZN10tensorflow18MakeResourceHandleEPNS_15OpKernelContextERKNSt7__cxx1112basic_stringIcSt11char_traitsIcESaIcEEES9_RKSt10type_index
libtensorflow_framework.so:_ZN10tensorflow18MemoryTypesForNodeEPKNS_19OpRegistryInterfaceERKNS_10DeviceTypeERKNS_7NodeDefEPNS_3gtl13InlinedVectorINS_10MemoryTypeELi4EEESD_
libtensorflow_framework.so:_ZN10tensorflow18NewLocalRendezvousEv
libtensorflow_framework.so:_ZN10tensorflow18NodeNameFullPrefixERKNS_11StringPieceE
libtensorflow_framework.so:_ZN10tensorflow18NormalDistribution10SharedCtorEv
libtensorflow_framework.so:_ZN10tensorflow18NormalDistribution10SharedDtorEv
libtensorflow_framework.so:_ZN10tensorflow18NormalDistribution10descriptorEv
libtensorflow_framework.so:_ZN10tensorflow18NormalDistribution12InternalSwapEPS0_
libtensorflow_framework.so:_ZN10tensorflow18NormalDistribution15UnsafeArenaSwapEPS0_
libtensorflow_framework.so:_ZN10tensorflow18NormalDistribution16default_instanceEv
libtensorflow_framework.so:_ZN10tensorflow18NormalDistribution21InitAsDefaultInstanceEv
libtensorflow_framework.so:_ZN10tensorflow18NormalDistribution27MergePartialFromCodedStreamEPN6google8protobuf2io16CodedInputStreamE
libtensorflow_framework.so:_ZN10tensorflow18NormalDistribution4SwapEPS0_
libtensorflow_framework.so:_ZN10tensorflow18NormalDistribution5ClearEv
libtensorflow_framework.so:_ZN10tensorflow18NormalDistribution8CopyFromERKN6google8protobuf7MessageE
libtensorflow_framework.so:_ZN10tensorflow18NormalDistribution8CopyFromERKS0_
libtensorflow_framework.so:_ZN10tensorflow18NormalDistribution9ArenaDtorEPv
libtensorflow_framework.so:_ZN10tensorflow18NormalDistribution9MergeFromERKN6google8protobuf7MessageE
libtensorflow_framework.so:_ZN10tensorflow18NormalDistribution9MergeFromERKS0_
libtensorflow_framework.so:_ZN10tensorflow18NormalDistributionC1EPN6google8protobuf5ArenaE
libtensorflow_framework.so:_ZN10tensorflow18NormalDistributionC1ERKS0_
libtensorflow_framework.so:_ZN10tensorflow18NormalDistributionC1Ev
libtensorflow_framework.so:_ZN10tensorflow18NormalDistributionC2EPN6google8protobuf5ArenaE
libtensorflow_framework.so:_ZN10tensorflow18NormalDistributionC2ERKS0_
libtensorflow_framework.so:_ZN10tensorflow18NormalDistributionC2Ev
libtensorflow_framework.so:_ZN10tensorflow18NormalDistributionD0Ev
libtensorflow_framework.so:_ZN10tensorflow18NormalDistributionD1Ev
libtensorflow_framework.so:_ZN10tensorflow18NormalDistributionD2Ev
libtensorflow_framework.so:_ZN10tensorflow18OutputTypesForNodeERKNS_7NodeDefERKNS_5OpDefEPNS_3gtl13InlinedVectorINS_8DataTypeELi4EEE
libtensorflow_framework.so:_ZN10tensorflow18ReadBoolFromEnvVarENS_11StringPieceEbPb
libtensorflow_framework.so:_ZN10tensorflow18ScopedAllocatorMgr12GetContainerEx
libtensorflow_framework.so:_ZN10tensorflow18ScopedAllocatorMgr14PopulateFieldsEiRKNS_3gtl10ArraySliceINS_11TensorShapeEEENS_8DataTypeEPSt6vectorINS_15ScopedAllocator5FieldESaISA_EE
libtensorflow_framework.so:_ZN10tensorflow18ScopedAllocatorMgr18AddScopedAllocatorERKNS_6TensorExiRKNSt7__cxx1112basic_stringIcSt11char_traitsIcESaIcEEERKNS_3gtl10ArraySliceINS_15ScopedAllocator5FieldEEEi
libtensorflow_framework.so:_ZN10tensorflow18ScopedAllocatorMgr7CleanupEx
libtensorflow_framework.so:_ZN10tensorflow18ScopedAllocatorMgrD1Ev
libtensorflow_framework.so:_ZN10tensorflow18ScopedAllocatorMgrD2Ev
libtensorflow_framework.so:_ZN10tensorflow18StepStatsCollector14BuildCostModelEPNS_16CostModelManagerERKSt13unordered_mapINSt7__cxx1112basic_stringIcSt11char_traitsIcESaIcEEEPKNS_5GraphESt4hashIS9_ESt8equal_toIS9_ESaISt4pairIKS9_SC_EEE
libtensorflow_framework.so:_ZN10tensorflow18StepStatsCollector15FinalizeAndSwapEPNS_9StepStatsE
libtensorflow_framework.so:_ZN10tensorflow18StepStatsCollector16FinalizeInternalEv
libtensorflow_framework.so:_ZN10tensorflow18StepStatsCollector31ReportAllocsOnResourceExhaustedERKNSt7__cxx1112basic_stringIcSt11char_traitsIcESaIcEEE
libtensorflow_framework.so:_ZN10tensorflow18StepStatsCollector4SaveERKNSt7__cxx1112basic_stringIcSt11char_traitsIcESaIcEEEPNS_13NodeExecStatsE
libtensorflow_framework.so:_ZN10tensorflow18StepStatsCollector4SaveERKNSt7__cxx1112basic_stringIcSt11char_traitsIcESaIcEEEPNS_20NodeExecStatsWrapperE
libtensorflow_framework.so:_ZN10tensorflow18StepStatsCollector8FinalizeEv
libtensorflow_framework.so:_ZN10tensorflow18StepStatsCollectorC1EPNS_9StepStatsE
libtensorflow_framework.so:_ZN10tensorflow18StepStatsCollectorC2EPNS_9StepStatsE
libtensorflow_framework.so:_ZN10tensorflow18SummarizeAttrValueB5cxx11ERKNS_9AttrValueE
libtensorflow_framework.so:_ZN10tensorflow18SummaryDescription10SharedCtorEv
libtensorflow_framework.so:_ZN10tensorflow18SummaryDescription10SharedDtorEv
libtensorflow_framework.so:_ZN10tensorflow18SummaryDescription10descriptorEv
libtensorflow_framework.so:_ZN10tensorflow18SummaryDescription12InternalSwapEPS0_
libtensorflow_framework.so:_ZN10tensorflow18SummaryDescription15UnsafeArenaSwapEPS0_
libtensorflow_framework.so:_ZN10tensorflow18SummaryDescription16default_instanceEv
libtensorflow_framework.so:_ZN10tensorflow18SummaryDescription21InitAsDefaultInstanceEv
libtensorflow_framework.so:_ZN10tensorflow18SummaryDescription27MergePartialFromCodedStreamEPN6google8protobuf2io16CodedInputStreamE
libtensorflow_framework.so:_ZN10tensorflow18SummaryDescription4SwapEPS0_
libtensorflow_framework.so:_ZN10tensorflow18SummaryDescription5ClearEv
libtensorflow_framework.so:_ZN10tensorflow18SummaryDescription8CopyFromERKN6google8protobuf7MessageE
libtensorflow_framework.so:_ZN10tensorflow18SummaryDescription8CopyFromERKS0_
libtensorflow_framework.so:_ZN10tensorflow18SummaryDescription9ArenaDtorEPv
libtensorflow_framework.so:_ZN10tensorflow18SummaryDescription9MergeFromERKN6google8protobuf7MessageE
libtensorflow_framework.so:_ZN10tensorflow18SummaryDescription9MergeFromERKS0_
libtensorflow_framework.so:_ZN10tensorflow18SummaryDescriptionC1EPN6google8protobuf5ArenaE
libtensorflow_framework.so:_ZN10tensorflow18SummaryDescriptionC1ERKS0_
libtensorflow_framework.so:_ZN10tensorflow18SummaryDescriptionC1Ev
libtensorflow_framework.so:_ZN10tensorflow18SummaryDescriptionC2EPN6google8protobuf5ArenaE
libtensorflow_framework.so:_ZN10tensorflow18SummaryDescriptionC2ERKS0_
libtensorflow_framework.so:_ZN10tensorflow18SummaryDescriptionC2Ev
libtensorflow_framework.so:_ZN10tensorflow18SummaryDescriptionD0Ev
libtensorflow_framework.so:_ZN10tensorflow18SummaryDescriptionD1Ev
libtensorflow_framework.so:_ZN10tensorflow18SummaryDescriptionD2Ev
libtensorflow_framework.so:_ZN10tensorflow18VarLenFeatureProto10SharedCtorEv
libtensorflow_framework.so:_ZN10tensorflow18VarLenFeatureProto10SharedDtorEv
libtensorflow_framework.so:_ZN10tensorflow18VarLenFeatureProto10descriptorEv
libtensorflow_framework.so:_ZN10tensorflow18VarLenFeatureProto12InternalSwapEPS0_
libtensorflow_framework.so:_ZN10tensorflow18VarLenFeatureProto15UnsafeArenaSwapEPS0_
libtensorflow_framework.so:_ZN10tensorflow18VarLenFeatureProto16default_instanceEv
libtensorflow_framework.so:_ZN10tensorflow18VarLenFeatureProto21InitAsDefaultInstanceEv
libtensorflow_framework.so:_ZN10tensorflow18VarLenFeatureProto27MergePartialFromCodedStreamEPN6google8protobuf2io16CodedInputStreamE
libtensorflow_framework.so:_ZN10tensorflow18VarLenFeatureProto4SwapEPS0_
libtensorflow_framework.so:_ZN10tensorflow18VarLenFeatureProto5ClearEv
libtensorflow_framework.so:_ZN10tensorflow18VarLenFeatureProto8CopyFromERKN6google8protobuf7MessageE
libtensorflow_framework.so:_ZN10tensorflow18VarLenFeatureProto8CopyFromERKS0_
libtensorflow_framework.so:_ZN10tensorflow18VarLenFeatureProto9ArenaDtorEPv
libtensorflow_framework.so:_ZN10tensorflow18VarLenFeatureProto9MergeFromERKN6google8protobuf7MessageE
libtensorflow_framework.so:_ZN10tensorflow18VarLenFeatureProto9MergeFromERKS0_
libtensorflow_framework.so:_ZN10tensorflow18VarLenFeatureProtoC1EPN6google8protobuf5ArenaE
libtensorflow_framework.so:_ZN10tensorflow18VarLenFeatureProtoC1ERKS0_
libtensorflow_framework.so:_ZN10tensorflow18VarLenFeatureProtoC1Ev
libtensorflow_framework.so:_ZN10tensorflow18VarLenFeatureProtoC2EPN6google8protobuf5ArenaE
libtensorflow_framework.so:_ZN10tensorflow18VarLenFeatureProtoC2ERKS0_
libtensorflow_framework.so:_ZN10tensorflow18VarLenFeatureProtoC2Ev
libtensorflow_framework.so:_ZN10tensorflow18VarLenFeatureProtoD0Ev
libtensorflow_framework.so:_ZN10tensorflow18VarLenFeatureProtoD1Ev
libtensorflow_framework.so:_ZN10tensorflow18VarLenFeatureProtoD2Ev
libtensorflow_framework.so:_ZN10tensorflow18condition_variable10notify_allEv
libtensorflow_framework.so:_ZN10tensorflow18condition_variable10notify_oneEv
libtensorflow_framework.so:_ZN10tensorflow18condition_variable23wait_until_system_clockERNS_10mutex_lockENSt6chrono10time_pointINS3_3_V212system_clockENS3_8durationIlSt5ratioILl1ELl1000000000EEEEEE
libtensorflow_framework.so:_ZN10tensorflow18condition_variable4waitERNS_10mutex_lockE
libtensorflow_framework.so:_ZN10tensorflow18condition_variableC1Ev
libtensorflow_framework.so:_ZN10tensorflow18condition_variableC2Ev
libtensorflow_framework.so:_ZN10tensorflow19AllocatorMemoryUsed10SharedCtorEv
libtensorflow_framework.so:_ZN10tensorflow19AllocatorMemoryUsed10SharedDtorEv
libtensorflow_framework.so:_ZN10tensorflow19AllocatorMemoryUsed10descriptorEv
libtensorflow_framework.so:_ZN10tensorflow19AllocatorMemoryUsed12InternalSwapEPS0_
libtensorflow_framework.so:_ZN10tensorflow19AllocatorMemoryUsed15UnsafeArenaSwapEPS0_
libtensorflow_framework.so:_ZN10tensorflow19AllocatorMemoryUsed16default_instanceEv
libtensorflow_framework.so:_ZN10tensorflow19AllocatorMemoryUsed21InitAsDefaultInstanceEv
libtensorflow_framework.so:_ZN10tensorflow19AllocatorMemoryUsed27MergePartialFromCodedStreamEPN6google8protobuf2io16CodedInputStreamE
libtensorflow_framework.so:_ZN10tensorflow19AllocatorMemoryUsed4SwapEPS0_
libtensorflow_framework.so:_ZN10tensorflow19AllocatorMemoryUsed5ClearEv
libtensorflow_framework.so:_ZN10tensorflow19AllocatorMemoryUsed8CopyFromERKN6google8protobuf7MessageE
libtensorflow_framework.so:_ZN10tensorflow19AllocatorMemoryUsed8CopyFromERKS0_
libtensorflow_framework.so:_ZN10tensorflow19AllocatorMemoryUsed9ArenaDtorEPv
libtensorflow_framework.so:_ZN10tensorflow19AllocatorMemoryUsed9MergeFromERKN6google8protobuf7MessageE
libtensorflow_framework.so:_ZN10tensorflow19AllocatorMemoryUsed9MergeFromERKS0_
libtensorflow_framework.so:_ZN10tensorflow19AllocatorMemoryUsedC1EPN6google8protobuf5ArenaE
libtensorflow_framework.so:_ZN10tensorflow19AllocatorMemoryUsedC1ERKS0_
libtensorflow_framework.so:_ZN10tensorflow19AllocatorMemoryUsedC1Ev
libtensorflow_framework.so:_ZN10tensorflow19AllocatorMemoryUsedC2EPN6google8protobuf5ArenaE
libtensorflow_framework.so:_ZN10tensorflow19AllocatorMemoryUsedC2ERKS0_
libtensorflow_framework.so:_ZN10tensorflow19AllocatorMemoryUsedC2Ev
libtensorflow_framework.so:_ZN10tensorflow19AllocatorMemoryUsedD0Ev
libtensorflow_framework.so:_ZN10tensorflow19AllocatorMemoryUsedD1Ev
libtensorflow_framework.so:_ZN10tensorflow19AllocatorMemoryUsedD2Ev
libtensorflow_framework.so:_ZN10tensorflow19AttrValue_ListValue10SharedCtorEv
libtensorflow_framework.so:_ZN10tensorflow19AttrValue_ListValue10SharedDtorEv
libtensorflow_framework.so:_ZN10tensorflow19AttrValue_ListValue10descriptorEv
libtensorflow_framework.so:_ZN10tensorflow19AttrValue_ListValue11clear_shapeEv
libtensorflow_framework.so:_ZN10tensorflow19AttrValue_ListValue12InternalSwapEPS0_
libtensorflow_framework.so:_ZN10tensorflow19AttrValue_ListValue12clear_tensorEv
libtensorflow_framework.so:_ZN10tensorflow19AttrValue_ListValue15UnsafeArenaSwapEPS0_
libtensorflow_framework.so:_ZN10tensorflow19AttrValue_ListValue16default_instanceEv
libtensorflow_framework.so:_ZN10tensorflow19AttrValue_ListValue21InitAsDefaultInstanceEv
libtensorflow_framework.so:_ZN10tensorflow19AttrValue_ListValue27MergePartialFromCodedStreamEPN6google8protobuf2io16CodedInputStreamE
libtensorflow_framework.so:_ZN10tensorflow19AttrValue_ListValue4SwapEPS0_
libtensorflow_framework.so:_ZN10tensorflow19AttrValue_ListValue5ClearEv
libtensorflow_framework.so:_ZN10tensorflow19AttrValue_ListValue8CopyFromERKN6google8protobuf7MessageE
libtensorflow_framework.so:_ZN10tensorflow19AttrValue_ListValue8CopyFromERKS0_
libtensorflow_framework.so:_ZN10tensorflow19AttrValue_ListValue9ArenaDtorEPv
libtensorflow_framework.so:_ZN10tensorflow19AttrValue_ListValue9MergeFromERKN6google8protobuf7MessageE
libtensorflow_framework.so:_ZN10tensorflow19AttrValue_ListValue9MergeFromERKS0_
libtensorflow_framework.so:_ZN10tensorflow19AttrValue_ListValueC1EPN6google8protobuf5ArenaE
libtensorflow_framework.so:_ZN10tensorflow19AttrValue_ListValueC1ERKS0_
libtensorflow_framework.so:_ZN10tensorflow19AttrValue_ListValueC1Ev
libtensorflow_framework.so:_ZN10tensorflow19AttrValue_ListValueC2EPN6google8protobuf5ArenaE
libtensorflow_framework.so:_ZN10tensorflow19AttrValue_ListValueC2ERKS0_
libtensorflow_framework.so:_ZN10tensorflow19AttrValue_ListValueC2Ev
libtensorflow_framework.so:_ZN10tensorflow19AttrValue_ListValueD0Ev
libtensorflow_framework.so:_ZN10tensorflow19AttrValue_ListValueD1Ev
libtensorflow_framework.so:_ZN10tensorflow19AttrValue_ListValueD2Ev
libtensorflow_framework.so:_ZN10tensorflow19AutoParallelOptions10SharedCtorEv
libtensorflow_framework.so:_ZN10tensorflow19AutoParallelOptions10SharedDtorEv
libtensorflow_framework.so:_ZN10tensorflow19AutoParallelOptions10descriptorEv
libtensorflow_framework.so:_ZN10tensorflow19AutoParallelOptions12InternalSwapEPS0_
libtensorflow_framework.so:_ZN10tensorflow19AutoParallelOptions15UnsafeArenaSwapEPS0_
libtensorflow_framework.so:_ZN10tensorflow19AutoParallelOptions16default_instanceEv
libtensorflow_framework.so:_ZN10tensorflow19AutoParallelOptions21InitAsDefaultInstanceEv
libtensorflow_framework.so:_ZN10tensorflow19AutoParallelOptions27MergePartialFromCodedStreamEPN6google8protobuf2io16CodedInputStreamE
libtensorflow_framework.so:_ZN10tensorflow19AutoParallelOptions4SwapEPS0_
libtensorflow_framework.so:_ZN10tensorflow19AutoParallelOptions5ClearEv
libtensorflow_framework.so:_ZN10tensorflow19AutoParallelOptions8CopyFromERKN6google8protobuf7MessageE
libtensorflow_framework.so:_ZN10tensorflow19AutoParallelOptions8CopyFromERKS0_
libtensorflow_framework.so:_ZN10tensorflow19AutoParallelOptions9ArenaDtorEPv
libtensorflow_framework.so:_ZN10tensorflow19AutoParallelOptions9MergeFromERKN6google8protobuf7MessageE
libtensorflow_framework.so:_ZN10tensorflow19AutoParallelOptions9MergeFromERKS0_
libtensorflow_framework.so:_ZN10tensorflow19AutoParallelOptionsC1EPN6google8protobuf5ArenaE
libtensorflow_framework.so:_ZN10tensorflow19AutoParallelOptionsC1ERKS0_
libtensorflow_framework.so:_ZN10tensorflow19AutoParallelOptionsC1Ev
libtensorflow_framework.so:_ZN10tensorflow19AutoParallelOptionsC2EPN6google8protobuf5ArenaE
libtensorflow_framework.so:_ZN10tensorflow19AutoParallelOptionsC2ERKS0_
libtensorflow_framework.so:_ZN10tensorflow19AutoParallelOptionsC2Ev
libtensorflow_framework.so:_ZN10tensorflow19AutoParallelOptionsD0Ev
libtensorflow_framework.so:_ZN10tensorflow19AutoParallelOptionsD1Ev
libtensorflow_framework.so:_ZN10tensorflow19AutoParallelOptionsD2Ev
libtensorflow_framework.so:_ZN10tensorflow19AvailableDeviceInfo10SharedCtorEv
libtensorflow_framework.so:_ZN10tensorflow19AvailableDeviceInfo10SharedDtorEv
libtensorflow_framework.so:_ZN10tensorflow19AvailableDeviceInfo10descriptorEv
libtensorflow_framework.so:_ZN10tensorflow19AvailableDeviceInfo12InternalSwapEPS0_
libtensorflow_framework.so:_ZN10tensorflow19AvailableDeviceInfo15UnsafeArenaSwapEPS0_
libtensorflow_framework.so:_ZN10tensorflow19AvailableDeviceInfo16default_instanceEv
libtensorflow_framework.so:_ZN10tensorflow19AvailableDeviceInfo21InitAsDefaultInstanceEv
libtensorflow_framework.so:_ZN10tensorflow19AvailableDeviceInfo27MergePartialFromCodedStreamEPN6google8protobuf2io16CodedInputStreamE
libtensorflow_framework.so:_ZN10tensorflow19AvailableDeviceInfo4SwapEPS0_
libtensorflow_framework.so:_ZN10tensorflow19AvailableDeviceInfo5ClearEv
libtensorflow_framework.so:_ZN10tensorflow19AvailableDeviceInfo8CopyFromERKN6google8protobuf7MessageE
libtensorflow_framework.so:_ZN10tensorflow19AvailableDeviceInfo8CopyFromERKS0_
libtensorflow_framework.so:_ZN10tensorflow19AvailableDeviceInfo9ArenaDtorEPv
libtensorflow_framework.so:_ZN10tensorflow19AvailableDeviceInfo9MergeFromERKN6google8protobuf7MessageE
libtensorflow_framework.so:_ZN10tensorflow19AvailableDeviceInfo9MergeFromERKS0_
libtensorflow_framework.so:_ZN10tensorflow19AvailableDeviceInfoC1EPN6google8protobuf5ArenaE
libtensorflow_framework.so:_ZN10tensorflow19AvailableDeviceInfoC1ERKS0_
libtensorflow_framework.so:_ZN10tensorflow19AvailableDeviceInfoC1Ev
libtensorflow_framework.so:_ZN10tensorflow19AvailableDeviceInfoC2EPN6google8protobuf5ArenaE
libtensorflow_framework.so:_ZN10tensorflow19AvailableDeviceInfoC2ERKS0_
libtensorflow_framework.so:_ZN10tensorflow19AvailableDeviceInfoC2Ev
libtensorflow_framework.so:_ZN10tensorflow19AvailableDeviceInfoD0Ev
libtensorflow_framework.so:_ZN10tensorflow19AvailableDeviceInfoD1Ev
libtensorflow_framework.so:_ZN10tensorflow19AvailableDeviceInfoD2Ev
libtensorflow_framework.so:_ZN10tensorflow19CancellationManager11StartCancelEv
libtensorflow_framework.so:_ZN10tensorflow19CancellationManager16RegisterCallbackExSt8functionIFvvEE
libtensorflow_framework.so:_ZN10tensorflow19CancellationManager18DeregisterCallbackEx
libtensorflow_framework.so:_ZN10tensorflow19CancellationManager22get_cancellation_tokenEv
libtensorflow_framework.so:_ZN10tensorflow19CancellationManagerC1Ev
libtensorflow_framework.so:_ZN10tensorflow19CancellationManagerC2Ev
libtensorflow_framework.so:_ZN10tensorflow19CancellationManagerD1Ev
libtensorflow_framework.so:_ZN10tensorflow19CancellationManagerD2Ev
libtensorflow_framework.so:_ZN10tensorflow19CudnnRnnUseAutotuneEv
libtensorflow_framework.so:_ZN10tensorflow19DataTypeSliceStringB5cxx11ENS_3gtl10ArraySliceINS_8DataTypeEEE
libtensorflow_framework.so:_ZN10tensorflow19DataType_descriptorEv
libtensorflow_framework.so:_ZN10tensorflow19DebuggedSourceFiles10SharedCtorEv
libtensorflow_framework.so:_ZN10tensorflow19DebuggedSourceFiles10SharedDtorEv
libtensorflow_framework.so:_ZN10tensorflow19DebuggedSourceFiles10descriptorEv
libtensorflow_framework.so:_ZN10tensorflow19DebuggedSourceFiles12InternalSwapEPS0_
libtensorflow_framework.so:_ZN10tensorflow19DebuggedSourceFiles15UnsafeArenaSwapEPS0_
libtensorflow_framework.so:_ZN10tensorflow19DebuggedSourceFiles16default_instanceEv
libtensorflow_framework.so:_ZN10tensorflow19DebuggedSourceFiles21InitAsDefaultInstanceEv
libtensorflow_framework.so:_ZN10tensorflow19DebuggedSourceFiles27MergePartialFromCodedStreamEPN6google8protobuf2io16CodedInputStreamE
libtensorflow_framework.so:_ZN10tensorflow19DebuggedSourceFiles4SwapEPS0_
libtensorflow_framework.so:_ZN10tensorflow19DebuggedSourceFiles5ClearEv
libtensorflow_framework.so:_ZN10tensorflow19DebuggedSourceFiles8CopyFromERKN6google8protobuf7MessageE
libtensorflow_framework.so:_ZN10tensorflow19DebuggedSourceFiles8CopyFromERKS0_
libtensorflow_framework.so:_ZN10tensorflow19DebuggedSourceFiles9ArenaDtorEPv
libtensorflow_framework.so:_ZN10tensorflow19DebuggedSourceFiles9MergeFromERKN6google8protobuf7MessageE
libtensorflow_framework.so:_ZN10tensorflow19DebuggedSourceFiles9MergeFromERKS0_
libtensorflow_framework.so:_ZN10tensorflow19DebuggedSourceFilesC1EPN6google8protobuf5ArenaE
libtensorflow_framework.so:_ZN10tensorflow19DebuggedSourceFilesC1ERKS0_
libtensorflow_framework.so:_ZN10tensorflow19DebuggedSourceFilesC1Ev
libtensorflow_framework.so:_ZN10tensorflow19DebuggedSourceFilesC2EPN6google8protobuf5ArenaE
libtensorflow_framework.so:_ZN10tensorflow19DebuggedSourceFilesC2ERKS0_
libtensorflow_framework.so:_ZN10tensorflow19DebuggedSourceFilesC2Ev
libtensorflow_framework.so:_ZN10tensorflow19DebuggedSourceFilesD0Ev
libtensorflow_framework.so:_ZN10tensorflow19DebuggedSourceFilesD1Ev
libtensorflow_framework.so:_ZN10tensorflow19DebuggedSourceFilesD2Ev
libtensorflow_framework.so:_ZN10tensorflow19DeviceResolverLocal16GetLocalityAsyncERKNSt7__cxx1112basic_stringIcSt11char_traitsIcESaIcEEES8_PNS_14DeviceLocalityERKSt8functionIFvRKNS_6StatusEEE
libtensorflow_framework.so:_ZN10tensorflow19DeviceResolverLocal24GetDeviceLocalitiesAsyncERKNS_18CollInstanceParamsEPSt6vectorINS_14DeviceLocalityESaIS5_EERKSt8functionIFvRKNS_6StatusEEE
libtensorflow_framework.so:_ZN10tensorflow19GetReversePostOrderERKNS_5GraphEPSt6vectorIPNS_4NodeESaIS5_EERKSt8functionIFbPKS4_SB_EE
libtensorflow_framework.so:_ZN10tensorflow19GpuManagedAllocator11AllocateRawEmm
libtensorflow_framework.so:_ZN10tensorflow19GpuManagedAllocator13DeallocateRawEPv
libtensorflow_framework.so:_ZN10tensorflow19GuardedPhiloxRandom17ReserveSamples128Ex
libtensorflow_framework.so:_ZN10tensorflow19GuardedPhiloxRandom4InitENS_6random5ArrayIjLi4EEENS2_IjLi2EEE
libtensorflow_framework.so:_ZN10tensorflow19GuardedPhiloxRandom4InitEPNS_20OpKernelConstructionE
libtensorflow_framework.so:_ZN10tensorflow19GuardedPhiloxRandom4InitExx
libtensorflow_framework.so:_ZN10tensorflow19InstantiateFunctionERKNS_11FunctionDefENS_9AttrSliceESt8functionIFNS_6StatusERKNSt7__cxx1112basic_stringIcSt11char_traitsIcESaIcEEEPPKNS_5OpDefEEEPNS_19InstantiationResultE
libtensorflow_framework.so:_ZN10tensorflow19IsGoogleCudaEnabledEv
libtensorflow_framework.so:_ZN10tensorflow19MemmappedFileSystem10DeleteFileERKNSt7__cxx1112basic_stringIcSt11char_traitsIcESaIcEEE
libtensorflow_framework.so:_ZN10tensorflow19MemmappedFileSystem10FileExistsERKNSt7__cxx1112basic_stringIcSt11char_traitsIcESaIcEEE
libtensorflow_framework.so:_ZN10tensorflow19MemmappedFileSystem10RenameFileERKNSt7__cxx1112basic_stringIcSt11char_traitsIcESaIcEEES8_
libtensorflow_framework.so:_ZN10tensorflow19MemmappedFileSystem11GetChildrenERKNSt7__cxx1112basic_stringIcSt11char_traitsIcESaIcEEEPSt6vectorIS6_SaIS6_EE
libtensorflow_framework.so:_ZN10tensorflow19MemmappedFileSystem11GetFileSizeERKNSt7__cxx1112basic_stringIcSt11char_traitsIcESaIcEEEPy
libtensorflow_framework.so:_ZN10tensorflow19MemmappedFileSystem15NewWritableFileERKNSt7__cxx1112basic_stringIcSt11char_traitsIcESaIcEEEPSt10unique_ptrINS_12WritableFileESt14default_deleteISA_EE
libtensorflow_framework.so:_ZN10tensorflow19MemmappedFileSystem16GetMatchingPathsERKNSt7__cxx1112basic_stringIcSt11char_traitsIcESaIcEEEPSt6vectorIS6_SaIS6_EE
libtensorflow_framework.so:_ZN10tensorflow19MemmappedFileSystem17NewAppendableFileERKNSt7__cxx1112basic_stringIcSt11char_traitsIcESaIcEEEPSt10unique_ptrINS_12WritableFileESt14default_deleteISA_EE
libtensorflow_framework.so:_ZN10tensorflow19MemmappedFileSystem18InitializeFromFileEPNS_3EnvERKNSt7__cxx1112basic_stringIcSt11char_traitsIcESaIcEEE
libtensorflow_framework.so:_ZN10tensorflow19MemmappedFileSystem19NewRandomAccessFileERKNSt7__cxx1112basic_stringIcSt11char_traitsIcESaIcEEEPSt10unique_ptrINS_16RandomAccessFileESt14default_deleteISA_EE
libtensorflow_framework.so:_ZN10tensorflow19MemmappedFileSystem26IsMemmappedPackageFilenameERKNSt7__cxx1112basic_stringIcSt11char_traitsIcESaIcEEE
libtensorflow_framework.so:_ZN10tensorflow19MemmappedFileSystem31NewReadOnlyMemoryRegionFromFileERKNSt7__cxx1112basic_stringIcSt11char_traitsIcESaIcEEEPSt10unique_ptrINS_20ReadOnlyMemoryRegionESt14default_deleteISA_EE
libtensorflow_framework.so:_ZN10tensorflow19MemmappedFileSystem36IsWellFormedMemmappedPackageFilenameERKNSt7__cxx1112basic_stringIcSt11char_traitsIcESaIcEEE
libtensorflow_framework.so:_ZN10tensorflow19MemmappedFileSystem4StatERKNSt7__cxx1112basic_stringIcSt11char_traitsIcESaIcEEEPNS_14FileStatisticsE
libtensorflow_framework.so:_ZN10tensorflow19MemmappedFileSystem9CreateDirERKNSt7__cxx1112basic_stringIcSt11char_traitsIcESaIcEEE
libtensorflow_framework.so:_ZN10tensorflow19MemmappedFileSystem9DeleteDirERKNSt7__cxx1112basic_stringIcSt11char_traitsIcESaIcEEE
libtensorflow_framework.so:_ZN10tensorflow19MemmappedFileSystemC1Ev
libtensorflow_framework.so:_ZN10tensorflow19MemmappedFileSystemC2Ev
libtensorflow_framework.so:_ZN10tensorflow19MemoryTypeForOutputERKNS_10DeviceTypeEPKNS_5GraphEPKNS_4NodeEiPNS_10MemoryTypeE
libtensorflow_framework.so:_ZN10tensorflow19OpRegistryInterfaceD0Ev
libtensorflow_framework.so:_ZN10tensorflow19OpRegistryInterfaceD1Ev
libtensorflow_framework.so:_ZN10tensorflow19OpRegistryInterfaceD2Ev
libtensorflow_framework.so:_ZN10tensorflow19ParseProtoUnlimitedEPN6google8protobuf11MessageLiteEPKvm
libtensorflow_framework.so:_ZN10tensorflow19ParseProtoUnlimitedEPN6google8protobuf11MessageLiteERKNSt7__cxx1112basic_stringIcSt11char_traitsIcESaIcEEE
libtensorflow_framework.so:_ZN10tensorflow19ReadInt64FromEnvVarENS_11StringPieceExPx
libtensorflow_framework.so:_ZN10tensorflow19RemoveIdentityNodesEPNS_5GraphE
libtensorflow_framework.so:_ZN10tensorflow19RepeatedAttrDefHashERKN6google8protobuf16RepeatedPtrFieldINS_13OpDef_AttrDefEEE
libtensorflow_framework.so:_ZN10tensorflow19RepeatedNodeDefHashERKN6google8protobuf16RepeatedPtrFieldINS_7NodeDefEEERKNS_20EqualGraphDefOptionsE
libtensorflow_framework.so:_ZN10tensorflow19ResourceHandleProto10SharedCtorEv
libtensorflow_framework.so:_ZN10tensorflow19ResourceHandleProto10SharedDtorEv
libtensorflow_framework.so:_ZN10tensorflow19ResourceHandleProto10descriptorEv
libtensorflow_framework.so:_ZN10tensorflow19ResourceHandleProto12InternalSwapEPS0_
libtensorflow_framework.so:_ZN10tensorflow19ResourceHandleProto15UnsafeArenaSwapEPS0_
libtensorflow_framework.so:_ZN10tensorflow19ResourceHandleProto16default_instanceEv
libtensorflow_framework.so:_ZN10tensorflow19ResourceHandleProto21InitAsDefaultInstanceEv
libtensorflow_framework.so:_ZN10tensorflow19ResourceHandleProto27MergePartialFromCodedStreamEPN6google8protobuf2io16CodedInputStreamE
libtensorflow_framework.so:_ZN10tensorflow19ResourceHandleProto4SwapEPS0_
libtensorflow_framework.so:_ZN10tensorflow19ResourceHandleProto5ClearEv
libtensorflow_framework.so:_ZN10tensorflow19ResourceHandleProto8CopyFromERKN6google8protobuf7MessageE
libtensorflow_framework.so:_ZN10tensorflow19ResourceHandleProto8CopyFromERKS0_
libtensorflow_framework.so:_ZN10tensorflow19ResourceHandleProto9ArenaDtorEPv
libtensorflow_framework.so:_ZN10tensorflow19ResourceHandleProto9MergeFromERKN6google8protobuf7MessageE
libtensorflow_framework.so:_ZN10tensorflow19ResourceHandleProto9MergeFromERKS0_
libtensorflow_framework.so:_ZN10tensorflow19ResourceHandleProtoC1EPN6google8protobuf5ArenaE
libtensorflow_framework.so:_ZN10tensorflow19ResourceHandleProtoC1ERKS0_
libtensorflow_framework.so:_ZN10tensorflow19ResourceHandleProtoC1Ev
libtensorflow_framework.so:_ZN10tensorflow19ResourceHandleProtoC2EPN6google8protobuf5ArenaE
libtensorflow_framework.so:_ZN10tensorflow19ResourceHandleProtoC2ERKS0_
libtensorflow_framework.so:_ZN10tensorflow19ResourceHandleProtoC2Ev
libtensorflow_framework.so:_ZN10tensorflow19ResourceHandleProtoD0Ev
libtensorflow_framework.so:_ZN10tensorflow19ResourceHandleProtoD1Ev
libtensorflow_framework.so:_ZN10tensorflow19ResourceHandleProtoD2Ev
libtensorflow_framework.so:_ZN10tensorflow19ValidateMemoryTypesERKNS_10DeviceTypeEPKNS_5GraphE
libtensorflow_framework.so:_ZN10tensorflow20AddDefaultsToNodeDefERKNS_5OpDefEPNS_7NodeDefE
libtensorflow_framework.so:_ZN10tensorflow20AddSymbolicGradientsENS_3gtl10ArraySliceINS_7NodeOutEEES3_S3_PSt6vectorIS2_SaIS2_EEPNS_5GraphE
libtensorflow_framework.so:_ZN10tensorflow20BaseGPUDeviceFactory13CreateDevicesERKNS_14SessionOptionsERKNSt7__cxx1112basic_stringIcSt11char_traitsIcESaIcEEEPSt6vectorIPNS_6DeviceESaISE_EE
libtensorflow_framework.so:_ZN10tensorflow20BaseGPUDeviceFactory15CreateGPUDeviceERKNS_14SessionOptionsERKNSt7__cxx1112basic_stringIcSt11char_traitsIcESaIcEEENS_3gtl7IntTypeINS_12TfGpuId_tag_EiEExRKNS_14DeviceLocalityEPSt6vectorIPNS_6DeviceESaISL_EE
libtensorflow_framework.so:_ZN10tensorflow20BaseGPUDeviceFactory17GetValidDeviceIdsERKSt6vectorINS_3gtl7IntTypeINS_14CudaGpuId_tag_EiEESaIS5_EEPS7_
libtensorflow_framework.so:_ZN10tensorflow20BaseGPUDeviceFactory19GetDeviceLocalitiesEiRKSt6vectorINS0_15InterconnectMapESaIS2_EEPSt13unordered_mapINS_3gtl7IntTypeINS_12TfGpuId_tag_EiEENS_14DeviceLocalityENS0_11TfGpuIdHashESt8equal_toISB_ESaISt4pairIKSB_SC_EEE
libtensorflow_framework.so:_ZN10tensorflow20BaseGPUDeviceFactory19GetInterconnectMapsERKSt6vectorINS_3gtl7IntTypeINS_14CudaGpuId_tag_EiEESaIS5_EEPN15stream_executor8PlatformEPS1_INS0_15InterconnectMapESaISD_EE
libtensorflow_framework.so:_ZN10tensorflow20BuildControlFlowInfoEPKNS_5GraphEPSt6vectorINS_15ControlFlowInfoESaIS4_EEPS3_INSt7__cxx1112basic_stringIcSt11char_traitsIcESaIcEEESaISD_EE
libtensorflow_framework.so:_ZN10tensorflow20CopyIntoSparseTensorERKNS_6TensorEixPS0_S3_
libtensorflow_framework.so:_ZN10tensorflow20CudnnConvComputeModeEv
libtensorflow_framework.so:_ZN10tensorflow20DataTypeAlwaysOnHostENS_8DataTypeE
libtensorflow_framework.so:_ZN10tensorflow20EqualRepeatedNodeDefERKN6google8protobuf16RepeatedPtrFieldINS_7NodeDefEEES6_PNSt7__cxx1112basic_stringIcSt11char_traitsIcESaIcEEERKNS_20EqualGraphDefOptionsE
libtensorflow_framework.so:_ZN10tensorflow20FeatureConfiguration10SharedCtorEv
libtensorflow_framework.so:_ZN10tensorflow20FeatureConfiguration10SharedDtorEv
libtensorflow_framework.so:_ZN10tensorflow20FeatureConfiguration10descriptorEv
libtensorflow_framework.so:_ZN10tensorflow20FeatureConfiguration12InternalSwapEPS0_
libtensorflow_framework.so:_ZN10tensorflow20FeatureConfiguration12clear_configEv
libtensorflow_framework.so:_ZN10tensorflow20FeatureConfiguration15UnsafeArenaSwapEPS0_
libtensorflow_framework.so:_ZN10tensorflow20FeatureConfiguration16default_instanceEv
libtensorflow_framework.so:_ZN10tensorflow20FeatureConfiguration21InitAsDefaultInstanceEv
libtensorflow_framework.so:_ZN10tensorflow20FeatureConfiguration27MergePartialFromCodedStreamEPN6google8protobuf2io16CodedInputStreamE
libtensorflow_framework.so:_ZN10tensorflow20FeatureConfiguration29set_allocated_var_len_featureEPNS_18VarLenFeatureProtoE
libtensorflow_framework.so:_ZN10tensorflow20FeatureConfiguration31set_allocated_fixed_len_featureEPNS_20FixedLenFeatureProtoE
libtensorflow_framework.so:_ZN10tensorflow20FeatureConfiguration4SwapEPS0_
libtensorflow_framework.so:_ZN10tensorflow20FeatureConfiguration5ClearEv
libtensorflow_framework.so:_ZN10tensorflow20FeatureConfiguration8CopyFromERKN6google8protobuf7MessageE
libtensorflow_framework.so:_ZN10tensorflow20FeatureConfiguration8CopyFromERKS0_
libtensorflow_framework.so:_ZN10tensorflow20FeatureConfiguration9ArenaDtorEPv
libtensorflow_framework.so:_ZN10tensorflow20FeatureConfiguration9MergeFromERKN6google8protobuf7MessageE
libtensorflow_framework.so:_ZN10tensorflow20FeatureConfiguration9MergeFromERKS0_
libtensorflow_framework.so:_ZN10tensorflow20FeatureConfigurationC1EPN6google8protobuf5ArenaE
libtensorflow_framework.so:_ZN10tensorflow20FeatureConfigurationC1ERKS0_
libtensorflow_framework.so:_ZN10tensorflow20FeatureConfigurationC1Ev
libtensorflow_framework.so:_ZN10tensorflow20FeatureConfigurationC2EPN6google8protobuf5ArenaE
libtensorflow_framework.so:_ZN10tensorflow20FeatureConfigurationC2ERKS0_
libtensorflow_framework.so:_ZN10tensorflow20FeatureConfigurationC2Ev
libtensorflow_framework.so:_ZN10tensorflow20FeatureConfigurationD0Ev
libtensorflow_framework.so:_ZN10tensorflow20FeatureConfigurationD1Ev
libtensorflow_framework.so:_ZN10tensorflow20FeatureConfigurationD2Ev
libtensorflow_framework.so:_ZN10tensorflow20FixedLenFeatureProto10SharedCtorEv
libtensorflow_framework.so:_ZN10tensorflow20FixedLenFeatureProto10SharedDtorEv
libtensorflow_framework.so:_ZN10tensorflow20FixedLenFeatureProto10descriptorEv
libtensorflow_framework.so:_ZN10tensorflow20FixedLenFeatureProto11clear_shapeEv
libtensorflow_framework.so:_ZN10tensorflow20FixedLenFeatureProto12InternalSwapEPS0_
libtensorflow_framework.so:_ZN10tensorflow20FixedLenFeatureProto15UnsafeArenaSwapEPS0_
libtensorflow_framework.so:_ZN10tensorflow20FixedLenFeatureProto16default_instanceEv
libtensorflow_framework.so:_ZN10tensorflow20FixedLenFeatureProto19clear_default_valueEv
libtensorflow_framework.so:_ZN10tensorflow20FixedLenFeatureProto21InitAsDefaultInstanceEv
libtensorflow_framework.so:_ZN10tensorflow20FixedLenFeatureProto27MergePartialFromCodedStreamEPN6google8protobuf2io16CodedInputStreamE
libtensorflow_framework.so:_ZN10tensorflow20FixedLenFeatureProto32unsafe_arena_set_allocated_shapeEPNS_16TensorShapeProtoE
libtensorflow_framework.so:_ZN10tensorflow20FixedLenFeatureProto40unsafe_arena_set_allocated_default_valueEPNS_11TensorProtoE
libtensorflow_framework.so:_ZN10tensorflow20FixedLenFeatureProto4SwapEPS0_
libtensorflow_framework.so:_ZN10tensorflow20FixedLenFeatureProto5ClearEv
libtensorflow_framework.so:_ZN10tensorflow20FixedLenFeatureProto8CopyFromERKN6google8protobuf7MessageE
libtensorflow_framework.so:_ZN10tensorflow20FixedLenFeatureProto8CopyFromERKS0_
libtensorflow_framework.so:_ZN10tensorflow20FixedLenFeatureProto9ArenaDtorEPv
libtensorflow_framework.so:_ZN10tensorflow20FixedLenFeatureProto9MergeFromERKN6google8protobuf7MessageE
libtensorflow_framework.so:_ZN10tensorflow20FixedLenFeatureProto9MergeFromERKS0_
libtensorflow_framework.so:_ZN10tensorflow20FixedLenFeatureProtoC1EPN6google8protobuf5ArenaE
libtensorflow_framework.so:_ZN10tensorflow20FixedLenFeatureProtoC1ERKS0_
libtensorflow_framework.so:_ZN10tensorflow20FixedLenFeatureProtoC1Ev
libtensorflow_framework.so:_ZN10tensorflow20FixedLenFeatureProtoC2EPN6google8protobuf5ArenaE
libtensorflow_framework.so:_ZN10tensorflow20FixedLenFeatureProtoC2ERKS0_
libtensorflow_framework.so:_ZN10tensorflow20FixedLenFeatureProtoC2Ev
libtensorflow_framework.so:_ZN10tensorflow20FixedLenFeatureProtoD0Ev
libtensorflow_framework.so:_ZN10tensorflow20FixedLenFeatureProtoD1Ev
libtensorflow_framework.so:_ZN10tensorflow20FixedLenFeatureProtoD2Ev
libtensorflow_framework.so:_ZN10tensorflow20GPUNanResetAllocator10ClearStatsEv
libtensorflow_framework.so:_ZN10tensorflow20GPUNanResetAllocator11AllocateRawEmm
libtensorflow_framework.so:_ZN10tensorflow20GPUNanResetAllocator13AllocatedSizeEPKv
libtensorflow_framework.so:_ZN10tensorflow20GPUNanResetAllocator13DeallocateRawEPv
libtensorflow_framework.so:_ZN10tensorflow20GPUNanResetAllocator13RequestedSizeEPKv
libtensorflow_framework.so:_ZN10tensorflow20GPUNanResetAllocator14AddFreeVisitorESt8functionIFvPvmEE
libtensorflow_framework.so:_ZN10tensorflow20GPUNanResetAllocator15AddAllocVisitorESt8functionIFvPvmEE
libtensorflow_framework.so:_ZN10tensorflow20GPUNanResetAllocator8GetStatsEPNS_14AllocatorStatsE
libtensorflow_framework.so:_ZN10tensorflow20GPUNanResetAllocatorC1EPNS_18VisitableAllocatorENS_3gtl7IntTypeINS_14CudaGpuId_tag_EiEE
libtensorflow_framework.so:_ZN10tensorflow20GPUNanResetAllocatorC2EPNS_18VisitableAllocatorENS_3gtl7IntTypeINS_14CudaGpuId_tag_EiEE
libtensorflow_framework.so:_ZN10tensorflow20GPUNanResetAllocatorD0Ev
libtensorflow_framework.so:_ZN10tensorflow20GPUNanResetAllocatorD1Ev
libtensorflow_framework.so:_ZN10tensorflow20GPUNanResetAllocatorD2Ev
libtensorflow_framework.so:_ZN10tensorflow20GetPaddingAttrStringB5cxx11Ev
libtensorflow_framework.so:_ZN10tensorflow20GetUnaryVariantShapeERKNS_6TensorEPNS_11TensorShapeE
libtensorflow_framework.so:_ZN10tensorflow20GlobalKernelRegistryEv
libtensorflow_framework.so:_ZN10tensorflow20MachineConfiguration10SharedCtorEv
libtensorflow_framework.so:_ZN10tensorflow20MachineConfiguration10SharedDtorEv
libtensorflow_framework.so:_ZN10tensorflow20MachineConfiguration10descriptorEv
libtensorflow_framework.so:_ZN10tensorflow20MachineConfiguration12InternalSwapEPS0_
libtensorflow_framework.so:_ZN10tensorflow20MachineConfiguration15UnsafeArenaSwapEPS0_
libtensorflow_framework.so:_ZN10tensorflow20MachineConfiguration16default_instanceEv
libtensorflow_framework.so:_ZN10tensorflow20MachineConfiguration17clear_device_infoEv
libtensorflow_framework.so:_ZN10tensorflow20MachineConfiguration21InitAsDefaultInstanceEv
libtensorflow_framework.so:_ZN10tensorflow20MachineConfiguration27MergePartialFromCodedStreamEPN6google8protobuf2io16CodedInputStreamE
libtensorflow_framework.so:_ZN10tensorflow20MachineConfiguration35unsafe_arena_set_allocated_cpu_infoEPNS_7CPUInfoE
libtensorflow_framework.so:_ZN10tensorflow20MachineConfiguration38unsafe_arena_set_allocated_memory_infoEPNS_10MemoryInfoE
libtensorflow_framework.so:_ZN10tensorflow20MachineConfiguration40unsafe_arena_set_allocated_platform_infoEPNS_12PlatformInfoE
libtensorflow_framework.so:_ZN10tensorflow20MachineConfiguration4SwapEPS0_
libtensorflow_framework.so:_ZN10tensorflow20MachineConfiguration5ClearEv
libtensorflow_framework.so:_ZN10tensorflow20MachineConfiguration8CopyFromERKN6google8protobuf7MessageE
libtensorflow_framework.so:_ZN10tensorflow20MachineConfiguration8CopyFromERKS0_
libtensorflow_framework.so:_ZN10tensorflow20MachineConfiguration9ArenaDtorEPv
libtensorflow_framework.so:_ZN10tensorflow20MachineConfiguration9MergeFromERKN6google8protobuf7MessageE
libtensorflow_framework.so:_ZN10tensorflow20MachineConfiguration9MergeFromERKS0_
libtensorflow_framework.so:_ZN10tensorflow20MachineConfigurationC1EPN6google8protobuf5ArenaE
libtensorflow_framework.so:_ZN10tensorflow20MachineConfigurationC1ERKS0_
libtensorflow_framework.so:_ZN10tensorflow20MachineConfigurationC1Ev
libtensorflow_framework.so:_ZN10tensorflow20MachineConfigurationC2EPN6google8protobuf5ArenaE
libtensorflow_framework.so:_ZN10tensorflow20MachineConfigurationC2ERKS0_
libtensorflow_framework.so:_ZN10tensorflow20MachineConfigurationC2Ev
libtensorflow_framework.so:_ZN10tensorflow20MachineConfigurationD0Ev
libtensorflow_framework.so:_ZN10tensorflow20MachineConfigurationD1Ev
libtensorflow_framework.so:_ZN10tensorflow20MachineConfigurationD2Ev
libtensorflow_framework.so:_ZN10tensorflow20MatmulAutotuneEnableEv
libtensorflow_framework.so:_ZN10tensorflow20NodeExecStatsWrapper13AddAllocationEPNS_9AllocatorEPNS_17TrackingAllocatorE
libtensorflow_framework.so:_ZN10tensorflow20NodeExecStatsWrapper8FinalizeEv
libtensorflow_framework.so:_ZN10tensorflow20NodeExecStatsWrapperC1EPNS_13NodeExecStatsE
libtensorflow_framework.so:_ZN10tensorflow20NodeExecStatsWrapperC1Ev
libtensorflow_framework.so:_ZN10tensorflow20NodeExecStatsWrapperC2EPNS_13NodeExecStatsE
libtensorflow_framework.so:_ZN10tensorflow20NodeExecStatsWrapperC2Ev
libtensorflow_framework.so:_ZN10tensorflow20OpKernelConstruction10CtxFailureEPKciRKNS_6StatusE
libtensorflow_framework.so:_ZN10tensorflow20OpKernelConstruction10CtxFailureERKNS_6StatusE
libtensorflow_framework.so:_ZN10tensorflow20OpKernelConstruction13allocate_tempENS_8DataTypeERKNS_11TensorShapeEPNS_6TensorE
libtensorflow_framework.so:_ZN10tensorflow20OpKernelConstruction14MatchSignatureENS_3gtl10ArraySliceINS_8DataTypeEEES4_
libtensorflow_framework.so:_ZN10tensorflow20OpKernelConstruction19allocate_persistentENS_8DataTypeERKNS_11TensorShapeEPNS_16PersistentTensorEPPNS_6TensorE
libtensorflow_framework.so:_ZN10tensorflow20OpKernelConstruction21CtxFailureWithWarningEPKciRKNS_6StatusE
libtensorflow_framework.so:_ZN10tensorflow20OpKernelConstruction21CtxFailureWithWarningERKNS_6StatusE
libtensorflow_framework.so:_ZN10tensorflow20OpKernelConstruction9SetStatusERKNS_6StatusE
libtensorflow_framework.so:_ZN10tensorflow20OpKernelConstructionC1ENS_10DeviceTypeEPNS_10DeviceBaseEPNS_9AllocatorEPKNS_7NodeDefEPKNS_5OpDefEPNS_22FunctionLibraryRuntimeERKNS_3gtl10ArraySliceINS_8DataTypeEEERKNSF_INS_10MemoryTypeEEESJ_SN_iPNS_6StatusE
libtensorflow_framework.so:_ZN10tensorflow20OpKernelConstructionC2ENS_10DeviceTypeEPNS_10DeviceBaseEPNS_9AllocatorEPKNS_7NodeDefEPKNS_5OpDefEPNS_22FunctionLibraryRuntimeERKNS_3gtl10ArraySliceINS_8DataTypeEEERKNSF_INS_10MemoryTypeEEESJ_SN_iPNS_6StatusE
libtensorflow_framework.so:_ZN10tensorflow20ProtoParseFromStringERKNSt7__cxx1112basic_stringIcSt11char_traitsIcESaIcEEEPNS_10ApiDef_ArgE
libtensorflow_framework.so:_ZN10tensorflow20ProtoParseFromStringERKNSt7__cxx1112basic_stringIcSt11char_traitsIcESaIcEEEPNS_10ClusterDefE
libtensorflow_framework.so:_ZN10tensorflow20ProtoParseFromStringERKNSt7__cxx1112basic_stringIcSt11char_traitsIcESaIcEEEPNS_10GPUOptionsE
libtensorflow_framework.so:_ZN10tensorflow20ProtoParseFromStringERKNSt7__cxx1112basic_stringIcSt11char_traitsIcESaIcEEEPNS_10KernelListE
libtensorflow_framework.so:_ZN10tensorflow20ProtoParseFromStringERKNSt7__cxx1112basic_stringIcSt11char_traitsIcESaIcEEEPNS_10LocalLinksE
libtensorflow_framework.so:_ZN10tensorflow20ProtoParseFromStringERKNSt7__cxx1112basic_stringIcSt11char_traitsIcESaIcEEEPNS_10LogMessageE
libtensorflow_framework.so:_ZN10tensorflow20ProtoParseFromStringERKNSt7__cxx1112basic_stringIcSt11char_traitsIcESaIcEEEPNS_10NodeOutputE
libtensorflow_framework.so:_ZN10tensorflow20ProtoParseFromStringERKNSt7__cxx1112basic_stringIcSt11char_traitsIcESaIcEEEPNS_10RPCOptionsE
libtensorflow_framework.so:_ZN10tensorflow20ProtoParseFromStringERKNSt7__cxx1112basic_stringIcSt11char_traitsIcESaIcEEEPNS_10RunOptionsE
libtensorflow_framework.so:_ZN10tensorflow20ProtoParseFromStringERKNSt7__cxx1112basic_stringIcSt11char_traitsIcESaIcEEEPNS_10SavedSliceE
libtensorflow_framework.so:_ZN10tensorflow20ProtoParseFromStringERKNSt7__cxx1112basic_stringIcSt11char_traitsIcESaIcEEEPNS_10SessionLogE
libtensorflow_framework.so:_ZN10tensorflow20ProtoParseFromStringERKNSt7__cxx1112basic_stringIcSt11char_traitsIcESaIcEEEPNS_10VersionDefE
libtensorflow_framework.so:_ZN10tensorflow20ProtoParseFromStringERKNSt7__cxx1112basic_stringIcSt11char_traitsIcESaIcEEEPNS_11ApiDef_AttrE
libtensorflow_framework.so:_ZN10tensorflow20ProtoParseFromStringERKNSt7__cxx1112basic_stringIcSt11char_traitsIcESaIcEEEPNS_11ConfigProtoE
libtensorflow_framework.so:_ZN10tensorflow20ProtoParseFromStringERKNSt7__cxx1112basic_stringIcSt11char_traitsIcESaIcEEEPNS_11FeatureListE
libtensorflow_framework.so:_ZN10tensorflow20ProtoParseFromStringERKNSt7__cxx1112basic_stringIcSt11char_traitsIcESaIcEEEPNS_11FunctionDefE
libtensorflow_framework.so:_ZN10tensorflow20ProtoParseFromStringERKNSt7__cxx1112basic_stringIcSt11char_traitsIcESaIcEEEPNS_11GradientDefE
libtensorflow_framework.so:_ZN10tensorflow20ProtoParseFromStringERKNSt7__cxx1112basic_stringIcSt11char_traitsIcESaIcEEEPNS_11MemoryStatsE
libtensorflow_framework.so:_ZN10tensorflow20ProtoParseFromStringERKNSt7__cxx1112basic_stringIcSt11char_traitsIcESaIcEEEPNS_11NamedDeviceE
libtensorflow_framework.so:_ZN10tensorflow20ProtoParseFromStringERKNSt7__cxx1112basic_stringIcSt11char_traitsIcESaIcEEEPNS_11RunMetadataE
libtensorflow_framework.so:_ZN10tensorflow20ProtoParseFromStringERKNSt7__cxx1112basic_stringIcSt11char_traitsIcESaIcEEEPNS_11TensorProtoE
libtensorflow_framework.so:_ZN10tensorflow20ProtoParseFromStringERKNSt7__cxx1112basic_stringIcSt11char_traitsIcESaIcEEEPNS_11VariableDefE
libtensorflow_framework.so:_ZN10tensorflow20ProtoParseFromStringERKNSt7__cxx1112basic_stringIcSt11char_traitsIcESaIcEEEPNS_12CostGraphDefE
libtensorflow_framework.so:_ZN10tensorflow20ProtoParseFromStringERKNSt7__cxx1112basic_stringIcSt11char_traitsIcESaIcEEEPNS_12DebugOptionsE
libtensorflow_framework.so:_ZN10tensorflow20ProtoParseFromStringERKNSt7__cxx1112basic_stringIcSt11char_traitsIcESaIcEEEPNS_12FeatureListsE
libtensorflow_framework.so:_ZN10tensorflow20ProtoParseFromStringERKNSt7__cxx1112basic_stringIcSt11char_traitsIcESaIcEEEPNS_12GraphOptionsE
libtensorflow_framework.so:_ZN10tensorflow20ProtoParseFromStringERKNSt7__cxx1112basic_stringIcSt11char_traitsIcESaIcEEEPNS_12NameAttrListE
libtensorflow_framework.so:_ZN10tensorflow20ProtoParseFromStringERKNSt7__cxx1112basic_stringIcSt11char_traitsIcESaIcEEEPNS_12OpDef_ArgDefE
libtensorflow_framework.so:_ZN10tensorflow20ProtoParseFromStringERKNSt7__cxx1112basic_stringIcSt11char_traitsIcESaIcEEEPNS_13MemoryLogStepE
libtensorflow_framework.so:_ZN10tensorflow20ProtoParseFromStringERKNSt7__cxx1112basic_stringIcSt11char_traitsIcESaIcEEEPNS_13NodeExecStatsE
libtensorflow_framework.so:_ZN10tensorflow20ProtoParseFromStringERKNSt7__cxx1112basic_stringIcSt11char_traitsIcESaIcEEEPNS_13OpDef_AttrDefE
libtensorflow_framework.so:_ZN10tensorflow20ProtoParseFromStringERKNSt7__cxx1112basic_stringIcSt11char_traitsIcESaIcEEEPNS_13OpDeprecationE
libtensorflow_framework.so:_ZN10tensorflow20ProtoParseFromStringERKNSt7__cxx1112basic_stringIcSt11char_traitsIcESaIcEEEPNS_13Summary_AudioE
libtensorflow_framework.so:_ZN10tensorflow20ProtoParseFromStringERKNSt7__cxx1112basic_stringIcSt11char_traitsIcESaIcEEEPNS_13Summary_ImageE
libtensorflow_framework.so:_ZN10tensorflow20ProtoParseFromStringERKNSt7__cxx1112basic_stringIcSt11char_traitsIcESaIcEEEPNS_13Summary_ValueE
libtensorflow_framework.so:_ZN10tensorflow20ProtoParseFromStringERKNSt7__cxx1112basic_stringIcSt11char_traitsIcESaIcEEEPNS_14DeviceLocalityE
libtensorflow_framework.so:_ZN10tensorflow20ProtoParseFromStringERKNSt7__cxx1112basic_stringIcSt11char_traitsIcESaIcEEEPNS_14HistogramProtoE
libtensorflow_framework.so:_ZN10tensorflow20ProtoParseFromStringERKNSt7__cxx1112basic_stringIcSt11char_traitsIcESaIcEEEPNS_14QueueRunnerDefE
libtensorflow_framework.so:_ZN10tensorflow20ProtoParseFromStringERKNSt7__cxx1112basic_stringIcSt11char_traitsIcESaIcEEEPNS_14RewriterConfigE
libtensorflow_framework.so:_ZN10tensorflow20ProtoParseFromStringERKNSt7__cxx1112basic_stringIcSt11char_traitsIcESaIcEEEPNS_14SavedSliceMetaE
libtensorflow_framework.so:_ZN10tensorflow20ProtoParseFromStringERKNSt7__cxx1112basic_stringIcSt11char_traitsIcESaIcEEEPNS_14WatchdogConfigE
libtensorflow_framework.so:_ZN10tensorflow20ProtoParseFromStringERKNSt7__cxx1112basic_stringIcSt11char_traitsIcESaIcEEEPNS_15ApiDef_EndpointE
libtensorflow_framework.so:_ZN10tensorflow20ProtoParseFromStringERKNSt7__cxx1112basic_stringIcSt11char_traitsIcESaIcEEEPNS_15CallableOptionsE
libtensorflow_framework.so:_ZN10tensorflow20ProtoParseFromStringERKNSt7__cxx1112basic_stringIcSt11char_traitsIcESaIcEEEPNS_15DeviceStepStatsE
libtensorflow_framework.so:_ZN10tensorflow20ProtoParseFromStringERKNSt7__cxx1112basic_stringIcSt11char_traitsIcESaIcEEEPNS_15ReaderBaseStateE
libtensorflow_framework.so:_ZN10tensorflow20ProtoParseFromStringERKNSt7__cxx1112basic_stringIcSt11char_traitsIcESaIcEEEPNS_15SequenceExampleE
libtensorflow_framework.so:_ZN10tensorflow20ProtoParseFromStringERKNSt7__cxx1112basic_stringIcSt11char_traitsIcESaIcEEEPNS_15SummaryMetadataE
libtensorflow_framework.so:_ZN10tensorflow20ProtoParseFromStringERKNSt7__cxx1112basic_stringIcSt11char_traitsIcESaIcEEEPNS_16AllocationRecordE
libtensorflow_framework.so:_ZN10tensorflow20ProtoParseFromStringERKNSt7__cxx1112basic_stringIcSt11char_traitsIcESaIcEEEPNS_16BundleEntryProtoE
libtensorflow_framework.so:_ZN10tensorflow20ProtoParseFromStringERKNSt7__cxx1112basic_stringIcSt11char_traitsIcESaIcEEEPNS_16DebugTensorWatchE
libtensorflow_framework.so:_ZN10tensorflow20ProtoParseFromStringERKNSt7__cxx1112basic_stringIcSt11char_traitsIcESaIcEEEPNS_16DeviceAttributesE
libtensorflow_framework.so:_ZN10tensorflow20ProtoParseFromStringERKNSt7__cxx1112basic_stringIcSt11char_traitsIcESaIcEEEPNS_16DevicePropertiesE
libtensorflow_framework.so:_ZN10tensorflow20ProtoParseFromStringERKNSt7__cxx1112basic_stringIcSt11char_traitsIcESaIcEEEPNS_16InterconnectLinkE
libtensorflow_framework.so:_ZN10tensorflow20ProtoParseFromStringERKNSt7__cxx1112basic_stringIcSt11char_traitsIcESaIcEEEPNS_16OptimizerOptionsE
libtensorflow_framework.so:_ZN10tensorflow20ProtoParseFromStringERKNSt7__cxx1112basic_stringIcSt11char_traitsIcESaIcEEEPNS_16SaveSliceInfoDefE
libtensorflow_framework.so:_ZN10tensorflow20ProtoParseFromStringERKNSt7__cxx1112basic_stringIcSt11char_traitsIcESaIcEEEPNS_16TensorConnectionE
libtensorflow_framework.so:_ZN10tensorflow20ProtoParseFromStringERKNSt7__cxx1112basic_stringIcSt11char_traitsIcESaIcEEEPNS_16TensorShapeProtoE
libtensorflow_framework.so:_ZN10tensorflow20ProtoParseFromStringERKNSt7__cxx1112basic_stringIcSt11char_traitsIcESaIcEEEPNS_16TensorSliceProtoE
libtensorflow_framework.so:_ZN10tensorflow20ProtoParseFromStringERKNSt7__cxx1112basic_stringIcSt11char_traitsIcESaIcEEEPNS_17BundleHeaderProtoE
libtensorflow_framework.so:_ZN10tensorflow20ProtoParseFromStringERKNSt7__cxx1112basic_stringIcSt11char_traitsIcESaIcEEEPNS_17CostGraphDef_NodeE
libtensorflow_framework.so:_ZN10tensorflow20ProtoParseFromStringERKNSt7__cxx1112basic_stringIcSt11char_traitsIcESaIcEEEPNS_17GraphTransferInfoE
libtensorflow_framework.so:_ZN10tensorflow20ProtoParseFromStringERKNSt7__cxx1112basic_stringIcSt11char_traitsIcESaIcEEEPNS_17SavedTensorSlicesE
libtensorflow_framework.so:_ZN10tensorflow20ProtoParseFromStringERKNSt7__cxx1112basic_stringIcSt11char_traitsIcESaIcEEEPNS_17TaggedRunMetadataE
libtensorflow_framework.so:_ZN10tensorflow20ProtoParseFromStringERKNSt7__cxx1112basic_stringIcSt11char_traitsIcESaIcEEEPNS_17TensorDescriptionE
libtensorflow_framework.so:_ZN10tensorflow20ProtoParseFromStringERKNSt7__cxx1112basic_stringIcSt11char_traitsIcESaIcEEEPNS_18DebuggedSourceFileE
libtensorflow_framework.so:_ZN10tensorflow20ProtoParseFromStringERKNSt7__cxx1112basic_stringIcSt11char_traitsIcESaIcEEEPNS_18FunctionDefLibraryE
libtensorflow_framework.so:_ZN10tensorflow20ProtoParseFromStringERKNSt7__cxx1112basic_stringIcSt11char_traitsIcESaIcEEEPNS_18SummaryDescriptionE
libtensorflow_framework.so:_ZN10tensorflow20ProtoParseFromStringERKNSt7__cxx1112basic_stringIcSt11char_traitsIcESaIcEEEPNS_19AllocatorMemoryUsedE
libtensorflow_framework.so:_ZN10tensorflow20ProtoParseFromStringERKNSt7__cxx1112basic_stringIcSt11char_traitsIcESaIcEEEPNS_19AttrValue_ListValueE
libtensorflow_framework.so:_ZN10tensorflow20ProtoParseFromStringERKNSt7__cxx1112basic_stringIcSt11char_traitsIcESaIcEEEPNS_19AutoParallelOptionsE
libtensorflow_framework.so:_ZN10tensorflow20ProtoParseFromStringERKNSt7__cxx1112basic_stringIcSt11char_traitsIcESaIcEEEPNS_19DebuggedSourceFilesE
libtensorflow_framework.so:_ZN10tensorflow20ProtoParseFromStringERKNSt7__cxx1112basic_stringIcSt11char_traitsIcESaIcEEEPNS_19ResourceHandleProtoE
libtensorflow_framework.so:_ZN10tensorflow20ProtoParseFromStringERKNSt7__cxx1112basic_stringIcSt11char_traitsIcESaIcEEEPNS_20SavedTensorSliceMetaE
libtensorflow_framework.so:_ZN10tensorflow20ProtoParseFromStringERKNSt7__cxx1112basic_stringIcSt11char_traitsIcESaIcEEEPNS_20TensorShapeProto_DimE
libtensorflow_framework.so:_ZN10tensorflow20ProtoParseFromStringERKNSt7__cxx1112basic_stringIcSt11char_traitsIcESaIcEEEPNS_21AllocationDescriptionE
libtensorflow_framework.so:_ZN10tensorflow20ProtoParseFromStringERKNSt7__cxx1112basic_stringIcSt11char_traitsIcESaIcEEEPNS_21GraphTransferNodeInfoE
libtensorflow_framework.so:_ZN10tensorflow20ProtoParseFromStringERKNSt7__cxx1112basic_stringIcSt11char_traitsIcESaIcEEEPNS_21IteratorStateMetadataE
libtensorflow_framework.so:_ZN10tensorflow20ProtoParseFromStringERKNSt7__cxx1112basic_stringIcSt11char_traitsIcESaIcEEEPNS_21MemoryLogTensorOutputE
libtensorflow_framework.so:_ZN10tensorflow20ProtoParseFromStringERKNSt7__cxx1112basic_stringIcSt11char_traitsIcESaIcEEEPNS_21ThreadPoolOptionProtoE
libtensorflow_framework.so:_ZN10tensorflow20ProtoParseFromStringERKNSt7__cxx1112basic_stringIcSt11char_traitsIcESaIcEEEPNS_22GraphTransferNodeInputE
libtensorflow_framework.so:_ZN10tensorflow20ProtoParseFromStringERKNSt7__cxx1112basic_stringIcSt11char_traitsIcESaIcEEEPNS_22MemoryLogRawAllocationE
libtensorflow_framework.so:_ZN10tensorflow20ProtoParseFromStringERKNSt7__cxx1112basic_stringIcSt11char_traitsIcESaIcEEEPNS_22ScopedAllocatorOptionsE
libtensorflow_framework.so:_ZN10tensorflow20ProtoParseFromStringERKNSt7__cxx1112basic_stringIcSt11char_traitsIcESaIcEEEPNS_22VariantTensorDataProtoE
libtensorflow_framework.so:_ZN10tensorflow20ProtoParseFromStringERKNSt7__cxx1112basic_stringIcSt11char_traitsIcESaIcEEEPNS_22WorkerHeartbeatRequestE
libtensorflow_framework.so:_ZN10tensorflow20ProtoParseFromStringERKNSt7__cxx1112basic_stringIcSt11char_traitsIcESaIcEEEPNS_23GPUOptions_ExperimentalE
libtensorflow_framework.so:_ZN10tensorflow20ProtoParseFromStringERKNSt7__cxx1112basic_stringIcSt11char_traitsIcESaIcEEEPNS_23RunOptions_ExperimentalE
libtensorflow_framework.so:_ZN10tensorflow20ProtoParseFromStringERKNSt7__cxx1112basic_stringIcSt11char_traitsIcESaIcEEEPNS_23TensorSliceProto_ExtentE
libtensorflow_framework.so:_ZN10tensorflow20ProtoParseFromStringERKNSt7__cxx1112basic_stringIcSt11char_traitsIcESaIcEEEPNS_23WorkerHeartbeatResponseE
libtensorflow_framework.so:_ZN10tensorflow20ProtoParseFromStringERKNSt7__cxx1112basic_stringIcSt11char_traitsIcESaIcEEEPNS_24ConfigProto_ExperimentalE
libtensorflow_framework.so:_ZN10tensorflow20ProtoParseFromStringERKNSt7__cxx1112basic_stringIcSt11char_traitsIcESaIcEEEPNS_24KernelDef_AttrConstraintE
libtensorflow_framework.so:_ZN10tensorflow20ProtoParseFromStringERKNSt7__cxx1112basic_stringIcSt11char_traitsIcESaIcEEEPNS_24MemoryLogRawDeallocationE
libtensorflow_framework.so:_ZN10tensorflow20ProtoParseFromStringERKNSt7__cxx1112basic_stringIcSt11char_traitsIcESaIcEEEPNS_25MemoryLogTensorAllocationE
libtensorflow_framework.so:_ZN10tensorflow20ProtoParseFromStringERKNSt7__cxx1112basic_stringIcSt11char_traitsIcESaIcEEEPNS_26GraphTransferConstNodeInfoE
libtensorflow_framework.so:_ZN10tensorflow20ProtoParseFromStringERKNSt7__cxx1112basic_stringIcSt11char_traitsIcESaIcEEEPNS_26GraphTransferNodeInputInfoE
libtensorflow_framework.so:_ZN10tensorflow20ProtoParseFromStringERKNSt7__cxx1112basic_stringIcSt11char_traitsIcESaIcEEEPNS_26SummaryMetadata_PluginDataE
libtensorflow_framework.so:_ZN10tensorflow20ProtoParseFromStringERKNSt7__cxx1112basic_stringIcSt11char_traitsIcESaIcEEEPNS_27CostGraphDef_Node_InputInfoE
libtensorflow_framework.so:_ZN10tensorflow20ProtoParseFromStringERKNSt7__cxx1112basic_stringIcSt11char_traitsIcESaIcEEEPNS_27GraphTransferNodeOutputInfoE
libtensorflow_framework.so:_ZN10tensorflow20ProtoParseFromStringERKNSt7__cxx1112basic_stringIcSt11char_traitsIcESaIcEEEPNS_27MemoryLogTensorDeallocationE
libtensorflow_framework.so:_ZN10tensorflow20ProtoParseFromStringERKNSt7__cxx1112basic_stringIcSt11char_traitsIcESaIcEEEPNS_27RemoteFusedGraphExecuteInfoE
libtensorflow_framework.so:_ZN10tensorflow20ProtoParseFromStringERKNSt7__cxx1112basic_stringIcSt11char_traitsIcESaIcEEEPNS_28CostGraphDef_Node_OutputInfoE
libtensorflow_framework.so:_ZN10tensorflow20ProtoParseFromStringERKNSt7__cxx1112basic_stringIcSt11char_traitsIcESaIcEEEPNS_28MemmappedFileSystemDirectoryE
libtensorflow_framework.so:_ZN10tensorflow20ProtoParseFromStringERKNSt7__cxx1112basic_stringIcSt11char_traitsIcESaIcEEEPNS_31GraphTransferGraphInputNodeInfoE
libtensorflow_framework.so:_ZN10tensorflow20ProtoParseFromStringERKNSt7__cxx1112basic_stringIcSt11char_traitsIcESaIcEEEPNS_32GraphTransferGraphOutputNodeInfoE
libtensorflow_framework.so:_ZN10tensorflow20ProtoParseFromStringERKNSt7__cxx1112basic_stringIcSt11char_traitsIcESaIcEEEPNS_35MemmappedFileSystemDirectoryElementE
libtensorflow_framework.so:_ZN10tensorflow20ProtoParseFromStringERKNSt7__cxx1112basic_stringIcSt11char_traitsIcESaIcEEEPNS_35RewriterConfig_CustomGraphOptimizerE
libtensorflow_framework.so:_ZN10tensorflow20ProtoParseFromStringERKNSt7__cxx1112basic_stringIcSt11char_traitsIcESaIcEEEPNS_38GPUOptions_Experimental_VirtualDevicesE
libtensorflow_framework.so:_ZN10tensorflow20ProtoParseFromStringERKNSt7__cxx1112basic_stringIcSt11char_traitsIcESaIcEEEPNS_48RemoteFusedGraphExecuteInfo_TensorShapeTypeProtoE
libtensorflow_framework.so:_ZN10tensorflow20ProtoParseFromStringERKNSt7__cxx1112basic_stringIcSt11char_traitsIcESaIcEEEPNS_5EventE
libtensorflow_framework.so:_ZN10tensorflow20ProtoParseFromStringERKNSt7__cxx1112basic_stringIcSt11char_traitsIcESaIcEEEPNS_5OpDefE
libtensorflow_framework.so:_ZN10tensorflow20ProtoParseFromStringERKNSt7__cxx1112basic_stringIcSt11char_traitsIcESaIcEEEPNS_6ApiDefE
libtensorflow_framework.so:_ZN10tensorflow20ProtoParseFromStringERKNSt7__cxx1112basic_stringIcSt11char_traitsIcESaIcEEEPNS_6JobDefE
libtensorflow_framework.so:_ZN10tensorflow20ProtoParseFromStringERKNSt7__cxx1112basic_stringIcSt11char_traitsIcESaIcEEEPNS_6OpListE
libtensorflow_framework.so:_ZN10tensorflow20ProtoParseFromStringERKNSt7__cxx1112basic_stringIcSt11char_traitsIcESaIcEEEPNS_7ApiDefsE
libtensorflow_framework.so:_ZN10tensorflow20ProtoParseFromStringERKNSt7__cxx1112basic_stringIcSt11char_traitsIcESaIcEEEPNS_7ExampleE
libtensorflow_framework.so:_ZN10tensorflow20ProtoParseFromStringERKNSt7__cxx1112basic_stringIcSt11char_traitsIcESaIcEEEPNS_7FeatureE
libtensorflow_framework.so:_ZN10tensorflow20ProtoParseFromStringERKNSt7__cxx1112basic_stringIcSt11char_traitsIcESaIcEEEPNS_7NodeDefE
libtensorflow_framework.so:_ZN10tensorflow20ProtoParseFromStringERKNSt7__cxx1112basic_stringIcSt11char_traitsIcESaIcEEEPNS_7SummaryE
libtensorflow_framework.so:_ZN10tensorflow20ProtoParseFromStringERKNSt7__cxx1112basic_stringIcSt11char_traitsIcESaIcEEEPNS_8FeaturesE
libtensorflow_framework.so:_ZN10tensorflow20ProtoParseFromStringERKNSt7__cxx1112basic_stringIcSt11char_traitsIcESaIcEEEPNS_8GraphDefE
libtensorflow_framework.so:_ZN10tensorflow20ProtoParseFromStringERKNSt7__cxx1112basic_stringIcSt11char_traitsIcESaIcEEEPNS_8SaverDefE
libtensorflow_framework.so:_ZN10tensorflow20ProtoParseFromStringERKNSt7__cxx1112basic_stringIcSt11char_traitsIcESaIcEEEPNS_9AttrValueE
libtensorflow_framework.so:_ZN10tensorflow20ProtoParseFromStringERKNSt7__cxx1112basic_stringIcSt11char_traitsIcESaIcEEEPNS_9BytesListE
libtensorflow_framework.so:_ZN10tensorflow20ProtoParseFromStringERKNSt7__cxx1112basic_stringIcSt11char_traitsIcESaIcEEEPNS_9FloatListE
libtensorflow_framework.so:_ZN10tensorflow20ProtoParseFromStringERKNSt7__cxx1112basic_stringIcSt11char_traitsIcESaIcEEEPNS_9Int64ListE
libtensorflow_framework.so:_ZN10tensorflow20ProtoParseFromStringERKNSt7__cxx1112basic_stringIcSt11char_traitsIcESaIcEEEPNS_9KernelDefE
libtensorflow_framework.so:_ZN10tensorflow20ProtoParseFromStringERKNSt7__cxx1112basic_stringIcSt11char_traitsIcESaIcEEEPNS_9StepStatsE
libtensorflow_framework.so:_ZN10tensorflow20ReadStringFromEnvVarENS_11StringPieceES0_PNSt7__cxx1112basic_stringIcSt11char_traitsIcESaIcEEE
libtensorflow_framework.so:_ZN10tensorflow20RepeatedAttrDefEqualERKN6google8protobuf16RepeatedPtrFieldINS_13OpDef_AttrDefEEES6_
libtensorflow_framework.so:_ZN10tensorflow20SanitizeThreadSuffixENSt7__cxx1112basic_stringIcSt11char_traitsIcESaIcEEE
libtensorflow_framework.so:_ZN10tensorflow20SavedTensorSliceMeta10SharedCtorEv
libtensorflow_framework.so:_ZN10tensorflow20SavedTensorSliceMeta10SharedDtorEv
libtensorflow_framework.so:_ZN10tensorflow20SavedTensorSliceMeta10descriptorEv
libtensorflow_framework.so:_ZN10tensorflow20SavedTensorSliceMeta12InternalSwapEPS0_
libtensorflow_framework.so:_ZN10tensorflow20SavedTensorSliceMeta14clear_versionsEv
libtensorflow_framework.so:_ZN10tensorflow20SavedTensorSliceMeta15UnsafeArenaSwapEPS0_
libtensorflow_framework.so:_ZN10tensorflow20SavedTensorSliceMeta16default_instanceEv
libtensorflow_framework.so:_ZN10tensorflow20SavedTensorSliceMeta21InitAsDefaultInstanceEv
libtensorflow_framework.so:_ZN10tensorflow20SavedTensorSliceMeta27MergePartialFromCodedStreamEPN6google8protobuf2io16CodedInputStreamE
libtensorflow_framework.so:_ZN10tensorflow20SavedTensorSliceMeta35unsafe_arena_set_allocated_versionsEPNS_10VersionDefE
libtensorflow_framework.so:_ZN10tensorflow20SavedTensorSliceMeta4SwapEPS0_
libtensorflow_framework.so:_ZN10tensorflow20SavedTensorSliceMeta5ClearEv
libtensorflow_framework.so:_ZN10tensorflow20SavedTensorSliceMeta8CopyFromERKN6google8protobuf7MessageE
libtensorflow_framework.so:_ZN10tensorflow20SavedTensorSliceMeta8CopyFromERKS0_
libtensorflow_framework.so:_ZN10tensorflow20SavedTensorSliceMeta9ArenaDtorEPv
libtensorflow_framework.so:_ZN10tensorflow20SavedTensorSliceMeta9MergeFromERKN6google8protobuf7MessageE
libtensorflow_framework.so:_ZN10tensorflow20SavedTensorSliceMeta9MergeFromERKS0_
libtensorflow_framework.so:_ZN10tensorflow20SavedTensorSliceMetaC1EPN6google8protobuf5ArenaE
libtensorflow_framework.so:_ZN10tensorflow20SavedTensorSliceMetaC1ERKS0_
libtensorflow_framework.so:_ZN10tensorflow20SavedTensorSliceMetaC1Ev
libtensorflow_framework.so:_ZN10tensorflow20SavedTensorSliceMetaC2EPN6google8protobuf5ArenaE
libtensorflow_framework.so:_ZN10tensorflow20SavedTensorSliceMetaC2ERKS0_
libtensorflow_framework.so:_ZN10tensorflow20SavedTensorSliceMetaC2Ev
libtensorflow_framework.so:_ZN10tensorflow20SavedTensorSliceMetaD0Ev
libtensorflow_framework.so:_ZN10tensorflow20SavedTensorSliceMetaD1Ev
libtensorflow_framework.so:_ZN10tensorflow20SavedTensorSliceMetaD2Ev
libtensorflow_framework.so:_ZN10tensorflow20TensorInfo_CooSparse10SharedCtorEv
libtensorflow_framework.so:_ZN10tensorflow20TensorInfo_CooSparse10SharedDtorEv
libtensorflow_framework.so:_ZN10tensorflow20TensorInfo_CooSparse10descriptorEv
libtensorflow_framework.so:_ZN10tensorflow20TensorInfo_CooSparse12InternalSwapEPS0_
libtensorflow_framework.so:_ZN10tensorflow20TensorInfo_CooSparse15UnsafeArenaSwapEPS0_
libtensorflow_framework.so:_ZN10tensorflow20TensorInfo_CooSparse16default_instanceEv
libtensorflow_framework.so:_ZN10tensorflow20TensorInfo_CooSparse21InitAsDefaultInstanceEv
libtensorflow_framework.so:_ZN10tensorflow20TensorInfo_CooSparse27MergePartialFromCodedStreamEPN6google8protobuf2io16CodedInputStreamE
libtensorflow_framework.so:_ZN10tensorflow20TensorInfo_CooSparse4SwapEPS0_
libtensorflow_framework.so:_ZN10tensorflow20TensorInfo_CooSparse5ClearEv
libtensorflow_framework.so:_ZN10tensorflow20TensorInfo_CooSparse8CopyFromERKN6google8protobuf7MessageE
libtensorflow_framework.so:_ZN10tensorflow20TensorInfo_CooSparse8CopyFromERKS0_
libtensorflow_framework.so:_ZN10tensorflow20TensorInfo_CooSparse9ArenaDtorEPv
libtensorflow_framework.so:_ZN10tensorflow20TensorInfo_CooSparse9MergeFromERKN6google8protobuf7MessageE
libtensorflow_framework.so:_ZN10tensorflow20TensorInfo_CooSparse9MergeFromERKS0_
libtensorflow_framework.so:_ZN10tensorflow20TensorInfo_CooSparseC1EPN6google8protobuf5ArenaE
libtensorflow_framework.so:_ZN10tensorflow20TensorInfo_CooSparseC1ERKS0_
libtensorflow_framework.so:_ZN10tensorflow20TensorInfo_CooSparseC1Ev
libtensorflow_framework.so:_ZN10tensorflow20TensorInfo_CooSparseC2EPN6google8protobuf5ArenaE
libtensorflow_framework.so:_ZN10tensorflow20TensorInfo_CooSparseC2ERKS0_
libtensorflow_framework.so:_ZN10tensorflow20TensorInfo_CooSparseC2Ev
libtensorflow_framework.so:_ZN10tensorflow20TensorInfo_CooSparseD0Ev
libtensorflow_framework.so:_ZN10tensorflow20TensorInfo_CooSparseD1Ev
libtensorflow_framework.so:_ZN10tensorflow20TensorInfo_CooSparseD2Ev
libtensorflow_framework.so:_ZN10tensorflow20TensorShapeProto_Dim10SharedCtorEv
libtensorflow_framework.so:_ZN10tensorflow20TensorShapeProto_Dim10SharedDtorEv
libtensorflow_framework.so:_ZN10tensorflow20TensorShapeProto_Dim10descriptorEv
libtensorflow_framework.so:_ZN10tensorflow20TensorShapeProto_Dim12InternalSwapEPS0_
libtensorflow_framework.so:_ZN10tensorflow20TensorShapeProto_Dim15UnsafeArenaSwapEPS0_
libtensorflow_framework.so:_ZN10tensorflow20TensorShapeProto_Dim16default_instanceEv
libtensorflow_framework.so:_ZN10tensorflow20TensorShapeProto_Dim21InitAsDefaultInstanceEv
libtensorflow_framework.so:_ZN10tensorflow20TensorShapeProto_Dim27MergePartialFromCodedStreamEPN6google8protobuf2io16CodedInputStreamE
libtensorflow_framework.so:_ZN10tensorflow20TensorShapeProto_Dim4SwapEPS0_
libtensorflow_framework.so:_ZN10tensorflow20TensorShapeProto_Dim5ClearEv
libtensorflow_framework.so:_ZN10tensorflow20TensorShapeProto_Dim8CopyFromERKN6google8protobuf7MessageE
libtensorflow_framework.so:_ZN10tensorflow20TensorShapeProto_Dim8CopyFromERKS0_
libtensorflow_framework.so:_ZN10tensorflow20TensorShapeProto_Dim9ArenaDtorEPv
libtensorflow_framework.so:_ZN10tensorflow20TensorShapeProto_Dim9MergeFromERKN6google8protobuf7MessageE
libtensorflow_framework.so:_ZN10tensorflow20TensorShapeProto_Dim9MergeFromERKS0_
libtensorflow_framework.so:_ZN10tensorflow20TensorShapeProto_DimC1EPN6google8protobuf5ArenaE
libtensorflow_framework.so:_ZN10tensorflow20TensorShapeProto_DimC1ERKS0_
libtensorflow_framework.so:_ZN10tensorflow20TensorShapeProto_DimC1Ev
libtensorflow_framework.so:_ZN10tensorflow20TensorShapeProto_DimC2EPN6google8protobuf5ArenaE
libtensorflow_framework.so:_ZN10tensorflow20TensorShapeProto_DimC2ERKS0_
libtensorflow_framework.so:_ZN10tensorflow20TensorShapeProto_DimC2Ev
libtensorflow_framework.so:_ZN10tensorflow20TensorShapeProto_DimD0Ev
libtensorflow_framework.so:_ZN10tensorflow20TensorShapeProto_DimD1Ev
libtensorflow_framework.so:_ZN10tensorflow20TensorShapeProto_DimD2Ev
libtensorflow_framework.so:_ZN10tensorflow20UnaryDatasetOpKernel11MakeDatasetEPNS_15OpKernelContextEPPNS_11DatasetBaseE
libtensorflow_framework.so:_ZN10tensorflow20WorkerHealth_IsValidEi
libtensorflow_framework.so:_ZN10tensorflow21AllocationDescription10SharedCtorEv
libtensorflow_framework.so:_ZN10tensorflow21AllocationDescription10SharedDtorEv
libtensorflow_framework.so:_ZN10tensorflow21AllocationDescription10descriptorEv
libtensorflow_framework.so:_ZN10tensorflow21AllocationDescription12InternalSwapEPS0_
libtensorflow_framework.so:_ZN10tensorflow21AllocationDescription15UnsafeArenaSwapEPS0_
libtensorflow_framework.so:_ZN10tensorflow21AllocationDescription16default_instanceEv
libtensorflow_framework.so:_ZN10tensorflow21AllocationDescription21InitAsDefaultInstanceEv
libtensorflow_framework.so:_ZN10tensorflow21AllocationDescription27MergePartialFromCodedStreamEPN6google8protobuf2io16CodedInputStreamE
libtensorflow_framework.so:_ZN10tensorflow21AllocationDescription4SwapEPS0_
libtensorflow_framework.so:_ZN10tensorflow21AllocationDescription5ClearEv
libtensorflow_framework.so:_ZN10tensorflow21AllocationDescription8CopyFromERKN6google8protobuf7MessageE
libtensorflow_framework.so:_ZN10tensorflow21AllocationDescription8CopyFromERKS0_
libtensorflow_framework.so:_ZN10tensorflow21AllocationDescription9ArenaDtorEPv
libtensorflow_framework.so:_ZN10tensorflow21AllocationDescription9MergeFromERKN6google8protobuf7MessageE
libtensorflow_framework.so:_ZN10tensorflow21AllocationDescription9MergeFromERKS0_
libtensorflow_framework.so:_ZN10tensorflow21AllocationDescriptionC1EPN6google8protobuf5ArenaE
libtensorflow_framework.so:_ZN10tensorflow21AllocationDescriptionC1ERKS0_
libtensorflow_framework.so:_ZN10tensorflow21AllocationDescriptionC1Ev
libtensorflow_framework.so:_ZN10tensorflow21AllocationDescriptionC2EPN6google8protobuf5ArenaE
libtensorflow_framework.so:_ZN10tensorflow21AllocationDescriptionC2ERKS0_
libtensorflow_framework.so:_ZN10tensorflow21AllocationDescriptionC2Ev
libtensorflow_framework.so:_ZN10tensorflow21AllocationDescriptionD0Ev
libtensorflow_framework.so:_ZN10tensorflow21AllocationDescriptionD1Ev
libtensorflow_framework.so:_ZN10tensorflow21AllocationDescriptionD2Ev
libtensorflow_framework.so:_ZN10tensorflow21BinaryDatasetOpKernel11MakeDatasetEPNS_15OpKernelContextEPPNS_11DatasetBaseE
libtensorflow_framework.so:_ZN10tensorflow21CollectionDef_AnyList10SharedCtorEv
libtensorflow_framework.so:_ZN10tensorflow21CollectionDef_AnyList10SharedDtorEv
libtensorflow_framework.so:_ZN10tensorflow21CollectionDef_AnyList10descriptorEv
libtensorflow_framework.so:_ZN10tensorflow21CollectionDef_AnyList11clear_valueEv
libtensorflow_framework.so:_ZN10tensorflow21CollectionDef_AnyList12InternalSwapEPS0_
libtensorflow_framework.so:_ZN10tensorflow21CollectionDef_AnyList15UnsafeArenaSwapEPS0_
libtensorflow_framework.so:_ZN10tensorflow21CollectionDef_AnyList16default_instanceEv
libtensorflow_framework.so:_ZN10tensorflow21CollectionDef_AnyList21InitAsDefaultInstanceEv
libtensorflow_framework.so:_ZN10tensorflow21CollectionDef_AnyList27MergePartialFromCodedStreamEPN6google8protobuf2io16CodedInputStreamE
libtensorflow_framework.so:_ZN10tensorflow21CollectionDef_AnyList4SwapEPS0_
libtensorflow_framework.so:_ZN10tensorflow21CollectionDef_AnyList5ClearEv
libtensorflow_framework.so:_ZN10tensorflow21CollectionDef_AnyList8CopyFromERKN6google8protobuf7MessageE
libtensorflow_framework.so:_ZN10tensorflow21CollectionDef_AnyList8CopyFromERKS0_
libtensorflow_framework.so:_ZN10tensorflow21CollectionDef_AnyList9ArenaDtorEPv
libtensorflow_framework.so:_ZN10tensorflow21CollectionDef_AnyList9MergeFromERKN6google8protobuf7MessageE
libtensorflow_framework.so:_ZN10tensorflow21CollectionDef_AnyList9MergeFromERKS0_
libtensorflow_framework.so:_ZN10tensorflow21CollectionDef_AnyListC1EPN6google8protobuf5ArenaE
libtensorflow_framework.so:_ZN10tensorflow21CollectionDef_AnyListC1ERKS0_
libtensorflow_framework.so:_ZN10tensorflow21CollectionDef_AnyListC1Ev
libtensorflow_framework.so:_ZN10tensorflow21CollectionDef_AnyListC2EPN6google8protobuf5ArenaE
libtensorflow_framework.so:_ZN10tensorflow21CollectionDef_AnyListC2ERKS0_
libtensorflow_framework.so:_ZN10tensorflow21CollectionDef_AnyListC2Ev
libtensorflow_framework.so:_ZN10tensorflow21CollectionDef_AnyListD0Ev
libtensorflow_framework.so:_ZN10tensorflow21CollectionDef_AnyListD1Ev
libtensorflow_framework.so:_ZN10tensorflow21CollectionDef_AnyListD2Ev
libtensorflow_framework.so:_ZN10tensorflow21CollectiveExecutorMgr12FindOrCreateEx
libtensorflow_framework.so:_ZN10tensorflow21CollectiveExecutorMgr20GetStepSequenceAsyncEPKNS_22GetStepSequenceRequestEPNS_23GetStepSequenceResponseERKSt8functionIFvRKNS_6StatusEEE
libtensorflow_framework.so:_ZN10tensorflow21CollectiveExecutorMgr26RefreshStepIdSequenceAsyncExRKSt8functionIFvRKNS_6StatusEEE
libtensorflow_framework.so:_ZN10tensorflow21CollectiveExecutorMgr6CreateEx
libtensorflow_framework.so:_ZN10tensorflow21CollectiveExecutorMgr7CleanupEx
libtensorflow_framework.so:_ZN10tensorflow21CollectiveExecutorMgrC1ERKNS_11ConfigProtoEPKNS_9DeviceMgrESt10unique_ptrINS_23DeviceResolverInterfaceESt14default_deleteIS8_EES7_INS_22ParamResolverInterfaceES9_ISC_EE
libtensorflow_framework.so:_ZN10tensorflow21CollectiveExecutorMgrC2ERKNS_11ConfigProtoEPKNS_9DeviceMgrESt10unique_ptrINS_23DeviceResolverInterfaceESt14default_deleteIS8_EES7_INS_22ParamResolverInterfaceES9_ISC_EE
libtensorflow_framework.so:_ZN10tensorflow21CollectiveExecutorMgrD0Ev
libtensorflow_framework.so:_ZN10tensorflow21CollectiveExecutorMgrD1Ev
libtensorflow_framework.so:_ZN10tensorflow21CollectiveExecutorMgrD2Ev
libtensorflow_framework.so:_ZN10tensorflow21ControlFlowContextDef10SharedCtorEv
libtensorflow_framework.so:_ZN10tensorflow21ControlFlowContextDef10SharedDtorEv
libtensorflow_framework.so:_ZN10tensorflow21ControlFlowContextDef10clear_ctxtEv
libtensorflow_framework.so:_ZN10tensorflow21ControlFlowContextDef10descriptorEv
libtensorflow_framework.so:_ZN10tensorflow21ControlFlowContextDef12InternalSwapEPS0_
libtensorflow_framework.so:_ZN10tensorflow21ControlFlowContextDef15UnsafeArenaSwapEPS0_
libtensorflow_framework.so:_ZN10tensorflow21ControlFlowContextDef16default_instanceEv
libtensorflow_framework.so:_ZN10tensorflow21ControlFlowContextDef21InitAsDefaultInstanceEv
libtensorflow_framework.so:_ZN10tensorflow21ControlFlowContextDef23set_allocated_cond_ctxtEPNS_14CondContextDefE
libtensorflow_framework.so:_ZN10tensorflow21ControlFlowContextDef24set_allocated_while_ctxtEPNS_15WhileContextDefE
libtensorflow_framework.so:_ZN10tensorflow21ControlFlowContextDef27MergePartialFromCodedStreamEPN6google8protobuf2io16CodedInputStreamE
libtensorflow_framework.so:_ZN10tensorflow21ControlFlowContextDef4SwapEPS0_
libtensorflow_framework.so:_ZN10tensorflow21ControlFlowContextDef5ClearEv
libtensorflow_framework.so:_ZN10tensorflow21ControlFlowContextDef8CopyFromERKN6google8protobuf7MessageE
libtensorflow_framework.so:_ZN10tensorflow21ControlFlowContextDef8CopyFromERKS0_
libtensorflow_framework.so:_ZN10tensorflow21ControlFlowContextDef9ArenaDtorEPv
libtensorflow_framework.so:_ZN10tensorflow21ControlFlowContextDef9MergeFromERKN6google8protobuf7MessageE
libtensorflow_framework.so:_ZN10tensorflow21ControlFlowContextDef9MergeFromERKS0_
libtensorflow_framework.so:_ZN10tensorflow21ControlFlowContextDefC1EPN6google8protobuf5ArenaE
libtensorflow_framework.so:_ZN10tensorflow21ControlFlowContextDefC1ERKS0_
libtensorflow_framework.so:_ZN10tensorflow21ControlFlowContextDefC1Ev
libtensorflow_framework.so:_ZN10tensorflow21ControlFlowContextDefC2EPN6google8protobuf5ArenaE
libtensorflow_framework.so:_ZN10tensorflow21ControlFlowContextDefC2ERKS0_
libtensorflow_framework.so:_ZN10tensorflow21ControlFlowContextDefC2Ev
libtensorflow_framework.so:_ZN10tensorflow21ControlFlowContextDefD0Ev
libtensorflow_framework.so:_ZN10tensorflow21ControlFlowContextDefD1Ev
libtensorflow_framework.so:_ZN10tensorflow21ControlFlowContextDefD2Ev
libtensorflow_framework.so:_ZN10tensorflow21CreateNonCachedKernelEPNS_6DeviceEPNS_22FunctionLibraryRuntimeERKNS_7NodeDefEiPPNS_8OpKernelE
libtensorflow_framework.so:_ZN10tensorflow21DebuggerStateRegistry11CreateStateERKNS_12DebugOptionsEPSt10unique_ptrINS_22DebuggerStateInterfaceESt14default_deleteIS5_EE
libtensorflow_framework.so:_ZN10tensorflow21DebuggerStateRegistry15RegisterFactoryERKSt8functionIFSt10unique_ptrINS_22DebuggerStateInterfaceESt14default_deleteIS3_EERKNS_12DebugOptionsEEE
libtensorflow_framework.so:_ZN10tensorflow21DeleteNonCachedKernelEPNS_8OpKernelE
libtensorflow_framework.so:_ZN10tensorflow21EnumName_WorkerHealthENS_12WorkerHealthE
libtensorflow_framework.so:_ZN10tensorflow21ExpandInlineFunctionsEPNS_22FunctionLibraryRuntimeEPNS_5GraphE
libtensorflow_framework.so:_ZN10tensorflow21GetSparseTensorShapesERKNS_13VarLenFeatureERKSt6vectorINS_6TensorESaIS4_EEiPNS_24VarLenFeatureBatchShapesE
libtensorflow_framework.so:_ZN10tensorflow21GetWindowedOutputSizeExxxNS_7PaddingEPxS1_
libtensorflow_framework.so:_ZN10tensorflow21GraphTransferNodeInfo10SharedCtorEv
libtensorflow_framework.so:_ZN10tensorflow21GraphTransferNodeInfo10SharedDtorEv
libtensorflow_framework.so:_ZN10tensorflow21GraphTransferNodeInfo10descriptorEv
libtensorflow_framework.so:_ZN10tensorflow21GraphTransferNodeInfo12InternalSwapEPS0_
libtensorflow_framework.so:_ZN10tensorflow21GraphTransferNodeInfo15UnsafeArenaSwapEPS0_
libtensorflow_framework.so:_ZN10tensorflow21GraphTransferNodeInfo16default_instanceEv
libtensorflow_framework.so:_ZN10tensorflow21GraphTransferNodeInfo21InitAsDefaultInstanceEv
libtensorflow_framework.so:_ZN10tensorflow21GraphTransferNodeInfo27MergePartialFromCodedStreamEPN6google8protobuf2io16CodedInputStreamE
libtensorflow_framework.so:_ZN10tensorflow21GraphTransferNodeInfo4SwapEPS0_
libtensorflow_framework.so:_ZN10tensorflow21GraphTransferNodeInfo5ClearEv
libtensorflow_framework.so:_ZN10tensorflow21GraphTransferNodeInfo8CopyFromERKN6google8protobuf7MessageE
libtensorflow_framework.so:_ZN10tensorflow21GraphTransferNodeInfo8CopyFromERKS0_
libtensorflow_framework.so:_ZN10tensorflow21GraphTransferNodeInfo9ArenaDtorEPv
libtensorflow_framework.so:_ZN10tensorflow21GraphTransferNodeInfo9MergeFromERKN6google8protobuf7MessageE
libtensorflow_framework.so:_ZN10tensorflow21GraphTransferNodeInfo9MergeFromERKS0_
libtensorflow_framework.so:_ZN10tensorflow21GraphTransferNodeInfoC1EPN6google8protobuf5ArenaE
libtensorflow_framework.so:_ZN10tensorflow21GraphTransferNodeInfoC1ERKS0_
libtensorflow_framework.so:_ZN10tensorflow21GraphTransferNodeInfoC1Ev
libtensorflow_framework.so:_ZN10tensorflow21GraphTransferNodeInfoC2EPN6google8protobuf5ArenaE
libtensorflow_framework.so:_ZN10tensorflow21GraphTransferNodeInfoC2ERKS0_
libtensorflow_framework.so:_ZN10tensorflow21GraphTransferNodeInfoC2Ev
libtensorflow_framework.so:_ZN10tensorflow21GraphTransferNodeInfoD0Ev
libtensorflow_framework.so:_ZN10tensorflow21GraphTransferNodeInfoD1Ev
libtensorflow_framework.so:_ZN10tensorflow21GraphTransferNodeInfoD2Ev
libtensorflow_framework.so:_ZN10tensorflow21IteratorStateMetadata10SharedCtorEv
libtensorflow_framework.so:_ZN10tensorflow21IteratorStateMetadata10SharedDtorEv
libtensorflow_framework.so:_ZN10tensorflow21IteratorStateMetadata10descriptorEv
libtensorflow_framework.so:_ZN10tensorflow21IteratorStateMetadata12InternalSwapEPS0_
libtensorflow_framework.so:_ZN10tensorflow21IteratorStateMetadata15UnsafeArenaSwapEPS0_
libtensorflow_framework.so:_ZN10tensorflow21IteratorStateMetadata16default_instanceEv
libtensorflow_framework.so:_ZN10tensorflow21IteratorStateMetadata21InitAsDefaultInstanceEv
libtensorflow_framework.so:_ZN10tensorflow21IteratorStateMetadata27MergePartialFromCodedStreamEPN6google8protobuf2io16CodedInputStreamE
libtensorflow_framework.so:_ZN10tensorflow21IteratorStateMetadata4SwapEPS0_
libtensorflow_framework.so:_ZN10tensorflow21IteratorStateMetadata5ClearEv
libtensorflow_framework.so:_ZN10tensorflow21IteratorStateMetadata8CopyFromERKN6google8protobuf7MessageE
libtensorflow_framework.so:_ZN10tensorflow21IteratorStateMetadata8CopyFromERKS0_
libtensorflow_framework.so:_ZN10tensorflow21IteratorStateMetadata9ArenaDtorEPv
libtensorflow_framework.so:_ZN10tensorflow21IteratorStateMetadata9MergeFromERKN6google8protobuf7MessageE
libtensorflow_framework.so:_ZN10tensorflow21IteratorStateMetadata9MergeFromERKS0_
libtensorflow_framework.so:_ZN10tensorflow21IteratorStateMetadataC1EPN6google8protobuf5ArenaE
libtensorflow_framework.so:_ZN10tensorflow21IteratorStateMetadataC1ERKS0_
libtensorflow_framework.so:_ZN10tensorflow21IteratorStateMetadataC1Ev
libtensorflow_framework.so:_ZN10tensorflow21IteratorStateMetadataC2EPN6google8protobuf5ArenaE
libtensorflow_framework.so:_ZN10tensorflow21IteratorStateMetadataC2ERKS0_
libtensorflow_framework.so:_ZN10tensorflow21IteratorStateMetadataC2Ev
libtensorflow_framework.so:_ZN10tensorflow21IteratorStateMetadataD0Ev
libtensorflow_framework.so:_ZN10tensorflow21IteratorStateMetadataD1Ev
libtensorflow_framework.so:_ZN10tensorflow21IteratorStateMetadataD2Ev
libtensorflow_framework.so:_ZN10tensorflow21LogNormalDistribution10SharedCtorEv
libtensorflow_framework.so:_ZN10tensorflow21LogNormalDistribution10SharedDtorEv
libtensorflow_framework.so:_ZN10tensorflow21LogNormalDistribution10descriptorEv
libtensorflow_framework.so:_ZN10tensorflow21LogNormalDistribution12InternalSwapEPS0_
libtensorflow_framework.so:_ZN10tensorflow21LogNormalDistribution15UnsafeArenaSwapEPS0_
libtensorflow_framework.so:_ZN10tensorflow21LogNormalDistribution16default_instanceEv
libtensorflow_framework.so:_ZN10tensorflow21LogNormalDistribution21InitAsDefaultInstanceEv
libtensorflow_framework.so:_ZN10tensorflow21LogNormalDistribution27MergePartialFromCodedStreamEPN6google8protobuf2io16CodedInputStreamE
libtensorflow_framework.so:_ZN10tensorflow21LogNormalDistribution4SwapEPS0_
libtensorflow_framework.so:_ZN10tensorflow21LogNormalDistribution5ClearEv
libtensorflow_framework.so:_ZN10tensorflow21LogNormalDistribution8CopyFromERKN6google8protobuf7MessageE
libtensorflow_framework.so:_ZN10tensorflow21LogNormalDistribution8CopyFromERKS0_
libtensorflow_framework.so:_ZN10tensorflow21LogNormalDistribution9ArenaDtorEPv
libtensorflow_framework.so:_ZN10tensorflow21LogNormalDistribution9MergeFromERKN6google8protobuf7MessageE
libtensorflow_framework.so:_ZN10tensorflow21LogNormalDistribution9MergeFromERKS0_
libtensorflow_framework.so:_ZN10tensorflow21LogNormalDistributionC1EPN6google8protobuf5ArenaE
libtensorflow_framework.so:_ZN10tensorflow21LogNormalDistributionC1ERKS0_
libtensorflow_framework.so:_ZN10tensorflow21LogNormalDistributionC1Ev
libtensorflow_framework.so:_ZN10tensorflow21LogNormalDistributionC2EPN6google8protobuf5ArenaE
libtensorflow_framework.so:_ZN10tensorflow21LogNormalDistributionC2ERKS0_
libtensorflow_framework.so:_ZN10tensorflow21LogNormalDistributionC2Ev
libtensorflow_framework.so:_ZN10tensorflow21LogNormalDistributionD0Ev
libtensorflow_framework.so:_ZN10tensorflow21LogNormalDistributionD1Ev
libtensorflow_framework.so:_ZN10tensorflow21LogNormalDistributionD2Ev
libtensorflow_framework.so:_ZN10tensorflow21MakeCollectiveAdapterEPNS_6TensorEiPNS_9AllocatorE
libtensorflow_framework.so:_ZN10tensorflow21MemoryLogTensorOutput10SharedCtorEv
libtensorflow_framework.so:_ZN10tensorflow21MemoryLogTensorOutput10SharedDtorEv
libtensorflow_framework.so:_ZN10tensorflow21MemoryLogTensorOutput10descriptorEv
libtensorflow_framework.so:_ZN10tensorflow21MemoryLogTensorOutput12InternalSwapEPS0_
libtensorflow_framework.so:_ZN10tensorflow21MemoryLogTensorOutput12clear_tensorEv
libtensorflow_framework.so:_ZN10tensorflow21MemoryLogTensorOutput15UnsafeArenaSwapEPS0_
libtensorflow_framework.so:_ZN10tensorflow21MemoryLogTensorOutput16default_instanceEv
libtensorflow_framework.so:_ZN10tensorflow21MemoryLogTensorOutput21InitAsDefaultInstanceEv
libtensorflow_framework.so:_ZN10tensorflow21MemoryLogTensorOutput27MergePartialFromCodedStreamEPN6google8protobuf2io16CodedInputStreamE
libtensorflow_framework.so:_ZN10tensorflow21MemoryLogTensorOutput33unsafe_arena_set_allocated_tensorEPNS_17TensorDescriptionE
libtensorflow_framework.so:_ZN10tensorflow21MemoryLogTensorOutput4SwapEPS0_
libtensorflow_framework.so:_ZN10tensorflow21MemoryLogTensorOutput5ClearEv
libtensorflow_framework.so:_ZN10tensorflow21MemoryLogTensorOutput8CopyFromERKN6google8protobuf7MessageE
libtensorflow_framework.so:_ZN10tensorflow21MemoryLogTensorOutput8CopyFromERKS0_
libtensorflow_framework.so:_ZN10tensorflow21MemoryLogTensorOutput9ArenaDtorEPv
libtensorflow_framework.so:_ZN10tensorflow21MemoryLogTensorOutput9MergeFromERKN6google8protobuf7MessageE
libtensorflow_framework.so:_ZN10tensorflow21MemoryLogTensorOutput9MergeFromERKS0_
libtensorflow_framework.so:_ZN10tensorflow21MemoryLogTensorOutputC1EPN6google8protobuf5ArenaE
libtensorflow_framework.so:_ZN10tensorflow21MemoryLogTensorOutputC1ERKS0_
libtensorflow_framework.so:_ZN10tensorflow21MemoryLogTensorOutputC1Ev
libtensorflow_framework.so:_ZN10tensorflow21MemoryLogTensorOutputC2EPN6google8protobuf5ArenaE
libtensorflow_framework.so:_ZN10tensorflow21MemoryLogTensorOutputC2ERKS0_
libtensorflow_framework.so:_ZN10tensorflow21MemoryLogTensorOutputC2Ev
libtensorflow_framework.so:_ZN10tensorflow21MemoryLogTensorOutputD0Ev
libtensorflow_framework.so:_ZN10tensorflow21MemoryLogTensorOutputD1Ev
libtensorflow_framework.so:_ZN10tensorflow21MemoryLogTensorOutputD2Ev
libtensorflow_framework.so:_ZN10tensorflow21ProtoShortDebugStringB5cxx11ERKNS_10ApiDef_ArgE
libtensorflow_framework.so:_ZN10tensorflow21ProtoShortDebugStringB5cxx11ERKNS_10ClusterDefE
libtensorflow_framework.so:_ZN10tensorflow21ProtoShortDebugStringB5cxx11ERKNS_10GPUOptionsE
libtensorflow_framework.so:_ZN10tensorflow21ProtoShortDebugStringB5cxx11ERKNS_10KernelListE
libtensorflow_framework.so:_ZN10tensorflow21ProtoShortDebugStringB5cxx11ERKNS_10LocalLinksE
libtensorflow_framework.so:_ZN10tensorflow21ProtoShortDebugStringB5cxx11ERKNS_10LogMessageE
libtensorflow_framework.so:_ZN10tensorflow21ProtoShortDebugStringB5cxx11ERKNS_10NodeOutputE
libtensorflow_framework.so:_ZN10tensorflow21ProtoShortDebugStringB5cxx11ERKNS_10RPCOptionsE
libtensorflow_framework.so:_ZN10tensorflow21ProtoShortDebugStringB5cxx11ERKNS_10RunOptionsE
libtensorflow_framework.so:_ZN10tensorflow21ProtoShortDebugStringB5cxx11ERKNS_10SavedSliceE
libtensorflow_framework.so:_ZN10tensorflow21ProtoShortDebugStringB5cxx11ERKNS_10SessionLogE
libtensorflow_framework.so:_ZN10tensorflow21ProtoShortDebugStringB5cxx11ERKNS_10VersionDefE
libtensorflow_framework.so:_ZN10tensorflow21ProtoShortDebugStringB5cxx11ERKNS_11ApiDef_AttrE
libtensorflow_framework.so:_ZN10tensorflow21ProtoShortDebugStringB5cxx11ERKNS_11ConfigProtoE
libtensorflow_framework.so:_ZN10tensorflow21ProtoShortDebugStringB5cxx11ERKNS_11FeatureListE
libtensorflow_framework.so:_ZN10tensorflow21ProtoShortDebugStringB5cxx11ERKNS_11FunctionDefE
libtensorflow_framework.so:_ZN10tensorflow21ProtoShortDebugStringB5cxx11ERKNS_11GradientDefE
libtensorflow_framework.so:_ZN10tensorflow21ProtoShortDebugStringB5cxx11ERKNS_11MemoryStatsE
libtensorflow_framework.so:_ZN10tensorflow21ProtoShortDebugStringB5cxx11ERKNS_11NamedDeviceE
libtensorflow_framework.so:_ZN10tensorflow21ProtoShortDebugStringB5cxx11ERKNS_11RunMetadataE
libtensorflow_framework.so:_ZN10tensorflow21ProtoShortDebugStringB5cxx11ERKNS_11TensorProtoE
libtensorflow_framework.so:_ZN10tensorflow21ProtoShortDebugStringB5cxx11ERKNS_11VariableDefE
libtensorflow_framework.so:_ZN10tensorflow21ProtoShortDebugStringB5cxx11ERKNS_12CostGraphDefE
libtensorflow_framework.so:_ZN10tensorflow21ProtoShortDebugStringB5cxx11ERKNS_12DebugOptionsE
libtensorflow_framework.so:_ZN10tensorflow21ProtoShortDebugStringB5cxx11ERKNS_12FeatureListsE
libtensorflow_framework.so:_ZN10tensorflow21ProtoShortDebugStringB5cxx11ERKNS_12GraphOptionsE
libtensorflow_framework.so:_ZN10tensorflow21ProtoShortDebugStringB5cxx11ERKNS_12NameAttrListE
libtensorflow_framework.so:_ZN10tensorflow21ProtoShortDebugStringB5cxx11ERKNS_12OpDef_ArgDefE
libtensorflow_framework.so:_ZN10tensorflow21ProtoShortDebugStringB5cxx11ERKNS_13MemoryLogStepE
libtensorflow_framework.so:_ZN10tensorflow21ProtoShortDebugStringB5cxx11ERKNS_13NodeExecStatsE
libtensorflow_framework.so:_ZN10tensorflow21ProtoShortDebugStringB5cxx11ERKNS_13OpDef_AttrDefE
libtensorflow_framework.so:_ZN10tensorflow21ProtoShortDebugStringB5cxx11ERKNS_13OpDeprecationE
libtensorflow_framework.so:_ZN10tensorflow21ProtoShortDebugStringB5cxx11ERKNS_13Summary_AudioE
libtensorflow_framework.so:_ZN10tensorflow21ProtoShortDebugStringB5cxx11ERKNS_13Summary_ImageE
libtensorflow_framework.so:_ZN10tensorflow21ProtoShortDebugStringB5cxx11ERKNS_13Summary_ValueE
libtensorflow_framework.so:_ZN10tensorflow21ProtoShortDebugStringB5cxx11ERKNS_14DeviceLocalityE
libtensorflow_framework.so:_ZN10tensorflow21ProtoShortDebugStringB5cxx11ERKNS_14HistogramProtoE
libtensorflow_framework.so:_ZN10tensorflow21ProtoShortDebugStringB5cxx11ERKNS_14QueueRunnerDefE
libtensorflow_framework.so:_ZN10tensorflow21ProtoShortDebugStringB5cxx11ERKNS_14RewriterConfigE
libtensorflow_framework.so:_ZN10tensorflow21ProtoShortDebugStringB5cxx11ERKNS_14SavedSliceMetaE
libtensorflow_framework.so:_ZN10tensorflow21ProtoShortDebugStringB5cxx11ERKNS_14WatchdogConfigE
libtensorflow_framework.so:_ZN10tensorflow21ProtoShortDebugStringB5cxx11ERKNS_15ApiDef_EndpointE
libtensorflow_framework.so:_ZN10tensorflow21ProtoShortDebugStringB5cxx11ERKNS_15CallableOptionsE
libtensorflow_framework.so:_ZN10tensorflow21ProtoShortDebugStringB5cxx11ERKNS_15DeviceStepStatsE
libtensorflow_framework.so:_ZN10tensorflow21ProtoShortDebugStringB5cxx11ERKNS_15ReaderBaseStateE
libtensorflow_framework.so:_ZN10tensorflow21ProtoShortDebugStringB5cxx11ERKNS_15SequenceExampleE
libtensorflow_framework.so:_ZN10tensorflow21ProtoShortDebugStringB5cxx11ERKNS_15SummaryMetadataE
libtensorflow_framework.so:_ZN10tensorflow21ProtoShortDebugStringB5cxx11ERKNS_16AllocationRecordE
libtensorflow_framework.so:_ZN10tensorflow21ProtoShortDebugStringB5cxx11ERKNS_16BundleEntryProtoE
libtensorflow_framework.so:_ZN10tensorflow21ProtoShortDebugStringB5cxx11ERKNS_16DebugTensorWatchE
libtensorflow_framework.so:_ZN10tensorflow21ProtoShortDebugStringB5cxx11ERKNS_16DeviceAttributesE
libtensorflow_framework.so:_ZN10tensorflow21ProtoShortDebugStringB5cxx11ERKNS_16DevicePropertiesE
libtensorflow_framework.so:_ZN10tensorflow21ProtoShortDebugStringB5cxx11ERKNS_16InterconnectLinkE
libtensorflow_framework.so:_ZN10tensorflow21ProtoShortDebugStringB5cxx11ERKNS_16OptimizerOptionsE
libtensorflow_framework.so:_ZN10tensorflow21ProtoShortDebugStringB5cxx11ERKNS_16SaveSliceInfoDefE
libtensorflow_framework.so:_ZN10tensorflow21ProtoShortDebugStringB5cxx11ERKNS_16TensorConnectionE
libtensorflow_framework.so:_ZN10tensorflow21ProtoShortDebugStringB5cxx11ERKNS_16TensorShapeProtoE
libtensorflow_framework.so:_ZN10tensorflow21ProtoShortDebugStringB5cxx11ERKNS_16TensorSliceProtoE
libtensorflow_framework.so:_ZN10tensorflow21ProtoShortDebugStringB5cxx11ERKNS_17BundleHeaderProtoE
libtensorflow_framework.so:_ZN10tensorflow21ProtoShortDebugStringB5cxx11ERKNS_17CostGraphDef_NodeE
libtensorflow_framework.so:_ZN10tensorflow21ProtoShortDebugStringB5cxx11ERKNS_17GraphTransferInfoE
libtensorflow_framework.so:_ZN10tensorflow21ProtoShortDebugStringB5cxx11ERKNS_17SavedTensorSlicesE
libtensorflow_framework.so:_ZN10tensorflow21ProtoShortDebugStringB5cxx11ERKNS_17TaggedRunMetadataE
libtensorflow_framework.so:_ZN10tensorflow21ProtoShortDebugStringB5cxx11ERKNS_17TensorDescriptionE
libtensorflow_framework.so:_ZN10tensorflow21ProtoShortDebugStringB5cxx11ERKNS_18DebuggedSourceFileE
libtensorflow_framework.so:_ZN10tensorflow21ProtoShortDebugStringB5cxx11ERKNS_18FunctionDefLibraryE
libtensorflow_framework.so:_ZN10tensorflow21ProtoShortDebugStringB5cxx11ERKNS_18SummaryDescriptionE
libtensorflow_framework.so:_ZN10tensorflow21ProtoShortDebugStringB5cxx11ERKNS_19AllocatorMemoryUsedE
libtensorflow_framework.so:_ZN10tensorflow21ProtoShortDebugStringB5cxx11ERKNS_19AttrValue_ListValueE
libtensorflow_framework.so:_ZN10tensorflow21ProtoShortDebugStringB5cxx11ERKNS_19AutoParallelOptionsE
libtensorflow_framework.so:_ZN10tensorflow21ProtoShortDebugStringB5cxx11ERKNS_19DebuggedSourceFilesE
libtensorflow_framework.so:_ZN10tensorflow21ProtoShortDebugStringB5cxx11ERKNS_19ResourceHandleProtoE
libtensorflow_framework.so:_ZN10tensorflow21ProtoShortDebugStringB5cxx11ERKNS_20SavedTensorSliceMetaE
libtensorflow_framework.so:_ZN10tensorflow21ProtoShortDebugStringB5cxx11ERKNS_20TensorShapeProto_DimE
libtensorflow_framework.so:_ZN10tensorflow21ProtoShortDebugStringB5cxx11ERKNS_21AllocationDescriptionE
libtensorflow_framework.so:_ZN10tensorflow21ProtoShortDebugStringB5cxx11ERKNS_21GraphTransferNodeInfoE
libtensorflow_framework.so:_ZN10tensorflow21ProtoShortDebugStringB5cxx11ERKNS_21IteratorStateMetadataE
libtensorflow_framework.so:_ZN10tensorflow21ProtoShortDebugStringB5cxx11ERKNS_21MemoryLogTensorOutputE
libtensorflow_framework.so:_ZN10tensorflow21ProtoShortDebugStringB5cxx11ERKNS_21ThreadPoolOptionProtoE
libtensorflow_framework.so:_ZN10tensorflow21ProtoShortDebugStringB5cxx11ERKNS_22GraphTransferNodeInputE
libtensorflow_framework.so:_ZN10tensorflow21ProtoShortDebugStringB5cxx11ERKNS_22MemoryLogRawAllocationE
libtensorflow_framework.so:_ZN10tensorflow21ProtoShortDebugStringB5cxx11ERKNS_22ScopedAllocatorOptionsE
libtensorflow_framework.so:_ZN10tensorflow21ProtoShortDebugStringB5cxx11ERKNS_22VariantTensorDataProtoE
libtensorflow_framework.so:_ZN10tensorflow21ProtoShortDebugStringB5cxx11ERKNS_22WorkerHeartbeatRequestE
libtensorflow_framework.so:_ZN10tensorflow21ProtoShortDebugStringB5cxx11ERKNS_23GPUOptions_ExperimentalE
libtensorflow_framework.so:_ZN10tensorflow21ProtoShortDebugStringB5cxx11ERKNS_23RunOptions_ExperimentalE
libtensorflow_framework.so:_ZN10tensorflow21ProtoShortDebugStringB5cxx11ERKNS_23TensorSliceProto_ExtentE
libtensorflow_framework.so:_ZN10tensorflow21ProtoShortDebugStringB5cxx11ERKNS_23WorkerHeartbeatResponseE
libtensorflow_framework.so:_ZN10tensorflow21ProtoShortDebugStringB5cxx11ERKNS_24ConfigProto_ExperimentalE
libtensorflow_framework.so:_ZN10tensorflow21ProtoShortDebugStringB5cxx11ERKNS_24KernelDef_AttrConstraintE
libtensorflow_framework.so:_ZN10tensorflow21ProtoShortDebugStringB5cxx11ERKNS_24MemoryLogRawDeallocationE
libtensorflow_framework.so:_ZN10tensorflow21ProtoShortDebugStringB5cxx11ERKNS_25MemoryLogTensorAllocationE
libtensorflow_framework.so:_ZN10tensorflow21ProtoShortDebugStringB5cxx11ERKNS_26GraphTransferConstNodeInfoE
libtensorflow_framework.so:_ZN10tensorflow21ProtoShortDebugStringB5cxx11ERKNS_26GraphTransferNodeInputInfoE
libtensorflow_framework.so:_ZN10tensorflow21ProtoShortDebugStringB5cxx11ERKNS_26SummaryMetadata_PluginDataE
libtensorflow_framework.so:_ZN10tensorflow21ProtoShortDebugStringB5cxx11ERKNS_27CostGraphDef_Node_InputInfoE
libtensorflow_framework.so:_ZN10tensorflow21ProtoShortDebugStringB5cxx11ERKNS_27GraphTransferNodeOutputInfoE
libtensorflow_framework.so:_ZN10tensorflow21ProtoShortDebugStringB5cxx11ERKNS_27MemoryLogTensorDeallocationE
libtensorflow_framework.so:_ZN10tensorflow21ProtoShortDebugStringB5cxx11ERKNS_27RemoteFusedGraphExecuteInfoE
libtensorflow_framework.so:_ZN10tensorflow21ProtoShortDebugStringB5cxx11ERKNS_28CostGraphDef_Node_OutputInfoE
libtensorflow_framework.so:_ZN10tensorflow21ProtoShortDebugStringB5cxx11ERKNS_28MemmappedFileSystemDirectoryE
libtensorflow_framework.so:_ZN10tensorflow21ProtoShortDebugStringB5cxx11ERKNS_31GraphTransferGraphInputNodeInfoE
libtensorflow_framework.so:_ZN10tensorflow21ProtoShortDebugStringB5cxx11ERKNS_32GraphTransferGraphOutputNodeInfoE
libtensorflow_framework.so:_ZN10tensorflow21ProtoShortDebugStringB5cxx11ERKNS_35MemmappedFileSystemDirectoryElementE
libtensorflow_framework.so:_ZN10tensorflow21ProtoShortDebugStringB5cxx11ERKNS_35RewriterConfig_CustomGraphOptimizerE
libtensorflow_framework.so:_ZN10tensorflow21ProtoShortDebugStringB5cxx11ERKNS_38GPUOptions_Experimental_VirtualDevicesE
libtensorflow_framework.so:_ZN10tensorflow21ProtoShortDebugStringB5cxx11ERKNS_48RemoteFusedGraphExecuteInfo_TensorShapeTypeProtoE
libtensorflow_framework.so:_ZN10tensorflow21ProtoShortDebugStringB5cxx11ERKNS_5EventE
libtensorflow_framework.so:_ZN10tensorflow21ProtoShortDebugStringB5cxx11ERKNS_5OpDefE
libtensorflow_framework.so:_ZN10tensorflow21ProtoShortDebugStringB5cxx11ERKNS_6ApiDefE
libtensorflow_framework.so:_ZN10tensorflow21ProtoShortDebugStringB5cxx11ERKNS_6JobDefE
libtensorflow_framework.so:_ZN10tensorflow21ProtoShortDebugStringB5cxx11ERKNS_6OpListE
libtensorflow_framework.so:_ZN10tensorflow21ProtoShortDebugStringB5cxx11ERKNS_7ApiDefsE
libtensorflow_framework.so:_ZN10tensorflow21ProtoShortDebugStringB5cxx11ERKNS_7ExampleE
libtensorflow_framework.so:_ZN10tensorflow21ProtoShortDebugStringB5cxx11ERKNS_7FeatureE
libtensorflow_framework.so:_ZN10tensorflow21ProtoShortDebugStringB5cxx11ERKNS_7NodeDefE
libtensorflow_framework.so:_ZN10tensorflow21ProtoShortDebugStringB5cxx11ERKNS_7SummaryE
libtensorflow_framework.so:_ZN10tensorflow21ProtoShortDebugStringB5cxx11ERKNS_8FeaturesE
libtensorflow_framework.so:_ZN10tensorflow21ProtoShortDebugStringB5cxx11ERKNS_8GraphDefE
libtensorflow_framework.so:_ZN10tensorflow21ProtoShortDebugStringB5cxx11ERKNS_8SaverDefE
libtensorflow_framework.so:_ZN10tensorflow21ProtoShortDebugStringB5cxx11ERKNS_9AttrValueE
libtensorflow_framework.so:_ZN10tensorflow21ProtoShortDebugStringB5cxx11ERKNS_9BytesListE
libtensorflow_framework.so:_ZN10tensorflow21ProtoShortDebugStringB5cxx11ERKNS_9FloatListE
libtensorflow_framework.so:_ZN10tensorflow21ProtoShortDebugStringB5cxx11ERKNS_9Int64ListE
libtensorflow_framework.so:_ZN10tensorflow21ProtoShortDebugStringB5cxx11ERKNS_9KernelDefE
libtensorflow_framework.so:_ZN10tensorflow21ProtoShortDebugStringB5cxx11ERKNS_9StepStatsE
libtensorflow_framework.so:_ZN10tensorflow21ThreadPoolOptionProto10SharedCtorEv
libtensorflow_framework.so:_ZN10tensorflow21ThreadPoolOptionProto10SharedDtorEv
libtensorflow_framework.so:_ZN10tensorflow21ThreadPoolOptionProto10descriptorEv
libtensorflow_framework.so:_ZN10tensorflow21ThreadPoolOptionProto12InternalSwapEPS0_
libtensorflow_framework.so:_ZN10tensorflow21ThreadPoolOptionProto15UnsafeArenaSwapEPS0_
libtensorflow_framework.so:_ZN10tensorflow21ThreadPoolOptionProto16default_instanceEv
libtensorflow_framework.so:_ZN10tensorflow21ThreadPoolOptionProto21InitAsDefaultInstanceEv
libtensorflow_framework.so:_ZN10tensorflow21ThreadPoolOptionProto27MergePartialFromCodedStreamEPN6google8protobuf2io16CodedInputStreamE
libtensorflow_framework.so:_ZN10tensorflow21ThreadPoolOptionProto4SwapEPS0_
libtensorflow_framework.so:_ZN10tensorflow21ThreadPoolOptionProto5ClearEv
libtensorflow_framework.so:_ZN10tensorflow21ThreadPoolOptionProto8CopyFromERKN6google8protobuf7MessageE
libtensorflow_framework.so:_ZN10tensorflow21ThreadPoolOptionProto8CopyFromERKS0_
libtensorflow_framework.so:_ZN10tensorflow21ThreadPoolOptionProto9ArenaDtorEPv
libtensorflow_framework.so:_ZN10tensorflow21ThreadPoolOptionProto9MergeFromERKN6google8protobuf7MessageE
libtensorflow_framework.so:_ZN10tensorflow21ThreadPoolOptionProto9MergeFromERKS0_
libtensorflow_framework.so:_ZN10tensorflow21ThreadPoolOptionProtoC1EPN6google8protobuf5ArenaE
libtensorflow_framework.so:_ZN10tensorflow21ThreadPoolOptionProtoC1ERKS0_
libtensorflow_framework.so:_ZN10tensorflow21ThreadPoolOptionProtoC1Ev
libtensorflow_framework.so:_ZN10tensorflow21ThreadPoolOptionProtoC2EPN6google8protobuf5ArenaE
libtensorflow_framework.so:_ZN10tensorflow21ThreadPoolOptionProtoC2ERKS0_
libtensorflow_framework.so:_ZN10tensorflow21ThreadPoolOptionProtoC2Ev
libtensorflow_framework.so:_ZN10tensorflow21ThreadPoolOptionProtoD0Ev
libtensorflow_framework.so:_ZN10tensorflow21ThreadPoolOptionProtoD1Ev
libtensorflow_framework.so:_ZN10tensorflow21ThreadPoolOptionProtoD2Ev
libtensorflow_framework.so:_ZN10tensorflow22BaseCollectiveExecutor10StartAbortERKNS_6StatusE
libtensorflow_framework.so:_ZN10tensorflow22BaseCollectiveExecutor12ExecuteAsyncEPNS_15OpKernelContextERKNS_16CollectiveParamsERKNSt7__cxx1112basic_stringIcSt11char_traitsIcESaIcEEESt8functionIFvRKNS_6StatusEEE
libtensorflow_framework.so:_ZN10tensorflow22BaseCollectiveExecutor13CreateReducerEPNS_15OpKernelContextEPNS1_6ParamsERKNS_16CollectiveParamsERKNSt7__cxx1112basic_stringIcSt11char_traitsIcESaIcEEExPKNS_6TensorEPSG_PSD_
libtensorflow_framework.so:_ZN10tensorflow22BaseCollectiveExecutor17CreateBroadcasterEPNS_15OpKernelContextEPNS1_6ParamsERKNS_16CollectiveParamsERKNSt7__cxx1112basic_stringIcSt11char_traitsIcESaIcEEExPNS_6TensorEPSD_
libtensorflow_framework.so:_ZN10tensorflow22BaseCollectiveExecutorD0Ev
libtensorflow_framework.so:_ZN10tensorflow22BaseCollectiveExecutorD1Ev
libtensorflow_framework.so:_ZN10tensorflow22BaseCollectiveExecutorD2Ev
libtensorflow_framework.so:_ZN10tensorflow22CollectionDef_NodeList10SharedCtorEv
libtensorflow_framework.so:_ZN10tensorflow22CollectionDef_NodeList10SharedDtorEv
libtensorflow_framework.so:_ZN10tensorflow22CollectionDef_NodeList10descriptorEv
libtensorflow_framework.so:_ZN10tensorflow22CollectionDef_NodeList12InternalSwapEPS0_
libtensorflow_framework.so:_ZN10tensorflow22CollectionDef_NodeList15UnsafeArenaSwapEPS0_
libtensorflow_framework.so:_ZN10tensorflow22CollectionDef_NodeList16default_instanceEv
libtensorflow_framework.so:_ZN10tensorflow22CollectionDef_NodeList21InitAsDefaultInstanceEv
libtensorflow_framework.so:_ZN10tensorflow22CollectionDef_NodeList27MergePartialFromCodedStreamEPN6google8protobuf2io16CodedInputStreamE
libtensorflow_framework.so:_ZN10tensorflow22CollectionDef_NodeList4SwapEPS0_
libtensorflow_framework.so:_ZN10tensorflow22CollectionDef_NodeList5ClearEv
libtensorflow_framework.so:_ZN10tensorflow22CollectionDef_NodeList8CopyFromERKN6google8protobuf7MessageE
libtensorflow_framework.so:_ZN10tensorflow22CollectionDef_NodeList8CopyFromERKS0_
libtensorflow_framework.so:_ZN10tensorflow22CollectionDef_NodeList9ArenaDtorEPv
libtensorflow_framework.so:_ZN10tensorflow22CollectionDef_NodeList9MergeFromERKN6google8protobuf7MessageE
libtensorflow_framework.so:_ZN10tensorflow22CollectionDef_NodeList9MergeFromERKS0_
libtensorflow_framework.so:_ZN10tensorflow22CollectionDef_NodeListC1EPN6google8protobuf5ArenaE
libtensorflow_framework.so:_ZN10tensorflow22CollectionDef_NodeListC1ERKS0_
libtensorflow_framework.so:_ZN10tensorflow22CollectionDef_NodeListC1Ev
libtensorflow_framework.so:_ZN10tensorflow22CollectionDef_NodeListC2EPN6google8protobuf5ArenaE
libtensorflow_framework.so:_ZN10tensorflow22CollectionDef_NodeListC2ERKS0_
libtensorflow_framework.so:_ZN10tensorflow22CollectionDef_NodeListC2Ev
libtensorflow_framework.so:_ZN10tensorflow22CollectionDef_NodeListD0Ev
libtensorflow_framework.so:_ZN10tensorflow22CollectionDef_NodeListD1Ev
libtensorflow_framework.so:_ZN10tensorflow22CollectionDef_NodeListD2Ev
libtensorflow_framework.so:_ZN10tensorflow22ConvertGraphDefToGraphERKNS_23GraphConstructorOptionsERKNS_8GraphDefEPNS_5GraphE
libtensorflow_framework.so:_ZN10tensorflow22ConvertNodeDefsToGraphERKNS_23GraphConstructorOptionsENS_3gtl10ArraySliceINS_7NodeDefEEEPNS_5GraphE
libtensorflow_framework.so:_ZN10tensorflow22EvaluateConstantTensorENS_12OutputTensorERKNS_12ShapeRefinerERKNS_19OpRegistryInterfaceEiPbPNS_6TensorEPNS_11GraphRunnerEPSt13unordered_mapINSt7__cxx1112basic_stringIcSt11char_traitsIcESaIcEEES8_St4hashISI_ESt8equal_toISI_ESaISt4pairIKSI_S8_EEExb
libtensorflow_framework.so:_ZN10tensorflow22FastAreAttrValuesEqualERKNS_9AttrValueES2_
libtensorflow_framework.so:_ZN10tensorflow22FileSystemRegistryImpl30GetRegisteredFileSystemSchemesEPSt6vectorINSt7__cxx1112basic_stringIcSt11char_traitsIcESaIcEEESaIS7_EE
libtensorflow_framework.so:_ZN10tensorflow22FileSystemRegistryImpl6LookupERKNSt7__cxx1112basic_stringIcSt11char_traitsIcESaIcEEE
libtensorflow_framework.so:_ZN10tensorflow22FileSystemRegistryImpl8RegisterERKNSt7__cxx1112basic_stringIcSt11char_traitsIcESaIcEEESt8functionIFPNS_10FileSystemEvEE
libtensorflow_framework.so:_ZN10tensorflow22FilterFormatFromStringERKNSt7__cxx1112basic_stringIcSt11char_traitsIcESaIcEEEPNS_18FilterTensorFormatE
libtensorflow_framework.so:_ZN10tensorflow22GPUcudaMallocAllocator11AllocateRawEmm
libtensorflow_framework.so:_ZN10tensorflow22GPUcudaMallocAllocator13DeallocateRawEPv
libtensorflow_framework.so:_ZN10tensorflow22GPUcudaMallocAllocator14AddFreeVisitorESt8functionIFvPvmEE
libtensorflow_framework.so:_ZN10tensorflow22GPUcudaMallocAllocator15AddAllocVisitorESt8functionIFvPvmEE
libtensorflow_framework.so:_ZN10tensorflow22GPUcudaMallocAllocator21TracksAllocationSizesEv
libtensorflow_framework.so:_ZN10tensorflow22GPUcudaMallocAllocatorC1EPNS_18VisitableAllocatorENS_3gtl7IntTypeINS_14CudaGpuId_tag_EiEE
libtensorflow_framework.so:_ZN10tensorflow22GPUcudaMallocAllocatorC2EPNS_18VisitableAllocatorENS_3gtl7IntTypeINS_14CudaGpuId_tag_EiEE
libtensorflow_framework.so:_ZN10tensorflow22GPUcudaMallocAllocatorD0Ev
libtensorflow_framework.so:_ZN10tensorflow22GPUcudaMallocAllocatorD1Ev
libtensorflow_framework.so:_ZN10tensorflow22GPUcudaMallocAllocatorD2Ev
libtensorflow_framework.so:_ZN10tensorflow22GraphDefBuilderToGraphERKNS_15GraphDefBuilderEPNS_5GraphE
libtensorflow_framework.so:_ZN10tensorflow22GraphDefBuilderWrapper10AddDatasetEPKNS_16GraphDatasetBaseERKSt6vectorISt4pairImPNS_4NodeEESaIS8_EERKS4_IS5_ImNS_3gtl10ArraySliceIS7_EEESaISG_EERKS4_IS5_INS_11StringPieceENS_9AttrValueEESaISN_EEPS7_
libtensorflow_framework.so:_ZN10tensorflow22GraphDefBuilderWrapper11AddFunctionEPNS_15OpKernelContextERKNSt7__cxx1112basic_stringIcSt11char_traitsIcESaIcEEE
libtensorflow_framework.so:_ZN10tensorflow22GraphDefBuilderWrapper17AddTensorInternalERKNS_6TensorEPPNS_4NodeE
libtensorflow_framework.so:_ZN10tensorflow22GraphTransferNodeInput10SharedCtorEv
libtensorflow_framework.so:_ZN10tensorflow22GraphTransferNodeInput10SharedDtorEv
libtensorflow_framework.so:_ZN10tensorflow22GraphTransferNodeInput10descriptorEv
libtensorflow_framework.so:_ZN10tensorflow22GraphTransferNodeInput12InternalSwapEPS0_
libtensorflow_framework.so:_ZN10tensorflow22GraphTransferNodeInput15UnsafeArenaSwapEPS0_
libtensorflow_framework.so:_ZN10tensorflow22GraphTransferNodeInput16default_instanceEv
libtensorflow_framework.so:_ZN10tensorflow22GraphTransferNodeInput21InitAsDefaultInstanceEv
libtensorflow_framework.so:_ZN10tensorflow22GraphTransferNodeInput27MergePartialFromCodedStreamEPN6google8protobuf2io16CodedInputStreamE
libtensorflow_framework.so:_ZN10tensorflow22GraphTransferNodeInput4SwapEPS0_
libtensorflow_framework.so:_ZN10tensorflow22GraphTransferNodeInput5ClearEv
libtensorflow_framework.so:_ZN10tensorflow22GraphTransferNodeInput8CopyFromERKN6google8protobuf7MessageE
libtensorflow_framework.so:_ZN10tensorflow22GraphTransferNodeInput8CopyFromERKS0_
libtensorflow_framework.so:_ZN10tensorflow22GraphTransferNodeInput9ArenaDtorEPv
libtensorflow_framework.so:_ZN10tensorflow22GraphTransferNodeInput9MergeFromERKN6google8protobuf7MessageE
libtensorflow_framework.so:_ZN10tensorflow22GraphTransferNodeInput9MergeFromERKS0_
libtensorflow_framework.so:_ZN10tensorflow22GraphTransferNodeInputC1EPN6google8protobuf5ArenaE
libtensorflow_framework.so:_ZN10tensorflow22GraphTransferNodeInputC1ERKS0_
libtensorflow_framework.so:_ZN10tensorflow22GraphTransferNodeInputC1Ev
libtensorflow_framework.so:_ZN10tensorflow22GraphTransferNodeInputC2EPN6google8protobuf5ArenaE
libtensorflow_framework.so:_ZN10tensorflow22GraphTransferNodeInputC2ERKS0_
libtensorflow_framework.so:_ZN10tensorflow22GraphTransferNodeInputC2Ev
libtensorflow_framework.so:_ZN10tensorflow22GraphTransferNodeInputD0Ev
libtensorflow_framework.so:_ZN10tensorflow22GraphTransferNodeInputD1Ev
libtensorflow_framework.so:_ZN10tensorflow22GraphTransferNodeInputD2Ev
libtensorflow_framework.so:_ZN10tensorflow22IntraProcessRendezvous10StartAbortERKNS_6StatusE
libtensorflow_framework.so:_ZN10tensorflow22IntraProcessRendezvous18SameWorkerRecvDoneERKNS_10Rendezvous9ParsedKeyERKNS1_4ArgsES7_RKNS_6TensorEPS8_St8functionIFvRKNS_6StatusEEE
libtensorflow_framework.so:_ZN10tensorflow22IntraProcessRendezvous4SendERKNS_10Rendezvous9ParsedKeyERKNS1_4ArgsERKNS_6TensorEb
libtensorflow_framework.so:_ZN10tensorflow22IntraProcessRendezvous8ParseKeyERKNSt7__cxx1112basic_stringIcSt11char_traitsIcESaIcEEEbPNS_10Rendezvous9ParsedKeyE
libtensorflow_framework.so:_ZN10tensorflow22IntraProcessRendezvous9RecvAsyncERKNS_10Rendezvous9ParsedKeyERKNS1_4ArgsESt8functionIFvRKNS_6StatusES7_S7_RKNS_6TensorEbEE
libtensorflow_framework.so:_ZN10tensorflow22IntraProcessRendezvousC1EPKNS_9DeviceMgrE
libtensorflow_framework.so:_ZN10tensorflow22IntraProcessRendezvousC2EPKNS_9DeviceMgrE
libtensorflow_framework.so:_ZN10tensorflow22IntraProcessRendezvousD0Ev
libtensorflow_framework.so:_ZN10tensorflow22IntraProcessRendezvousD1Ev
libtensorflow_framework.so:_ZN10tensorflow22IntraProcessRendezvousD2Ev
libtensorflow_framework.so:_ZN10tensorflow22KernelsRegisteredForOpB5cxx11ENS_11StringPieceE
libtensorflow_framework.so:_ZN10tensorflow22MemoryLogRawAllocation10SharedCtorEv
libtensorflow_framework.so:_ZN10tensorflow22MemoryLogRawAllocation10SharedDtorEv
libtensorflow_framework.so:_ZN10tensorflow22MemoryLogRawAllocation10descriptorEv
libtensorflow_framework.so:_ZN10tensorflow22MemoryLogRawAllocation12InternalSwapEPS0_
libtensorflow_framework.so:_ZN10tensorflow22MemoryLogRawAllocation15UnsafeArenaSwapEPS0_
libtensorflow_framework.so:_ZN10tensorflow22MemoryLogRawAllocation16default_instanceEv
libtensorflow_framework.so:_ZN10tensorflow22MemoryLogRawAllocation21InitAsDefaultInstanceEv
libtensorflow_framework.so:_ZN10tensorflow22MemoryLogRawAllocation27MergePartialFromCodedStreamEPN6google8protobuf2io16CodedInputStreamE
libtensorflow_framework.so:_ZN10tensorflow22MemoryLogRawAllocation4SwapEPS0_
libtensorflow_framework.so:_ZN10tensorflow22MemoryLogRawAllocation5ClearEv
libtensorflow_framework.so:_ZN10tensorflow22MemoryLogRawAllocation8CopyFromERKN6google8protobuf7MessageE
libtensorflow_framework.so:_ZN10tensorflow22MemoryLogRawAllocation8CopyFromERKS0_
libtensorflow_framework.so:_ZN10tensorflow22MemoryLogRawAllocation9ArenaDtorEPv
libtensorflow_framework.so:_ZN10tensorflow22MemoryLogRawAllocation9MergeFromERKN6google8protobuf7MessageE
libtensorflow_framework.so:_ZN10tensorflow22MemoryLogRawAllocation9MergeFromERKS0_
libtensorflow_framework.so:_ZN10tensorflow22MemoryLogRawAllocationC1EPN6google8protobuf5ArenaE
libtensorflow_framework.so:_ZN10tensorflow22MemoryLogRawAllocationC1ERKS0_
libtensorflow_framework.so:_ZN10tensorflow22MemoryLogRawAllocationC1Ev
libtensorflow_framework.so:_ZN10tensorflow22MemoryLogRawAllocationC2EPN6google8protobuf5ArenaE
libtensorflow_framework.so:_ZN10tensorflow22MemoryLogRawAllocationC2ERKS0_
libtensorflow_framework.so:_ZN10tensorflow22MemoryLogRawAllocationC2Ev
libtensorflow_framework.so:_ZN10tensorflow22MemoryLogRawAllocationD0Ev
libtensorflow_framework.so:_ZN10tensorflow22MemoryLogRawAllocationD1Ev
libtensorflow_framework.so:_ZN10tensorflow22MemoryLogRawAllocationD2Ev
libtensorflow_framework.so:_ZN10tensorflow22OpPerformance_OpMemory10SharedCtorEv
libtensorflow_framework.so:_ZN10tensorflow22OpPerformance_OpMemory10SharedDtorEv
libtensorflow_framework.so:_ZN10tensorflow22OpPerformance_OpMemory10descriptorEv
libtensorflow_framework.so:_ZN10tensorflow22OpPerformance_OpMemory12InternalSwapEPS0_
libtensorflow_framework.so:_ZN10tensorflow22OpPerformance_OpMemory15UnsafeArenaSwapEPS0_
libtensorflow_framework.so:_ZN10tensorflow22OpPerformance_OpMemory16default_instanceEv
libtensorflow_framework.so:_ZN10tensorflow22OpPerformance_OpMemory21InitAsDefaultInstanceEv
libtensorflow_framework.so:_ZN10tensorflow22OpPerformance_OpMemory27MergePartialFromCodedStreamEPN6google8protobuf2io16CodedInputStreamE
libtensorflow_framework.so:_ZN10tensorflow22OpPerformance_OpMemory4SwapEPS0_
libtensorflow_framework.so:_ZN10tensorflow22OpPerformance_OpMemory5ClearEv
libtensorflow_framework.so:_ZN10tensorflow22OpPerformance_OpMemory8CopyFromERKN6google8protobuf7MessageE
libtensorflow_framework.so:_ZN10tensorflow22OpPerformance_OpMemory8CopyFromERKS0_
libtensorflow_framework.so:_ZN10tensorflow22OpPerformance_OpMemory9ArenaDtorEPv
libtensorflow_framework.so:_ZN10tensorflow22OpPerformance_OpMemory9MergeFromERKN6google8protobuf7MessageE
libtensorflow_framework.so:_ZN10tensorflow22OpPerformance_OpMemory9MergeFromERKS0_
libtensorflow_framework.so:_ZN10tensorflow22OpPerformance_OpMemoryC1EPN6google8protobuf5ArenaE
libtensorflow_framework.so:_ZN10tensorflow22OpPerformance_OpMemoryC1ERKS0_
libtensorflow_framework.so:_ZN10tensorflow22OpPerformance_OpMemoryC1Ev
libtensorflow_framework.so:_ZN10tensorflow22OpPerformance_OpMemoryC2EPN6google8protobuf5ArenaE
libtensorflow_framework.so:_ZN10tensorflow22OpPerformance_OpMemoryC2ERKS0_
libtensorflow_framework.so:_ZN10tensorflow22OpPerformance_OpMemoryC2Ev
libtensorflow_framework.so:_ZN10tensorflow22OpPerformance_OpMemoryD0Ev
libtensorflow_framework.so:_ZN10tensorflow22OpPerformance_OpMemoryD1Ev
libtensorflow_framework.so:_ZN10tensorflow22OpPerformance_OpMemoryD2Ev
libtensorflow_framework.so:_ZN10tensorflow22ScopedAllocatorOptions10SharedCtorEv
libtensorflow_framework.so:_ZN10tensorflow22ScopedAllocatorOptions10SharedDtorEv
libtensorflow_framework.so:_ZN10tensorflow22ScopedAllocatorOptions10descriptorEv
libtensorflow_framework.so:_ZN10tensorflow22ScopedAllocatorOptions12InternalSwapEPS0_
libtensorflow_framework.so:_ZN10tensorflow22ScopedAllocatorOptions15UnsafeArenaSwapEPS0_
libtensorflow_framework.so:_ZN10tensorflow22ScopedAllocatorOptions16default_instanceEv
libtensorflow_framework.so:_ZN10tensorflow22ScopedAllocatorOptions21InitAsDefaultInstanceEv
libtensorflow_framework.so:_ZN10tensorflow22ScopedAllocatorOptions27MergePartialFromCodedStreamEPN6google8protobuf2io16CodedInputStreamE
libtensorflow_framework.so:_ZN10tensorflow22ScopedAllocatorOptions4SwapEPS0_
libtensorflow_framework.so:_ZN10tensorflow22ScopedAllocatorOptions5ClearEv
libtensorflow_framework.so:_ZN10tensorflow22ScopedAllocatorOptions8CopyFromERKN6google8protobuf7MessageE
libtensorflow_framework.so:_ZN10tensorflow22ScopedAllocatorOptions8CopyFromERKS0_
libtensorflow_framework.so:_ZN10tensorflow22ScopedAllocatorOptions9ArenaDtorEPv
libtensorflow_framework.so:_ZN10tensorflow22ScopedAllocatorOptions9MergeFromERKN6google8protobuf7MessageE
libtensorflow_framework.so:_ZN10tensorflow22ScopedAllocatorOptions9MergeFromERKS0_
libtensorflow_framework.so:_ZN10tensorflow22ScopedAllocatorOptionsC1EPN6google8protobuf5ArenaE
libtensorflow_framework.so:_ZN10tensorflow22ScopedAllocatorOptionsC1ERKS0_
libtensorflow_framework.so:_ZN10tensorflow22ScopedAllocatorOptionsC1Ev
libtensorflow_framework.so:_ZN10tensorflow22ScopedAllocatorOptionsC2EPN6google8protobuf5ArenaE
libtensorflow_framework.so:_ZN10tensorflow22ScopedAllocatorOptionsC2ERKS0_
libtensorflow_framework.so:_ZN10tensorflow22ScopedAllocatorOptionsC2Ev
libtensorflow_framework.so:_ZN10tensorflow22ScopedAllocatorOptionsD0Ev
libtensorflow_framework.so:_ZN10tensorflow22ScopedAllocatorOptionsD1Ev
libtensorflow_framework.so:_ZN10tensorflow22ScopedAllocatorOptionsD2Ev
libtensorflow_framework.so:_ZN10tensorflow22StrippedOpListForGraphERKNS_8GraphDefERKNS_19OpRegistryInterfaceEPNS_6OpListE
libtensorflow_framework.so:_ZN10tensorflow22SubstitutePlaceholdersERKSt8functionIFbRKNSt7__cxx1112basic_stringIcSt11char_traitsIcESaIcEEEPNS_9AttrValueEEESA_
libtensorflow_framework.so:_ZN10tensorflow22SymbolicGradientHelper4CopyEv
libtensorflow_framework.so:_ZN10tensorflow22SymbolicGradientHelper7ComputeEv
libtensorflow_framework.so:_ZN10tensorflow22UnaryVariantOpRegistry10GetShapeFnENS_11StringPieceE
libtensorflow_framework.so:_ZN10tensorflow22UnaryVariantOpRegistry11GetDecodeFnENS_11StringPieceE
libtensorflow_framework.so:_ZN10tensorflow22UnaryVariantOpRegistry12GetUnaryOpFnENS_14VariantUnaryOpENS_11StringPieceES2_
libtensorflow_framework.so:_ZN10tensorflow22UnaryVariantOpRegistry13GetBinaryOpFnENS_15VariantBinaryOpENS_11StringPieceES2_
libtensorflow_framework.so:_ZN10tensorflow22UnaryVariantOpRegistry15GetDeviceCopyFnENS_26VariantDeviceCopyDirectionENS_11StringPieceE
libtensorflow_framework.so:_ZN10tensorflow22UnaryVariantOpRegistry15RegisterShapeFnERKNSt7__cxx1112basic_stringIcSt11char_traitsIcESaIcEEERKSt8functionIFNS_6StatusERKNS_7VariantEPNS_11TensorShapeEEE
libtensorflow_framework.so:_ZN10tensorflow22UnaryVariantOpRegistry16RegisterDecodeFnERKNSt7__cxx1112basic_stringIcSt11char_traitsIcESaIcEEERKSt8functionIFbPNS_7VariantEEE
libtensorflow_framework.so:_ZN10tensorflow22UnaryVariantOpRegistry17RegisterUnaryOpFnENS_14VariantUnaryOpERKNSt7__cxx1112basic_stringIcSt11char_traitsIcESaIcEEES9_RKSt8functionIFNS_6StatusEPNS_15OpKernelContextERKNS_7VariantEPSE_EE
libtensorflow_framework.so:_ZN10tensorflow22UnaryVariantOpRegistry18RegisterBinaryOpFnENS_15VariantBinaryOpERKNSt7__cxx1112basic_stringIcSt11char_traitsIcESaIcEEES9_RKSt8functionIFNS_6StatusEPNS_15OpKernelContextERKNS_7VariantESG_PSE_EE
libtensorflow_framework.so:_ZN10tensorflow22UnaryVariantOpRegistry20RegisterDeviceCopyFnENS_26VariantDeviceCopyDirectionERKNSt7__cxx1112basic_stringIcSt11char_traitsIcESaIcEEERKSt8functionIFNS_6StatusERKNS_7VariantEPSC_SA_IFSB_RKNS_6TensorEPSG_EEEE
libtensorflow_framework.so:_ZN10tensorflow22UnaryVariantOpRegistry23PersistentStringStorageB5cxx11Ev
libtensorflow_framework.so:_ZN10tensorflow22UnaryVariantOpRegistry6GlobalEv
libtensorflow_framework.so:_ZN10tensorflow22UniqueTensorReferences25FreezeAndReturnReferencesEPNS_3gtl13InlinedVectorINS_15TensorReferenceELi4EEE
libtensorflow_framework.so:_ZN10tensorflow22UniqueTensorReferences3AddERKNS_6TensorE
libtensorflow_framework.so:_ZN10tensorflow22UniqueTensorReferencesD1Ev
libtensorflow_framework.so:_ZN10tensorflow22UniqueTensorReferencesD2Ev
libtensorflow_framework.so:_ZN10tensorflow22ValidateStridedSliceOpEPKNS_6TensorES2_RS1_RKNS_18PartialTensorShapeEiiiiiPNS_11TensorShapeES8_PbS9_S9_PNS_3gtl13InlinedVectorIxLi4EEESD_SD_
libtensorflow_framework.so:_ZN10tensorflow22ValidateStridedSliceOpEPKNS_6TensorES2_RS1_RKNS_18PartialTensorShapeEiiiiiPS4_S7_PbS8_S8_PNS_3gtl13InlinedVectorIxLi4EEESC_SC_
libtensorflow_framework.so:_ZN10tensorflow22VariantTensorDataProto10SharedCtorEv
libtensorflow_framework.so:_ZN10tensorflow22VariantTensorDataProto10SharedDtorEv
libtensorflow_framework.so:_ZN10tensorflow22VariantTensorDataProto10descriptorEv
libtensorflow_framework.so:_ZN10tensorflow22VariantTensorDataProto12InternalSwapEPS0_
libtensorflow_framework.so:_ZN10tensorflow22VariantTensorDataProto15UnsafeArenaSwapEPS0_
libtensorflow_framework.so:_ZN10tensorflow22VariantTensorDataProto16default_instanceEv
libtensorflow_framework.so:_ZN10tensorflow22VariantTensorDataProto21InitAsDefaultInstanceEv
libtensorflow_framework.so:_ZN10tensorflow22VariantTensorDataProto27MergePartialFromCodedStreamEPN6google8protobuf2io16CodedInputStreamE
libtensorflow_framework.so:_ZN10tensorflow22VariantTensorDataProto4SwapEPS0_
libtensorflow_framework.so:_ZN10tensorflow22VariantTensorDataProto5ClearEv
libtensorflow_framework.so:_ZN10tensorflow22VariantTensorDataProto8CopyFromERKN6google8protobuf7MessageE
libtensorflow_framework.so:_ZN10tensorflow22VariantTensorDataProto8CopyFromERKS0_
libtensorflow_framework.so:_ZN10tensorflow22VariantTensorDataProto9ArenaDtorEPv
libtensorflow_framework.so:_ZN10tensorflow22VariantTensorDataProto9MergeFromERKN6google8protobuf7MessageE
libtensorflow_framework.so:_ZN10tensorflow22VariantTensorDataProto9MergeFromERKS0_
libtensorflow_framework.so:_ZN10tensorflow22VariantTensorDataProtoC1EPN6google8protobuf5ArenaE
libtensorflow_framework.so:_ZN10tensorflow22VariantTensorDataProtoC1ERKS0_
libtensorflow_framework.so:_ZN10tensorflow22VariantTensorDataProtoC1Ev
libtensorflow_framework.so:_ZN10tensorflow22VariantTensorDataProtoC2EPN6google8protobuf5ArenaE
libtensorflow_framework.so:_ZN10tensorflow22VariantTensorDataProtoC2ERKS0_
libtensorflow_framework.so:_ZN10tensorflow22VariantTensorDataProtoC2Ev
libtensorflow_framework.so:_ZN10tensorflow22VariantTensorDataProtoD0Ev
libtensorflow_framework.so:_ZN10tensorflow22VariantTensorDataProtoD1Ev
libtensorflow_framework.so:_ZN10tensorflow22VariantTensorDataProtoD2Ev
libtensorflow_framework.so:_ZN10tensorflow22WorkerHeartbeatRequest10SharedCtorEv
libtensorflow_framework.so:_ZN10tensorflow22WorkerHeartbeatRequest10SharedDtorEv
libtensorflow_framework.so:_ZN10tensorflow22WorkerHeartbeatRequest10descriptorEv
libtensorflow_framework.so:_ZN10tensorflow22WorkerHeartbeatRequest12InternalSwapEPS0_
libtensorflow_framework.so:_ZN10tensorflow22WorkerHeartbeatRequest15UnsafeArenaSwapEPS0_
libtensorflow_framework.so:_ZN10tensorflow22WorkerHeartbeatRequest16default_instanceEv
libtensorflow_framework.so:_ZN10tensorflow22WorkerHeartbeatRequest21InitAsDefaultInstanceEv
libtensorflow_framework.so:_ZN10tensorflow22WorkerHeartbeatRequest27MergePartialFromCodedStreamEPN6google8protobuf2io16CodedInputStreamE
libtensorflow_framework.so:_ZN10tensorflow22WorkerHeartbeatRequest42unsafe_arena_set_allocated_watchdog_configEPNS_14WatchdogConfigE
libtensorflow_framework.so:_ZN10tensorflow22WorkerHeartbeatRequest4SwapEPS0_
libtensorflow_framework.so:_ZN10tensorflow22WorkerHeartbeatRequest5ClearEv
libtensorflow_framework.so:_ZN10tensorflow22WorkerHeartbeatRequest8CopyFromERKN6google8protobuf7MessageE
libtensorflow_framework.so:_ZN10tensorflow22WorkerHeartbeatRequest8CopyFromERKS0_
libtensorflow_framework.so:_ZN10tensorflow22WorkerHeartbeatRequest9ArenaDtorEPv
libtensorflow_framework.so:_ZN10tensorflow22WorkerHeartbeatRequest9MergeFromERKN6google8protobuf7MessageE
libtensorflow_framework.so:_ZN10tensorflow22WorkerHeartbeatRequest9MergeFromERKS0_
libtensorflow_framework.so:_ZN10tensorflow22WorkerHeartbeatRequestC1EPN6google8protobuf5ArenaE
libtensorflow_framework.so:_ZN10tensorflow22WorkerHeartbeatRequestC1ERKS0_
libtensorflow_framework.so:_ZN10tensorflow22WorkerHeartbeatRequestC1Ev
libtensorflow_framework.so:_ZN10tensorflow22WorkerHeartbeatRequestC2EPN6google8protobuf5ArenaE
libtensorflow_framework.so:_ZN10tensorflow22WorkerHeartbeatRequestC2ERKS0_
libtensorflow_framework.so:_ZN10tensorflow22WorkerHeartbeatRequestC2Ev
libtensorflow_framework.so:_ZN10tensorflow22WorkerHeartbeatRequestD0Ev
libtensorflow_framework.so:_ZN10tensorflow22WorkerHeartbeatRequestD1Ev
libtensorflow_framework.so:_ZN10tensorflow22WorkerHeartbeatRequestD2Ev
libtensorflow_framework.so:_ZN10tensorflow23CollectionDef_BytesList10SharedCtorEv
libtensorflow_framework.so:_ZN10tensorflow23CollectionDef_BytesList10SharedDtorEv
libtensorflow_framework.so:_ZN10tensorflow23CollectionDef_BytesList10descriptorEv
libtensorflow_framework.so:_ZN10tensorflow23CollectionDef_BytesList12InternalSwapEPS0_
libtensorflow_framework.so:_ZN10tensorflow23CollectionDef_BytesList15UnsafeArenaSwapEPS0_
libtensorflow_framework.so:_ZN10tensorflow23CollectionDef_BytesList16default_instanceEv
libtensorflow_framework.so:_ZN10tensorflow23CollectionDef_BytesList21InitAsDefaultInstanceEv
libtensorflow_framework.so:_ZN10tensorflow23CollectionDef_BytesList27MergePartialFromCodedStreamEPN6google8protobuf2io16CodedInputStreamE
libtensorflow_framework.so:_ZN10tensorflow23CollectionDef_BytesList4SwapEPS0_
libtensorflow_framework.so:_ZN10tensorflow23CollectionDef_BytesList5ClearEv
libtensorflow_framework.so:_ZN10tensorflow23CollectionDef_BytesList8CopyFromERKN6google8protobuf7MessageE
libtensorflow_framework.so:_ZN10tensorflow23CollectionDef_BytesList8CopyFromERKS0_
libtensorflow_framework.so:_ZN10tensorflow23CollectionDef_BytesList9ArenaDtorEPv
libtensorflow_framework.so:_ZN10tensorflow23CollectionDef_BytesList9MergeFromERKN6google8protobuf7MessageE
libtensorflow_framework.so:_ZN10tensorflow23CollectionDef_BytesList9MergeFromERKS0_
libtensorflow_framework.so:_ZN10tensorflow23CollectionDef_BytesListC1EPN6google8protobuf5ArenaE
libtensorflow_framework.so:_ZN10tensorflow23CollectionDef_BytesListC1ERKS0_
libtensorflow_framework.so:_ZN10tensorflow23CollectionDef_BytesListC1Ev
libtensorflow_framework.so:_ZN10tensorflow23CollectionDef_BytesListC2EPN6google8protobuf5ArenaE
libtensorflow_framework.so:_ZN10tensorflow23CollectionDef_BytesListC2ERKS0_
libtensorflow_framework.so:_ZN10tensorflow23CollectionDef_BytesListC2Ev
libtensorflow_framework.so:_ZN10tensorflow23CollectionDef_BytesListD0Ev
libtensorflow_framework.so:_ZN10tensorflow23CollectionDef_BytesListD1Ev
libtensorflow_framework.so:_ZN10tensorflow23CollectionDef_BytesListD2Ev
libtensorflow_framework.so:_ZN10tensorflow23CollectionDef_FloatList10SharedCtorEv
libtensorflow_framework.so:_ZN10tensorflow23CollectionDef_FloatList10SharedDtorEv
libtensorflow_framework.so:_ZN10tensorflow23CollectionDef_FloatList10descriptorEv
libtensorflow_framework.so:_ZN10tensorflow23CollectionDef_FloatList12InternalSwapEPS0_
libtensorflow_framework.so:_ZN10tensorflow23CollectionDef_FloatList15UnsafeArenaSwapEPS0_
libtensorflow_framework.so:_ZN10tensorflow23CollectionDef_FloatList16default_instanceEv
libtensorflow_framework.so:_ZN10tensorflow23CollectionDef_FloatList21InitAsDefaultInstanceEv
libtensorflow_framework.so:_ZN10tensorflow23CollectionDef_FloatList27MergePartialFromCodedStreamEPN6google8protobuf2io16CodedInputStreamE
libtensorflow_framework.so:_ZN10tensorflow23CollectionDef_FloatList4SwapEPS0_
libtensorflow_framework.so:_ZN10tensorflow23CollectionDef_FloatList5ClearEv
libtensorflow_framework.so:_ZN10tensorflow23CollectionDef_FloatList8CopyFromERKN6google8protobuf7MessageE
libtensorflow_framework.so:_ZN10tensorflow23CollectionDef_FloatList8CopyFromERKS0_
libtensorflow_framework.so:_ZN10tensorflow23CollectionDef_FloatList9ArenaDtorEPv
libtensorflow_framework.so:_ZN10tensorflow23CollectionDef_FloatList9MergeFromERKN6google8protobuf7MessageE
libtensorflow_framework.so:_ZN10tensorflow23CollectionDef_FloatList9MergeFromERKS0_
libtensorflow_framework.so:_ZN10tensorflow23CollectionDef_FloatListC1EPN6google8protobuf5ArenaE
libtensorflow_framework.so:_ZN10tensorflow23CollectionDef_FloatListC1ERKS0_
libtensorflow_framework.so:_ZN10tensorflow23CollectionDef_FloatListC1Ev
libtensorflow_framework.so:_ZN10tensorflow23CollectionDef_FloatListC2EPN6google8protobuf5ArenaE
libtensorflow_framework.so:_ZN10tensorflow23CollectionDef_FloatListC2ERKS0_
libtensorflow_framework.so:_ZN10tensorflow23CollectionDef_FloatListC2Ev
libtensorflow_framework.so:_ZN10tensorflow23CollectionDef_FloatListD0Ev
libtensorflow_framework.so:_ZN10tensorflow23CollectionDef_FloatListD1Ev
libtensorflow_framework.so:_ZN10tensorflow23CollectionDef_FloatListD2Ev
libtensorflow_framework.so:_ZN10tensorflow23CollectionDef_Int64List10SharedCtorEv
libtensorflow_framework.so:_ZN10tensorflow23CollectionDef_Int64List10SharedDtorEv
libtensorflow_framework.so:_ZN10tensorflow23CollectionDef_Int64List10descriptorEv
libtensorflow_framework.so:_ZN10tensorflow23CollectionDef_Int64List12InternalSwapEPS0_
libtensorflow_framework.so:_ZN10tensorflow23CollectionDef_Int64List15UnsafeArenaSwapEPS0_
libtensorflow_framework.so:_ZN10tensorflow23CollectionDef_Int64List16default_instanceEv
libtensorflow_framework.so:_ZN10tensorflow23CollectionDef_Int64List21InitAsDefaultInstanceEv
libtensorflow_framework.so:_ZN10tensorflow23CollectionDef_Int64List27MergePartialFromCodedStreamEPN6google8protobuf2io16CodedInputStreamE
libtensorflow_framework.so:_ZN10tensorflow23CollectionDef_Int64List4SwapEPS0_
libtensorflow_framework.so:_ZN10tensorflow23CollectionDef_Int64List5ClearEv
libtensorflow_framework.so:_ZN10tensorflow23CollectionDef_Int64List8CopyFromERKN6google8protobuf7MessageE
libtensorflow_framework.so:_ZN10tensorflow23CollectionDef_Int64List8CopyFromERKS0_
libtensorflow_framework.so:_ZN10tensorflow23CollectionDef_Int64List9ArenaDtorEPv
libtensorflow_framework.so:_ZN10tensorflow23CollectionDef_Int64List9MergeFromERKN6google8protobuf7MessageE
libtensorflow_framework.so:_ZN10tensorflow23CollectionDef_Int64List9MergeFromERKS0_
libtensorflow_framework.so:_ZN10tensorflow23CollectionDef_Int64ListC1EPN6google8protobuf5ArenaE
libtensorflow_framework.so:_ZN10tensorflow23CollectionDef_Int64ListC1ERKS0_
libtensorflow_framework.so:_ZN10tensorflow23CollectionDef_Int64ListC1Ev
libtensorflow_framework.so:_ZN10tensorflow23CollectionDef_Int64ListC2EPN6google8protobuf5ArenaE
libtensorflow_framework.so:_ZN10tensorflow23CollectionDef_Int64ListC2ERKS0_
libtensorflow_framework.so:_ZN10tensorflow23CollectionDef_Int64ListC2Ev
libtensorflow_framework.so:_ZN10tensorflow23CollectionDef_Int64ListD0Ev
libtensorflow_framework.so:_ZN10tensorflow23CollectionDef_Int64ListD1Ev
libtensorflow_framework.so:_ZN10tensorflow23CollectionDef_Int64ListD2Ev
libtensorflow_framework.so:_ZN10tensorflow23EnableCPUAllocatorStatsEb
libtensorflow_framework.so:_ZN10tensorflow23FixupSourceAndSinkEdgesEPNS_5GraphE
libtensorflow_framework.so:_ZN10tensorflow23FunctionDefToBodyHelperERKNS_11FunctionDefERKNS_9AttrSliceEPKNS_25FunctionLibraryDefinitionERKSt8functionIFNS_6StatusERKNSt7__cxx1112basic_stringIcSt11char_traitsIcESaIcEEEPPKNS_5OpDefEEEPPNS_12FunctionBodyE
libtensorflow_framework.so:_ZN10tensorflow23GPUOptions_Experimental10SharedCtorEv
libtensorflow_framework.so:_ZN10tensorflow23GPUOptions_Experimental10SharedDtorEv
libtensorflow_framework.so:_ZN10tensorflow23GPUOptions_Experimental10descriptorEv
libtensorflow_framework.so:_ZN10tensorflow23GPUOptions_Experimental12InternalSwapEPS0_
libtensorflow_framework.so:_ZN10tensorflow23GPUOptions_Experimental15UnsafeArenaSwapEPS0_
libtensorflow_framework.so:_ZN10tensorflow23GPUOptions_Experimental16default_instanceEv
libtensorflow_framework.so:_ZN10tensorflow23GPUOptions_Experimental21InitAsDefaultInstanceEv
libtensorflow_framework.so:_ZN10tensorflow23GPUOptions_Experimental27MergePartialFromCodedStreamEPN6google8protobuf2io16CodedInputStreamE
libtensorflow_framework.so:_ZN10tensorflow23GPUOptions_Experimental4SwapEPS0_
libtensorflow_framework.so:_ZN10tensorflow23GPUOptions_Experimental5ClearEv
libtensorflow_framework.so:_ZN10tensorflow23GPUOptions_Experimental8CopyFromERKN6google8protobuf7MessageE
libtensorflow_framework.so:_ZN10tensorflow23GPUOptions_Experimental8CopyFromERKS0_
libtensorflow_framework.so:_ZN10tensorflow23GPUOptions_Experimental9ArenaDtorEPv
libtensorflow_framework.so:_ZN10tensorflow23GPUOptions_Experimental9MergeFromERKN6google8protobuf7MessageE
libtensorflow_framework.so:_ZN10tensorflow23GPUOptions_Experimental9MergeFromERKS0_
libtensorflow_framework.so:_ZN10tensorflow23GPUOptions_ExperimentalC1EPN6google8protobuf5ArenaE
libtensorflow_framework.so:_ZN10tensorflow23GPUOptions_ExperimentalC1ERKS0_
libtensorflow_framework.so:_ZN10tensorflow23GPUOptions_ExperimentalC1Ev
libtensorflow_framework.so:_ZN10tensorflow23GPUOptions_ExperimentalC2EPN6google8protobuf5ArenaE
libtensorflow_framework.so:_ZN10tensorflow23GPUOptions_ExperimentalC2ERKS0_
libtensorflow_framework.so:_ZN10tensorflow23GPUOptions_ExperimentalC2Ev
libtensorflow_framework.so:_ZN10tensorflow23GPUOptions_ExperimentalD0Ev
libtensorflow_framework.so:_ZN10tensorflow23GPUOptions_ExperimentalD1Ev
libtensorflow_framework.so:_ZN10tensorflow23GPUOptions_ExperimentalD2Ev
libtensorflow_framework.so:_ZN10tensorflow23GetAllRegisteredKernelsEv
libtensorflow_framework.so:_ZN10tensorflow23GetWindowedOutputSizeV2ExxxxNS_7PaddingEPxS1_
libtensorflow_framework.so:_ZN10tensorflow23LogAllRegisteredKernelsEv
libtensorflow_framework.so:_ZN10tensorflow23OpInfo_TensorProperties10SharedCtorEv
libtensorflow_framework.so:_ZN10tensorflow23OpInfo_TensorProperties10SharedDtorEv
libtensorflow_framework.so:_ZN10tensorflow23OpInfo_TensorProperties10descriptorEv
libtensorflow_framework.so:_ZN10tensorflow23OpInfo_TensorProperties11clear_shapeEv
libtensorflow_framework.so:_ZN10tensorflow23OpInfo_TensorProperties11clear_valueEv
libtensorflow_framework.so:_ZN10tensorflow23OpInfo_TensorProperties12InternalSwapEPS0_
libtensorflow_framework.so:_ZN10tensorflow23OpInfo_TensorProperties15UnsafeArenaSwapEPS0_
libtensorflow_framework.so:_ZN10tensorflow23OpInfo_TensorProperties16default_instanceEv
libtensorflow_framework.so:_ZN10tensorflow23OpInfo_TensorProperties21InitAsDefaultInstanceEv
libtensorflow_framework.so:_ZN10tensorflow23OpInfo_TensorProperties27MergePartialFromCodedStreamEPN6google8protobuf2io16CodedInputStreamE
libtensorflow_framework.so:_ZN10tensorflow23OpInfo_TensorProperties32unsafe_arena_set_allocated_shapeEPNS_16TensorShapeProtoE
libtensorflow_framework.so:_ZN10tensorflow23OpInfo_TensorProperties32unsafe_arena_set_allocated_valueEPNS_11TensorProtoE
libtensorflow_framework.so:_ZN10tensorflow23OpInfo_TensorProperties4SwapEPS0_
libtensorflow_framework.so:_ZN10tensorflow23OpInfo_TensorProperties5ClearEv
libtensorflow_framework.so:_ZN10tensorflow23OpInfo_TensorProperties8CopyFromERKN6google8protobuf7MessageE
libtensorflow_framework.so:_ZN10tensorflow23OpInfo_TensorProperties8CopyFromERKS0_
libtensorflow_framework.so:_ZN10tensorflow23OpInfo_TensorProperties9ArenaDtorEPv
libtensorflow_framework.so:_ZN10tensorflow23OpInfo_TensorProperties9MergeFromERKN6google8protobuf7MessageE
libtensorflow_framework.so:_ZN10tensorflow23OpInfo_TensorProperties9MergeFromERKS0_
libtensorflow_framework.so:_ZN10tensorflow23OpInfo_TensorPropertiesC1EPN6google8protobuf5ArenaE
libtensorflow_framework.so:_ZN10tensorflow23OpInfo_TensorPropertiesC1ERKS0_
libtensorflow_framework.so:_ZN10tensorflow23OpInfo_TensorPropertiesC1Ev
libtensorflow_framework.so:_ZN10tensorflow23OpInfo_TensorPropertiesC2EPN6google8protobuf5ArenaE
libtensorflow_framework.so:_ZN10tensorflow23OpInfo_TensorPropertiesC2ERKS0_
libtensorflow_framework.so:_ZN10tensorflow23OpInfo_TensorPropertiesC2Ev
libtensorflow_framework.so:_ZN10tensorflow23OpInfo_TensorPropertiesD0Ev
libtensorflow_framework.so:_ZN10tensorflow23OpInfo_TensorPropertiesD1Ev
libtensorflow_framework.so:_ZN10tensorflow23OpInfo_TensorPropertiesD2Ev
libtensorflow_framework.so:_ZN10tensorflow23ParseSingleExampleAttrs10FinishInitEv
libtensorflow_framework.so:_ZN10tensorflow23PartialTensorShapeUtils12AreIdenticalERKNS_3gtl10ArraySliceINS_18PartialTensorShapeEEES6_
libtensorflow_framework.so:_ZN10tensorflow23PartialTensorShapeUtils13AreCompatibleERKNS_3gtl10ArraySliceINS_18PartialTensorShapeEEES6_
libtensorflow_framework.so:_ZN10tensorflow23PartialTensorShapeUtils22PartialShapeListStringB5cxx11ERKNS_3gtl10ArraySliceINS_18PartialTensorShapeEEE
libtensorflow_framework.so:_ZN10tensorflow23RunOptions_Experimental10SharedCtorEv
libtensorflow_framework.so:_ZN10tensorflow23RunOptions_Experimental10SharedDtorEv
libtensorflow_framework.so:_ZN10tensorflow23RunOptions_Experimental10descriptorEv
libtensorflow_framework.so:_ZN10tensorflow23RunOptions_Experimental12InternalSwapEPS0_
libtensorflow_framework.so:_ZN10tensorflow23RunOptions_Experimental15UnsafeArenaSwapEPS0_
libtensorflow_framework.so:_ZN10tensorflow23RunOptions_Experimental16default_instanceEv
libtensorflow_framework.so:_ZN10tensorflow23RunOptions_Experimental21InitAsDefaultInstanceEv
libtensorflow_framework.so:_ZN10tensorflow23RunOptions_Experimental27MergePartialFromCodedStreamEPN6google8protobuf2io16CodedInputStreamE
libtensorflow_framework.so:_ZN10tensorflow23RunOptions_Experimental4SwapEPS0_
libtensorflow_framework.so:_ZN10tensorflow23RunOptions_Experimental5ClearEv
libtensorflow_framework.so:_ZN10tensorflow23RunOptions_Experimental8CopyFromERKN6google8protobuf7MessageE
libtensorflow_framework.so:_ZN10tensorflow23RunOptions_Experimental8CopyFromERKS0_
libtensorflow_framework.so:_ZN10tensorflow23RunOptions_Experimental9ArenaDtorEPv
libtensorflow_framework.so:_ZN10tensorflow23RunOptions_Experimental9MergeFromERKN6google8protobuf7MessageE
libtensorflow_framework.so:_ZN10tensorflow23RunOptions_Experimental9MergeFromERKS0_
libtensorflow_framework.so:_ZN10tensorflow23RunOptions_ExperimentalC1EPN6google8protobuf5ArenaE
libtensorflow_framework.so:_ZN10tensorflow23RunOptions_ExperimentalC1ERKS0_
libtensorflow_framework.so:_ZN10tensorflow23RunOptions_ExperimentalC1Ev
libtensorflow_framework.so:_ZN10tensorflow23RunOptions_ExperimentalC2EPN6google8protobuf5ArenaE
libtensorflow_framework.so:_ZN10tensorflow23RunOptions_ExperimentalC2ERKS0_
libtensorflow_framework.so:_ZN10tensorflow23RunOptions_ExperimentalC2Ev
libtensorflow_framework.so:_ZN10tensorflow23RunOptions_ExperimentalD0Ev
libtensorflow_framework.so:_ZN10tensorflow23RunOptions_ExperimentalD1Ev
libtensorflow_framework.so:_ZN10tensorflow23RunOptions_ExperimentalD2Ev
libtensorflow_framework.so:_ZN10tensorflow23ScopedAllocatorInstance11AllocateRawEmm
libtensorflow_framework.so:_ZN10tensorflow23ScopedAllocatorInstance13DeallocateRawEPv
libtensorflow_framework.so:_ZN10tensorflow23ScopedAllocatorInstance13DropFromTableEv
libtensorflow_framework.so:_ZN10tensorflow23ScopedAllocatorInstance4NameB5cxx11Ev
libtensorflow_framework.so:_ZN10tensorflow23ScopedAllocatorInstanceC1EPNS_15ScopedAllocatorEi
libtensorflow_framework.so:_ZN10tensorflow23ScopedAllocatorInstanceC2EPNS_15ScopedAllocatorEi
libtensorflow_framework.so:_ZN10tensorflow23SendTensorsToRendezvousEPNS_10RendezvousEPNS_13DeviceContextERKSt6vectorINS_19AllocatorAttributesESaIS5_EERKS4_INSt7__cxx1112basic_stringIcSt11char_traitsIcESaIcEEESaISF_EENS_3gtl10ArraySliceINS_6TensorEEE
libtensorflow_framework.so:_ZN10tensorflow23SymbolicGradientBuilder12InitBackpropEv
libtensorflow_framework.so:_ZN10tensorflow23SymbolicGradientBuilder12SumGradientsERKNS_7NodeOutE
libtensorflow_framework.so:_ZN10tensorflow23SymbolicGradientBuilder17BackpropAlongEdgeERKNS_7NodeOutES3_
libtensorflow_framework.so:_ZN10tensorflow23SymbolicGradientBuilder22BackpropZerosAlongEdgeERKNS_7NodeOutE
libtensorflow_framework.so:_ZN10tensorflow23SymbolicGradientBuilder7ComputeEv
libtensorflow_framework.so:_ZN10tensorflow23SymbolicGradientBuilderC1ENS_3gtl10ArraySliceINS_7NodeOutEEES4_S4_PSt6vectorIS3_SaIS3_EEPNS_5GraphE
libtensorflow_framework.so:_ZN10tensorflow23SymbolicGradientBuilderC2ENS_3gtl10ArraySliceINS_7NodeOutEEES4_S4_PSt6vectorIS3_SaIS3_EEPNS_5GraphE
libtensorflow_framework.so:_ZN10tensorflow23TensorSliceProto_Extent10SharedCtorEv
libtensorflow_framework.so:_ZN10tensorflow23TensorSliceProto_Extent10SharedDtorEv
libtensorflow_framework.so:_ZN10tensorflow23TensorSliceProto_Extent10descriptorEv
libtensorflow_framework.so:_ZN10tensorflow23TensorSliceProto_Extent12InternalSwapEPS0_
libtensorflow_framework.so:_ZN10tensorflow23TensorSliceProto_Extent15UnsafeArenaSwapEPS0_
libtensorflow_framework.so:_ZN10tensorflow23TensorSliceProto_Extent16clear_has_lengthEv
libtensorflow_framework.so:_ZN10tensorflow23TensorSliceProto_Extent16default_instanceEv
libtensorflow_framework.so:_ZN10tensorflow23TensorSliceProto_Extent21InitAsDefaultInstanceEv
libtensorflow_framework.so:_ZN10tensorflow23TensorSliceProto_Extent27MergePartialFromCodedStreamEPN6google8protobuf2io16CodedInputStreamE
libtensorflow_framework.so:_ZN10tensorflow23TensorSliceProto_Extent4SwapEPS0_
libtensorflow_framework.so:_ZN10tensorflow23TensorSliceProto_Extent5ClearEv
libtensorflow_framework.so:_ZN10tensorflow23TensorSliceProto_Extent8CopyFromERKN6google8protobuf7MessageE
libtensorflow_framework.so:_ZN10tensorflow23TensorSliceProto_Extent8CopyFromERKS0_
libtensorflow_framework.so:_ZN10tensorflow23TensorSliceProto_Extent9ArenaDtorEPv
libtensorflow_framework.so:_ZN10tensorflow23TensorSliceProto_Extent9MergeFromERKN6google8protobuf7MessageE
libtensorflow_framework.so:_ZN10tensorflow23TensorSliceProto_Extent9MergeFromERKS0_
libtensorflow_framework.so:_ZN10tensorflow23TensorSliceProto_ExtentC1EPN6google8protobuf5ArenaE
libtensorflow_framework.so:_ZN10tensorflow23TensorSliceProto_ExtentC1ERKS0_
libtensorflow_framework.so:_ZN10tensorflow23TensorSliceProto_ExtentC1Ev
libtensorflow_framework.so:_ZN10tensorflow23TensorSliceProto_ExtentC2EPN6google8protobuf5ArenaE
libtensorflow_framework.so:_ZN10tensorflow23TensorSliceProto_ExtentC2ERKS0_
libtensorflow_framework.so:_ZN10tensorflow23TensorSliceProto_ExtentC2Ev
libtensorflow_framework.so:_ZN10tensorflow23TensorSliceProto_ExtentD0Ev
libtensorflow_framework.so:_ZN10tensorflow23TensorSliceProto_ExtentD1Ev
libtensorflow_framework.so:_ZN10tensorflow23TensorSliceProto_ExtentD2Ev
libtensorflow_framework.so:_ZN10tensorflow23WorkerHealth_descriptorEv
libtensorflow_framework.so:_ZN10tensorflow23WorkerHeartbeatResponse10SharedCtorEv
libtensorflow_framework.so:_ZN10tensorflow23WorkerHeartbeatResponse10SharedDtorEv
libtensorflow_framework.so:_ZN10tensorflow23WorkerHeartbeatResponse10descriptorEv
libtensorflow_framework.so:_ZN10tensorflow23WorkerHeartbeatResponse12InternalSwapEPS0_
libtensorflow_framework.so:_ZN10tensorflow23WorkerHeartbeatResponse15UnsafeArenaSwapEPS0_
libtensorflow_framework.so:_ZN10tensorflow23WorkerHeartbeatResponse16default_instanceEv
libtensorflow_framework.so:_ZN10tensorflow23WorkerHeartbeatResponse21InitAsDefaultInstanceEv
libtensorflow_framework.so:_ZN10tensorflow23WorkerHeartbeatResponse27MergePartialFromCodedStreamEPN6google8protobuf2io16CodedInputStreamE
libtensorflow_framework.so:_ZN10tensorflow23WorkerHeartbeatResponse4SwapEPS0_
libtensorflow_framework.so:_ZN10tensorflow23WorkerHeartbeatResponse5ClearEv
libtensorflow_framework.so:_ZN10tensorflow23WorkerHeartbeatResponse8CopyFromERKN6google8protobuf7MessageE
libtensorflow_framework.so:_ZN10tensorflow23WorkerHeartbeatResponse8CopyFromERKS0_
libtensorflow_framework.so:_ZN10tensorflow23WorkerHeartbeatResponse9ArenaDtorEPv
libtensorflow_framework.so:_ZN10tensorflow23WorkerHeartbeatResponse9MergeFromERKN6google8protobuf7MessageE
libtensorflow_framework.so:_ZN10tensorflow23WorkerHeartbeatResponse9MergeFromERKS0_
libtensorflow_framework.so:_ZN10tensorflow23WorkerHeartbeatResponseC1EPN6google8protobuf5ArenaE
libtensorflow_framework.so:_ZN10tensorflow23WorkerHeartbeatResponseC1ERKS0_
libtensorflow_framework.so:_ZN10tensorflow23WorkerHeartbeatResponseC1Ev
libtensorflow_framework.so:_ZN10tensorflow23WorkerHeartbeatResponseC2EPN6google8protobuf5ArenaE
libtensorflow_framework.so:_ZN10tensorflow23WorkerHeartbeatResponseC2ERKS0_
libtensorflow_framework.so:_ZN10tensorflow23WorkerHeartbeatResponseC2Ev
libtensorflow_framework.so:_ZN10tensorflow23WorkerHeartbeatResponseD0Ev
libtensorflow_framework.so:_ZN10tensorflow23WorkerHeartbeatResponseD1Ev
libtensorflow_framework.so:_ZN10tensorflow23WorkerHeartbeatResponseD2Ev
libtensorflow_framework.so:_ZN10tensorflow24AddPrefixAndSuffixToNodeENS_11StringPieceES0_PNS_7NodeDefE
libtensorflow_framework.so:_ZN10tensorflow24ConfigProto_Experimental10SharedCtorEv
libtensorflow_framework.so:_ZN10tensorflow24ConfigProto_Experimental10SharedDtorEv
libtensorflow_framework.so:_ZN10tensorflow24ConfigProto_Experimental10descriptorEv
libtensorflow_framework.so:_ZN10tensorflow24ConfigProto_Experimental12InternalSwapEPS0_
libtensorflow_framework.so:_ZN10tensorflow24ConfigProto_Experimental15UnsafeArenaSwapEPS0_
libtensorflow_framework.so:_ZN10tensorflow24ConfigProto_Experimental16default_instanceEv
libtensorflow_framework.so:_ZN10tensorflow24ConfigProto_Experimental21InitAsDefaultInstanceEv
libtensorflow_framework.so:_ZN10tensorflow24ConfigProto_Experimental27MergePartialFromCodedStreamEPN6google8protobuf2io16CodedInputStreamE
libtensorflow_framework.so:_ZN10tensorflow24ConfigProto_Experimental4SwapEPS0_
libtensorflow_framework.so:_ZN10tensorflow24ConfigProto_Experimental5ClearEv
libtensorflow_framework.so:_ZN10tensorflow24ConfigProto_Experimental8CopyFromERKN6google8protobuf7MessageE
libtensorflow_framework.so:_ZN10tensorflow24ConfigProto_Experimental8CopyFromERKS0_
libtensorflow_framework.so:_ZN10tensorflow24ConfigProto_Experimental9ArenaDtorEPv
libtensorflow_framework.so:_ZN10tensorflow24ConfigProto_Experimental9MergeFromERKN6google8protobuf7MessageE
libtensorflow_framework.so:_ZN10tensorflow24ConfigProto_Experimental9MergeFromERKS0_
libtensorflow_framework.so:_ZN10tensorflow24ConfigProto_ExperimentalC1EPN6google8protobuf5ArenaE
libtensorflow_framework.so:_ZN10tensorflow24ConfigProto_ExperimentalC1ERKS0_
libtensorflow_framework.so:_ZN10tensorflow24ConfigProto_ExperimentalC1Ev
libtensorflow_framework.so:_ZN10tensorflow24ConfigProto_ExperimentalC2EPN6google8protobuf5ArenaE
libtensorflow_framework.so:_ZN10tensorflow24ConfigProto_ExperimentalC2ERKS0_
libtensorflow_framework.so:_ZN10tensorflow24ConfigProto_ExperimentalC2Ev
libtensorflow_framework.so:_ZN10tensorflow24ConfigProto_ExperimentalD0Ev
libtensorflow_framework.so:_ZN10tensorflow24ConfigProto_ExperimentalD1Ev
libtensorflow_framework.so:_ZN10tensorflow24ConfigProto_ExperimentalD2Ev
libtensorflow_framework.so:_ZN10tensorflow24CreateNoOpStatsPublisherERKNSt7__cxx1112basic_stringIcSt11char_traitsIcESaIcEEERKNS_17BuildGraphOptionsERKNS_14SessionOptionsE
libtensorflow_framework.so:_ZN10tensorflow24DecodeResourceHandleListESt10unique_ptrINS_4port17StringListDecoderESt14default_deleteIS2_EEPNS_14ResourceHandleEx
libtensorflow_framework.so:_ZN10tensorflow24EncodeResourceHandleListEPKNS_14ResourceHandleExSt10unique_ptrINS_4port17StringListEncoderESt14default_deleteIS5_EE
libtensorflow_framework.so:_ZN10tensorflow24KernelDef_AttrConstraint10SharedCtorEv
libtensorflow_framework.so:_ZN10tensorflow24KernelDef_AttrConstraint10SharedDtorEv
libtensorflow_framework.so:_ZN10tensorflow24KernelDef_AttrConstraint10descriptorEv
libtensorflow_framework.so:_ZN10tensorflow24KernelDef_AttrConstraint12InternalSwapEPS0_
libtensorflow_framework.so:_ZN10tensorflow24KernelDef_AttrConstraint15UnsafeArenaSwapEPS0_
libtensorflow_framework.so:_ZN10tensorflow24KernelDef_AttrConstraint16default_instanceEv
libtensorflow_framework.so:_ZN10tensorflow24KernelDef_AttrConstraint20clear_allowed_valuesEv
libtensorflow_framework.so:_ZN10tensorflow24KernelDef_AttrConstraint21InitAsDefaultInstanceEv
libtensorflow_framework.so:_ZN10tensorflow24KernelDef_AttrConstraint27MergePartialFromCodedStreamEPN6google8protobuf2io16CodedInputStreamE
libtensorflow_framework.so:_ZN10tensorflow24KernelDef_AttrConstraint41unsafe_arena_set_allocated_allowed_valuesEPNS_9AttrValueE
libtensorflow_framework.so:_ZN10tensorflow24KernelDef_AttrConstraint4SwapEPS0_
libtensorflow_framework.so:_ZN10tensorflow24KernelDef_AttrConstraint5ClearEv
libtensorflow_framework.so:_ZN10tensorflow24KernelDef_AttrConstraint8CopyFromERKN6google8protobuf7MessageE
libtensorflow_framework.so:_ZN10tensorflow24KernelDef_AttrConstraint8CopyFromERKS0_
libtensorflow_framework.so:_ZN10tensorflow24KernelDef_AttrConstraint9ArenaDtorEPv
libtensorflow_framework.so:_ZN10tensorflow24KernelDef_AttrConstraint9MergeFromERKN6google8protobuf7MessageE
libtensorflow_framework.so:_ZN10tensorflow24KernelDef_AttrConstraint9MergeFromERKS0_
libtensorflow_framework.so:_ZN10tensorflow24KernelDef_AttrConstraintC1EPN6google8protobuf5ArenaE
libtensorflow_framework.so:_ZN10tensorflow24KernelDef_AttrConstraintC1ERKS0_
libtensorflow_framework.so:_ZN10tensorflow24KernelDef_AttrConstraintC1Ev
libtensorflow_framework.so:_ZN10tensorflow24KernelDef_AttrConstraintC2EPN6google8protobuf5ArenaE
libtensorflow_framework.so:_ZN10tensorflow24KernelDef_AttrConstraintC2ERKS0_
libtensorflow_framework.so:_ZN10tensorflow24KernelDef_AttrConstraintC2Ev
libtensorflow_framework.so:_ZN10tensorflow24KernelDef_AttrConstraintD0Ev
libtensorflow_framework.so:_ZN10tensorflow24KernelDef_AttrConstraintD1Ev
libtensorflow_framework.so:_ZN10tensorflow24KernelDef_AttrConstraintD2Ev
libtensorflow_framework.so:_ZN10tensorflow24LogMessage_Level_IsValidEi
libtensorflow_framework.so:_ZN10tensorflow24MemoryLogRawDeallocation10SharedCtorEv
libtensorflow_framework.so:_ZN10tensorflow24MemoryLogRawDeallocation10SharedDtorEv
libtensorflow_framework.so:_ZN10tensorflow24MemoryLogRawDeallocation10descriptorEv
libtensorflow_framework.so:_ZN10tensorflow24MemoryLogRawDeallocation12InternalSwapEPS0_
libtensorflow_framework.so:_ZN10tensorflow24MemoryLogRawDeallocation15UnsafeArenaSwapEPS0_
libtensorflow_framework.so:_ZN10tensorflow24MemoryLogRawDeallocation16default_instanceEv
libtensorflow_framework.so:_ZN10tensorflow24MemoryLogRawDeallocation21InitAsDefaultInstanceEv
libtensorflow_framework.so:_ZN10tensorflow24MemoryLogRawDeallocation27MergePartialFromCodedStreamEPN6google8protobuf2io16CodedInputStreamE
libtensorflow_framework.so:_ZN10tensorflow24MemoryLogRawDeallocation4SwapEPS0_
libtensorflow_framework.so:_ZN10tensorflow24MemoryLogRawDeallocation5ClearEv
libtensorflow_framework.so:_ZN10tensorflow24MemoryLogRawDeallocation8CopyFromERKN6google8protobuf7MessageE
libtensorflow_framework.so:_ZN10tensorflow24MemoryLogRawDeallocation8CopyFromERKS0_
libtensorflow_framework.so:_ZN10tensorflow24MemoryLogRawDeallocation9ArenaDtorEPv
libtensorflow_framework.so:_ZN10tensorflow24MemoryLogRawDeallocation9MergeFromERKN6google8protobuf7MessageE
libtensorflow_framework.so:_ZN10tensorflow24MemoryLogRawDeallocation9MergeFromERKS0_
libtensorflow_framework.so:_ZN10tensorflow24MemoryLogRawDeallocationC1EPN6google8protobuf5ArenaE
libtensorflow_framework.so:_ZN10tensorflow24MemoryLogRawDeallocationC1ERKS0_
libtensorflow_framework.so:_ZN10tensorflow24MemoryLogRawDeallocationC1Ev
libtensorflow_framework.so:_ZN10tensorflow24MemoryLogRawDeallocationC2EPN6google8protobuf5ArenaE
libtensorflow_framework.so:_ZN10tensorflow24MemoryLogRawDeallocationC2ERKS0_
libtensorflow_framework.so:_ZN10tensorflow24MemoryLogRawDeallocationC2Ev
libtensorflow_framework.so:_ZN10tensorflow24MemoryLogRawDeallocationD0Ev
libtensorflow_framework.so:_ZN10tensorflow24MemoryLogRawDeallocationD1Ev
libtensorflow_framework.so:_ZN10tensorflow24MemoryLogRawDeallocationD2Ev
libtensorflow_framework.so:_ZN10tensorflow24MetaGraphDef_MetaInfoDef10SharedCtorEv
libtensorflow_framework.so:_ZN10tensorflow24MetaGraphDef_MetaInfoDef10SharedDtorEv
libtensorflow_framework.so:_ZN10tensorflow24MetaGraphDef_MetaInfoDef10descriptorEv
libtensorflow_framework.so:_ZN10tensorflow24MetaGraphDef_MetaInfoDef12InternalSwapEPS0_
libtensorflow_framework.so:_ZN10tensorflow24MetaGraphDef_MetaInfoDef14clear_any_infoEv
libtensorflow_framework.so:_ZN10tensorflow24MetaGraphDef_MetaInfoDef15UnsafeArenaSwapEPS0_
libtensorflow_framework.so:_ZN10tensorflow24MetaGraphDef_MetaInfoDef16default_instanceEv
libtensorflow_framework.so:_ZN10tensorflow24MetaGraphDef_MetaInfoDef21InitAsDefaultInstanceEv
libtensorflow_framework.so:_ZN10tensorflow24MetaGraphDef_MetaInfoDef22clear_stripped_op_listEv
libtensorflow_framework.so:_ZN10tensorflow24MetaGraphDef_MetaInfoDef27MergePartialFromCodedStreamEPN6google8protobuf2io16CodedInputStreamE
libtensorflow_framework.so:_ZN10tensorflow24MetaGraphDef_MetaInfoDef35unsafe_arena_set_allocated_any_infoEPN6google8protobuf3AnyE
libtensorflow_framework.so:_ZN10tensorflow24MetaGraphDef_MetaInfoDef43unsafe_arena_set_allocated_stripped_op_listEPNS_6OpListE
libtensorflow_framework.so:_ZN10tensorflow24MetaGraphDef_MetaInfoDef4SwapEPS0_
libtensorflow_framework.so:_ZN10tensorflow24MetaGraphDef_MetaInfoDef5ClearEv
libtensorflow_framework.so:_ZN10tensorflow24MetaGraphDef_MetaInfoDef8CopyFromERKN6google8protobuf7MessageE
libtensorflow_framework.so:_ZN10tensorflow24MetaGraphDef_MetaInfoDef8CopyFromERKS0_
libtensorflow_framework.so:_ZN10tensorflow24MetaGraphDef_MetaInfoDef9ArenaDtorEPv
libtensorflow_framework.so:_ZN10tensorflow24MetaGraphDef_MetaInfoDef9MergeFromERKN6google8protobuf7MessageE
libtensorflow_framework.so:_ZN10tensorflow24MetaGraphDef_MetaInfoDef9MergeFromERKS0_
libtensorflow_framework.so:_ZN10tensorflow24MetaGraphDef_MetaInfoDefC1EPN6google8protobuf5ArenaE
libtensorflow_framework.so:_ZN10tensorflow24MetaGraphDef_MetaInfoDefC1ERKS0_
libtensorflow_framework.so:_ZN10tensorflow24MetaGraphDef_MetaInfoDefC1Ev
libtensorflow_framework.so:_ZN10tensorflow24MetaGraphDef_MetaInfoDefC2EPN6google8protobuf5ArenaE
libtensorflow_framework.so:_ZN10tensorflow24MetaGraphDef_MetaInfoDefC2ERKS0_
libtensorflow_framework.so:_ZN10tensorflow24MetaGraphDef_MetaInfoDefC2Ev
libtensorflow_framework.so:_ZN10tensorflow24MetaGraphDef_MetaInfoDefD0Ev
libtensorflow_framework.so:_ZN10tensorflow24MetaGraphDef_MetaInfoDefD1Ev
libtensorflow_framework.so:_ZN10tensorflow24MetaGraphDef_MetaInfoDefD2Ev
libtensorflow_framework.so:_ZN10tensorflow24OptimizationPassRegistry11LogGroupingENS0_8GroupingEi
libtensorflow_framework.so:_ZN10tensorflow24OptimizationPassRegistry11RunGroupingENS0_8GroupingERKNS_28GraphOptimizationPassOptionsE
libtensorflow_framework.so:_ZN10tensorflow24OptimizationPassRegistry15LogAllGroupingsEi
libtensorflow_framework.so:_ZN10tensorflow24OptimizationPassRegistry6GlobalEv
libtensorflow_framework.so:_ZN10tensorflow24OptimizationPassRegistry8RegisterENS0_8GroupingEiSt10unique_ptrINS_21GraphOptimizationPassESt14default_deleteIS3_EE
libtensorflow_framework.so:_ZN10tensorflow24RemoveListArrayConverterEPNS_5GraphE
libtensorflow_framework.so:_ZN10tensorflow24ScopedAllocatorContainer11GetInstanceEi
libtensorflow_framework.so:_ZN10tensorflow24ScopedAllocatorContainer12GetAllocatorEi
libtensorflow_framework.so:_ZN10tensorflow24ScopedAllocatorContainer18AddScopedAllocatorERKNS_6TensorEiRKNSt7__cxx1112basic_stringIcSt11char_traitsIcESaIcEEERKNS_3gtl10ArraySliceINS_15ScopedAllocator5FieldEEEi
libtensorflow_framework.so:_ZN10tensorflow24ScopedAllocatorContainer4DropEiPNS_15ScopedAllocatorE
libtensorflow_framework.so:_ZN10tensorflow24ScopedAllocatorContainerD0Ev
libtensorflow_framework.so:_ZN10tensorflow24ScopedAllocatorContainerD1Ev
libtensorflow_framework.so:_ZN10tensorflow24ScopedAllocatorContainerD2Ev
libtensorflow_framework.so:_ZN10tensorflow24TfCheckOpHelperOutOfLineB5cxx11ERKNS_6StatusEPKc
libtensorflow_framework.so:_ZN10tensorflow25AddDefaultAttrsToGraphDefEPNS_8GraphDefERKNS_19OpRegistryInterfaceEi
libtensorflow_framework.so:_ZN10tensorflow25AddDefaultAttrsToGraphDefEPNS_8GraphDefERKNS_19OpRegistryInterfaceEib
libtensorflow_framework.so:_ZN10tensorflow25ApiDef_Visibility_IsValidEi
libtensorflow_framework.so:_ZN10tensorflow25BrainPadding2EigenPaddingENS_7PaddingE
libtensorflow_framework.so:_ZN10tensorflow25CheckpointableObjectGraph10SharedCtorEv
libtensorflow_framework.so:_ZN10tensorflow25CheckpointableObjectGraph10SharedDtorEv
libtensorflow_framework.so:_ZN10tensorflow25CheckpointableObjectGraph10descriptorEv
libtensorflow_framework.so:_ZN10tensorflow25CheckpointableObjectGraph12InternalSwapEPS0_
libtensorflow_framework.so:_ZN10tensorflow25CheckpointableObjectGraph15UnsafeArenaSwapEPS0_
libtensorflow_framework.so:_ZN10tensorflow25CheckpointableObjectGraph16default_instanceEv
libtensorflow_framework.so:_ZN10tensorflow25CheckpointableObjectGraph21InitAsDefaultInstanceEv
libtensorflow_framework.so:_ZN10tensorflow25CheckpointableObjectGraph27MergePartialFromCodedStreamEPN6google8protobuf2io16CodedInputStreamE
libtensorflow_framework.so:_ZN10tensorflow25CheckpointableObjectGraph4SwapEPS0_
libtensorflow_framework.so:_ZN10tensorflow25CheckpointableObjectGraph5ClearEv
libtensorflow_framework.so:_ZN10tensorflow25CheckpointableObjectGraph8CopyFromERKN6google8protobuf7MessageE
libtensorflow_framework.so:_ZN10tensorflow25CheckpointableObjectGraph8CopyFromERKS0_
libtensorflow_framework.so:_ZN10tensorflow25CheckpointableObjectGraph9ArenaDtorEPv
libtensorflow_framework.so:_ZN10tensorflow25CheckpointableObjectGraph9MergeFromERKN6google8protobuf7MessageE
libtensorflow_framework.so:_ZN10tensorflow25CheckpointableObjectGraph9MergeFromERKS0_
libtensorflow_framework.so:_ZN10tensorflow25CheckpointableObjectGraphC1EPN6google8protobuf5ArenaE
libtensorflow_framework.so:_ZN10tensorflow25CheckpointableObjectGraphC1ERKS0_
libtensorflow_framework.so:_ZN10tensorflow25CheckpointableObjectGraphC1Ev
libtensorflow_framework.so:_ZN10tensorflow25CheckpointableObjectGraphC2EPN6google8protobuf5ArenaE
libtensorflow_framework.so:_ZN10tensorflow25CheckpointableObjectGraphC2ERKS0_
libtensorflow_framework.so:_ZN10tensorflow25CheckpointableObjectGraphC2Ev
libtensorflow_framework.so:_ZN10tensorflow25CheckpointableObjectGraphD0Ev
libtensorflow_framework.so:_ZN10tensorflow25CheckpointableObjectGraphD1Ev
libtensorflow_framework.so:_ZN10tensorflow25CheckpointableObjectGraphD2Ev
libtensorflow_framework.so:_ZN10tensorflow25DebugCudnnRnnUseTensorOpsEv
libtensorflow_framework.so:_ZN10tensorflow25EnumName_LogMessage_LevelENS_16LogMessage_LevelE
libtensorflow_framework.so:_ZN10tensorflow25FunctionLibraryDefinition10AddLibraryERKNS_18FunctionDefLibraryE
libtensorflow_framework.so:_ZN10tensorflow25FunctionLibraryDefinition10AddLibraryERKS0_
libtensorflow_framework.so:_ZN10tensorflow25FunctionLibraryDefinition14AddFunctionDefERKNS_11FunctionDefE
libtensorflow_framework.so:_ZN10tensorflow25FunctionLibraryDefinition14AddGradientDefERKNS_11GradientDefE
libtensorflow_framework.so:_ZN10tensorflow25FunctionLibraryDefinition14RemoveFunctionERKNSt7__cxx1112basic_stringIcSt11char_traitsIcESaIcEEE
libtensorflow_framework.so:_ZN10tensorflow25FunctionLibraryDefinition14RemoveGradientERKNSt7__cxx1112basic_stringIcSt11char_traitsIcESaIcEEE
libtensorflow_framework.so:_ZN10tensorflow25FunctionLibraryDefinition20AddFunctionDefHelperERKNS_11FunctionDefEPb
libtensorflow_framework.so:_ZN10tensorflow25FunctionLibraryDefinition20AddGradientDefHelperERKNS_11GradientDefEPb
libtensorflow_framework.so:_ZN10tensorflow25FunctionLibraryDefinition28FunctionDefAndOpRegistrationC1ERKNS_11FunctionDefE
libtensorflow_framework.so:_ZN10tensorflow25FunctionLibraryDefinition28FunctionDefAndOpRegistrationC2ERKNS_11FunctionDefE
libtensorflow_framework.so:_ZN10tensorflow25FunctionLibraryDefinition6RemoveERKSt6vectorINSt7__cxx1112basic_stringIcSt11char_traitsIcESaIcEEESaIS7_EESB_
libtensorflow_framework.so:_ZN10tensorflow25FunctionLibraryDefinitionC1EPKNS_19OpRegistryInterfaceERKNS_18FunctionDefLibraryE
libtensorflow_framework.so:_ZN10tensorflow25FunctionLibraryDefinitionC1ERKS0_
libtensorflow_framework.so:_ZN10tensorflow25FunctionLibraryDefinitionC2EPKNS_19OpRegistryInterfaceERKNS_18FunctionDefLibraryE
libtensorflow_framework.so:_ZN10tensorflow25FunctionLibraryDefinitionC2ERKS0_
libtensorflow_framework.so:_ZN10tensorflow25FunctionLibraryDefinitionD0Ev
libtensorflow_framework.so:_ZN10tensorflow25FunctionLibraryDefinitionD1Ev
libtensorflow_framework.so:_ZN10tensorflow25FunctionLibraryDefinitionD2Ev
libtensorflow_framework.so:_ZN10tensorflow25MemmappedFileSystemWriter10SaveTensorERKNS_6TensorERKNSt7__cxx1112basic_stringIcSt11char_traitsIcESaIcEEE
libtensorflow_framework.so:_ZN10tensorflow25MemmappedFileSystemWriter12SaveProtobufERKN6google8protobuf11MessageLiteERKNSt7__cxx1112basic_stringIcSt11char_traitsIcESaIcEEE
libtensorflow_framework.so:_ZN10tensorflow25MemmappedFileSystemWriter13FlushAndCloseEv
libtensorflow_framework.so:_ZN10tensorflow25MemmappedFileSystemWriter15AdjustAlignmentEy
libtensorflow_framework.so:_ZN10tensorflow25MemmappedFileSystemWriter16InitializeToFileEPNS_3EnvERKNSt7__cxx1112basic_stringIcSt11char_traitsIcESaIcEEE
libtensorflow_framework.so:_ZN10tensorflow25MemmappedFileSystemWriter21AddToDirectoryElementERKNSt7__cxx1112basic_stringIcSt11char_traitsIcESaIcEEE
libtensorflow_framework.so:_ZN10tensorflow25MemoryLogTensorAllocation10SharedCtorEv
libtensorflow_framework.so:_ZN10tensorflow25MemoryLogTensorAllocation10SharedDtorEv
libtensorflow_framework.so:_ZN10tensorflow25MemoryLogTensorAllocation10descriptorEv
libtensorflow_framework.so:_ZN10tensorflow25MemoryLogTensorAllocation12InternalSwapEPS0_
libtensorflow_framework.so:_ZN10tensorflow25MemoryLogTensorAllocation12clear_tensorEv
libtensorflow_framework.so:_ZN10tensorflow25MemoryLogTensorAllocation15UnsafeArenaSwapEPS0_
libtensorflow_framework.so:_ZN10tensorflow25MemoryLogTensorAllocation16default_instanceEv
libtensorflow_framework.so:_ZN10tensorflow25MemoryLogTensorAllocation21InitAsDefaultInstanceEv
libtensorflow_framework.so:_ZN10tensorflow25MemoryLogTensorAllocation27MergePartialFromCodedStreamEPN6google8protobuf2io16CodedInputStreamE
libtensorflow_framework.so:_ZN10tensorflow25MemoryLogTensorAllocation33unsafe_arena_set_allocated_tensorEPNS_17TensorDescriptionE
libtensorflow_framework.so:_ZN10tensorflow25MemoryLogTensorAllocation4SwapEPS0_
libtensorflow_framework.so:_ZN10tensorflow25MemoryLogTensorAllocation5ClearEv
libtensorflow_framework.so:_ZN10tensorflow25MemoryLogTensorAllocation8CopyFromERKN6google8protobuf7MessageE
libtensorflow_framework.so:_ZN10tensorflow25MemoryLogTensorAllocation8CopyFromERKS0_
libtensorflow_framework.so:_ZN10tensorflow25MemoryLogTensorAllocation9ArenaDtorEPv
libtensorflow_framework.so:_ZN10tensorflow25MemoryLogTensorAllocation9MergeFromERKN6google8protobuf7MessageE
libtensorflow_framework.so:_ZN10tensorflow25MemoryLogTensorAllocation9MergeFromERKS0_
libtensorflow_framework.so:_ZN10tensorflow25MemoryLogTensorAllocationC1EPN6google8protobuf5ArenaE
libtensorflow_framework.so:_ZN10tensorflow25MemoryLogTensorAllocationC1ERKS0_
libtensorflow_framework.so:_ZN10tensorflow25MemoryLogTensorAllocationC1Ev
libtensorflow_framework.so:_ZN10tensorflow25MemoryLogTensorAllocationC2EPN6google8protobuf5ArenaE
libtensorflow_framework.so:_ZN10tensorflow25MemoryLogTensorAllocationC2ERKS0_
libtensorflow_framework.so:_ZN10tensorflow25MemoryLogTensorAllocationC2Ev
libtensorflow_framework.so:_ZN10tensorflow25MemoryLogTensorAllocationD0Ev
libtensorflow_framework.so:_ZN10tensorflow25MemoryLogTensorAllocationD1Ev
libtensorflow_framework.so:_ZN10tensorflow25MemoryLogTensorAllocationD2Ev
libtensorflow_framework.so:_ZN10tensorflow25NewFunctionLibraryRuntimeEPKNS_9DeviceMgrEPNS_3EnvEPNS_6DeviceEiPKNS_25FunctionLibraryDefinitionEPNS_6thread10ThreadPoolERKNS_16OptimizerOptionsEPNS_29ProcessFunctionLibraryRuntimeE
libtensorflow_framework.so:_ZN10tensorflow25NewFunctionLibraryRuntimeEPKNS_9DeviceMgrEPNS_3EnvEPNS_6DeviceEiPKNS_25FunctionLibraryDefinitionEPNS_6thread10ThreadPoolERKNS_16OptimizerOptionsESt8functionIFNS_6StatusEPNS_22FunctionLibraryRuntimeERKNS_7NodeDefEPSt10unique_ptrINS_8OpKernelESt14default_deleteISO_EEEEPNS_29ProcessFunctionLibraryRuntimeE
libtensorflow_framework.so:_ZN10tensorflow25OpInfo_AttrEntry_DoNotUse9MergeFromERKN6google8protobuf7MessageE
libtensorflow_framework.so:_ZN10tensorflow25OpInfo_AttrEntry_DoNotUse9MergeFromERKS0_
libtensorflow_framework.so:_ZN10tensorflow25OpInfo_AttrEntry_DoNotUseC1EPN6google8protobuf5ArenaE
libtensorflow_framework.so:_ZN10tensorflow25OpInfo_AttrEntry_DoNotUseC1Ev
libtensorflow_framework.so:_ZN10tensorflow25OpInfo_AttrEntry_DoNotUseC2EPN6google8protobuf5ArenaE
libtensorflow_framework.so:_ZN10tensorflow25OpInfo_AttrEntry_DoNotUseC2Ev
libtensorflow_framework.so:_ZN10tensorflow25RecvOutputsFromRendezvousEPNS_10RendezvousEPSt3mapINSt7__cxx1112basic_stringIcSt11char_traitsIcESaIcEEENS_6TensorESt4lessIS8_ESaISt4pairIKS8_S9_EEERKNS0_4ArgsE
libtensorflow_framework.so:_ZN10tensorflow25ValidateGPUMachineManagerEv
libtensorflow_framework.so:_ZN10tensorflow26BatchExampleProtoToTensorsERKSt6vectorIPKNS_7ExampleESaIS3_EERKS0_INSt7__cxx1112basic_stringIcSt11char_traitsIcESaIcEEESaISD_EERKS0_INS_15FixedLenFeatureESaISI_EERKS0_INS_13VarLenFeatureESaISN_EEPNS_9AllocatorEPS0_INS_6TensorESaISU_EESX_SX_SX_
libtensorflow_framework.so:_ZN10tensorflow26EnumName_ApiDef_VisibilityENS_17ApiDef_VisibilityE
libtensorflow_framework.so:_ZN10tensorflow26ExampleParserConfiguration10SharedCtorEv
libtensorflow_framework.so:_ZN10tensorflow26ExampleParserConfiguration10SharedDtorEv
libtensorflow_framework.so:_ZN10tensorflow26ExampleParserConfiguration10descriptorEv
libtensorflow_framework.so:_ZN10tensorflow26ExampleParserConfiguration12InternalSwapEPS0_
libtensorflow_framework.so:_ZN10tensorflow26ExampleParserConfiguration15UnsafeArenaSwapEPS0_
libtensorflow_framework.so:_ZN10tensorflow26ExampleParserConfiguration16default_instanceEv
libtensorflow_framework.so:_ZN10tensorflow26ExampleParserConfiguration21InitAsDefaultInstanceEv
libtensorflow_framework.so:_ZN10tensorflow26ExampleParserConfiguration27MergePartialFromCodedStreamEPN6google8protobuf2io16CodedInputStreamE
libtensorflow_framework.so:_ZN10tensorflow26ExampleParserConfiguration4SwapEPS0_
libtensorflow_framework.so:_ZN10tensorflow26ExampleParserConfiguration5ClearEv
libtensorflow_framework.so:_ZN10tensorflow26ExampleParserConfiguration8CopyFromERKN6google8protobuf7MessageE
libtensorflow_framework.so:_ZN10tensorflow26ExampleParserConfiguration8CopyFromERKS0_
libtensorflow_framework.so:_ZN10tensorflow26ExampleParserConfiguration9ArenaDtorEPv
libtensorflow_framework.so:_ZN10tensorflow26ExampleParserConfiguration9MergeFromERKN6google8protobuf7MessageE
libtensorflow_framework.so:_ZN10tensorflow26ExampleParserConfiguration9MergeFromERKS0_
libtensorflow_framework.so:_ZN10tensorflow26ExampleParserConfigurationC1EPN6google8protobuf5ArenaE
libtensorflow_framework.so:_ZN10tensorflow26ExampleParserConfigurationC1ERKS0_
libtensorflow_framework.so:_ZN10tensorflow26ExampleParserConfigurationC1Ev
libtensorflow_framework.so:_ZN10tensorflow26ExampleParserConfigurationC2EPN6google8protobuf5ArenaE
libtensorflow_framework.so:_ZN10tensorflow26ExampleParserConfigurationC2ERKS0_
libtensorflow_framework.so:_ZN10tensorflow26ExampleParserConfigurationC2Ev
libtensorflow_framework.so:_ZN10tensorflow26ExampleParserConfigurationD0Ev
libtensorflow_framework.so:_ZN10tensorflow26ExampleParserConfigurationD1Ev
libtensorflow_framework.so:_ZN10tensorflow26ExampleParserConfigurationD2Ev
libtensorflow_framework.so:_ZN10tensorflow26FunctionLibraryRuntimeImpl10CreateItemEyPPNS0_4ItemE
libtensorflow_framework.so:_ZN10tensorflow26FunctionLibraryRuntimeImpl10IsStatefulERKNSt7__cxx1112basic_stringIcSt11char_traitsIcESaIcEEE
libtensorflow_framework.so:_ZN10tensorflow26FunctionLibraryRuntimeImpl11DebugStringB5cxx11Ey
libtensorflow_framework.so:_ZN10tensorflow26FunctionLibraryRuntimeImpl11InstantiateERKNSt7__cxx1112basic_stringIcSt11char_traitsIcESaIcEEENS_9AttrSliceERKNS_22FunctionLibraryRuntime18InstantiateOptionsEPy
libtensorflow_framework.so:_ZN10tensorflow26FunctionLibraryRuntimeImpl12CreateKernelERKNS_7NodeDefEPKNS_25FunctionLibraryDefinitionEPPNS_8OpKernelE
libtensorflow_framework.so:_ZN10tensorflow26FunctionLibraryRuntimeImpl12CreateKernelERKNS_7NodeDefEPPNS_8OpKernelE
libtensorflow_framework.so:_ZN10tensorflow26FunctionLibraryRuntimeImpl13IsLocalTargetERKNS_22FunctionLibraryRuntime18InstantiateOptionsE
libtensorflow_framework.so:_ZN10tensorflow26FunctionLibraryRuntimeImpl13ReleaseHandleEy
libtensorflow_framework.so:_ZN10tensorflow26FunctionLibraryRuntimeImpl15GetFunctionBodyEy
libtensorflow_framework.so:_ZN10tensorflow26FunctionLibraryRuntimeImpl15GetOrCreateItemEyPPNS0_4ItemE
libtensorflow_framework.so:_ZN10tensorflow26FunctionLibraryRuntimeImpl17FunctionDefToBodyERKNS_11FunctionDefENS_9AttrSliceEPKNS_25FunctionLibraryDefinitionEPPNS_12FunctionBodyE
libtensorflow_framework.so:_ZN10tensorflow26FunctionLibraryRuntimeImpl27InstantiateSymbolicGradientERKNS_12NameAttrListEPKNS_25FunctionLibraryDefinitionEPPNS_12FunctionBodyE
libtensorflow_framework.so:_ZN10tensorflow26FunctionLibraryRuntimeImpl3RunERKNS_22FunctionLibraryRuntime7OptionsEyNS_3gtl10ArraySliceINS_6TensorEEEPSt6vectorIS7_SaIS7_EESt8functionIFvRKNS_6StatusEEE
libtensorflow_framework.so:_ZN10tensorflow26FunctionLibraryRuntimeImpl3RunERKNS_22FunctionLibraryRuntime7OptionsEyPNS_18CallFrameInterfaceESt8functionIFvRKNS_6StatusEEE
libtensorflow_framework.so:_ZN10tensorflow26FunctionLibraryRuntimeImpl5CloneEPSt10unique_ptrINS_25FunctionLibraryDefinitionESt14default_deleteIS2_EEPS1_INS_29ProcessFunctionLibraryRuntimeES3_IS7_EEPPNS_22FunctionLibraryRuntimeE
libtensorflow_framework.so:_ZN10tensorflow26FunctionLibraryRuntimeImpl9RunRemoteERKNS_22FunctionLibraryRuntime7OptionsEyNS_3gtl10ArraySliceINS_6TensorEEEPSt6vectorIS7_SaIS7_EEPNS_8Executor4ArgsEPNS0_4ItemESt8functionIFvRKNS_6StatusEEE
libtensorflow_framework.so:_ZN10tensorflow26FunctionLibraryRuntimeImplC1EPKNS_9DeviceMgrEPNS_3EnvEPNS_6DeviceEiPKNS_25FunctionLibraryDefinitionEPNS_6thread10ThreadPoolERKNS_16OptimizerOptionsESt8functionIFNS_6StatusEPNS_22FunctionLibraryRuntimeERKNS_7NodeDefEPSt10unique_ptrINS_8OpKernelESt14default_deleteISP_EEEEPNS_29ProcessFunctionLibraryRuntimeE
libtensorflow_framework.so:_ZN10tensorflow26FunctionLibraryRuntimeImplC2EPKNS_9DeviceMgrEPNS_3EnvEPNS_6DeviceEiPKNS_25FunctionLibraryDefinitionEPNS_6thread10ThreadPoolERKNS_16OptimizerOptionsESt8functionIFNS_6StatusEPNS_22FunctionLibraryRuntimeERKNS_7NodeDefEPSt10unique_ptrINS_8OpKernelESt14default_deleteISP_EEEEPNS_29ProcessFunctionLibraryRuntimeE
libtensorflow_framework.so:_ZN10tensorflow26FunctionLibraryRuntimeImplD0Ev
libtensorflow_framework.so:_ZN10tensorflow26FunctionLibraryRuntimeImplD1Ev
libtensorflow_framework.so:_ZN10tensorflow26FunctionLibraryRuntimeImplD2Ev
libtensorflow_framework.so:_ZN10tensorflow26GetMirrorPadModeAttrStringB5cxx11Ev
libtensorflow_framework.so:_ZN10tensorflow26GetPerThreadMaxParallelismEv
libtensorflow_framework.so:_ZN10tensorflow26GraphTransferConstNodeInfo10SharedCtorEv
libtensorflow_framework.so:_ZN10tensorflow26GraphTransferConstNodeInfo10SharedDtorEv
libtensorflow_framework.so:_ZN10tensorflow26GraphTransferConstNodeInfo10descriptorEv
libtensorflow_framework.so:_ZN10tensorflow26GraphTransferConstNodeInfo12InternalSwapEPS0_
libtensorflow_framework.so:_ZN10tensorflow26GraphTransferConstNodeInfo15UnsafeArenaSwapEPS0_
libtensorflow_framework.so:_ZN10tensorflow26GraphTransferConstNodeInfo16default_instanceEv
libtensorflow_framework.so:_ZN10tensorflow26GraphTransferConstNodeInfo21InitAsDefaultInstanceEv
libtensorflow_framework.so:_ZN10tensorflow26GraphTransferConstNodeInfo27MergePartialFromCodedStreamEPN6google8protobuf2io16CodedInputStreamE
libtensorflow_framework.so:_ZN10tensorflow26GraphTransferConstNodeInfo4SwapEPS0_
libtensorflow_framework.so:_ZN10tensorflow26GraphTransferConstNodeInfo5ClearEv
libtensorflow_framework.so:_ZN10tensorflow26GraphTransferConstNodeInfo8CopyFromERKN6google8protobuf7MessageE
libtensorflow_framework.so:_ZN10tensorflow26GraphTransferConstNodeInfo8CopyFromERKS0_
libtensorflow_framework.so:_ZN10tensorflow26GraphTransferConstNodeInfo9ArenaDtorEPv
libtensorflow_framework.so:_ZN10tensorflow26GraphTransferConstNodeInfo9MergeFromERKN6google8protobuf7MessageE
libtensorflow_framework.so:_ZN10tensorflow26GraphTransferConstNodeInfo9MergeFromERKS0_
libtensorflow_framework.so:_ZN10tensorflow26GraphTransferConstNodeInfoC1EPN6google8protobuf5ArenaE
libtensorflow_framework.so:_ZN10tensorflow26GraphTransferConstNodeInfoC1ERKS0_
libtensorflow_framework.so:_ZN10tensorflow26GraphTransferConstNodeInfoC1Ev
libtensorflow_framework.so:_ZN10tensorflow26GraphTransferConstNodeInfoC2EPN6google8protobuf5ArenaE
libtensorflow_framework.so:_ZN10tensorflow26GraphTransferConstNodeInfoC2ERKS0_
libtensorflow_framework.so:_ZN10tensorflow26GraphTransferConstNodeInfoC2Ev
libtensorflow_framework.so:_ZN10tensorflow26GraphTransferConstNodeInfoD0Ev
libtensorflow_framework.so:_ZN10tensorflow26GraphTransferConstNodeInfoD1Ev
libtensorflow_framework.so:_ZN10tensorflow26GraphTransferConstNodeInfoD2Ev
libtensorflow_framework.so:_ZN10tensorflow26GraphTransferNodeInputInfo10SharedCtorEv
libtensorflow_framework.so:_ZN10tensorflow26GraphTransferNodeInputInfo10SharedDtorEv
libtensorflow_framework.so:_ZN10tensorflow26GraphTransferNodeInputInfo10descriptorEv
libtensorflow_framework.so:_ZN10tensorflow26GraphTransferNodeInputInfo12InternalSwapEPS0_
libtensorflow_framework.so:_ZN10tensorflow26GraphTransferNodeInputInfo15UnsafeArenaSwapEPS0_
libtensorflow_framework.so:_ZN10tensorflow26GraphTransferNodeInputInfo16default_instanceEv
libtensorflow_framework.so:_ZN10tensorflow26GraphTransferNodeInputInfo21InitAsDefaultInstanceEv
libtensorflow_framework.so:_ZN10tensorflow26GraphTransferNodeInputInfo27MergePartialFromCodedStreamEPN6google8protobuf2io16CodedInputStreamE
libtensorflow_framework.so:_ZN10tensorflow26GraphTransferNodeInputInfo4SwapEPS0_
libtensorflow_framework.so:_ZN10tensorflow26GraphTransferNodeInputInfo5ClearEv
libtensorflow_framework.so:_ZN10tensorflow26GraphTransferNodeInputInfo8CopyFromERKN6google8protobuf7MessageE
libtensorflow_framework.so:_ZN10tensorflow26GraphTransferNodeInputInfo8CopyFromERKS0_
libtensorflow_framework.so:_ZN10tensorflow26GraphTransferNodeInputInfo9ArenaDtorEPv
libtensorflow_framework.so:_ZN10tensorflow26GraphTransferNodeInputInfo9MergeFromERKN6google8protobuf7MessageE
libtensorflow_framework.so:_ZN10tensorflow26GraphTransferNodeInputInfo9MergeFromERKS0_
libtensorflow_framework.so:_ZN10tensorflow26GraphTransferNodeInputInfoC1EPN6google8protobuf5ArenaE
libtensorflow_framework.so:_ZN10tensorflow26GraphTransferNodeInputInfoC1ERKS0_
libtensorflow_framework.so:_ZN10tensorflow26GraphTransferNodeInputInfoC1Ev
libtensorflow_framework.so:_ZN10tensorflow26GraphTransferNodeInputInfoC2EPN6google8protobuf5ArenaE
libtensorflow_framework.so:_ZN10tensorflow26GraphTransferNodeInputInfoC2ERKS0_
libtensorflow_framework.so:_ZN10tensorflow26GraphTransferNodeInputInfoC2Ev
libtensorflow_framework.so:_ZN10tensorflow26GraphTransferNodeInputInfoD0Ev
libtensorflow_framework.so:_ZN10tensorflow26GraphTransferNodeInputInfoD1Ev
libtensorflow_framework.so:_ZN10tensorflow26GraphTransferNodeInputInfoD2Ev
libtensorflow_framework.so:_ZN10tensorflow26JobDef_TasksEntry_DoNotUse9MergeFromERKN6google8protobuf7MessageE
libtensorflow_framework.so:_ZN10tensorflow26JobDef_TasksEntry_DoNotUse9MergeFromERKS0_
libtensorflow_framework.so:_ZN10tensorflow26JobDef_TasksEntry_DoNotUseC1EPN6google8protobuf5ArenaE
libtensorflow_framework.so:_ZN10tensorflow26JobDef_TasksEntry_DoNotUseC1Ev
libtensorflow_framework.so:_ZN10tensorflow26JobDef_TasksEntry_DoNotUseC2EPN6google8protobuf5ArenaE
libtensorflow_framework.so:_ZN10tensorflow26JobDef_TasksEntry_DoNotUseC2Ev
libtensorflow_framework.so:_ZN10tensorflow26MakeResourceHandleToOutputEPNS_15OpKernelContextEiRKNSt7__cxx1112basic_stringIcSt11char_traitsIcESaIcEEES9_RKSt10type_index
libtensorflow_framework.so:_ZN10tensorflow26NodeDef_AttrEntry_DoNotUse9MergeFromERKN6google8protobuf7MessageE
libtensorflow_framework.so:_ZN10tensorflow26NodeDef_AttrEntry_DoNotUse9MergeFromERKS0_
libtensorflow_framework.so:_ZN10tensorflow26NodeDef_AttrEntry_DoNotUseC1EPN6google8protobuf5ArenaE
libtensorflow_framework.so:_ZN10tensorflow26NodeDef_AttrEntry_DoNotUseC1Ev
libtensorflow_framework.so:_ZN10tensorflow26NodeDef_AttrEntry_DoNotUseC2EPN6google8protobuf5ArenaE
libtensorflow_framework.so:_ZN10tensorflow26NodeDef_AttrEntry_DoNotUseC2Ev
libtensorflow_framework.so:_ZN10tensorflow26OpDefAttrDefaultsUnchangedERKNS_5OpDefES2_
libtensorflow_framework.so:_ZN10tensorflow26SetPerThreadMaxParallelismEi
libtensorflow_framework.so:_ZN10tensorflow26SummaryMetadata_PluginData10SharedCtorEv
libtensorflow_framework.so:_ZN10tensorflow26SummaryMetadata_PluginData10SharedDtorEv
libtensorflow_framework.so:_ZN10tensorflow26SummaryMetadata_PluginData10descriptorEv
libtensorflow_framework.so:_ZN10tensorflow26SummaryMetadata_PluginData12InternalSwapEPS0_
libtensorflow_framework.so:_ZN10tensorflow26SummaryMetadata_PluginData15UnsafeArenaSwapEPS0_
libtensorflow_framework.so:_ZN10tensorflow26SummaryMetadata_PluginData16default_instanceEv
libtensorflow_framework.so:_ZN10tensorflow26SummaryMetadata_PluginData21InitAsDefaultInstanceEv
libtensorflow_framework.so:_ZN10tensorflow26SummaryMetadata_PluginData27MergePartialFromCodedStreamEPN6google8protobuf2io16CodedInputStreamE
libtensorflow_framework.so:_ZN10tensorflow26SummaryMetadata_PluginData4SwapEPS0_
libtensorflow_framework.so:_ZN10tensorflow26SummaryMetadata_PluginData5ClearEv
libtensorflow_framework.so:_ZN10tensorflow26SummaryMetadata_PluginData8CopyFromERKN6google8protobuf7MessageE
libtensorflow_framework.so:_ZN10tensorflow26SummaryMetadata_PluginData8CopyFromERKS0_
libtensorflow_framework.so:_ZN10tensorflow26SummaryMetadata_PluginData9ArenaDtorEPv
libtensorflow_framework.so:_ZN10tensorflow26SummaryMetadata_PluginData9MergeFromERKN6google8protobuf7MessageE
libtensorflow_framework.so:_ZN10tensorflow26SummaryMetadata_PluginData9MergeFromERKS0_
libtensorflow_framework.so:_ZN10tensorflow26SummaryMetadata_PluginDataC1EPN6google8protobuf5ArenaE
libtensorflow_framework.so:_ZN10tensorflow26SummaryMetadata_PluginDataC1ERKS0_
libtensorflow_framework.so:_ZN10tensorflow26SummaryMetadata_PluginDataC1Ev
libtensorflow_framework.so:_ZN10tensorflow26SummaryMetadata_PluginDataC2EPN6google8protobuf5ArenaE
libtensorflow_framework.so:_ZN10tensorflow26SummaryMetadata_PluginDataC2ERKS0_
libtensorflow_framework.so:_ZN10tensorflow26SummaryMetadata_PluginDataC2Ev
libtensorflow_framework.so:_ZN10tensorflow26SummaryMetadata_PluginDataD0Ev
libtensorflow_framework.so:_ZN10tensorflow26SummaryMetadata_PluginDataD1Ev
libtensorflow_framework.so:_ZN10tensorflow26SummaryMetadata_PluginDataD2Ev
libtensorflow_framework.so:_ZN10tensorflow26WorkerShutdownMode_IsValidEi
libtensorflow_framework.so:_ZN10tensorflow27CollectiveRemoteAccessLocal10PostToPeerERKNSt7__cxx1112basic_stringIcSt11char_traitsIcESaIcEEES8_S8_PNS_6DeviceEPNS_13DeviceContextERKNS_19AllocatorAttributesEPKNS_6TensorERKNS_14DeviceLocalityERKSt8functionIFvRKNS_6StatusEEE
libtensorflow_framework.so:_ZN10tensorflow27CollectiveRemoteAccessLocal10StartAbortERKNS_6StatusE
libtensorflow_framework.so:_ZN10tensorflow27CollectiveRemoteAccessLocal11MemCpyAsyncEPNS_13DeviceContextES2_PNS_6DeviceES4_RKNS_19AllocatorAttributesES7_PKNS_6TensorEPS8_iRKSt8functionIFvRKNS_6StatusEEE
libtensorflow_framework.so:_ZN10tensorflow27CollectiveRemoteAccessLocal12RecvFromPeerERKNSt7__cxx1112basic_stringIcSt11char_traitsIcESaIcEEES8_bS8_PNS_6DeviceEPNS_13DeviceContextERKNS_19AllocatorAttributesEPNS_6TensorERKNS_14DeviceLocalityEiRKSt8functionIFvRKNS_6StatusEEE
libtensorflow_framework.so:_ZN10tensorflow27CostGraphDef_Node_InputInfo10SharedCtorEv
libtensorflow_framework.so:_ZN10tensorflow27CostGraphDef_Node_InputInfo10SharedDtorEv
libtensorflow_framework.so:_ZN10tensorflow27CostGraphDef_Node_InputInfo10descriptorEv
libtensorflow_framework.so:_ZN10tensorflow27CostGraphDef_Node_InputInfo12InternalSwapEPS0_
libtensorflow_framework.so:_ZN10tensorflow27CostGraphDef_Node_InputInfo15UnsafeArenaSwapEPS0_
libtensorflow_framework.so:_ZN10tensorflow27CostGraphDef_Node_InputInfo16default_instanceEv
libtensorflow_framework.so:_ZN10tensorflow27CostGraphDef_Node_InputInfo21InitAsDefaultInstanceEv
libtensorflow_framework.so:_ZN10tensorflow27CostGraphDef_Node_InputInfo27MergePartialFromCodedStreamEPN6google8protobuf2io16CodedInputStreamE
libtensorflow_framework.so:_ZN10tensorflow27CostGraphDef_Node_InputInfo4SwapEPS0_
libtensorflow_framework.so:_ZN10tensorflow27CostGraphDef_Node_InputInfo5ClearEv
libtensorflow_framework.so:_ZN10tensorflow27CostGraphDef_Node_InputInfo8CopyFromERKN6google8protobuf7MessageE
libtensorflow_framework.so:_ZN10tensorflow27CostGraphDef_Node_InputInfo8CopyFromERKS0_
libtensorflow_framework.so:_ZN10tensorflow27CostGraphDef_Node_InputInfo9ArenaDtorEPv
libtensorflow_framework.so:_ZN10tensorflow27CostGraphDef_Node_InputInfo9MergeFromERKN6google8protobuf7MessageE
libtensorflow_framework.so:_ZN10tensorflow27CostGraphDef_Node_InputInfo9MergeFromERKS0_
libtensorflow_framework.so:_ZN10tensorflow27CostGraphDef_Node_InputInfoC1EPN6google8protobuf5ArenaE
libtensorflow_framework.so:_ZN10tensorflow27CostGraphDef_Node_InputInfoC1ERKS0_
libtensorflow_framework.so:_ZN10tensorflow27CostGraphDef_Node_InputInfoC1Ev
libtensorflow_framework.so:_ZN10tensorflow27CostGraphDef_Node_InputInfoC2EPN6google8protobuf5ArenaE
libtensorflow_framework.so:_ZN10tensorflow27CostGraphDef_Node_InputInfoC2ERKS0_
libtensorflow_framework.so:_ZN10tensorflow27CostGraphDef_Node_InputInfoC2Ev
libtensorflow_framework.so:_ZN10tensorflow27CostGraphDef_Node_InputInfoD0Ev
libtensorflow_framework.so:_ZN10tensorflow27CostGraphDef_Node_InputInfoD1Ev
libtensorflow_framework.so:_ZN10tensorflow27CostGraphDef_Node_InputInfoD2Ev
libtensorflow_framework.so:_ZN10tensorflow27DebugGraphDecoratorRegistry15CreateDecoratorERKNS_12DebugOptionsEPSt10unique_ptrINS_28DebugGraphDecoratorInterfaceESt14default_deleteIS5_EE
libtensorflow_framework.so:_ZN10tensorflow27DebugGraphDecoratorRegistry15RegisterFactoryERKSt8functionIFSt10unique_ptrINS_28DebugGraphDecoratorInterfaceESt14default_deleteIS3_EERKNS_12DebugOptionsEEE
libtensorflow_framework.so:_ZN10tensorflow27EnableCPUAllocatorFullStatsEb
libtensorflow_framework.so:_ZN10tensorflow27EnumName_WorkerShutdownModeENS_18WorkerShutdownModeE
libtensorflow_framework.so:_ZN10tensorflow27GetActivationModeFromStringERKNSt7__cxx1112basic_stringIcSt11char_traitsIcESaIcEEEPNS_14ActivationModeE
libtensorflow_framework.so:_ZN10tensorflow27GetDatasetFromVariantTensorERKNS_6TensorEPPNS_11DatasetBaseE
libtensorflow_framework.so:_ZN10tensorflow27GraphTransferNodeOutputInfo10SharedCtorEv
libtensorflow_framework.so:_ZN10tensorflow27GraphTransferNodeOutputInfo10SharedDtorEv
libtensorflow_framework.so:_ZN10tensorflow27GraphTransferNodeOutputInfo10descriptorEv
libtensorflow_framework.so:_ZN10tensorflow27GraphTransferNodeOutputInfo12InternalSwapEPS0_
libtensorflow_framework.so:_ZN10tensorflow27GraphTransferNodeOutputInfo15UnsafeArenaSwapEPS0_
libtensorflow_framework.so:_ZN10tensorflow27GraphTransferNodeOutputInfo16default_instanceEv
libtensorflow_framework.so:_ZN10tensorflow27GraphTransferNodeOutputInfo21InitAsDefaultInstanceEv
libtensorflow_framework.so:_ZN10tensorflow27GraphTransferNodeOutputInfo27MergePartialFromCodedStreamEPN6google8protobuf2io16CodedInputStreamE
libtensorflow_framework.so:_ZN10tensorflow27GraphTransferNodeOutputInfo4SwapEPS0_
libtensorflow_framework.so:_ZN10tensorflow27GraphTransferNodeOutputInfo5ClearEv
libtensorflow_framework.so:_ZN10tensorflow27GraphTransferNodeOutputInfo8CopyFromERKN6google8protobuf7MessageE
libtensorflow_framework.so:_ZN10tensorflow27GraphTransferNodeOutputInfo8CopyFromERKS0_
libtensorflow_framework.so:_ZN10tensorflow27GraphTransferNodeOutputInfo9ArenaDtorEPv
libtensorflow_framework.so:_ZN10tensorflow27GraphTransferNodeOutputInfo9MergeFromERKN6google8protobuf7MessageE
libtensorflow_framework.so:_ZN10tensorflow27GraphTransferNodeOutputInfo9MergeFromERKS0_
libtensorflow_framework.so:_ZN10tensorflow27GraphTransferNodeOutputInfoC1EPN6google8protobuf5ArenaE
libtensorflow_framework.so:_ZN10tensorflow27GraphTransferNodeOutputInfoC1ERKS0_
libtensorflow_framework.so:_ZN10tensorflow27GraphTransferNodeOutputInfoC1Ev
libtensorflow_framework.so:_ZN10tensorflow27GraphTransferNodeOutputInfoC2EPN6google8protobuf5ArenaE
libtensorflow_framework.so:_ZN10tensorflow27GraphTransferNodeOutputInfoC2ERKS0_
libtensorflow_framework.so:_ZN10tensorflow27GraphTransferNodeOutputInfoC2Ev
libtensorflow_framework.so:_ZN10tensorflow27GraphTransferNodeOutputInfoD0Ev
libtensorflow_framework.so:_ZN10tensorflow27GraphTransferNodeOutputInfoD1Ev
libtensorflow_framework.so:_ZN10tensorflow27GraphTransferNodeOutputInfoD2Ev
libtensorflow_framework.so:_ZN10tensorflow27LogMessage_Level_descriptorEv
libtensorflow_framework.so:_ZN10tensorflow27MemoryLogTensorDeallocation10SharedCtorEv
libtensorflow_framework.so:_ZN10tensorflow27MemoryLogTensorDeallocation10SharedDtorEv
libtensorflow_framework.so:_ZN10tensorflow27MemoryLogTensorDeallocation10descriptorEv
libtensorflow_framework.so:_ZN10tensorflow27MemoryLogTensorDeallocation12InternalSwapEPS0_
libtensorflow_framework.so:_ZN10tensorflow27MemoryLogTensorDeallocation15UnsafeArenaSwapEPS0_
libtensorflow_framework.so:_ZN10tensorflow27MemoryLogTensorDeallocation16default_instanceEv
libtensorflow_framework.so:_ZN10tensorflow27MemoryLogTensorDeallocation21InitAsDefaultInstanceEv
libtensorflow_framework.so:_ZN10tensorflow27MemoryLogTensorDeallocation27MergePartialFromCodedStreamEPN6google8protobuf2io16CodedInputStreamE
libtensorflow_framework.so:_ZN10tensorflow27MemoryLogTensorDeallocation4SwapEPS0_
libtensorflow_framework.so:_ZN10tensorflow27MemoryLogTensorDeallocation5ClearEv
libtensorflow_framework.so:_ZN10tensorflow27MemoryLogTensorDeallocation8CopyFromERKN6google8protobuf7MessageE
libtensorflow_framework.so:_ZN10tensorflow27MemoryLogTensorDeallocation8CopyFromERKS0_
libtensorflow_framework.so:_ZN10tensorflow27MemoryLogTensorDeallocation9ArenaDtorEPv
libtensorflow_framework.so:_ZN10tensorflow27MemoryLogTensorDeallocation9MergeFromERKN6google8protobuf7MessageE
libtensorflow_framework.so:_ZN10tensorflow27MemoryLogTensorDeallocation9MergeFromERKS0_
libtensorflow_framework.so:_ZN10tensorflow27MemoryLogTensorDeallocationC1EPN6google8protobuf5ArenaE
libtensorflow_framework.so:_ZN10tensorflow27MemoryLogTensorDeallocationC1ERKS0_
libtensorflow_framework.so:_ZN10tensorflow27MemoryLogTensorDeallocationC1Ev
libtensorflow_framework.so:_ZN10tensorflow27MemoryLogTensorDeallocationC2EPN6google8protobuf5ArenaE
libtensorflow_framework.so:_ZN10tensorflow27MemoryLogTensorDeallocationC2ERKS0_
libtensorflow_framework.so:_ZN10tensorflow27MemoryLogTensorDeallocationC2Ev
libtensorflow_framework.so:_ZN10tensorflow27MemoryLogTensorDeallocationD0Ev
libtensorflow_framework.so:_ZN10tensorflow27MemoryLogTensorDeallocationD1Ev
libtensorflow_framework.so:_ZN10tensorflow27MemoryLogTensorDeallocationD2Ev
libtensorflow_framework.so:_ZN10tensorflow27OpDefAddedDefaultsUnchangedERKNS_5OpDefES2_S2_
libtensorflow_framework.so:_ZN10tensorflow27PruneForReverseReachabilityEPNS_5GraphESt13unordered_setIPKNS_4NodeESt4hashIS5_ESt8equal_toIS5_ESaIS5_EE
libtensorflow_framework.so:_ZN10tensorflow27RemoteFusedGraphExecuteInfo10SharedCtorEv
libtensorflow_framework.so:_ZN10tensorflow27RemoteFusedGraphExecuteInfo10SharedDtorEv
libtensorflow_framework.so:_ZN10tensorflow27RemoteFusedGraphExecuteInfo10descriptorEv
libtensorflow_framework.so:_ZN10tensorflow27RemoteFusedGraphExecuteInfo12InternalSwapEPS0_
libtensorflow_framework.so:_ZN10tensorflow27RemoteFusedGraphExecuteInfo15UnsafeArenaSwapEPS0_
libtensorflow_framework.so:_ZN10tensorflow27RemoteFusedGraphExecuteInfo16default_instanceEv
libtensorflow_framework.so:_ZN10tensorflow27RemoteFusedGraphExecuteInfo18clear_remote_graphEv
libtensorflow_framework.so:_ZN10tensorflow27RemoteFusedGraphExecuteInfo21InitAsDefaultInstanceEv
libtensorflow_framework.so:_ZN10tensorflow27RemoteFusedGraphExecuteInfo27MergePartialFromCodedStreamEPN6google8protobuf2io16CodedInputStreamE
libtensorflow_framework.so:_ZN10tensorflow27RemoteFusedGraphExecuteInfo39unsafe_arena_set_allocated_remote_graphEPNS_8GraphDefE
libtensorflow_framework.so:_ZN10tensorflow27RemoteFusedGraphExecuteInfo4SwapEPS0_
libtensorflow_framework.so:_ZN10tensorflow27RemoteFusedGraphExecuteInfo5ClearEv
libtensorflow_framework.so:_ZN10tensorflow27RemoteFusedGraphExecuteInfo8CopyFromERKN6google8protobuf7MessageE
libtensorflow_framework.so:_ZN10tensorflow27RemoteFusedGraphExecuteInfo8CopyFromERKS0_
libtensorflow_framework.so:_ZN10tensorflow27RemoteFusedGraphExecuteInfo9ArenaDtorEPv
libtensorflow_framework.so:_ZN10tensorflow27RemoteFusedGraphExecuteInfo9MergeFromERKN6google8protobuf7MessageE
libtensorflow_framework.so:_ZN10tensorflow27RemoteFusedGraphExecuteInfo9MergeFromERKS0_
libtensorflow_framework.so:_ZN10tensorflow27RemoteFusedGraphExecuteInfoC1EPN6google8protobuf5ArenaE
libtensorflow_framework.so:_ZN10tensorflow27RemoteFusedGraphExecuteInfoC1ERKS0_
libtensorflow_framework.so:_ZN10tensorflow27RemoteFusedGraphExecuteInfoC1Ev
libtensorflow_framework.so:_ZN10tensorflow27RemoteFusedGraphExecuteInfoC2EPN6google8protobuf5ArenaE
libtensorflow_framework.so:_ZN10tensorflow27RemoteFusedGraphExecuteInfoC2ERKS0_
libtensorflow_framework.so:_ZN10tensorflow27RemoteFusedGraphExecuteInfoC2Ev
libtensorflow_framework.so:_ZN10tensorflow27RemoteFusedGraphExecuteInfoD0Ev
libtensorflow_framework.so:_ZN10tensorflow27RemoteFusedGraphExecuteInfoD1Ev
libtensorflow_framework.so:_ZN10tensorflow27RemoteFusedGraphExecuteInfoD2Ev
libtensorflow_framework.so:_ZN10tensorflow27RemoveDescriptionsFromOpDefEPNS_5OpDefE
libtensorflow_framework.so:_ZN10tensorflow27SingleExampleProtoToTensorsERKNS_7ExampleERKNSt7__cxx1112basic_stringIcSt11char_traitsIcESaIcEEEiRKSt6vectorINS_15FixedLenFeatureESaISC_EERKSB_INS_13VarLenFeatureESaISH_EEPSB_IPNS_6TensorESaISN_EEPSB_ISB_ISM_SaISM_EESaISS_EE
libtensorflow_framework.so:_ZN10tensorflow27StoreDatasetInVariantTensorEPNS_11DatasetBaseEPNS_6TensorE
libtensorflow_framework.so:_ZN10tensorflow27SummarizeDebugTensorWatchesB5cxx11ERKN6google8protobuf16RepeatedPtrFieldINS_16DebugTensorWatchEEE
libtensorflow_framework.so:_ZN10tensorflow27SupportedDeviceTypesForNodeERKSt6vectorINS_10DeviceTypeESaIS1_EERKNS_7NodeDefEPNS_3gtl13InlinedVectorIS1_Li4EEE
libtensorflow_framework.so:_ZN10tensorflow27ValidateKernelRegistrationsERKNS_19OpRegistryInterfaceE
libtensorflow_framework.so:_ZN10tensorflow28ApiDef_Visibility_descriptorEv
libtensorflow_framework.so:_ZN10tensorflow28CollectiveParamResolverLocal11InstanceRec12WaitForOutMuERNS_10mutex_lockE
libtensorflow_framework.so:_ZN10tensorflow28CollectiveParamResolverLocal14SetDefaultRankERKNSt7__cxx1112basic_stringIcSt11char_traitsIcESaIcEEEPNS_16CollectiveParamsE
libtensorflow_framework.so:_ZN10tensorflow28CollectiveParamResolverLocal15FindInstanceRecEPKNS0_8GroupRecEPNS_16CollectiveParamsERKSt8functionIFvRKNS_6StatusEPNS0_11InstanceRecEEE
libtensorflow_framework.so:_ZN10tensorflow28CollectiveParamResolverLocal18CallbackWithStatusERKSt8functionIFvRKNS_6StatusEPNS0_11InstanceRecEEES6_
libtensorflow_framework.so:_ZN10tensorflow28CollectiveParamResolverLocal18CompleteGroupAsyncEPKNS_20CompleteGroupRequestEPNS_21CompleteGroupResponseEPNS_19CancellationManagerERKSt8functionIFvRKNS_6StatusEEE
libtensorflow_framework.so:_ZN10tensorflow28CollectiveParamResolverLocal18CompleteGroupLocalERKNSt7__cxx1112basic_stringIcSt11char_traitsIcESaIcEEEPNS_16CollectiveParamsERKSt8functionIFvRKNS_6StatusEPKNS0_8GroupRecEEE
libtensorflow_framework.so:_ZN10tensorflow28CollectiveParamResolverLocal19CompleteParamsAsyncERKNSt7__cxx1112basic_stringIcSt11char_traitsIcESaIcEEEPNS_16CollectiveParamsEPNS_19CancellationManagerERKSt8functionIFvRKNS_6StatusEEE
libtensorflow_framework.so:_ZN10tensorflow28CollectiveParamResolverLocal19CompleteTaskIsLocalERKNSt7__cxx1112basic_stringIcSt11char_traitsIcESaIcEEEPNS_16CollectiveParamsE
libtensorflow_framework.so:_ZN10tensorflow28CollectiveParamResolverLocal19GenerateSubdivPermsERKNSt7__cxx1112basic_stringIcSt11char_traitsIcESaIcEEEiPNS_16CollectiveParamsE
libtensorflow_framework.so:_ZN10tensorflow28CollectiveParamResolverLocal21CompleteInstanceAsyncEPKNS_23CompleteInstanceRequestEPNS_24CompleteInstanceResponseEPNS_19CancellationManagerERKSt8functionIFvRKNS_6StatusEEE
libtensorflow_framework.so:_ZN10tensorflow28CollectiveParamResolverLocal21CompleteInstanceLocalERKNSt7__cxx1112basic_stringIcSt11char_traitsIcESaIcEEEPKNS0_8GroupRecEPNS_16CollectiveParamsEbRKSt8functionIFvRKNS_6StatusEEE
libtensorflow_framework.so:_ZN10tensorflow28CollectiveParamResolverLocal22CompleteDefaultRankingEPKNS0_8GroupRecEPKNS_16CollectiveParamsEPNS0_11InstanceRecERKSt6vectorINS_14DeviceLocalityESaISA_EE
libtensorflow_framework.so:_ZN10tensorflow28CollectiveParamResolverLocal22CompleteInstanceSourceEPNS0_11InstanceRecEPNS_16CollectiveParamsEbRKSt8functionIFvS2_EE
libtensorflow_framework.so:_ZN10tensorflow28CollectiveParamResolverLocal24InitInstanceSharedParamsEPKNS0_8GroupRecEPKNS_16CollectiveParamsEPNS0_11InstanceRecERKSt8functionIFvRKNS_6StatusEEE
libtensorflow_framework.so:_ZN10tensorflow28CollectiveParamResolverLocal28CallInitInstanceSharedParamsEPKNS0_8GroupRecEPKNS_16CollectiveParamsEPNS0_11InstanceRecERKSt8functionIFvRKNS_6StatusES8_EE
libtensorflow_framework.so:_ZN10tensorflow28CollectiveParamResolverLocal35CompleteInstanceFromInitializedIRecERKNSt7__cxx1112basic_stringIcSt11char_traitsIcESaIcEEEPKNS0_8GroupRecEPNS_16CollectiveParamsEPNS0_11InstanceRecEbRKSt8functionIFvRKNS_6StatusEEE
libtensorflow_framework.so:_ZN10tensorflow28CollectiveParamResolverLocalC1EPKNS_9DeviceMgrEPNS_23DeviceResolverInterfaceERKNSt7__cxx1112basic_stringIcSt11char_traitsIcESaIcEEE
libtensorflow_framework.so:_ZN10tensorflow28CollectiveParamResolverLocalC2EPKNS_9DeviceMgrEPNS_23DeviceResolverInterfaceERKNSt7__cxx1112basic_stringIcSt11char_traitsIcESaIcEEE
libtensorflow_framework.so:_ZN10tensorflow28CostGraphDef_Node_OutputInfo10SharedCtorEv
libtensorflow_framework.so:_ZN10tensorflow28CostGraphDef_Node_OutputInfo10SharedDtorEv
libtensorflow_framework.so:_ZN10tensorflow28CostGraphDef_Node_OutputInfo10descriptorEv
libtensorflow_framework.so:_ZN10tensorflow28CostGraphDef_Node_OutputInfo11clear_shapeEv
libtensorflow_framework.so:_ZN10tensorflow28CostGraphDef_Node_OutputInfo12InternalSwapEPS0_
libtensorflow_framework.so:_ZN10tensorflow28CostGraphDef_Node_OutputInfo15UnsafeArenaSwapEPS0_
libtensorflow_framework.so:_ZN10tensorflow28CostGraphDef_Node_OutputInfo16default_instanceEv
libtensorflow_framework.so:_ZN10tensorflow28CostGraphDef_Node_OutputInfo21InitAsDefaultInstanceEv
libtensorflow_framework.so:_ZN10tensorflow28CostGraphDef_Node_OutputInfo27MergePartialFromCodedStreamEPN6google8protobuf2io16CodedInputStreamE
libtensorflow_framework.so:_ZN10tensorflow28CostGraphDef_Node_OutputInfo32unsafe_arena_set_allocated_shapeEPNS_16TensorShapeProtoE
libtensorflow_framework.so:_ZN10tensorflow28CostGraphDef_Node_OutputInfo4SwapEPS0_
libtensorflow_framework.so:_ZN10tensorflow28CostGraphDef_Node_OutputInfo5ClearEv
libtensorflow_framework.so:_ZN10tensorflow28CostGraphDef_Node_OutputInfo8CopyFromERKN6google8protobuf7MessageE
libtensorflow_framework.so:_ZN10tensorflow28CostGraphDef_Node_OutputInfo8CopyFromERKS0_
libtensorflow_framework.so:_ZN10tensorflow28CostGraphDef_Node_OutputInfo9ArenaDtorEPv
libtensorflow_framework.so:_ZN10tensorflow28CostGraphDef_Node_OutputInfo9MergeFromERKN6google8protobuf7MessageE
libtensorflow_framework.so:_ZN10tensorflow28CostGraphDef_Node_OutputInfo9MergeFromERKS0_
libtensorflow_framework.so:_ZN10tensorflow28CostGraphDef_Node_OutputInfoC1EPN6google8protobuf5ArenaE
libtensorflow_framework.so:_ZN10tensorflow28CostGraphDef_Node_OutputInfoC1ERKS0_
libtensorflow_framework.so:_ZN10tensorflow28CostGraphDef_Node_OutputInfoC1Ev
libtensorflow_framework.so:_ZN10tensorflow28CostGraphDef_Node_OutputInfoC2EPN6google8protobuf5ArenaE
libtensorflow_framework.so:_ZN10tensorflow28CostGraphDef_Node_OutputInfoC2ERKS0_
libtensorflow_framework.so:_ZN10tensorflow28CostGraphDef_Node_OutputInfoC2Ev
libtensorflow_framework.so:_ZN10tensorflow28CostGraphDef_Node_OutputInfoD0Ev
libtensorflow_framework.so:_ZN10tensorflow28CostGraphDef_Node_OutputInfoD1Ev
libtensorflow_framework.so:_ZN10tensorflow28CostGraphDef_Node_OutputInfoD2Ev
libtensorflow_framework.so:_ZN10tensorflow28DoQuantizeTrainingOnGraphDefERKNS_8GraphDefEiRKNSt7__cxx1112basic_stringIcSt11char_traitsIcESaIcEEEPS0_
libtensorflow_framework.so:_ZN10tensorflow28GetWindowedOutputSizeVerboseExxxNS_7PaddingEPxS1_S1_
libtensorflow_framework.so:_ZN10tensorflow28MemmappedFileSystemDirectory10SharedCtorEv
libtensorflow_framework.so:_ZN10tensorflow28MemmappedFileSystemDirectory10SharedDtorEv
libtensorflow_framework.so:_ZN10tensorflow28MemmappedFileSystemDirectory10descriptorEv
libtensorflow_framework.so:_ZN10tensorflow28MemmappedFileSystemDirectory12InternalSwapEPS0_
libtensorflow_framework.so:_ZN10tensorflow28MemmappedFileSystemDirectory15UnsafeArenaSwapEPS0_
libtensorflow_framework.so:_ZN10tensorflow28MemmappedFileSystemDirectory16default_instanceEv
libtensorflow_framework.so:_ZN10tensorflow28MemmappedFileSystemDirectory21InitAsDefaultInstanceEv
libtensorflow_framework.so:_ZN10tensorflow28MemmappedFileSystemDirectory27MergePartialFromCodedStreamEPN6google8protobuf2io16CodedInputStreamE
libtensorflow_framework.so:_ZN10tensorflow28MemmappedFileSystemDirectory4SwapEPS0_
libtensorflow_framework.so:_ZN10tensorflow28MemmappedFileSystemDirectory5ClearEv
libtensorflow_framework.so:_ZN10tensorflow28MemmappedFileSystemDirectory8CopyFromERKN6google8protobuf7MessageE
libtensorflow_framework.so:_ZN10tensorflow28MemmappedFileSystemDirectory8CopyFromERKS0_
libtensorflow_framework.so:_ZN10tensorflow28MemmappedFileSystemDirectory9ArenaDtorEPv
libtensorflow_framework.so:_ZN10tensorflow28MemmappedFileSystemDirectory9MergeFromERKN6google8protobuf7MessageE
libtensorflow_framework.so:_ZN10tensorflow28MemmappedFileSystemDirectory9MergeFromERKS0_
libtensorflow_framework.so:_ZN10tensorflow28MemmappedFileSystemDirectoryC1EPN6google8protobuf5ArenaE
libtensorflow_framework.so:_ZN10tensorflow28MemmappedFileSystemDirectoryC1ERKS0_
libtensorflow_framework.so:_ZN10tensorflow28MemmappedFileSystemDirectoryC1Ev
libtensorflow_framework.so:_ZN10tensorflow28MemmappedFileSystemDirectoryC2EPN6google8protobuf5ArenaE
libtensorflow_framework.so:_ZN10tensorflow28MemmappedFileSystemDirectoryC2ERKS0_
libtensorflow_framework.so:_ZN10tensorflow28MemmappedFileSystemDirectoryC2Ev
libtensorflow_framework.so:_ZN10tensorflow28MemmappedFileSystemDirectoryD0Ev
libtensorflow_framework.so:_ZN10tensorflow28MemmappedFileSystemDirectoryD1Ev
libtensorflow_framework.so:_ZN10tensorflow28MemmappedFileSystemDirectoryD2Ev
libtensorflow_framework.so:_ZN10tensorflow28RemoveDescriptionsFromOpListEPNS_6OpListE
libtensorflow_framework.so:_ZN10tensorflow28SchedNonBlockingClosureAfterExSt8functionIFvvEE
libtensorflow_framework.so:_ZN10tensorflow29CudaSupportsHalfMatMulAndConvEv
libtensorflow_framework.so:_ZN10tensorflow29FunctionDef_RetEntry_DoNotUse9MergeFromERKN6google8protobuf7MessageE
libtensorflow_framework.so:_ZN10tensorflow29FunctionDef_RetEntry_DoNotUse9MergeFromERKS0_
libtensorflow_framework.so:_ZN10tensorflow29FunctionDef_RetEntry_DoNotUseC1EPN6google8protobuf5ArenaE
libtensorflow_framework.so:_ZN10tensorflow29FunctionDef_RetEntry_DoNotUseC1Ev
libtensorflow_framework.so:_ZN10tensorflow29FunctionDef_RetEntry_DoNotUseC2EPN6google8protobuf5ArenaE
